
kernel:     file format elf64-littleriscv


Disassembly of section .text:

0000000080000000 <_entry>:
    80000000:	00011117          	auipc	sp,0x11
    80000004:	05013103          	ld	sp,80(sp) # 80011050 <_GLOBAL_OFFSET_TABLE_+0x50>
    80000008:	00001537          	lui	a0,0x1
    8000000c:	f14025f3          	csrr	a1,mhartid
    80000010:	00158593          	addi	a1,a1,1
    80000014:	02b50533          	mul	a0,a0,a1
    80000018:	00a10133          	add	sp,sp,a0
    8000001c:	138080ef          	jal	ra,80008154 <start>

0000000080000020 <spin>:
    80000020:	0000006f          	j	80000020 <spin>
	...

0000000080001000 <_ZN5_SBIT9SIEenableEv>:
.global _ZN5_SBIT6SUMsetEv
.global _ZN5_SBIT7SATPsetEm


_ZN5_SBIT9SIEenableEv:
csrs sstatus, 0x2
    80001000:	10016073          	csrsi	sstatus,2
ret
    80001004:	00008067          	ret

0000000080001008 <_ZN5_SBIT10SIEdisableEv>:

_ZN5_SBIT10SIEdisableEv:
csrc sstatus, 0x2
    80001008:	10017073          	csrci	sstatus,2
ret
    8000100c:	00008067          	ret

0000000080001010 <_ZN5_SBIT11SPIEdisableEv>:

_ZN5_SBIT11SPIEdisableEv:
csrw sscratch, t0
    80001010:	14029073          	csrw	sscratch,t0
li t0, 0x20
    80001014:	02000293          	li	t0,32
csrc sstatus, t0
    80001018:	1002b073          	csrc	sstatus,t0
csrr t0, sscratch
    8000101c:	140022f3          	csrr	t0,sscratch
ret
    80001020:	00008067          	ret

0000000080001024 <_ZN5_SBIT10SPIEenableEv>:

_ZN5_SBIT10SPIEenableEv:
csrw sscratch, t0
    80001024:	14029073          	csrw	sscratch,t0
li t0, 0x20
    80001028:	02000293          	li	t0,32
csrs sstatus, t0
    8000102c:	1002a073          	csrs	sstatus,t0
csrr t0, sscratch
    80001030:	140022f3          	csrr	t0,sscratch
ret
    80001034:	00008067          	ret

0000000080001038 <_ZN5_SBIT10SEIEenableEv>:

_ZN5_SBIT10SEIEenableEv:
csrw sscratch, t0
    80001038:	14029073          	csrw	sscratch,t0
li t0, 0x200
    8000103c:	20000293          	li	t0,512
csrs sie, t0
    80001040:	1042a073          	csrs	sie,t0
csrr t0, sscratch
    80001044:	140022f3          	csrr	t0,sscratch
ret
    80001048:	00008067          	ret

000000008000104c <_ZN5_SBIT11SEIEdisableEv>:

_ZN5_SBIT11SEIEdisableEv:
csrw sscratch, t0
    8000104c:	14029073          	csrw	sscratch,t0
li t0, 0x200
    80001050:	20000293          	li	t0,512
csrc sie, t0
    80001054:	1042b073          	csrc	sie,t0
csrr t0, sscratch
    80001058:	140022f3          	csrr	t0,sscratch
ret
    8000105c:	00008067          	ret

0000000080001060 <_ZN5_SBIT10SSIEenableEv>:

_ZN5_SBIT10SSIEenableEv:
csrs sie, 0x2
    80001060:	10416073          	csrsi	sie,2
ret
    80001064:	00008067          	ret

0000000080001068 <_ZN5_SBIT11SSIEdisableEv>:

_ZN5_SBIT11SSIEdisableEv:
csrc sie, 0x2
    80001068:	10417073          	csrci	sie,2
ret
    8000106c:	00008067          	ret

0000000080001070 <_ZN5_SBIT8SSPclearEv>:

_ZN5_SBIT8SSPclearEv:
csrw sscratch, t0
    80001070:	14029073          	csrw	sscratch,t0
li t0, 0x100
    80001074:	10000293          	li	t0,256
csrc sstatus, t0
    80001078:	1002b073          	csrc	sstatus,t0
csrr t0, sscratch
    8000107c:	140022f3          	csrr	t0,sscratch
ret
    80001080:	00008067          	ret

0000000080001084 <_ZN5_SBIT9SIP1clearEv>:

_ZN5_SBIT9SIP1clearEv:
csrc sip, 0x2
    80001084:	14417073          	csrci	sip,2
ret
    80001088:	00008067          	ret

000000008000108c <_ZN5_SBIT7SIP1setEv>:

_ZN5_SBIT7SIP1setEv:
csrs sip, 0x2
    8000108c:	14416073          	csrsi	sip,2
ret
    80001090:	00008067          	ret

0000000080001094 <_ZN5_SBIT9SIP9clearEv>:

_ZN5_SBIT9SIP9clearEv:
csrw sscratch, t0
    80001094:	14029073          	csrw	sscratch,t0
li t0, 0x200
    80001098:	20000293          	li	t0,512
csrc sip, t0
    8000109c:	1442b073          	csrc	sip,t0
csrr t0, sscratch
    800010a0:	140022f3          	csrr	t0,sscratch
ret
    800010a4:	00008067          	ret

00000000800010a8 <_ZN5_SBIT7SIP9setEv>:

_ZN5_SBIT7SIP9setEv:
csrw sscratch, t0
    800010a8:	14029073          	csrw	sscratch,t0
li t0, 0x200
    800010ac:	20000293          	li	t0,512
csrs sip, t0
    800010b0:	1442a073          	csrs	sip,t0
csrr t0, sscratch
    800010b4:	140022f3          	csrr	t0,sscratch
ret
    800010b8:	00008067          	ret

00000000800010bc <_ZN5_SBIT6SUMsetEv>:

_ZN5_SBIT6SUMsetEv:
csrw sscratch, t0
    800010bc:	14029073          	csrw	sscratch,t0
li t0, 0x40000
    800010c0:	000402b7          	lui	t0,0x40
csrs sstatus, t0
    800010c4:	1002a073          	csrs	sstatus,t0
csrr t0, sscratch
    800010c8:	140022f3          	csrr	t0,sscratch
ret
    800010cc:	00008067          	ret

00000000800010d0 <_ZN5_SBIT7SATPsetEm>:

_ZN5_SBIT7SATPsetEm:
csrs satp, a0
    800010d0:	18052073          	csrs	satp,a0
    800010d4:	00008067          	ret

00000000800010d8 <_ZN7_Thread15thread_dispatchEv>:
.global _ZN7_Thread15thread_dispatchEv
.global _ZN7_Thread7starterEv
.global _ZN7_Thread8sstarterEv

_ZN7_Thread15thread_dispatchEv:
addi sp, sp, -272
    800010d8:	ef010113          	addi	sp,sp,-272
sd x1, 264(sp)
    800010dc:	10113423          	sd	ra,264(sp)
sd x2, 256(sp)
    800010e0:	10213023          	sd	sp,256(sp)
sd x3, 248(sp)
    800010e4:	0e313c23          	sd	gp,248(sp)
sd x4, 240(sp)
    800010e8:	0e413823          	sd	tp,240(sp)
sd x5, 232(sp)
    800010ec:	0e513423          	sd	t0,232(sp)
sd x6, 224(sp)
    800010f0:	0e613023          	sd	t1,224(sp)
sd x7, 216(sp)
    800010f4:	0c713c23          	sd	t2,216(sp)
sd x8, 208(sp)
    800010f8:	0c813823          	sd	s0,208(sp)
sd x9, 200(sp)
    800010fc:	0c913423          	sd	s1,200(sp)
sd x10, 192(sp)
    80001100:	0ca13023          	sd	a0,192(sp)
sd x11, 184(sp)
    80001104:	0ab13c23          	sd	a1,184(sp)
sd x12, 176(sp)
    80001108:	0ac13823          	sd	a2,176(sp)
sd x13, 168(sp)
    8000110c:	0ad13423          	sd	a3,168(sp)
sd x14, 160(sp)
    80001110:	0ae13023          	sd	a4,160(sp)
sd x15, 152(sp)
    80001114:	08f13c23          	sd	a5,152(sp)
sd x16, 144(sp)
    80001118:	09013823          	sd	a6,144(sp)
sd x17, 136(sp)
    8000111c:	09113423          	sd	a7,136(sp)
sd x18, 128(sp)
    80001120:	09213023          	sd	s2,128(sp)
sd x19, 120(sp)
    80001124:	07313c23          	sd	s3,120(sp)
sd x20, 112(sp)
    80001128:	07413823          	sd	s4,112(sp)
sd x21, 104(sp)
    8000112c:	07513423          	sd	s5,104(sp)
sd x22, 96(sp)
    80001130:	07613023          	sd	s6,96(sp)
sd x23, 88(sp)
    80001134:	05713c23          	sd	s7,88(sp)
sd x24, 80(sp)
    80001138:	05813823          	sd	s8,80(sp)
sd x25, 72(sp)
    8000113c:	05913423          	sd	s9,72(sp)
sd x26, 64(sp)
    80001140:	05a13023          	sd	s10,64(sp)
sd x27, 56(sp)
    80001144:	03b13c23          	sd	s11,56(sp)
sd x28, 48(sp)
    80001148:	03c13823          	sd	t3,48(sp)
sd x29, 40(sp)
    8000114c:	03d13423          	sd	t4,40(sp)
sd x30, 32(sp)
    80001150:	03e13023          	sd	t5,32(sp)
sd x31, 24(sp)
    80001154:	01f13c23          	sd	t6,24(sp)
csrr s0, sstatus
    80001158:	10002473          	csrr	s0,sstatus
sd s0, 16(sp)
    8000115c:	00813823          	sd	s0,16(sp)
csrr s0, sepc
    80001160:	14102473          	csrr	s0,sepc
sd s0, 8(sp)
    80001164:	00813423          	sd	s0,8(sp)
csrr s0, scause
    80001168:	14202473          	csrr	s0,scause
sd s0, 0(sp)
    8000116c:	00813023          	sd	s0,0(sp)
la s0, _ZN7_Thread7runningE #ucitam u s0 adresu _running promenljive
    80001170:	0000f417          	auipc	s0,0xf
    80001174:	8f040413          	addi	s0,s0,-1808 # 8000fa60 <_ZN7_Thread7runningE>
ld s0, 0(s0) #zatim procitam pokazivac sa te adrese i smestim isto u s0
    80001178:	00043403          	ld	s0,0(s0)
sd sp, 8(s0) #cuvam sp (ssp)
    8000117c:	00243423          	sd	sp,8(s0)
call yield
    80001180:	0b0000ef          	jal	ra,80001230 <yield>
la s0, _ZN7_Thread7runningE
    80001184:	0000f417          	auipc	s0,0xf
    80001188:	8dc40413          	addi	s0,s0,-1828 # 8000fa60 <_ZN7_Thread7runningE>
ld s0, 0(s0)
    8000118c:	00043403          	ld	s0,0(s0)
ld sp, 8(s0)
    80001190:	00843103          	ld	sp,8(s0)
ld s0, 16(sp)
    80001194:	01013403          	ld	s0,16(sp)
csrw sstatus, s0
    80001198:	10041073          	csrw	sstatus,s0
ld s0, 8(sp)
    8000119c:	00813403          	ld	s0,8(sp)
csrw sepc, s0
    800011a0:	14141073          	csrw	sepc,s0
ld s0, 0(sp)
    800011a4:	00013403          	ld	s0,0(sp)
csrw scause, s0
    800011a8:	14241073          	csrw	scause,s0
ld x1, 264(sp)
    800011ac:	10813083          	ld	ra,264(sp)
ld x2, 256(sp)
    800011b0:	10013103          	ld	sp,256(sp)
ld x3, 248(sp)
    800011b4:	0f813183          	ld	gp,248(sp)
ld x4, 240(sp)
    800011b8:	0f013203          	ld	tp,240(sp)
ld x5, 232(sp)
    800011bc:	0e813283          	ld	t0,232(sp)
ld x6, 224(sp)
    800011c0:	0e013303          	ld	t1,224(sp)
ld x7, 216(sp)
    800011c4:	0d813383          	ld	t2,216(sp)
ld x8, 208(sp)
    800011c8:	0d013403          	ld	s0,208(sp)
ld x9, 200(sp)
    800011cc:	0c813483          	ld	s1,200(sp)
ld x10, 192(sp)
    800011d0:	0c013503          	ld	a0,192(sp)
ld x11, 184(sp)
    800011d4:	0b813583          	ld	a1,184(sp)
ld x12, 176(sp)
    800011d8:	0b013603          	ld	a2,176(sp)
ld x13, 168(sp)
    800011dc:	0a813683          	ld	a3,168(sp)
ld x14, 160(sp)
    800011e0:	0a013703          	ld	a4,160(sp)
ld x15, 152(sp)
    800011e4:	09813783          	ld	a5,152(sp)
ld x16, 144(sp)
    800011e8:	09013803          	ld	a6,144(sp)
ld x17, 136(sp)
    800011ec:	08813883          	ld	a7,136(sp)
ld x18, 128(sp)
    800011f0:	08013903          	ld	s2,128(sp)
ld x19, 120(sp)
    800011f4:	07813983          	ld	s3,120(sp)
ld x20, 112(sp)
    800011f8:	07013a03          	ld	s4,112(sp)
ld x21, 104(sp)
    800011fc:	06813a83          	ld	s5,104(sp)
ld x22, 96(sp)
    80001200:	06013b03          	ld	s6,96(sp)
ld x23, 88(sp)
    80001204:	05813b83          	ld	s7,88(sp)
ld x24, 80(sp)
    80001208:	05013c03          	ld	s8,80(sp)
ld x25, 72(sp)
    8000120c:	04813c83          	ld	s9,72(sp)
ld x26, 64(sp)
    80001210:	04013d03          	ld	s10,64(sp)
ld x27, 56(sp)
    80001214:	03813d83          	ld	s11,56(sp)
ld x28, 48(sp)
    80001218:	03013e03          	ld	t3,48(sp)
ld x29, 40(sp)
    8000121c:	02813e83          	ld	t4,40(sp)
ld x30, 32(sp)
    80001220:	02013f03          	ld	t5,32(sp)
ld x31, 24(sp)
    80001224:	01813f83          	ld	t6,24(sp)
addi sp, sp, 272
    80001228:	11010113          	addi	sp,sp,272
ret
    8000122c:	00008067          	ret

0000000080001230 <yield>:

yield:
sd ra, 32(s0) #cuvam pc koji pokazuje na nastavak thread_dispatch funkcije
    80001230:	02143023          	sd	ra,32(s0)
call _ZN10_Scheduler3getEv
    80001234:	46c000ef          	jal	ra,800016a0 <_ZN10_Scheduler3getEv>
la s0, _ZN7_Thread7runningE #ucitam u s0 adresu running promenljive
    80001238:	0000f417          	auipc	s0,0xf
    8000123c:	82840413          	addi	s0,s0,-2008 # 8000fa60 <_ZN7_Thread7runningE>
ld s0, 0(s0) #zatim procitam pokazivac sa te adrese i smestim isto u s0
    80001240:	00043403          	ld	s0,0(s0)
ld ra, 32(s0) #u ra upisuje pc iz pcb-a
    80001244:	02043083          	ld	ra,32(s0)
ret
    80001248:	00008067          	ret

000000008000124c <_ZN7_Thread7starterEv>:

_ZN7_Thread7starterEv:
li t0, 0x100
    8000124c:	10000293          	li	t0,256
csrc sstatus, t0 #resetujem ssp
    80001250:	1002b073          	csrc	sstatus,t0
la t0, _ZN7_Thread7runningE
    80001254:	0000f297          	auipc	t0,0xf
    80001258:	80c28293          	addi	t0,t0,-2036 # 8000fa60 <_ZN7_Thread7runningE>
ld t0, 0(t0)
    8000125c:	0002b283          	ld	t0,0(t0)
ld sp, 8(t0)
    80001260:	0082b103          	ld	sp,8(t0)
ld t1, -8(sp) #f
    80001264:	ff813303          	ld	t1,-8(sp)
csrw sepc, t1
    80001268:	14131073          	csrw	sepc,t1
ld a0, -16(sp)
    8000126c:	ff013503          	ld	a0,-16(sp)
la ra, _Z11thread_exitPv
    80001270:	00010097          	auipc	ra,0x10
    80001274:	0b408093          	addi	ra,ra,180 # 80011324 <_Z11thread_exitPv>
ld sp, 0(t0)
    80001278:	0002b103          	ld	sp,0(t0)
sret
    8000127c:	10200073          	sret

0000000080001280 <_ZN7_Thread8sstarterEv>:

_ZN7_Thread8sstarterEv:
li t0, 0x20
    80001280:	02000293          	li	t0,32
csrs sstatus, t0 #kad skocim na f-ju BICE dozvoljeni prekidi
    80001284:	1002a073          	csrs	sstatus,t0
#promena koju sam napravio kako bi se mogle praviti sistemske niti koje ce moci da pozivaju preko CAPI usluge, zbog OS2
li t0, 0x100
    80001288:	10000293          	li	t0,256
csrs sstatus, t0 #da bih se vratio opet u sistemski rezim
    8000128c:	1002a073          	csrs	sstatus,t0
la t0, _ZN7_Thread7runningE
    80001290:	0000e297          	auipc	t0,0xe
    80001294:	7d028293          	addi	t0,t0,2000 # 8000fa60 <_ZN7_Thread7runningE>
ld t0, 0(t0)
    80001298:	0002b283          	ld	t0,0(t0)
ld sp, 8(t0)
    8000129c:	0082b103          	ld	sp,8(t0)
ld t1, -8(sp) #f
    800012a0:	ff813303          	ld	t1,-8(sp)
csrw sepc, t1
    800012a4:	14131073          	csrw	sepc,t1
ld a0, -16(sp)
    800012a8:	ff013503          	ld	a0,-16(sp)
la ra, _ZN7_Thread4exitEPv
    800012ac:	00004097          	auipc	ra,0x4
    800012b0:	9ac08093          	addi	ra,ra,-1620 # 80004c58 <_ZN7_Thread4exitEPv>
    800012b4:	10200073          	sret

00000000800012b8 <trap>:
.extern _ZN7_Thread7runningE

.global trap

trap:
csrw sscratch, t0 #koristicu t0, pa ga pamtim u sscratch
    800012b8:	14029073          	csrw	sscratch,t0
csrr t0, sstatus #citam sstatus da bih proverio ssp bit
    800012bc:	100022f3          	csrr	t0,sstatus
#ako SSP 0 to znaci da sam prekinuo glavni proces, ako je 1 to znaci da sam prekinuo obradu softverskog prekida
andi t0, t0, 0x100
    800012c0:	1002f293          	andi	t0,t0,256
bne t0, zero, else
    800012c4:	00029c63          	bnez	t0,800012dc <else>
#promena steka, jer smo presli iz korisnickog u privilegovani rezim
la t0, _ZN7_Thread7runningE #ucitam u t0 adresu _running promenljive
    800012c8:	0000e297          	auipc	t0,0xe
    800012cc:	79828293          	addi	t0,t0,1944 # 8000fa60 <_ZN7_Thread7runningE>
ld t0, 0(t0) #zatim procitam pokazivac sa te adrese i smestim isto u t0
    800012d0:	0002b283          	ld	t0,0(t0)
sd sp, 0(t0) #cuvam sp u pcb
    800012d4:	0022b023          	sd	sp,0(t0)
ld sp, 8(t0) #ucitavam ssp iz pcb-a
    800012d8:	0082b103          	ld	sp,8(t0)

00000000800012dc <else>:

else:
csrr t0, sscratch
    800012dc:	140022f3          	csrr	t0,sscratch
addi sp, sp, -176 #stavljam sve registre na stek (osim zero i sp)
    800012e0:	f5010113          	addi	sp,sp,-176
sd t0, 152(sp)
    800012e4:	08513c23          	sd	t0,152(sp)
sd t1, 144(sp)
    800012e8:	08613823          	sd	t1,144(sp)
sd t2, 136(sp)
    800012ec:	08713423          	sd	t2,136(sp)
sd t3, 128(sp)
    800012f0:	09c13023          	sd	t3,128(sp)
sd t4, 120(sp)
    800012f4:	07d13c23          	sd	t4,120(sp)
sd t5, 112(sp)
    800012f8:	07e13823          	sd	t5,112(sp)
sd t6, 104(sp)
    800012fc:	07f13423          	sd	t6,104(sp)
sd a1, 96(sp)
    80001300:	06b13023          	sd	a1,96(sp)
sd a2, 88(sp)
    80001304:	04c13c23          	sd	a2,88(sp)
sd a3, 80(sp)
    80001308:	04d13823          	sd	a3,80(sp)
sd a4, 72(sp)
    8000130c:	04e13423          	sd	a4,72(sp)
sd a5, 64(sp)
    80001310:	04f13023          	sd	a5,64(sp)
sd a6, 56(sp)
    80001314:	03013c23          	sd	a6,56(sp)
sd a7, 48(sp)
    80001318:	03113823          	sd	a7,48(sp)
sd tp, 40(sp)
    8000131c:	02413423          	sd	tp,40(sp)
sd gp, 32(sp)
    80001320:	02313023          	sd	gp,32(sp)
sd ra, 24(sp)
    80001324:	00113c23          	sd	ra,24(sp)
sd a0, 16(sp)
    80001328:	00a13823          	sd	a0,16(sp)
csrr t0, scause
    8000132c:	142022f3          	csrr	t0,scause
sd t0, 8(sp)
    80001330:	00513423          	sd	t0,8(sp)
csrr t1, sepc
    80001334:	14102373          	csrr	t1,sepc
#ako je ecall ili ecall2 onda moram da povecam sepc za 4
xori t2, t0, 0x08
    80001338:	0082c393          	xori	t2,t0,8
beq t2, zero, incsepc
    8000133c:	00038663          	beqz	t2,80001348 <incsepc>
xori t2, t0, 0x09
    80001340:	0092c393          	xori	t2,t0,9
bne t2, zero, else5
    80001344:	00039463          	bnez	t2,8000134c <else5>

0000000080001348 <incsepc>:
incsepc:
addi t1, t1, 0x04
    80001348:	00430313          	addi	t1,t1,4

000000008000134c <else5>:
else5:
sd t1, 0(sp)
    8000134c:	00613023          	sd	t1,0(sp)
#
csrr t0, sstatus
    80001350:	100022f3          	csrr	t0,sstatus
sd t0, 160(sp)
    80001354:	0a513023          	sd	t0,160(sp)

#sto se tice s0-11 registara, njihovu vrednost ce cuvati prevodilac unutar funckije handle i drugih funkcija

#cuvam scause i sepc, zato sto moze da dodje do ugnezdjenog prekida

call _Z7_handlemmmmmmmm
    80001358:	3ec000ef          	jal	ra,80001744 <_Z7_handlemmmmmmmm>

#
ld t0, 160(sp)
    8000135c:	0a013283          	ld	t0,160(sp)
csrw sstatus, t0
    80001360:	10029073          	csrw	sstatus,t0
#
ld t0, 0(sp)
    80001364:	00013283          	ld	t0,0(sp)
csrw sepc, t0
    80001368:	14129073          	csrw	sepc,t0
ld t0, 8(sp)
    8000136c:	00813283          	ld	t0,8(sp)
csrw scause, t0
    80001370:	14229073          	csrw	scause,t0
#ako je ecall ili ecall2 onda ne menjam a0 jer se tu prenosi povratna vrednost
xori t1, t0, 0x08
    80001374:	0082c313          	xori	t1,t0,8
beq t1, zero, else2
    80001378:	00030863          	beqz	t1,80001388 <else2>
xori t1, t0, 0x09
    8000137c:	0092c313          	xori	t1,t0,9
beq t1, zero, else2
    80001380:	00030463          	beqz	t1,80001388 <else2>
ld a0, 16(sp)
    80001384:	01013503          	ld	a0,16(sp)

0000000080001388 <else2>:
else2:
ld t0, 152(sp)
    80001388:	09813283          	ld	t0,152(sp)
ld t1, 144(sp)
    8000138c:	09013303          	ld	t1,144(sp)
ld t2, 136(sp)
    80001390:	08813383          	ld	t2,136(sp)
ld t3, 128(sp)
    80001394:	08013e03          	ld	t3,128(sp)
ld t4, 120(sp)
    80001398:	07813e83          	ld	t4,120(sp)
ld t5, 112(sp)
    8000139c:	07013f03          	ld	t5,112(sp)
ld t6, 104(sp)
    800013a0:	06813f83          	ld	t6,104(sp)
ld a1, 96(sp)
    800013a4:	06013583          	ld	a1,96(sp)
ld a2, 88(sp)
    800013a8:	05813603          	ld	a2,88(sp)
ld a3, 80(sp)
    800013ac:	05013683          	ld	a3,80(sp)
ld a4, 72(sp)
    800013b0:	04813703          	ld	a4,72(sp)
ld a5, 64(sp)
    800013b4:	04013783          	ld	a5,64(sp)
ld a6, 56(sp)
    800013b8:	03813803          	ld	a6,56(sp)
ld a7, 48(sp)
    800013bc:	03013883          	ld	a7,48(sp)
ld tp, 40(sp)
    800013c0:	02813203          	ld	tp,40(sp)
ld gp, 32(sp)
    800013c4:	02013183          	ld	gp,32(sp)
ld ra, 24(sp)
    800013c8:	01813083          	ld	ra,24(sp)
addi sp, sp, 176
    800013cc:	0b010113          	addi	sp,sp,176

csrw sscratch, t0
    800013d0:	14029073          	csrw	sscratch,t0
csrr t0, sstatus
    800013d4:	100022f3          	csrr	t0,sstatus
andi t0, t0, 0x100
    800013d8:	1002f293          	andi	t0,t0,256
bne t0, zero, else3
    800013dc:	00029c63          	bnez	t0,800013f4 <else3>
#promena steka
la t0, _ZN7_Thread7runningE #ucitam u t0 adresu _running promenljive
    800013e0:	0000e297          	auipc	t0,0xe
    800013e4:	68028293          	addi	t0,t0,1664 # 8000fa60 <_ZN7_Thread7runningE>
ld t0, 0(t0) #zatim procitam pokazivac sa te adrese i smestim isto u t0
    800013e8:	0002b283          	ld	t0,0(t0)
sd sp, 8(t0)
    800013ec:	0022b423          	sd	sp,8(t0)
ld sp, 0(t0)
    800013f0:	0002b103          	ld	sp,0(t0)

00000000800013f4 <else3>:

else3:
csrr t0, sscratch
    800013f4:	140022f3          	csrr	t0,sscratch
    800013f8:	10200073          	sret

00000000800013fc <_Z9kmem_initPvi>:
//

#include "../h/_slab.h"
#include "../h/_SlabAllocator.h"

void kmem_init(void *space, int block_num) {
    800013fc:	ff010113          	addi	sp,sp,-16
    80001400:	00113423          	sd	ra,8(sp)
    80001404:	00813023          	sd	s0,0(sp)
    80001408:	01010413          	addi	s0,sp,16
    kmem_cache_t::kmem_init(space, block_num);
    8000140c:	00002097          	auipc	ra,0x2
    80001410:	cac080e7          	jalr	-852(ra) # 800030b8 <_ZN12kmem_cache_t9kmem_initEPvi>
}
    80001414:	00813083          	ld	ra,8(sp)
    80001418:	00013403          	ld	s0,0(sp)
    8000141c:	01010113          	addi	sp,sp,16
    80001420:	00008067          	ret

0000000080001424 <_Z17kmem_cache_createPKcmPFvPvES3_>:
kmem_cache_t *kmem_cache_create(const char *name, size_t size, void (*ctor)(void *), void (*dtor)(void *)) {
    80001424:	ff010113          	addi	sp,sp,-16
    80001428:	00113423          	sd	ra,8(sp)
    8000142c:	00813023          	sd	s0,0(sp)
    80001430:	01010413          	addi	s0,sp,16
    return kmem_cache_t::kmem_cache_create(name, size, ctor, dtor);
    80001434:	00002097          	auipc	ra,0x2
    80001438:	cf8080e7          	jalr	-776(ra) # 8000312c <_ZN12kmem_cache_t17kmem_cache_createEPKcmPFvPvES4_>
}
    8000143c:	00813083          	ld	ra,8(sp)
    80001440:	00013403          	ld	s0,0(sp)
    80001444:	01010113          	addi	sp,sp,16
    80001448:	00008067          	ret

000000008000144c <_Z17kmem_cache_shrinkP12kmem_cache_t>:
int kmem_cache_shrink(kmem_cache_t *cachep) {
    8000144c:	ff010113          	addi	sp,sp,-16
    80001450:	00113423          	sd	ra,8(sp)
    80001454:	00813023          	sd	s0,0(sp)
    80001458:	01010413          	addi	s0,sp,16
    return kmem_cache_t::kmem_cache_shrink(cachep);
    8000145c:	00002097          	auipc	ra,0x2
    80001460:	d68080e7          	jalr	-664(ra) # 800031c4 <_ZN12kmem_cache_t17kmem_cache_shrinkEPS_>
}
    80001464:	00813083          	ld	ra,8(sp)
    80001468:	00013403          	ld	s0,0(sp)
    8000146c:	01010113          	addi	sp,sp,16
    80001470:	00008067          	ret

0000000080001474 <_Z16kmem_cache_allocP12kmem_cache_t>:
void* kmem_cache_alloc(kmem_cache_t *cachep) {
    80001474:	ff010113          	addi	sp,sp,-16
    80001478:	00113423          	sd	ra,8(sp)
    8000147c:	00813023          	sd	s0,0(sp)
    80001480:	01010413          	addi	s0,sp,16
    return kmem_cache_t::kmem_cache_alloc(cachep);
    80001484:	00002097          	auipc	ra,0x2
    80001488:	d68080e7          	jalr	-664(ra) # 800031ec <_ZN12kmem_cache_t16kmem_cache_allocEPS_>
}
    8000148c:	00813083          	ld	ra,8(sp)
    80001490:	00013403          	ld	s0,0(sp)
    80001494:	01010113          	addi	sp,sp,16
    80001498:	00008067          	ret

000000008000149c <_Z15kmem_cache_freeP12kmem_cache_tPv>:
void kmem_cache_free(kmem_cache_t *cachep, void *objp) {
    8000149c:	ff010113          	addi	sp,sp,-16
    800014a0:	00113423          	sd	ra,8(sp)
    800014a4:	00813023          	sd	s0,0(sp)
    800014a8:	01010413          	addi	s0,sp,16
    kmem_cache_t::kmem_cache_free(cachep, objp);
    800014ac:	00002097          	auipc	ra,0x2
    800014b0:	d68080e7          	jalr	-664(ra) # 80003214 <_ZN12kmem_cache_t15kmem_cache_freeEPS_Pv>
}
    800014b4:	00813083          	ld	ra,8(sp)
    800014b8:	00013403          	ld	s0,0(sp)
    800014bc:	01010113          	addi	sp,sp,16
    800014c0:	00008067          	ret

00000000800014c4 <_Z7kmallocm>:
void* kmalloc(size_t size) {
    800014c4:	ff010113          	addi	sp,sp,-16
    800014c8:	00113423          	sd	ra,8(sp)
    800014cc:	00813023          	sd	s0,0(sp)
    800014d0:	01010413          	addi	s0,sp,16
    return kmem_cache_t::kmalloc(size);
    800014d4:	00002097          	auipc	ra,0x2
    800014d8:	d68080e7          	jalr	-664(ra) # 8000323c <_ZN12kmem_cache_t7kmallocEm>
}
    800014dc:	00813083          	ld	ra,8(sp)
    800014e0:	00013403          	ld	s0,0(sp)
    800014e4:	01010113          	addi	sp,sp,16
    800014e8:	00008067          	ret

00000000800014ec <_Z5kfreePKv>:
void kfree(const void *objp) {
    800014ec:	ff010113          	addi	sp,sp,-16
    800014f0:	00113423          	sd	ra,8(sp)
    800014f4:	00813023          	sd	s0,0(sp)
    800014f8:	01010413          	addi	s0,sp,16
    kmem_cache_t::kfree(objp);
    800014fc:	00002097          	auipc	ra,0x2
    80001500:	d70080e7          	jalr	-656(ra) # 8000326c <_ZN12kmem_cache_t5kfreeEPKv>
}
    80001504:	00813083          	ld	ra,8(sp)
    80001508:	00013403          	ld	s0,0(sp)
    8000150c:	01010113          	addi	sp,sp,16
    80001510:	00008067          	ret

0000000080001514 <_Z18kmem_cache_destroyP12kmem_cache_t>:
void kmem_cache_destroy(kmem_cache_t *cachep) {
    80001514:	ff010113          	addi	sp,sp,-16
    80001518:	00113423          	sd	ra,8(sp)
    8000151c:	00813023          	sd	s0,0(sp)
    80001520:	01010413          	addi	s0,sp,16
    kmem_cache_t::kmem_cache_destroy(cachep);
    80001524:	00002097          	auipc	ra,0x2
    80001528:	d70080e7          	jalr	-656(ra) # 80003294 <_ZN12kmem_cache_t18kmem_cache_destroyEPS_>
}
    8000152c:	00813083          	ld	ra,8(sp)
    80001530:	00013403          	ld	s0,0(sp)
    80001534:	01010113          	addi	sp,sp,16
    80001538:	00008067          	ret

000000008000153c <_Z15kmem_cache_infoP12kmem_cache_t>:
void kmem_cache_info(kmem_cache_t *cachep) {
    8000153c:	ff010113          	addi	sp,sp,-16
    80001540:	00113423          	sd	ra,8(sp)
    80001544:	00813023          	sd	s0,0(sp)
    80001548:	01010413          	addi	s0,sp,16
    kmem_cache_t::kmem_cache_info(cachep);
    8000154c:	00002097          	auipc	ra,0x2
    80001550:	d88080e7          	jalr	-632(ra) # 800032d4 <_ZN12kmem_cache_t15kmem_cache_infoEPS_>
}
    80001554:	00813083          	ld	ra,8(sp)
    80001558:	00013403          	ld	s0,0(sp)
    8000155c:	01010113          	addi	sp,sp,16
    80001560:	00008067          	ret

0000000080001564 <_Z16kmem_cache_errorP12kmem_cache_t>:
int kmem_cache_error(kmem_cache_t *cachep) {
    80001564:	ff010113          	addi	sp,sp,-16
    80001568:	00113423          	sd	ra,8(sp)
    8000156c:	00813023          	sd	s0,0(sp)
    80001570:	01010413          	addi	s0,sp,16
    return kmem_cache_t::kmem_cache_error(cachep);
    80001574:	00002097          	auipc	ra,0x2
    80001578:	d88080e7          	jalr	-632(ra) # 800032fc <_ZN12kmem_cache_t16kmem_cache_errorEPS_>
}
    8000157c:	00813083          	ld	ra,8(sp)
    80001580:	00013403          	ld	s0,0(sp)
    80001584:	01010113          	addi	sp,sp,16
    80001588:	00008067          	ret

000000008000158c <_Z20kmem_cache_info_buffi>:

void kmem_cache_info_buff(int pow) {
    8000158c:	ff010113          	addi	sp,sp,-16
    80001590:	00113423          	sd	ra,8(sp)
    80001594:	00813023          	sd	s0,0(sp)
    80001598:	01010413          	addi	s0,sp,16
    kmem_cache_t::kmem_cache_info_buff(pow);
    8000159c:	00002097          	auipc	ra,0x2
    800015a0:	d88080e7          	jalr	-632(ra) # 80003324 <_ZN12kmem_cache_t20kmem_cache_info_buffEi>
}
    800015a4:	00813083          	ld	ra,8(sp)
    800015a8:	00013403          	ld	s0,0(sp)
    800015ac:	01010113          	addi	sp,sp,16
    800015b0:	00008067          	ret

00000000800015b4 <_Z10buddyAlloci>:
void* buddyAlloc(int pow) {
    800015b4:	ff010113          	addi	sp,sp,-16
    800015b8:	00113423          	sd	ra,8(sp)
    800015bc:	00813023          	sd	s0,0(sp)
    800015c0:	01010413          	addi	s0,sp,16
    return kmem_cache_t::buddyAlloc(pow);
    800015c4:	00002097          	auipc	ra,0x2
    800015c8:	db0080e7          	jalr	-592(ra) # 80003374 <_ZN12kmem_cache_t10buddyAllocEi>
}
    800015cc:	00813083          	ld	ra,8(sp)
    800015d0:	00013403          	ld	s0,0(sp)
    800015d4:	01010113          	addi	sp,sp,16
    800015d8:	00008067          	ret

00000000800015dc <_Z9buddyFreePv>:
void buddyFree(void* ptr) {
    800015dc:	ff010113          	addi	sp,sp,-16
    800015e0:	00113423          	sd	ra,8(sp)
    800015e4:	00813023          	sd	s0,0(sp)
    800015e8:	01010413          	addi	s0,sp,16
    return kmem_cache_t::buddyFree(ptr);
    800015ec:	00002097          	auipc	ra,0x2
    800015f0:	dbc080e7          	jalr	-580(ra) # 800033a8 <_ZN12kmem_cache_t9buddyFreeEPv>
}
    800015f4:	00813083          	ld	ra,8(sp)
    800015f8:	00013403          	ld	s0,0(sp)
    800015fc:	01010113          	addi	sp,sp,16
    80001600:	00008067          	ret

0000000080001604 <_Z11getBuddyEndv>:
void* getBuddyEnd() {
    80001604:	ff010113          	addi	sp,sp,-16
    80001608:	00113423          	sd	ra,8(sp)
    8000160c:	00813023          	sd	s0,0(sp)
    80001610:	01010413          	addi	s0,sp,16
    return kmem_cache_t::getBuddyEnd();
    80001614:	00002097          	auipc	ra,0x2
    80001618:	dc8080e7          	jalr	-568(ra) # 800033dc <_ZN12kmem_cache_t11getBuddyEndEv>
}
    8000161c:	00813083          	ld	ra,8(sp)
    80001620:	00013403          	ld	s0,0(sp)
    80001624:	01010113          	addi	sp,sp,16
    80001628:	00008067          	ret

000000008000162c <_Z41__static_initialization_and_destruction_0ii>:
    _Thread::running = ready.remove();
    return 0;
}
int _Scheduler::empty() {
    return ready.empty();
    8000162c:	ff010113          	addi	sp,sp,-16
    80001630:	00813423          	sd	s0,8(sp)
    80001634:	01010413          	addi	s0,sp,16
    80001638:	00100793          	li	a5,1
    8000163c:	00f50863          	beq	a0,a5,8000164c <_Z41__static_initialization_and_destruction_0ii+0x20>
    80001640:	00813403          	ld	s0,8(sp)
    80001644:	01010113          	addi	sp,sp,16
    80001648:	00008067          	ret
    8000164c:	000107b7          	lui	a5,0x10
    80001650:	fff78793          	addi	a5,a5,-1 # ffff <_entry-0x7fff0001>
    80001654:	fef596e3          	bne	a1,a5,80001640 <_Z41__static_initialization_and_destruction_0ii+0x14>
        void* operator new(size_t);
        void operator delete(void*);
    };
    Node* first, *last;
public:
    _ThreadPriorityQueue() : first(nullptr), last(nullptr) {}
    80001658:	0000e797          	auipc	a5,0xe
    8000165c:	3a878793          	addi	a5,a5,936 # 8000fa00 <_ZN10_Scheduler5readyE>
    80001660:	0007b023          	sd	zero,0(a5)
    80001664:	0007b423          	sd	zero,8(a5)
    80001668:	fd9ff06f          	j	80001640 <_Z41__static_initialization_and_destruction_0ii+0x14>

000000008000166c <_ZN10_Scheduler3putEP7_Thread>:
int _Scheduler::put(thread_t thread) {
    8000166c:	ff010113          	addi	sp,sp,-16
    80001670:	00113423          	sd	ra,8(sp)
    80001674:	00813023          	sd	s0,0(sp)
    80001678:	01010413          	addi	s0,sp,16
    8000167c:	00050593          	mv	a1,a0
    return ready.add(thread);
    80001680:	0000e517          	auipc	a0,0xe
    80001684:	38050513          	addi	a0,a0,896 # 8000fa00 <_ZN10_Scheduler5readyE>
    80001688:	00002097          	auipc	ra,0x2
    8000168c:	ee0080e7          	jalr	-288(ra) # 80003568 <_ZN20_ThreadPriorityQueue3addEP7_Thread>
}
    80001690:	00813083          	ld	ra,8(sp)
    80001694:	00013403          	ld	s0,0(sp)
    80001698:	01010113          	addi	sp,sp,16
    8000169c:	00008067          	ret

00000000800016a0 <_ZN10_Scheduler3getEv>:
int _Scheduler::get() {
    800016a0:	ff010113          	addi	sp,sp,-16
    800016a4:	00113423          	sd	ra,8(sp)
    800016a8:	00813023          	sd	s0,0(sp)
    800016ac:	01010413          	addi	s0,sp,16
    _Thread::running = ready.remove();
    800016b0:	0000e517          	auipc	a0,0xe
    800016b4:	35050513          	addi	a0,a0,848 # 8000fa00 <_ZN10_Scheduler5readyE>
    800016b8:	00002097          	auipc	ra,0x2
    800016bc:	f90080e7          	jalr	-112(ra) # 80003648 <_ZN20_ThreadPriorityQueue6removeEv>
    800016c0:	00010797          	auipc	a5,0x10
    800016c4:	9787b783          	ld	a5,-1672(a5) # 80011038 <_GLOBAL_OFFSET_TABLE_+0x38>
    800016c8:	00a7b023          	sd	a0,0(a5)
}
    800016cc:	00000513          	li	a0,0
    800016d0:	00813083          	ld	ra,8(sp)
    800016d4:	00013403          	ld	s0,0(sp)
    800016d8:	01010113          	addi	sp,sp,16
    800016dc:	00008067          	ret

00000000800016e0 <_ZN10_Scheduler5emptyEv>:
int _Scheduler::empty() {
    800016e0:	ff010113          	addi	sp,sp,-16
    800016e4:	00113423          	sd	ra,8(sp)
    800016e8:	00813023          	sd	s0,0(sp)
    800016ec:	01010413          	addi	s0,sp,16
    return ready.empty();
    800016f0:	0000e517          	auipc	a0,0xe
    800016f4:	31050513          	addi	a0,a0,784 # 8000fa00 <_ZN10_Scheduler5readyE>
    800016f8:	00002097          	auipc	ra,0x2
    800016fc:	fb4080e7          	jalr	-76(ra) # 800036ac <_ZN20_ThreadPriorityQueue5emptyEv>
    80001700:	00813083          	ld	ra,8(sp)
    80001704:	00013403          	ld	s0,0(sp)
    80001708:	01010113          	addi	sp,sp,16
    8000170c:	00008067          	ret

0000000080001710 <_GLOBAL__sub_I__ZN10_Scheduler5readyE>:
    80001710:	ff010113          	addi	sp,sp,-16
    80001714:	00113423          	sd	ra,8(sp)
    80001718:	00813023          	sd	s0,0(sp)
    8000171c:	01010413          	addi	s0,sp,16
    80001720:	000105b7          	lui	a1,0x10
    80001724:	fff58593          	addi	a1,a1,-1 # ffff <_entry-0x7fff0001>
    80001728:	00100513          	li	a0,1
    8000172c:	00000097          	auipc	ra,0x0
    80001730:	f00080e7          	jalr	-256(ra) # 8000162c <_Z41__static_initialization_and_destruction_0ii>
    80001734:	00813083          	ld	ra,8(sp)
    80001738:	00013403          	ld	s0,0(sp)
    8000173c:	01010113          	addi	sp,sp,16
    80001740:	00008067          	ret

0000000080001744 <_Z7_handlemmmmmmmm>:
#define ECALL2 0x0000000000000009UL
#define IPF 0x0CUL
#define LPF 0x0DUL
#define SPF 0x0FUL

uint64 _handle(uint64 type, uint64 a, uint64 b, uint64 c, uint64 d, uint64 e, uint64 f, uint64 g) {
    80001744:	fb010113          	addi	sp,sp,-80
    80001748:	04113423          	sd	ra,72(sp)
    8000174c:	04813023          	sd	s0,64(sp)
    80001750:	02913c23          	sd	s1,56(sp)
    80001754:	03213823          	sd	s2,48(sp)
    80001758:	03313423          	sd	s3,40(sp)
    8000175c:	03413023          	sd	s4,32(sp)
    80001760:	01513c23          	sd	s5,24(sp)
    80001764:	01613823          	sd	s6,16(sp)
    80001768:	01713423          	sd	s7,8(sp)
    8000176c:	01813023          	sd	s8,0(sp)
    80001770:	05010413          	addi	s0,sp,80
    80001774:	00078b13          	mv	s6,a5
    uint64 cause;
    __asm__ volatile("csrr %0, scause" : "=r"(cause));
    80001778:	142027f3          	csrr	a5,scause
    if (cause == TIMER) {
    8000177c:	fff00313          	li	t1,-1
    80001780:	03f31313          	slli	t1,t1,0x3f
    80001784:	00130313          	addi	t1,t1,1
    80001788:	04678c63          	beq	a5,t1,800017e0 <_Z7_handlemmmmmmmm+0x9c>
    8000178c:	00050493          	mv	s1,a0
    80001790:	00058913          	mv	s2,a1
    80001794:	00060993          	mv	s3,a2
    80001798:	00068a13          	mv	s4,a3
    8000179c:	00070a93          	mv	s5,a4
    800017a0:	00080c13          	mv	s8,a6
    800017a4:	00088b93          	mv	s7,a7
        _SBIT::SIP1clear();
        _Thread::tick();
        return 0;
    }
    else if (cause == HARDWARE) {
    800017a8:	fff00713          	li	a4,-1
    800017ac:	03f71713          	slli	a4,a4,0x3f
    800017b0:	00970713          	addi	a4,a4,9
    800017b4:	04e78263          	beq	a5,a4,800017f8 <_Z7_handlemmmmmmmm+0xb4>
        if (plic_claim() == 10) _Console::handle();//console_handler();//
        //ako nije 10? nepoznat prekid
        //_Thread::dispatch();//dispatch da bi putter ako je signaliziran odmah uradio svoje...
        return 0;
    }
    else if (cause == IPF || cause == LPF || cause == SPF) {
    800017b8:	ff478713          	addi	a4,a5,-12
    800017bc:	00100693          	li	a3,1
    800017c0:	04e6fe63          	bgeu	a3,a4,8000181c <_Z7_handlemmmmmmmm+0xd8>
    800017c4:	00f00713          	li	a4,15
    800017c8:	04e78a63          	beq	a5,a4,8000181c <_Z7_handlemmmmmmmm+0xd8>
        if (cause == IPF) _Console::printString("ERROR: Instruction Page Fault!!\n");
        else if (cause == LPF) _Console::printString("ERROR: Load Page Fault!!\n");
        else _Console::printString("ERROR: Store Page Fault!!\n");
        _Thread::abort();
    }
    else if (cause != ECALL && cause != ECALL2) {
    800017cc:	ff878793          	addi	a5,a5,-8
    800017d0:	00100713          	li	a4,1
    800017d4:	06f77863          	bgeu	a4,a5,80001844 <_Z7_handlemmmmmmmm+0x100>
        //NEPREDVIDJENI PREKIDI
        return 0;
    800017d8:	00000513          	li	a0,0
    800017dc:	2b80006f          	j	80001a94 <_Z7_handlemmmmmmmm+0x350>
        _SBIT::SIP1clear();
    800017e0:	00000097          	auipc	ra,0x0
    800017e4:	8a4080e7          	jalr	-1884(ra) # 80001084 <_ZN5_SBIT9SIP1clearEv>
        _Thread::tick();
    800017e8:	00002097          	auipc	ra,0x2
    800017ec:	234080e7          	jalr	564(ra) # 80003a1c <_ZN7_Thread4tickEv>
        return 0;
    800017f0:	00000513          	li	a0,0
    800017f4:	2a00006f          	j	80001a94 <_Z7_handlemmmmmmmm+0x350>
        if (plic_claim() == 10) _Console::handle();//console_handler();//
    800017f8:	00007097          	auipc	ra,0x7
    800017fc:	1bc080e7          	jalr	444(ra) # 800089b4 <plic_claim>
    80001800:	00a00793          	li	a5,10
    80001804:	00f50663          	beq	a0,a5,80001810 <_Z7_handlemmmmmmmm+0xcc>
        return 0;
    80001808:	00000513          	li	a0,0
    8000180c:	2880006f          	j	80001a94 <_Z7_handlemmmmmmmm+0x350>
        if (plic_claim() == 10) _Console::handle();//console_handler();//
    80001810:	00005097          	auipc	ra,0x5
    80001814:	9b8080e7          	jalr	-1608(ra) # 800061c8 <_ZN8_Console6handleEv>
    80001818:	ff1ff06f          	j	80001808 <_Z7_handlemmmmmmmm+0xc4>
        if (cause == IPF) _Console::printString("ERROR: Instruction Page Fault!!\n");
    8000181c:	00c00713          	li	a4,12
    80001820:	04e78663          	beq	a5,a4,8000186c <_Z7_handlemmmmmmmm+0x128>
        else if (cause == LPF) _Console::printString("ERROR: Load Page Fault!!\n");
    80001824:	00d00713          	li	a4,13
    80001828:	04e78c63          	beq	a5,a4,80001880 <_Z7_handlemmmmmmmm+0x13c>
        else _Console::printString("ERROR: Store Page Fault!!\n");
    8000182c:	0000a517          	auipc	a0,0xa
    80001830:	84450513          	addi	a0,a0,-1980 # 8000b070 <PAGEOFFMASK+0x4c>
    80001834:	00005097          	auipc	ra,0x5
    80001838:	a3c080e7          	jalr	-1476(ra) # 80006270 <_ZN8_Console11printStringEPKc>
        _Thread::abort();
    8000183c:	00002097          	auipc	ra,0x2
    80001840:	1ac080e7          	jalr	428(ra) # 800039e8 <_ZN7_Thread5abortEv>
    }
    //softverski prekid
    __asm__ volatile("csrc sip, 0x2");
    80001844:	14417073          	csrci	sip,2
    switch(type) {
    80001848:	04200793          	li	a5,66
    8000184c:	2497e263          	bltu	a5,s1,80001a90 <_Z7_handlemmmmmmmm+0x34c>
    80001850:	00249493          	slli	s1,s1,0x2
    80001854:	0000a717          	auipc	a4,0xa
    80001858:	83870713          	addi	a4,a4,-1992 # 8000b08c <PAGEOFFMASK+0x68>
    8000185c:	00e484b3          	add	s1,s1,a4
    80001860:	0004a783          	lw	a5,0(s1)
    80001864:	00e787b3          	add	a5,a5,a4
    80001868:	00078067          	jr	a5
        if (cause == IPF) _Console::printString("ERROR: Instruction Page Fault!!\n");
    8000186c:	00009517          	auipc	a0,0x9
    80001870:	7bc50513          	addi	a0,a0,1980 # 8000b028 <PAGEOFFMASK+0x4>
    80001874:	00005097          	auipc	ra,0x5
    80001878:	9fc080e7          	jalr	-1540(ra) # 80006270 <_ZN8_Console11printStringEPKc>
    8000187c:	fc1ff06f          	j	8000183c <_Z7_handlemmmmmmmm+0xf8>
        else if (cause == LPF) _Console::printString("ERROR: Load Page Fault!!\n");
    80001880:	00009517          	auipc	a0,0x9
    80001884:	7d050513          	addi	a0,a0,2000 # 8000b050 <PAGEOFFMASK+0x2c>
    80001888:	00005097          	auipc	ra,0x5
    8000188c:	9e8080e7          	jalr	-1560(ra) # 80006270 <_ZN8_Console11printStringEPKc>
    80001890:	fadff06f          	j	8000183c <_Z7_handlemmmmmmmm+0xf8>
        case 0x01:
            return (uint64)_Mem::allocate((size_t)a);
    80001894:	00090513          	mv	a0,s2
    80001898:	00003097          	auipc	ra,0x3
    8000189c:	708080e7          	jalr	1800(ra) # 80004fa0 <_ZN4_Mem8allocateEm>
    800018a0:	1f40006f          	j	80001a94 <_Z7_handlemmmmmmmm+0x350>
        case 0x02:
            return _Mem::free((void*)a);
    800018a4:	00090513          	mv	a0,s2
    800018a8:	00003097          	auipc	ra,0x3
    800018ac:	628080e7          	jalr	1576(ra) # 80004ed0 <_ZN4_Mem4freeEPv>
    800018b0:	1e40006f          	j	80001a94 <_Z7_handlemmmmmmmm+0x350>

        case 0x11:
            return _Thread::create((thread_t *) a, (void* (*)(void *)) b, (void *) c, (void *) d, (size_t) e,
    800018b4:	000c051b          	sext.w	a0,s8
    800018b8:	00003097          	auipc	ra,0x3
    800018bc:	e58080e7          	jalr	-424(ra) # 80004710 <_ZN7_Thread9normalizeEi>
    800018c0:	00050793          	mv	a5,a0
    800018c4:	000b881b          	sext.w	a6,s7
    800018c8:	000b0713          	mv	a4,s6
    800018cc:	000a8693          	mv	a3,s5
    800018d0:	000a0613          	mv	a2,s4
    800018d4:	00098593          	mv	a1,s3
    800018d8:	00090513          	mv	a0,s2
    800018dc:	00002097          	auipc	ra,0x2
    800018e0:	42c080e7          	jalr	1068(ra) # 80003d08 <_ZN7_Thread6createEPPS_PFPvS2_ES2_S2_mii>
                                       _Thread::normalize((int) f), (int) (g));
    800018e4:	1b00006f          	j	80001a94 <_Z7_handlemmmmmmmm+0x350>
        case 0x12:
            return _Thread::create((thread_t *) a, (void (*)(void *)) b, (void *) c, (void *) d, (size_t) e,
    800018e8:	000c051b          	sext.w	a0,s8
    800018ec:	00003097          	auipc	ra,0x3
    800018f0:	e24080e7          	jalr	-476(ra) # 80004710 <_ZN7_Thread9normalizeEi>
    800018f4:	00050793          	mv	a5,a0
    800018f8:	000b881b          	sext.w	a6,s7
    800018fc:	000b0713          	mv	a4,s6
    80001900:	000a8693          	mv	a3,s5
    80001904:	000a0613          	mv	a2,s4
    80001908:	00098593          	mv	a1,s3
    8000190c:	00090513          	mv	a0,s2
    80001910:	00002097          	auipc	ra,0x2
    80001914:	7a0080e7          	jalr	1952(ra) # 800040b0 <_ZN7_Thread6createEPPS_PFvPvES2_S2_mii>
                                   _Thread::normalize((int) f), (int) (g));
    80001918:	17c0006f          	j	80001a94 <_Z7_handlemmmmmmmm+0x350>
        case 0x13:
            return _Thread::exit((void*)a);
    8000191c:	00090513          	mv	a0,s2
    80001920:	00003097          	auipc	ra,0x3
    80001924:	338080e7          	jalr	824(ra) # 80004c58 <_ZN7_Thread4exitEPv>
    80001928:	16c0006f          	j	80001a94 <_Z7_handlemmmmmmmm+0x350>
        case 0x14:
            _Thread::dispatch();
    8000192c:	00002097          	auipc	ra,0x2
    80001930:	16c080e7          	jalr	364(ra) # 80003a98 <_ZN7_Thread8dispatchEv>
            return 0;
    80001934:	00000513          	li	a0,0
    80001938:	15c0006f          	j	80001a94 <_Z7_handlemmmmmmmm+0x350>
        case 0x15:
            return ((thread_t)a)->start();
    8000193c:	00090513          	mv	a0,s2
    80001940:	00002097          	auipc	ra,0x2
    80001944:	318080e7          	jalr	792(ra) # 80003c58 <_ZN7_Thread5startEv>
    80001948:	14c0006f          	j	80001a94 <_Z7_handlemmmmmmmm+0x350>
        case 0x16:
            return ((thread_t)a)->join((void**)b);
    8000194c:	00098593          	mv	a1,s3
    80001950:	00090513          	mv	a0,s2
    80001954:	00003097          	auipc	ra,0x3
    80001958:	c68080e7          	jalr	-920(ra) # 800045bc <_ZN7_Thread4joinEPPv>
    8000195c:	1380006f          	j	80001a94 <_Z7_handlemmmmmmmm+0x350>
        case 0x17:
            return ((thread_t) a)->joinLimit((void **) b, (time_t) c);
    80001960:	000a0613          	mv	a2,s4
    80001964:	00098593          	mv	a1,s3
    80001968:	00090513          	mv	a0,s2
    8000196c:	00003097          	auipc	ra,0x3
    80001970:	f98080e7          	jalr	-104(ra) # 80004904 <_ZN7_Thread9joinLimitEPPvm>
    80001974:	1200006f          	j	80001a94 <_Z7_handlemmmmmmmm+0x350>
        case 0x18:
            return ((thread_t)a)->interrupt();
    80001978:	00090513          	mv	a0,s2
    8000197c:	00003097          	auipc	ra,0x3
    80001980:	184080e7          	jalr	388(ra) # 80004b00 <_ZN7_Thread9interruptEv>
    80001984:	1100006f          	j	80001a94 <_Z7_handlemmmmmmmm+0x350>
        case 0x19:
            return _Thread::running->interrupted();
    80001988:	0000f797          	auipc	a5,0xf
    8000198c:	6b07b783          	ld	a5,1712(a5) # 80011038 <_GLOBAL_OFFSET_TABLE_+0x38>
    80001990:	0007b503          	ld	a0,0(a5)
    80001994:	00003097          	auipc	ra,0x3
    80001998:	b9c080e7          	jalr	-1124(ra) # 80004530 <_ZN7_Thread11interruptedEv>
    8000199c:	0f80006f          	j	80001a94 <_Z7_handlemmmmmmmm+0x350>

        case 0x21:
            return _Sem::open((sem_t*)a, (unsigned)b);
    800019a0:	0009859b          	sext.w	a1,s3
    800019a4:	00090513          	mv	a0,s2
    800019a8:	00003097          	auipc	ra,0x3
    800019ac:	6e4080e7          	jalr	1764(ra) # 8000508c <_ZN4_Sem4openEPPS_j>
    800019b0:	0e40006f          	j	80001a94 <_Z7_handlemmmmmmmm+0x350>
        case 0x22:
            return _Sem::close((sem_t)a);
    800019b4:	00090513          	mv	a0,s2
    800019b8:	00003097          	auipc	ra,0x3
    800019bc:	754080e7          	jalr	1876(ra) # 8000510c <_ZN4_Sem5closeEPS_>
    800019c0:	0d40006f          	j	80001a94 <_Z7_handlemmmmmmmm+0x350>
        case 0x23:
            return ((sem_t)a)->wait();
    800019c4:	00090513          	mv	a0,s2
    800019c8:	00003097          	auipc	ra,0x3
    800019cc:	7b0080e7          	jalr	1968(ra) # 80005178 <_ZN4_Sem4waitEv>
    800019d0:	0c40006f          	j	80001a94 <_Z7_handlemmmmmmmm+0x350>
        case 0x24:
            return ((sem_t)a)->signal();
    800019d4:	00090513          	mv	a0,s2
    800019d8:	00004097          	auipc	ra,0x4
    800019dc:	928080e7          	jalr	-1752(ra) # 80005300 <_ZN4_Sem6signalEv>
    800019e0:	0b40006f          	j	80001a94 <_Z7_handlemmmmmmmm+0x350>
        case 0x25:
            return _Sem::waitOR((sem_t) a, (sem_t) b);
    800019e4:	00098593          	mv	a1,s3
    800019e8:	00090513          	mv	a0,s2
    800019ec:	00004097          	auipc	ra,0x4
    800019f0:	c24080e7          	jalr	-988(ra) # 80005610 <_ZN4_Sem6waitOREPS_S0_>
    800019f4:	0a00006f          	j	80001a94 <_Z7_handlemmmmmmmm+0x350>
        case 0x26:
            return _Sem::semWaitAND((sem_t) a, (sem_t) b);
    800019f8:	00098593          	mv	a1,s3
    800019fc:	00090513          	mv	a0,s2
    80001a00:	00004097          	auipc	ra,0x4
    80001a04:	df4080e7          	jalr	-524(ra) # 800057f4 <_ZN4_Sem10semWaitANDEPS_S0_>
    80001a08:	08c0006f          	j	80001a94 <_Z7_handlemmmmmmmm+0x350>
        case 0x27:
            return ((sem_t)a)->wait((time_t)b);
    80001a0c:	00098593          	mv	a1,s3
    80001a10:	00090513          	mv	a0,s2
    80001a14:	00004097          	auipc	ra,0x4
    80001a18:	a04080e7          	jalr	-1532(ra) # 80005418 <_ZN4_Sem4waitEm>
    80001a1c:	0780006f          	j	80001a94 <_Z7_handlemmmmmmmm+0x350>
        case 0x28:
            return _Sem::semWaitORLimit((sem_t) a, (sem_t) b, (time_t) c);
    80001a20:	000a0613          	mv	a2,s4
    80001a24:	00098593          	mv	a1,s3
    80001a28:	00090513          	mv	a0,s2
    80001a2c:	00004097          	auipc	ra,0x4
    80001a30:	fec080e7          	jalr	-20(ra) # 80005a18 <_ZN4_Sem14semWaitORLimitEPS_S0_m>
    80001a34:	0600006f          	j	80001a94 <_Z7_handlemmmmmmmm+0x350>
        case 0x29:
            return _Sem::semWaitANDLimit((sem_t) a, (sem_t) b, (time_t) c);
    80001a38:	000a0613          	mv	a2,s4
    80001a3c:	00098593          	mv	a1,s3
    80001a40:	00090513          	mv	a0,s2
    80001a44:	00004097          	auipc	ra,0x4
    80001a48:	248080e7          	jalr	584(ra) # 80005c8c <_ZN4_Sem15semWaitANDLimitEPS_S0_m>
    80001a4c:	0480006f          	j	80001a94 <_Z7_handlemmmmmmmm+0x350>

        case 0x31:
            return _Thread::timeSleep((time_t) a);
    80001a50:	00090513          	mv	a0,s2
    80001a54:	00003097          	auipc	ra,0x3
    80001a58:	d10080e7          	jalr	-752(ra) # 80004764 <_ZN7_Thread9timeSleepEm>
    80001a5c:	0380006f          	j	80001a94 <_Z7_handlemmmmmmmm+0x350>
    int joinPass();
    int sem_kick(sem_t);
    int check_wait(int);
    void removeManager();

    static time_t getTime() { return clock; }
    80001a60:	0000f797          	auipc	a5,0xf
    80001a64:	6287b783          	ld	a5,1576(a5) # 80011088 <_GLOBAL_OFFSET_TABLE_+0x88>
    80001a68:	0007b503          	ld	a0,0(a5)
        case 0x32:
            return _Thread::getTime();
    80001a6c:	0280006f          	j	80001a94 <_Z7_handlemmmmmmmm+0x350>

        case 0x41:
            return _Console::getc();
    80001a70:	00004097          	auipc	ra,0x4
    80001a74:	728080e7          	jalr	1832(ra) # 80006198 <_ZN8_Console4getcEv>
    80001a78:	01c0006f          	j	80001a94 <_Z7_handlemmmmmmmm+0x350>
        case 0x42:
            _Console::putc((char)a);
    80001a7c:	0ff97513          	andi	a0,s2,255
    80001a80:	00004097          	auipc	ra,0x4
    80001a84:	6c4080e7          	jalr	1732(ra) # 80006144 <_ZN8_Console4putcEc>
            return 0;
    80001a88:	00000513          	li	a0,0
    80001a8c:	0080006f          	j	80001a94 <_Z7_handlemmmmmmmm+0x350>
    __asm__ volatile("csrc sip, 0x2");
    80001a90:	00000513          	li	a0,0
        default:
            break;
    }
    return 0;
}
    80001a94:	04813083          	ld	ra,72(sp)
    80001a98:	04013403          	ld	s0,64(sp)
    80001a9c:	03813483          	ld	s1,56(sp)
    80001aa0:	03013903          	ld	s2,48(sp)
    80001aa4:	02813983          	ld	s3,40(sp)
    80001aa8:	02013a03          	ld	s4,32(sp)
    80001aac:	01813a83          	ld	s5,24(sp)
    80001ab0:	01013b03          	ld	s6,16(sp)
    80001ab4:	00813b83          	ld	s7,8(sp)
    80001ab8:	00013c03          	ld	s8,0(sp)
    80001abc:	05010113          	addi	sp,sp,80
    80001ac0:	00008067          	ret

0000000080001ac4 <_ZN6_Sleep4NodenwEm>:
#include "../h/_Mem.h"
#include "../h/_Scheduler.h"

kmem_cache_t* _Sleep::Node::cache = nullptr;

void *_Sleep::Node::operator new(size_t size) {
    80001ac4:	ff010113          	addi	sp,sp,-16
    80001ac8:	00113423          	sd	ra,8(sp)
    80001acc:	00813023          	sd	s0,0(sp)
    80001ad0:	01010413          	addi	s0,sp,16
    if (!cache) cache = kmem_cache_create("Sleep::Node Cache", sizeof(_Sleep::Node), nullptr, nullptr);
    80001ad4:	0000e797          	auipc	a5,0xe
    80001ad8:	f3c7b783          	ld	a5,-196(a5) # 8000fa10 <_ZN6_Sleep4Node5cacheE>
    80001adc:	02078263          	beqz	a5,80001b00 <_ZN6_Sleep4NodenwEm+0x3c>
    return kmem_cache_alloc(cache);
    80001ae0:	0000e517          	auipc	a0,0xe
    80001ae4:	f3053503          	ld	a0,-208(a0) # 8000fa10 <_ZN6_Sleep4Node5cacheE>
    80001ae8:	00000097          	auipc	ra,0x0
    80001aec:	98c080e7          	jalr	-1652(ra) # 80001474 <_Z16kmem_cache_allocP12kmem_cache_t>
}
    80001af0:	00813083          	ld	ra,8(sp)
    80001af4:	00013403          	ld	s0,0(sp)
    80001af8:	01010113          	addi	sp,sp,16
    80001afc:	00008067          	ret
    if (!cache) cache = kmem_cache_create("Sleep::Node Cache", sizeof(_Sleep::Node), nullptr, nullptr);
    80001b00:	00000693          	li	a3,0
    80001b04:	00000613          	li	a2,0
    80001b08:	01800593          	li	a1,24
    80001b0c:	00009517          	auipc	a0,0x9
    80001b10:	68c50513          	addi	a0,a0,1676 # 8000b198 <PAGEOFFMASK+0x174>
    80001b14:	00000097          	auipc	ra,0x0
    80001b18:	910080e7          	jalr	-1776(ra) # 80001424 <_Z17kmem_cache_createPKcmPFvPvES3_>
    80001b1c:	0000e797          	auipc	a5,0xe
    80001b20:	eea7ba23          	sd	a0,-268(a5) # 8000fa10 <_ZN6_Sleep4Node5cacheE>
    80001b24:	fbdff06f          	j	80001ae0 <_ZN6_Sleep4NodenwEm+0x1c>

0000000080001b28 <_ZN6_Sleep4NodedlEPv>:
void _Sleep::Node::operator delete(void *adr) {
    80001b28:	ff010113          	addi	sp,sp,-16
    80001b2c:	00113423          	sd	ra,8(sp)
    80001b30:	00813023          	sd	s0,0(sp)
    80001b34:	01010413          	addi	s0,sp,16
    80001b38:	00050593          	mv	a1,a0
    kmem_cache_free(cache, adr);
    80001b3c:	0000e517          	auipc	a0,0xe
    80001b40:	ed453503          	ld	a0,-300(a0) # 8000fa10 <_ZN6_Sleep4Node5cacheE>
    80001b44:	00000097          	auipc	ra,0x0
    80001b48:	958080e7          	jalr	-1704(ra) # 8000149c <_Z15kmem_cache_freeP12kmem_cache_tPv>
}
    80001b4c:	00813083          	ld	ra,8(sp)
    80001b50:	00013403          	ld	s0,0(sp)
    80001b54:	01010113          	addi	sp,sp,16
    80001b58:	00008067          	ret

0000000080001b5c <_ZN6_Sleep10wake_firstEv>:

_Sleep::Node* _Sleep::first = nullptr;

thread_t _Sleep::wake_first() {
    80001b5c:	fe010113          	addi	sp,sp,-32
    80001b60:	00113c23          	sd	ra,24(sp)
    80001b64:	00813823          	sd	s0,16(sp)
    80001b68:	00913423          	sd	s1,8(sp)
    80001b6c:	02010413          	addi	s0,sp,32
    thread_t ret;
    if (first && first->left == 0) {
    80001b70:	0000e517          	auipc	a0,0xe
    80001b74:	ea853503          	ld	a0,-344(a0) # 8000fa18 <_ZN6_Sleep5firstE>
    80001b78:	04050263          	beqz	a0,80001bbc <_ZN6_Sleep10wake_firstEv+0x60>
    80001b7c:	00853783          	ld	a5,8(a0)
    80001b80:	02078063          	beqz	a5,80001ba0 <_ZN6_Sleep10wake_firstEv+0x44>
        Node* old = first;
        first = first->next;
        delete old;
        return ret;
    }
    return nullptr;//nema vise niti za budjenje
    80001b84:	00000493          	li	s1,0
}
    80001b88:	00048513          	mv	a0,s1
    80001b8c:	01813083          	ld	ra,24(sp)
    80001b90:	01013403          	ld	s0,16(sp)
    80001b94:	00813483          	ld	s1,8(sp)
    80001b98:	02010113          	addi	sp,sp,32
    80001b9c:	00008067          	ret
        ret = first->thread;
    80001ba0:	00053483          	ld	s1,0(a0)
        first = first->next;
    80001ba4:	01053783          	ld	a5,16(a0)
    80001ba8:	0000e717          	auipc	a4,0xe
    80001bac:	e6f73823          	sd	a5,-400(a4) # 8000fa18 <_ZN6_Sleep5firstE>
        delete old;
    80001bb0:	00000097          	auipc	ra,0x0
    80001bb4:	f78080e7          	jalr	-136(ra) # 80001b28 <_ZN6_Sleep4NodedlEPv>
        return ret;
    80001bb8:	fd1ff06f          	j	80001b88 <_ZN6_Sleep10wake_firstEv+0x2c>
    return nullptr;//nema vise niti za budjenje
    80001bbc:	00050493          	mv	s1,a0
    80001bc0:	fc9ff06f          	j	80001b88 <_ZN6_Sleep10wake_firstEv+0x2c>

0000000080001bc4 <_ZN6_Sleep3putEP7_Threadm>:
int _Sleep::put(thread_t thread, time_t time) {
    80001bc4:	fd010113          	addi	sp,sp,-48
    80001bc8:	02113423          	sd	ra,40(sp)
    80001bcc:	02813023          	sd	s0,32(sp)
    80001bd0:	00913c23          	sd	s1,24(sp)
    80001bd4:	01213823          	sd	s2,16(sp)
    80001bd8:	01313423          	sd	s3,8(sp)
    80001bdc:	01413023          	sd	s4,0(sp)
    80001be0:	03010413          	addi	s0,sp,48
    80001be4:	00050a13          	mv	s4,a0
    80001be8:	00058913          	mv	s2,a1
    Node* cur = first, *prev = 0;
    80001bec:	0000e497          	auipc	s1,0xe
    80001bf0:	e2c4b483          	ld	s1,-468(s1) # 8000fa18 <_ZN6_Sleep5firstE>
    80001bf4:	00000993          	li	s3,0
    time_t left = time;
    while (cur && left >= cur->left) {
    80001bf8:	00048e63          	beqz	s1,80001c14 <_ZN6_Sleep3putEP7_Threadm+0x50>
    80001bfc:	0084b783          	ld	a5,8(s1)
    80001c00:	00f96a63          	bltu	s2,a5,80001c14 <_ZN6_Sleep3putEP7_Threadm+0x50>
        left -= cur->left;
    80001c04:	40f90933          	sub	s2,s2,a5
        prev = cur, cur = cur->next;
    80001c08:	00048993          	mv	s3,s1
    80001c0c:	0104b483          	ld	s1,16(s1)
    while (cur && left >= cur->left) {
    80001c10:	fe9ff06f          	j	80001bf8 <_ZN6_Sleep3putEP7_Threadm+0x34>
    }
    Node* newnode = new Node(thread, left);
    80001c14:	01800513          	li	a0,24
    80001c18:	00000097          	auipc	ra,0x0
    80001c1c:	eac080e7          	jalr	-340(ra) # 80001ac4 <_ZN6_Sleep4NodenwEm>
    80001c20:	00050863          	beqz	a0,80001c30 <_ZN6_Sleep3putEP7_Threadm+0x6c>
class _Sleep {
    struct Node {
        thread_t thread;
        time_t left;
        Node* next;
        Node(thread_t thread, time_t left) : thread(thread), left(left), next(nullptr) {}
    80001c24:	01453023          	sd	s4,0(a0)
    80001c28:	01253423          	sd	s2,8(a0)
    80001c2c:	00053823          	sd	zero,16(a0)
    if (!newnode) return -1; //greska u alokaciji
    80001c30:	04050863          	beqz	a0,80001c80 <_ZN6_Sleep3putEP7_Threadm+0xbc>
    newnode->next = cur;
    80001c34:	00953823          	sd	s1,16(a0)
    if (prev) prev->next = newnode;
    80001c38:	02098e63          	beqz	s3,80001c74 <_ZN6_Sleep3putEP7_Threadm+0xb0>
    80001c3c:	00a9b823          	sd	a0,16(s3)
    else first = newnode;
    if (cur) cur->left -= left;
    80001c40:	04048463          	beqz	s1,80001c88 <_ZN6_Sleep3putEP7_Threadm+0xc4>
    80001c44:	0084b583          	ld	a1,8(s1)
    80001c48:	41258933          	sub	s2,a1,s2
    80001c4c:	0124b423          	sd	s2,8(s1)
    return 0;
    80001c50:	00000513          	li	a0,0
}
    80001c54:	02813083          	ld	ra,40(sp)
    80001c58:	02013403          	ld	s0,32(sp)
    80001c5c:	01813483          	ld	s1,24(sp)
    80001c60:	01013903          	ld	s2,16(sp)
    80001c64:	00813983          	ld	s3,8(sp)
    80001c68:	00013a03          	ld	s4,0(sp)
    80001c6c:	03010113          	addi	sp,sp,48
    80001c70:	00008067          	ret
    else first = newnode;
    80001c74:	0000e797          	auipc	a5,0xe
    80001c78:	daa7b223          	sd	a0,-604(a5) # 8000fa18 <_ZN6_Sleep5firstE>
    80001c7c:	fc5ff06f          	j	80001c40 <_ZN6_Sleep3putEP7_Threadm+0x7c>
    if (!newnode) return -1; //greska u alokaciji
    80001c80:	fff00513          	li	a0,-1
    80001c84:	fd1ff06f          	j	80001c54 <_ZN6_Sleep3putEP7_Threadm+0x90>
    return 0;
    80001c88:	00000513          	li	a0,0
    80001c8c:	fc9ff06f          	j	80001c54 <_ZN6_Sleep3putEP7_Threadm+0x90>

0000000080001c90 <_ZN6_Sleep4tickEv>:
void _Sleep::tick() {
    80001c90:	ff010113          	addi	sp,sp,-16
    80001c94:	00113423          	sd	ra,8(sp)
    80001c98:	00813023          	sd	s0,0(sp)
    80001c9c:	01010413          	addi	s0,sp,16
    if (first) first->left--;
    80001ca0:	0000e797          	auipc	a5,0xe
    80001ca4:	d787b783          	ld	a5,-648(a5) # 8000fa18 <_ZN6_Sleep5firstE>
    80001ca8:	00078863          	beqz	a5,80001cb8 <_ZN6_Sleep4tickEv+0x28>
    80001cac:	0087b703          	ld	a4,8(a5)
    80001cb0:	fff70713          	addi	a4,a4,-1
    80001cb4:	00e7b423          	sd	a4,8(a5)
    thread_t woken;
    while ((woken = wake_first())) {
    80001cb8:	00000097          	auipc	ra,0x0
    80001cbc:	ea4080e7          	jalr	-348(ra) # 80001b5c <_ZN6_Sleep10wake_firstEv>
    80001cc0:	00050863          	beqz	a0,80001cd0 <_ZN6_Sleep4tickEv+0x40>
        woken->sleepPass();
    80001cc4:	00003097          	auipc	ra,0x3
    80001cc8:	efc080e7          	jalr	-260(ra) # 80004bc0 <_ZN7_Thread9sleepPassEv>
    while ((woken = wake_first())) {
    80001ccc:	fedff06f          	j	80001cb8 <_ZN6_Sleep4tickEv+0x28>
    }
}
    80001cd0:	00813083          	ld	ra,8(sp)
    80001cd4:	00013403          	ld	s0,0(sp)
    80001cd8:	01010113          	addi	sp,sp,16
    80001cdc:	00008067          	ret

0000000080001ce0 <_ZN6_Sleep6removeEP7_Thread>:

int _Sleep::remove(thread_t thread) {
    80001ce0:	00050713          	mv	a4,a0
    Node* prev = nullptr, *cur = first;
    80001ce4:	0000e517          	auipc	a0,0xe
    80001ce8:	d3453503          	ld	a0,-716(a0) # 8000fa18 <_ZN6_Sleep5firstE>
    80001cec:	00000693          	li	a3,0
    while (cur && cur->thread != thread) prev = cur, cur = cur->next;
    80001cf0:	00050c63          	beqz	a0,80001d08 <_ZN6_Sleep6removeEP7_Thread+0x28>
    80001cf4:	00053783          	ld	a5,0(a0)
    80001cf8:	00e78863          	beq	a5,a4,80001d08 <_ZN6_Sleep6removeEP7_Thread+0x28>
    80001cfc:	00050693          	mv	a3,a0
    80001d00:	01053503          	ld	a0,16(a0)
    80001d04:	fedff06f          	j	80001cf0 <_ZN6_Sleep6removeEP7_Thread+0x10>
    if (!cur) return -1;
    80001d08:	06050263          	beqz	a0,80001d6c <_ZN6_Sleep6removeEP7_Thread+0x8c>
int _Sleep::remove(thread_t thread) {
    80001d0c:	ff010113          	addi	sp,sp,-16
    80001d10:	00113423          	sd	ra,8(sp)
    80001d14:	00813023          	sd	s0,0(sp)
    80001d18:	01010413          	addi	s0,sp,16
    if (prev) prev->next = cur->next;
    80001d1c:	04068063          	beqz	a3,80001d5c <_ZN6_Sleep6removeEP7_Thread+0x7c>
    80001d20:	01053783          	ld	a5,16(a0)
    80001d24:	00f6b823          	sd	a5,16(a3)
    else first = cur->next;
    Node* ret = cur; cur = cur->next;
    80001d28:	01053783          	ld	a5,16(a0)
    if (cur) cur->left += ret->left;
    80001d2c:	00078a63          	beqz	a5,80001d40 <_ZN6_Sleep6removeEP7_Thread+0x60>
    80001d30:	00853683          	ld	a3,8(a0)
    80001d34:	0087b703          	ld	a4,8(a5)
    80001d38:	00d70733          	add	a4,a4,a3
    80001d3c:	00e7b423          	sd	a4,8(a5)
    delete ret;
    80001d40:	00000097          	auipc	ra,0x0
    80001d44:	de8080e7          	jalr	-536(ra) # 80001b28 <_ZN6_Sleep4NodedlEPv>
    return 0;
    80001d48:	00000513          	li	a0,0
    80001d4c:	00813083          	ld	ra,8(sp)
    80001d50:	00013403          	ld	s0,0(sp)
    80001d54:	01010113          	addi	sp,sp,16
    80001d58:	00008067          	ret
    else first = cur->next;
    80001d5c:	01053783          	ld	a5,16(a0)
    80001d60:	0000e717          	auipc	a4,0xe
    80001d64:	caf73c23          	sd	a5,-840(a4) # 8000fa18 <_ZN6_Sleep5firstE>
    80001d68:	fc1ff06f          	j	80001d28 <_ZN6_Sleep6removeEP7_Thread+0x48>
    if (!cur) return -1;
    80001d6c:	fff00513          	li	a0,-1
    80001d70:	00008067          	ret

0000000080001d74 <_ZN4_PMTC1Eb>:
#include "../lib/hw.h"
#include "../h/_slab.h"
#include "../h/_BuddyAllocator.h"
#include "../h/_PMT.h"

_PMT::_PMT(bool direct) {
    80001d74:	ff010113          	addi	sp,sp,-16
    80001d78:	00813423          	sd	s0,8(sp)
    80001d7c:	01010413          	addi	s0,sp,16
    80001d80:	00050713          	mv	a4,a0
    80001d84:	1ff00793          	li	a5,511
    80001d88:	0007ca63          	bltz	a5,80001d9c <_ZN4_PMTC1Eb+0x28>
     * 2 : W = 1;
     * 1 : R = 1
     * 0 : V
     */
public:
    _PMTE() { val = 0; }
    80001d8c:	00073023          	sd	zero,0(a4)
    80001d90:	00870713          	addi	a4,a4,8
    80001d94:	fff78793          	addi	a5,a5,-1
    80001d98:	ff1ff06f          	j	80001d88 <_ZN4_PMTC1Eb+0x14>
    if (!direct) return;
    80001d9c:	02058663          	beqz	a1,80001dc8 <_ZN4_PMTC1Eb+0x54>
    for (int i = 0; i < 512; i++) {
    80001da0:	00000793          	li	a5,0
    80001da4:	1ff00713          	li	a4,511
    80001da8:	02f74063          	blt	a4,a5,80001dc8 <_ZN4_PMTC1Eb+0x54>
    void setRWX () { val |= 14; }
    bool isLeaf() { return (val >> 1) & 7ull; }
    void setAD() { val |= 192; }
    void setFrame(uint64 frame) {
        val &= 0xFFC00000000003FFULL;
        val |= frame << 10;
    80001dac:	01c79693          	slli	a3,a5,0x1c
    80001db0:	00379713          	slli	a4,a5,0x3
    80001db4:	00e50733          	add	a4,a0,a4
    80001db8:	0ff6e693          	ori	a3,a3,255
    80001dbc:	00d73023          	sd	a3,0(a4)
    80001dc0:	0017879b          	addiw	a5,a5,1
    80001dc4:	fe1ff06f          	j	80001da4 <_ZN4_PMTC1Eb+0x30>
                uint64 frame = ((uint64)k << 18) | ((uint64)j << 9) | ((uint64)i);
                pmt3[k].setFrame(frame);
            }
        }*/
    }
}
    80001dc8:	00813403          	ld	s0,8(sp)
    80001dcc:	01010113          	addi	sp,sp,16
    80001dd0:	00008067          	ret

0000000080001dd4 <_ZN4_PMT8getEntryEm>:
_PMTE* _PMT::getEntry(uint64 page) {
    80001dd4:	fd010113          	addi	sp,sp,-48
    80001dd8:	02113423          	sd	ra,40(sp)
    80001ddc:	02813023          	sd	s0,32(sp)
    80001de0:	00913c23          	sd	s1,24(sp)
    80001de4:	01213823          	sd	s2,16(sp)
    80001de8:	01313423          	sd	s3,8(sp)
    80001dec:	01413023          	sd	s4,0(sp)
    80001df0:	03010413          	addi	s0,sp,48
    int k = page & 0x1ffull;
    80001df4:	1ff5f493          	andi	s1,a1,511
    int j = (page >> 9) & 0x1ffull;
    80001df8:	0095da13          	srli	s4,a1,0x9
    int i = (page >> 18) & 0x1ffull;
    80001dfc:	0125d593          	srli	a1,a1,0x12
    80001e00:	1ff5f913          	andi	s2,a1,511
    bool isValid() { return val & 1;}
    80001e04:	00391793          	slli	a5,s2,0x3
    80001e08:	00f507b3          	add	a5,a0,a5
    80001e0c:	0007b783          	ld	a5,0(a5)
    80001e10:	0017f713          	andi	a4,a5,1
    if (!entries[i].isValid()) return nullptr;
    80001e14:	16070463          	beqz	a4,80001f7c <_ZN4_PMT8getEntryEm+0x1a8>
    80001e18:	00050993          	mv	s3,a0
    80001e1c:	1ffa7a13          	andi	s4,s4,511
    bool isLeaf() { return (val >> 1) & 7ull; }
    80001e20:	0017d793          	srli	a5,a5,0x1
    80001e24:	0077f793          	andi	a5,a5,7
    if (entries[i].isLeaf()) {
    80001e28:	08079863          	bnez	a5,80001eb8 <_ZN4_PMT8getEntryEm+0xe4>
    }
    uint64 getFrame() {
        return (val >> 10) & 0xFFFFFFFFFFFULL;
    80001e2c:	00391913          	slli	s2,s2,0x3
    80001e30:	012989b3          	add	s3,s3,s2
    80001e34:	0009b783          	ld	a5,0(s3)
    80001e38:	00a7d793          	srli	a5,a5,0xa
            pmt2[t].setDefaultLeaf();
            pmt2[t].setFrame(supFrame | ((uint64) t) << 9);
        }
    }
    uint64 pmt2frame = entries[i].getFrame();
    _PMTE* pmt2 = (_PMTE*) (pmt2frame << 12);
    80001e3c:	00c79793          	slli	a5,a5,0xc
    80001e40:	fff00737          	lui	a4,0xfff00
    80001e44:	00875713          	srli	a4,a4,0x8
    80001e48:	00e7f7b3          	and	a5,a5,a4
    if (!pmt2[j].isValid()) return nullptr;
    80001e4c:	003a1a13          	slli	s4,s4,0x3
    80001e50:	01478a33          	add	s4,a5,s4
    bool isValid() { return val & 1;}
    80001e54:	000a3783          	ld	a5,0(s4)
    80001e58:	0017f713          	andi	a4,a5,1
    80001e5c:	12070463          	beqz	a4,80001f84 <_ZN4_PMT8getEntryEm+0x1b0>
    bool isLeaf() { return (val >> 1) & 7ull; }
    80001e60:	0017d793          	srli	a5,a5,0x1
    80001e64:	0077f793          	andi	a5,a5,7
    if (pmt2[j].isLeaf()) {
    80001e68:	0a079c63          	bnez	a5,80001f20 <_ZN4_PMT8getEntryEm+0x14c>
        return (val >> 10) & 0xFFFFFFFFFFFULL;
    80001e6c:	000a3503          	ld	a0,0(s4)
    80001e70:	00a55513          	srli	a0,a0,0xa
            pmt3[t].setDefaultLeaf();
            pmt3[t].setFrame(supFrame | (uint64)t);
        }
    }
    uint64 pmt3frame = pmt2[j].getFrame();
    _PMTE* pmt3 = (_PMTE*) (pmt3frame << 12);
    80001e74:	00c51513          	slli	a0,a0,0xc
    80001e78:	fff007b7          	lui	a5,0xfff00
    80001e7c:	0087d793          	srli	a5,a5,0x8
    80001e80:	00f57533          	and	a0,a0,a5
    if (!pmt3[k].isValid()) return nullptr;
    80001e84:	00349493          	slli	s1,s1,0x3
    80001e88:	00950533          	add	a0,a0,s1
    bool isValid() { return val & 1;}
    80001e8c:	00053783          	ld	a5,0(a0)
    80001e90:	0017f793          	andi	a5,a5,1
    80001e94:	0e078c63          	beqz	a5,80001f8c <_ZN4_PMT8getEntryEm+0x1b8>
    return pmt3 + k;
}
    80001e98:	02813083          	ld	ra,40(sp)
    80001e9c:	02013403          	ld	s0,32(sp)
    80001ea0:	01813483          	ld	s1,24(sp)
    80001ea4:	01013903          	ld	s2,16(sp)
    80001ea8:	00813983          	ld	s3,8(sp)
    80001eac:	00013a03          	ld	s4,0(sp)
    80001eb0:	03010113          	addi	sp,sp,48
    80001eb4:	00008067          	ret
        _PMTE *pmt2 = (_PMTE *) buddyAlloc(0);
    80001eb8:	00000513          	li	a0,0
    80001ebc:	fffff097          	auipc	ra,0xfffff
    80001ec0:	6f8080e7          	jalr	1784(ra) # 800015b4 <_Z10buddyAlloci>
        return (val >> 10) & 0xFFFFFFFFFFFULL;
    80001ec4:	00391713          	slli	a4,s2,0x3
    80001ec8:	00e98733          	add	a4,s3,a4
    80001ecc:	00073603          	ld	a2,0(a4) # fffffffffff00000 <end+0xffffffff7feebc70>
    80001ed0:	00a65613          	srli	a2,a2,0xa
    80001ed4:	fff00793          	li	a5,-1
    80001ed8:	0147d793          	srli	a5,a5,0x14
    80001edc:	00f67633          	and	a2,a2,a5
        entries[i].setFrame((uint64) pmt2 >> 12);
    80001ee0:	00c55793          	srli	a5,a0,0xc
        val |= frame << 10;
    80001ee4:	00a79793          	slli	a5,a5,0xa
    80001ee8:	0017e793          	ori	a5,a5,1
    80001eec:	00f73023          	sd	a5,0(a4)
        for (int t = 0; t < 512; t++) {
    80001ef0:	00000713          	li	a4,0
    80001ef4:	1ff00793          	li	a5,511
    80001ef8:	f2e7cae3          	blt	a5,a4,80001e2c <_ZN4_PMT8getEntryEm+0x58>
            pmt2[t].setDefaultLeaf();
    80001efc:	00371693          	slli	a3,a4,0x3
    80001f00:	00d506b3          	add	a3,a0,a3
            pmt2[t].setFrame(supFrame | ((uint64) t) << 9);
    80001f04:	00971793          	slli	a5,a4,0x9
    80001f08:	00c7e7b3          	or	a5,a5,a2
    80001f0c:	00a79793          	slli	a5,a5,0xa
    80001f10:	0ff7e793          	ori	a5,a5,255
    80001f14:	00f6b023          	sd	a5,0(a3)
        for (int t = 0; t < 512; t++) {
    80001f18:	0017071b          	addiw	a4,a4,1
    80001f1c:	fd9ff06f          	j	80001ef4 <_ZN4_PMT8getEntryEm+0x120>
        _PMTE *pmt3 = (_PMTE *) buddyAlloc(0);
    80001f20:	00000513          	li	a0,0
    80001f24:	fffff097          	auipc	ra,0xfffff
    80001f28:	690080e7          	jalr	1680(ra) # 800015b4 <_Z10buddyAlloci>
        return (val >> 10) & 0xFFFFFFFFFFFULL;
    80001f2c:	000a3603          	ld	a2,0(s4)
    80001f30:	00a65613          	srli	a2,a2,0xa
    80001f34:	fff00793          	li	a5,-1
    80001f38:	0147d793          	srli	a5,a5,0x14
    80001f3c:	00f67633          	and	a2,a2,a5
        pmt2[j].setFrame((uint64) pmt3 >> 12);
    80001f40:	00c55793          	srli	a5,a0,0xc
        val |= frame << 10;
    80001f44:	00a79793          	slli	a5,a5,0xa
    80001f48:	0017e793          	ori	a5,a5,1
    80001f4c:	00fa3023          	sd	a5,0(s4)
        for (int t = 0; t < 512; t++) {
    80001f50:	00000713          	li	a4,0
    80001f54:	1ff00793          	li	a5,511
    80001f58:	f0e7cae3          	blt	a5,a4,80001e6c <_ZN4_PMT8getEntryEm+0x98>
            pmt3[t].setDefaultLeaf();
    80001f5c:	00371693          	slli	a3,a4,0x3
    80001f60:	00d506b3          	add	a3,a0,a3
            pmt3[t].setFrame(supFrame | (uint64)t);
    80001f64:	00c767b3          	or	a5,a4,a2
    80001f68:	00a79793          	slli	a5,a5,0xa
    80001f6c:	0ff7e793          	ori	a5,a5,255
    80001f70:	00f6b023          	sd	a5,0(a3)
        for (int t = 0; t < 512; t++) {
    80001f74:	0017071b          	addiw	a4,a4,1
    80001f78:	fddff06f          	j	80001f54 <_ZN4_PMT8getEntryEm+0x180>
    if (!entries[i].isValid()) return nullptr;
    80001f7c:	00000513          	li	a0,0
    80001f80:	f19ff06f          	j	80001e98 <_ZN4_PMT8getEntryEm+0xc4>
    if (!pmt2[j].isValid()) return nullptr;
    80001f84:	00000513          	li	a0,0
    80001f88:	f11ff06f          	j	80001e98 <_ZN4_PMT8getEntryEm+0xc4>
    if (!pmt3[k].isValid()) return nullptr;
    80001f8c:	00000513          	li	a0,0
    80001f90:	f09ff06f          	j	80001e98 <_ZN4_PMT8getEntryEm+0xc4>

0000000080001f94 <_ZN4_PMT6clearUEm>:

void _PMT::clearU(uint64 page) {
    80001f94:	ff010113          	addi	sp,sp,-16
    80001f98:	00113423          	sd	ra,8(sp)
    80001f9c:	00813023          	sd	s0,0(sp)
    80001fa0:	01010413          	addi	s0,sp,16
    _PMTE* entry = getEntry(page);
    80001fa4:	00000097          	auipc	ra,0x0
    80001fa8:	e30080e7          	jalr	-464(ra) # 80001dd4 <_ZN4_PMT8getEntryEm>
    if (!entry) return;
    80001fac:	00050863          	beqz	a0,80001fbc <_ZN4_PMT6clearUEm+0x28>
    void setDefaultNode() {
        val = 0;
        setV();
    }
    void setU() { val |= 16; }
    void clearU() { val &= ~(uint64)16; }
    80001fb0:	00053783          	ld	a5,0(a0)
    80001fb4:	fef7f793          	andi	a5,a5,-17
    80001fb8:	00f53023          	sd	a5,0(a0)
    entry->clearU();
}
    80001fbc:	00813083          	ld	ra,8(sp)
    80001fc0:	00013403          	ld	s0,0(sp)
    80001fc4:	01010113          	addi	sp,sp,16
    80001fc8:	00008067          	ret

0000000080001fcc <_ZN4_PMT6clearUEmm>:
void _PMT::clearU(uint64 start, uint64 end) {
    80001fcc:	fd010113          	addi	sp,sp,-48
    80001fd0:	02113423          	sd	ra,40(sp)
    80001fd4:	02813023          	sd	s0,32(sp)
    80001fd8:	00913c23          	sd	s1,24(sp)
    80001fdc:	01213823          	sd	s2,16(sp)
    80001fe0:	01313423          	sd	s3,8(sp)
    80001fe4:	03010413          	addi	s0,sp,48
    80001fe8:	00050993          	mv	s3,a0
    80001fec:	00058493          	mv	s1,a1
    80001ff0:	00060913          	mv	s2,a2
    for (uint64 cur = start; cur <= end; cur++) clearU(cur);
    80001ff4:	00996e63          	bltu	s2,s1,80002010 <_ZN4_PMT6clearUEmm+0x44>
    80001ff8:	00048593          	mv	a1,s1
    80001ffc:	00098513          	mv	a0,s3
    80002000:	00000097          	auipc	ra,0x0
    80002004:	f94080e7          	jalr	-108(ra) # 80001f94 <_ZN4_PMT6clearUEm>
    80002008:	00148493          	addi	s1,s1,1
    8000200c:	fe9ff06f          	j	80001ff4 <_ZN4_PMT6clearUEmm+0x28>
}
    80002010:	02813083          	ld	ra,40(sp)
    80002014:	02013403          	ld	s0,32(sp)
    80002018:	01813483          	ld	s1,24(sp)
    8000201c:	01013903          	ld	s2,16(sp)
    80002020:	00813983          	ld	s3,8(sp)
    80002024:	03010113          	addi	sp,sp,48
    80002028:	00008067          	ret

000000008000202c <_ZnwmPv>:
// Created by os on 11/26/22.
//

#include "../h/_placementNew.h"

void* operator new( size_t, void* where ) {
    8000202c:	ff010113          	addi	sp,sp,-16
    80002030:	00813423          	sd	s0,8(sp)
    80002034:	01010413          	addi	s0,sp,16
    return where;
    80002038:	00058513          	mv	a0,a1
    8000203c:	00813403          	ld	s0,8(sp)
    80002040:	01010113          	addi	sp,sp,16
    80002044:	00008067          	ret

0000000080002048 <_ZN5_Slab5allocEv>:
        *(void**)ptr = ptr + slotSize;
        ptr += slotSize;
    }
    *(void**)ptr = nullptr;
}
void* _Slab::alloc() {
    80002048:	ff010113          	addi	sp,sp,-16
    8000204c:	00813423          	sd	s0,8(sp)
    80002050:	01010413          	addi	s0,sp,16
    80002054:	00050793          	mv	a5,a0
    if (!free) return nullptr;
    80002058:	00853503          	ld	a0,8(a0)
    8000205c:	00050c63          	beqz	a0,80002074 <_ZN5_Slab5allocEv+0x2c>
    void* ret = free;
    free = *(void**)free;
    80002060:	00053703          	ld	a4,0(a0)
    80002064:	00e7b423          	sd	a4,8(a5) # fffffffffff00008 <end+0xffffffff7feebc78>
    allocated++;
    80002068:	0107a703          	lw	a4,16(a5)
    8000206c:	0017071b          	addiw	a4,a4,1
    80002070:	00e7a823          	sw	a4,16(a5)
    return ret;
}
    80002074:	00813403          	ld	s0,8(sp)
    80002078:	01010113          	addi	sp,sp,16
    8000207c:	00008067          	ret

0000000080002080 <_ZN5_Slab7deallocEPv>:
void _Slab::dealloc(void* ptr) {
    80002080:	ff010113          	addi	sp,sp,-16
    80002084:	00813423          	sd	s0,8(sp)
    80002088:	01010413          	addi	s0,sp,16
    *(void**)ptr = free;
    8000208c:	00853783          	ld	a5,8(a0)
    80002090:	00f5b023          	sd	a5,0(a1)
    free = ptr;
    80002094:	00b53423          	sd	a1,8(a0)
    allocated--;
    80002098:	01052783          	lw	a5,16(a0)
    8000209c:	fff7879b          	addiw	a5,a5,-1
    800020a0:	00f52823          	sw	a5,16(a0)
}
    800020a4:	00813403          	ld	s0,8(sp)
    800020a8:	01010113          	addi	sp,sp,16
    800020ac:	00008067          	ret

00000000800020b0 <_ZN5_Slab7isEmptyEv>:
bool _Slab::isEmpty() {
    800020b0:	ff010113          	addi	sp,sp,-16
    800020b4:	00813423          	sd	s0,8(sp)
    800020b8:	01010413          	addi	s0,sp,16
    return allocated == 0;
    800020bc:	01052503          	lw	a0,16(a0)
}
    800020c0:	00153513          	seqz	a0,a0
    800020c4:	00813403          	ld	s0,8(sp)
    800020c8:	01010113          	addi	sp,sp,16
    800020cc:	00008067          	ret

00000000800020d0 <_ZN5_Slab6isFullEv>:
bool _Slab::isFull() {
    800020d0:	ff010113          	addi	sp,sp,-16
    800020d4:	00813423          	sd	s0,8(sp)
    800020d8:	01010413          	addi	s0,sp,16
    return free == nullptr;
    800020dc:	00853503          	ld	a0,8(a0)
}
    800020e0:	00153513          	seqz	a0,a0
    800020e4:	00813403          	ld	s0,8(sp)
    800020e8:	01010113          	addi	sp,sp,16
    800020ec:	00008067          	ret

00000000800020f0 <_ZN8_ObjSlab8containsEPv>:
    allocated = 0;
    free = (char*)this + sizeof(_Slab);
    //Ulancavanje slotova
    init((slabSize - sizeof(_ObjSlab)) / slotSize);
}
bool _ObjSlab::contains(void* adr) {
    800020f0:	ff010113          	addi	sp,sp,-16
    800020f4:	00813423          	sd	s0,8(sp)
    800020f8:	01010413          	addi	s0,sp,16
    return adr > this && adr < (char*)this + slabSize;
    800020fc:	00b57c63          	bgeu	a0,a1,80002114 <_ZN8_ObjSlab8containsEPv+0x24>
    80002100:	02053783          	ld	a5,32(a0)
    80002104:	00f50533          	add	a0,a0,a5
    80002108:	00a5ee63          	bltu	a1,a0,80002124 <_ZN8_ObjSlab8containsEPv+0x34>
    8000210c:	00000513          	li	a0,0
    80002110:	0080006f          	j	80002118 <_ZN8_ObjSlab8containsEPv+0x28>
    80002114:	00000513          	li	a0,0
}
    80002118:	00813403          	ld	s0,8(sp)
    8000211c:	01010113          	addi	sp,sp,16
    80002120:	00008067          	ret
    return adr > this && adr < (char*)this + slabSize;
    80002124:	00100513          	li	a0,1
    80002128:	ff1ff06f          	j	80002118 <_ZN8_ObjSlab8containsEPv+0x28>

000000008000212c <_ZN9_BuffSlab8containsEPv>:
    allocated = 0;
    free = slab;
    this->slotSize = slotSize;
    init(slabSize / slotSize);
}
bool _BuffSlab::contains(void* adr) {
    8000212c:	ff010113          	addi	sp,sp,-16
    80002130:	00813423          	sd	s0,8(sp)
    80002134:	01010413          	addi	s0,sp,16
    return adr >= slab && adr < (char*)slab + slabSize;
    80002138:	03853783          	ld	a5,56(a0)
    8000213c:	00f5ec63          	bltu	a1,a5,80002154 <_ZN9_BuffSlab8containsEPv+0x28>
    80002140:	02053703          	ld	a4,32(a0)
    80002144:	00e787b3          	add	a5,a5,a4
    80002148:	00f5ee63          	bltu	a1,a5,80002164 <_ZN9_BuffSlab8containsEPv+0x38>
    8000214c:	00000513          	li	a0,0
    80002150:	0080006f          	j	80002158 <_ZN9_BuffSlab8containsEPv+0x2c>
    80002154:	00000513          	li	a0,0
}
    80002158:	00813403          	ld	s0,8(sp)
    8000215c:	01010113          	addi	sp,sp,16
    80002160:	00008067          	ret
    return adr >= slab && adr < (char*)slab + slabSize;
    80002164:	00100513          	li	a0,1
    80002168:	ff1ff06f          	j	80002158 <_ZN9_BuffSlab8containsEPv+0x2c>

000000008000216c <_ZN5_SlabC1Emm>:
_Slab::_Slab(size_t slotSize, size_t slabSize) {
    8000216c:	ff010113          	addi	sp,sp,-16
    80002170:	00813423          	sd	s0,8(sp)
    80002174:	01010413          	addi	s0,sp,16
    80002178:	0000d797          	auipc	a5,0xd
    8000217c:	50878793          	addi	a5,a5,1288 # 8000f680 <_ZTV5_Slab+0x10>
    80002180:	00f53023          	sd	a5,0(a0)
    this->slotSize = slotSize; this->slabSize = slabSize;
    80002184:	00b53c23          	sd	a1,24(a0)
    80002188:	02c53023          	sd	a2,32(a0)
}
    8000218c:	00813403          	ld	s0,8(sp)
    80002190:	01010113          	addi	sp,sp,16
    80002194:	00008067          	ret

0000000080002198 <_ZN5_Slab4initEi>:
void _Slab::init(int num) {
    80002198:	ff010113          	addi	sp,sp,-16
    8000219c:	00813423          	sd	s0,8(sp)
    800021a0:	01010413          	addi	s0,sp,16
    char* ptr = (char*)free;
    800021a4:	00853783          	ld	a5,8(a0)
    for (int i = 0; i < num - 1; i++) {
    800021a8:	00000693          	li	a3,0
    800021ac:	fff5871b          	addiw	a4,a1,-1
    800021b0:	02e6d063          	bge	a3,a4,800021d0 <_ZN5_Slab4initEi+0x38>
        *(void**)ptr = ptr + slotSize;
    800021b4:	01853703          	ld	a4,24(a0)
    800021b8:	00e78733          	add	a4,a5,a4
    800021bc:	00e7b023          	sd	a4,0(a5)
        ptr += slotSize;
    800021c0:	01853703          	ld	a4,24(a0)
    800021c4:	00e787b3          	add	a5,a5,a4
    for (int i = 0; i < num - 1; i++) {
    800021c8:	0016869b          	addiw	a3,a3,1
    800021cc:	fe1ff06f          	j	800021ac <_ZN5_Slab4initEi+0x14>
    *(void**)ptr = nullptr;
    800021d0:	0007b023          	sd	zero,0(a5)
}
    800021d4:	00813403          	ld	s0,8(sp)
    800021d8:	01010113          	addi	sp,sp,16
    800021dc:	00008067          	ret

00000000800021e0 <_ZN8_ObjSlabC1Emm>:
_ObjSlab::_ObjSlab(size_t slotSize, size_t slabSize) : _Slab(slotSize, slabSize) {
    800021e0:	fd010113          	addi	sp,sp,-48
    800021e4:	02113423          	sd	ra,40(sp)
    800021e8:	02813023          	sd	s0,32(sp)
    800021ec:	00913c23          	sd	s1,24(sp)
    800021f0:	01213823          	sd	s2,16(sp)
    800021f4:	01313423          	sd	s3,8(sp)
    800021f8:	03010413          	addi	s0,sp,48
    800021fc:	00050493          	mv	s1,a0
    80002200:	00058993          	mv	s3,a1
    80002204:	00060913          	mv	s2,a2
    80002208:	00000097          	auipc	ra,0x0
    8000220c:	f64080e7          	jalr	-156(ra) # 8000216c <_ZN5_SlabC1Emm>
    80002210:	0000d797          	auipc	a5,0xd
    80002214:	4b078793          	addi	a5,a5,1200 # 8000f6c0 <_ZTV8_ObjSlab+0x10>
    80002218:	00f4b023          	sd	a5,0(s1)
    prev = next = nullptr;
    8000221c:	0204b423          	sd	zero,40(s1)
    80002220:	0204b823          	sd	zero,48(s1)
    allocated = 0;
    80002224:	0004a823          	sw	zero,16(s1)
    free = (char*)this + sizeof(_Slab);
    80002228:	03848793          	addi	a5,s1,56
    8000222c:	00f4b423          	sd	a5,8(s1)
    init((slabSize - sizeof(_ObjSlab)) / slotSize);
    80002230:	fc890913          	addi	s2,s2,-56
    80002234:	033955b3          	divu	a1,s2,s3
    80002238:	0005859b          	sext.w	a1,a1
    8000223c:	00048513          	mv	a0,s1
    80002240:	00000097          	auipc	ra,0x0
    80002244:	f58080e7          	jalr	-168(ra) # 80002198 <_ZN5_Slab4initEi>
}
    80002248:	02813083          	ld	ra,40(sp)
    8000224c:	02013403          	ld	s0,32(sp)
    80002250:	01813483          	ld	s1,24(sp)
    80002254:	01013903          	ld	s2,16(sp)
    80002258:	00813983          	ld	s3,8(sp)
    8000225c:	03010113          	addi	sp,sp,48
    80002260:	00008067          	ret

0000000080002264 <_ZN9_BuffSlabC1EmmPv>:
_BuffSlab::_BuffSlab(size_t slotSize, size_t slabSize, void* slabSpace) : _Slab(slotSize, slabSize) {
    80002264:	fd010113          	addi	sp,sp,-48
    80002268:	02113423          	sd	ra,40(sp)
    8000226c:	02813023          	sd	s0,32(sp)
    80002270:	00913c23          	sd	s1,24(sp)
    80002274:	01213823          	sd	s2,16(sp)
    80002278:	01313423          	sd	s3,8(sp)
    8000227c:	01413023          	sd	s4,0(sp)
    80002280:	03010413          	addi	s0,sp,48
    80002284:	00050493          	mv	s1,a0
    80002288:	00058993          	mv	s3,a1
    8000228c:	00060913          	mv	s2,a2
    80002290:	00068a13          	mv	s4,a3
    80002294:	00000097          	auipc	ra,0x0
    80002298:	ed8080e7          	jalr	-296(ra) # 8000216c <_ZN5_SlabC1Emm>
    8000229c:	0000d797          	auipc	a5,0xd
    800022a0:	46478793          	addi	a5,a5,1124 # 8000f700 <_ZTV9_BuffSlab+0x10>
    800022a4:	00f4b023          	sd	a5,0(s1)
    slab = slabSpace;
    800022a8:	0344bc23          	sd	s4,56(s1)
    prev = next = nullptr;
    800022ac:	0204b423          	sd	zero,40(s1)
    800022b0:	0204b823          	sd	zero,48(s1)
    allocated = 0;
    800022b4:	0004a823          	sw	zero,16(s1)
    free = slab;
    800022b8:	0144b423          	sd	s4,8(s1)
    this->slotSize = slotSize;
    800022bc:	0134bc23          	sd	s3,24(s1)
    init(slabSize / slotSize);
    800022c0:	033955b3          	divu	a1,s2,s3
    800022c4:	0005859b          	sext.w	a1,a1
    800022c8:	00048513          	mv	a0,s1
    800022cc:	00000097          	auipc	ra,0x0
    800022d0:	ecc080e7          	jalr	-308(ra) # 80002198 <_ZN5_Slab4initEi>
}
    800022d4:	02813083          	ld	ra,40(sp)
    800022d8:	02013403          	ld	s0,32(sp)
    800022dc:	01813483          	ld	s1,24(sp)
    800022e0:	01013903          	ld	s2,16(sp)
    800022e4:	00813983          	ld	s3,8(sp)
    800022e8:	00013a03          	ld	s4,0(sp)
    800022ec:	03010113          	addi	sp,sp,48
    800022f0:	00008067          	ret

00000000800022f4 <_ZN12kmem_cache_t19formatBuffSlabSpaceEP9_BuffSlabPv>:

kmem_cache_t* kmem_cache_t::cacheMem; //memorija u koju se smestaju kesevi
kmem_cache_t* kmem_cache_t::freeHead; //lista slobodnih
kmem_cache_t* kmem_cache_t::allocatedHead; //lista zauzetih
_BuffSlab* kmem_cache_t::buffSlabHead;
_BuffSlab* kmem_cache_t::formatBuffSlabSpace(_BuffSlab* start, void* end) {
    800022f4:	fd010113          	addi	sp,sp,-48
    800022f8:	02113423          	sd	ra,40(sp)
    800022fc:	02813023          	sd	s0,32(sp)
    80002300:	00913c23          	sd	s1,24(sp)
    80002304:	01213823          	sd	s2,16(sp)
    80002308:	01313423          	sd	s3,8(sp)
    8000230c:	01413023          	sd	s4,0(sp)
    80002310:	03010413          	addi	s0,sp,48
    80002314:	00050493          	mv	s1,a0
    80002318:	00058a13          	mv	s4,a1
    _BuffSlab* prev, *cur;
    prev = nullptr; cur = start;
    8000231c:	00000993          	li	s3,0
    80002320:	00c0006f          	j	8000232c <_ZN12kmem_cache_t19formatBuffSlabSpaceEP9_BuffSlabPv+0x38>
_BuffSlab* kmem_cache_t::formatBuffSlabSpace(_BuffSlab* start, void* end) {
    80002324:	00048993          	mv	s3,s1
    80002328:	00090493          	mv	s1,s2
    while (cur + 1 <= end) {
    8000232c:	04048913          	addi	s2,s1,64
    80002330:	032a6863          	bltu	s4,s2,80002360 <_ZN12kmem_cache_t19formatBuffSlabSpaceEP9_BuffSlabPv+0x6c>
        new (cur) _BuffSlab();
    80002334:	00048593          	mv	a1,s1
    80002338:	04000513          	li	a0,64
    8000233c:	00000097          	auipc	ra,0x0
    80002340:	cf0080e7          	jalr	-784(ra) # 8000202c <_ZnwmPv>
    80002344:	00050863          	beqz	a0,80002354 <_ZN12kmem_cache_t19formatBuffSlabSpaceEP9_BuffSlabPv+0x60>

class _BuffSlab : public _Slab {
    void* slab;
public:
    _BuffSlab(size_t slotSize, size_t slabSize, void* slabSpace);
    _BuffSlab() {}
    80002348:	0000d797          	auipc	a5,0xd
    8000234c:	3b878793          	addi	a5,a5,952 # 8000f700 <_ZTV9_BuffSlab+0x10>
    80002350:	00f53023          	sd	a5,0(a0)
        if (prev) prev->next = cur;
    80002354:	fc0988e3          	beqz	s3,80002324 <_ZN12kmem_cache_t19formatBuffSlabSpaceEP9_BuffSlabPv+0x30>
    80002358:	0299b423          	sd	s1,40(s3)
    8000235c:	fc9ff06f          	j	80002324 <_ZN12kmem_cache_t19formatBuffSlabSpaceEP9_BuffSlabPv+0x30>
        prev = cur; cur++;
    }
    if (!prev) return nullptr;
    80002360:	00098463          	beqz	s3,80002368 <_ZN12kmem_cache_t19formatBuffSlabSpaceEP9_BuffSlabPv+0x74>
    prev->next = nullptr;
    80002364:	0209b423          	sd	zero,40(s3)
    return prev;
}
    80002368:	00098513          	mv	a0,s3
    8000236c:	02813083          	ld	ra,40(sp)
    80002370:	02013403          	ld	s0,32(sp)
    80002374:	01813483          	ld	s1,24(sp)
    80002378:	01013903          	ld	s2,16(sp)
    8000237c:	00813983          	ld	s3,8(sp)
    80002380:	00013a03          	ld	s4,0(sp)
    80002384:	03010113          	addi	sp,sp,48
    80002388:	00008067          	ret

000000008000238c <_ZN12kmem_cache_t19expandBuffSlabSpaceEv>:
void kmem_cache_t::expandBuffSlabSpace() {
    8000238c:	fe010113          	addi	sp,sp,-32
    80002390:	00113c23          	sd	ra,24(sp)
    80002394:	00813823          	sd	s0,16(sp)
    80002398:	00913423          	sd	s1,8(sp)
    8000239c:	02010413          	addi	s0,sp,32
    _BuffSlab* newspace = (_BuffSlab*)buddy->allocBlock(0);
    800023a0:	00000593          	li	a1,0
    800023a4:	0000d517          	auipc	a0,0xd
    800023a8:	67c53503          	ld	a0,1660(a0) # 8000fa20 <_ZN12kmem_cache_t5buddyE>
    800023ac:	00004097          	auipc	ra,0x4
    800023b0:	570080e7          	jalr	1392(ra) # 8000691c <_ZN10_BuddyTree10allocBlockEi>
    if (!newspace) return;
    800023b4:	02050663          	beqz	a0,800023e0 <_ZN12kmem_cache_t19expandBuffSlabSpaceEv+0x54>
    800023b8:	00050493          	mv	s1,a0
    _BuffSlab* last = formatBuffSlabSpace(newspace, (char*)newspace + BLOCK_SIZE);
    800023bc:	000015b7          	lui	a1,0x1
    800023c0:	00b505b3          	add	a1,a0,a1
    800023c4:	00000097          	auipc	ra,0x0
    800023c8:	f30080e7          	jalr	-208(ra) # 800022f4 <_ZN12kmem_cache_t19formatBuffSlabSpaceEP9_BuffSlabPv>
    last->next = buffSlabHead; buffSlabHead = newspace;
    800023cc:	0000d797          	auipc	a5,0xd
    800023d0:	65478793          	addi	a5,a5,1620 # 8000fa20 <_ZN12kmem_cache_t5buddyE>
    800023d4:	0087b703          	ld	a4,8(a5)
    800023d8:	02e53423          	sd	a4,40(a0)
    800023dc:	0097b423          	sd	s1,8(a5)
}
    800023e0:	01813083          	ld	ra,24(sp)
    800023e4:	01013403          	ld	s0,16(sp)
    800023e8:	00813483          	ld	s1,8(sp)
    800023ec:	02010113          	addi	sp,sp,32
    800023f0:	00008067          	ret

00000000800023f4 <_ZN12kmem_cache_t13allocBuffSlabEv>:
_BuffSlab* kmem_cache_t::allocBuffSlab() {
    if (!buffSlabHead) expandBuffSlabSpace();
    800023f4:	0000d797          	auipc	a5,0xd
    800023f8:	6347b783          	ld	a5,1588(a5) # 8000fa28 <_ZN12kmem_cache_t12buffSlabHeadE>
    800023fc:	02078063          	beqz	a5,8000241c <_ZN12kmem_cache_t13allocBuffSlabEv+0x28>
    if (!buffSlabHead) return nullptr;
    80002400:	0000d517          	auipc	a0,0xd
    80002404:	62853503          	ld	a0,1576(a0) # 8000fa28 <_ZN12kmem_cache_t12buffSlabHeadE>
    80002408:	04050a63          	beqz	a0,8000245c <_ZN12kmem_cache_t13allocBuffSlabEv+0x68>
    _BuffSlab* ret = buffSlabHead;
    buffSlabHead = (_BuffSlab*)(ret->next);
    8000240c:	02853783          	ld	a5,40(a0)
    80002410:	0000d717          	auipc	a4,0xd
    80002414:	60f73c23          	sd	a5,1560(a4) # 8000fa28 <_ZN12kmem_cache_t12buffSlabHeadE>
    return ret;
    80002418:	00008067          	ret
_BuffSlab* kmem_cache_t::allocBuffSlab() {
    8000241c:	ff010113          	addi	sp,sp,-16
    80002420:	00113423          	sd	ra,8(sp)
    80002424:	00813023          	sd	s0,0(sp)
    80002428:	01010413          	addi	s0,sp,16
    if (!buffSlabHead) expandBuffSlabSpace();
    8000242c:	00000097          	auipc	ra,0x0
    80002430:	f60080e7          	jalr	-160(ra) # 8000238c <_ZN12kmem_cache_t19expandBuffSlabSpaceEv>
    if (!buffSlabHead) return nullptr;
    80002434:	0000d517          	auipc	a0,0xd
    80002438:	5f453503          	ld	a0,1524(a0) # 8000fa28 <_ZN12kmem_cache_t12buffSlabHeadE>
    8000243c:	00050863          	beqz	a0,8000244c <_ZN12kmem_cache_t13allocBuffSlabEv+0x58>
    buffSlabHead = (_BuffSlab*)(ret->next);
    80002440:	02853783          	ld	a5,40(a0)
    80002444:	0000d717          	auipc	a4,0xd
    80002448:	5ef73223          	sd	a5,1508(a4) # 8000fa28 <_ZN12kmem_cache_t12buffSlabHeadE>
}
    8000244c:	00813083          	ld	ra,8(sp)
    80002450:	00013403          	ld	s0,0(sp)
    80002454:	01010113          	addi	sp,sp,16
    80002458:	00008067          	ret
    8000245c:	00008067          	ret

0000000080002460 <_ZN12kmem_cache_t15deallocBuffSlabEP9_BuffSlab>:
void kmem_cache_t::deallocBuffSlab(_BuffSlab* slab) {
    80002460:	ff010113          	addi	sp,sp,-16
    80002464:	00813423          	sd	s0,8(sp)
    80002468:	01010413          	addi	s0,sp,16
    slab->next = buffSlabHead;
    8000246c:	0000d797          	auipc	a5,0xd
    80002470:	5b478793          	addi	a5,a5,1460 # 8000fa20 <_ZN12kmem_cache_t5buddyE>
    80002474:	0087b703          	ld	a4,8(a5)
    80002478:	02e53423          	sd	a4,40(a0)
    buffSlabHead = slab;
    8000247c:	00a7b423          	sd	a0,8(a5)
}
    80002480:	00813403          	ld	s0,8(sp)
    80002484:	01010113          	addi	sp,sp,16
    80002488:	00008067          	ret

000000008000248c <_ZN12kmem_cache_t8allocKctEv>:
    for (int i = 0; i < buffCnt; i++) {
        new (cacheMem + i) kmem_cache_t("buffCache", buffSize, nullptr, nullptr, true);
        buffSize <<= 1;
    }
}
kmem_cache_t* kmem_cache_t::allocKct() {
    8000248c:	ff010113          	addi	sp,sp,-16
    80002490:	00813423          	sd	s0,8(sp)
    80002494:	01010413          	addi	s0,sp,16
    if (!freeHead) return nullptr;
    80002498:	0000d517          	auipc	a0,0xd
    8000249c:	59853503          	ld	a0,1432(a0) # 8000fa30 <_ZN12kmem_cache_t8freeHeadE>
    800024a0:	02050863          	beqz	a0,800024d0 <_ZN12kmem_cache_t8allocKctEv+0x44>
    //izbacuje se iz liste slobodnih
    kmem_cache_t* ret = freeHead;
    freeHead = freeHead->next;
    800024a4:	04853783          	ld	a5,72(a0)
    800024a8:	0000d717          	auipc	a4,0xd
    800024ac:	58f73423          	sd	a5,1416(a4) # 8000fa30 <_ZN12kmem_cache_t8freeHeadE>
    if (freeHead) freeHead->prev = nullptr;
    800024b0:	00078463          	beqz	a5,800024b8 <_ZN12kmem_cache_t8allocKctEv+0x2c>
    800024b4:	0407b823          	sd	zero,80(a5)
    //ubacuje se u listu alociranih
    ret->next = allocatedHead; ret->prev = nullptr;
    800024b8:	0000d797          	auipc	a5,0xd
    800024bc:	5807b783          	ld	a5,1408(a5) # 8000fa38 <_ZN12kmem_cache_t13allocatedHeadE>
    800024c0:	04f53423          	sd	a5,72(a0)
    800024c4:	04053823          	sd	zero,80(a0)
    if (allocatedHead) allocatedHead->prev = ret;
    800024c8:	00078463          	beqz	a5,800024d0 <_ZN12kmem_cache_t8allocKctEv+0x44>
    800024cc:	04a7b823          	sd	a0,80(a5)
    return ret;
}
    800024d0:	00813403          	ld	s0,8(sp)
    800024d4:	01010113          	addi	sp,sp,16
    800024d8:	00008067          	ret

00000000800024dc <_ZN12kmem_cache_t10deallocKctEPS_>:
void kmem_cache_t::deallocKct(kmem_cache_t* kct) {
    800024dc:	ff010113          	addi	sp,sp,-16
    800024e0:	00813423          	sd	s0,8(sp)
    800024e4:	01010413          	addi	s0,sp,16
    //izbacuje se iz liste alociranih
    if (kct->prev) kct->prev->next = kct->next;
    800024e8:	05053783          	ld	a5,80(a0)
    800024ec:	04078463          	beqz	a5,80002534 <_ZN12kmem_cache_t10deallocKctEPS_+0x58>
    800024f0:	04853703          	ld	a4,72(a0)
    800024f4:	04e7b423          	sd	a4,72(a5)
    else allocatedHead = kct->next;
    if (kct->next) kct->next->prev = kct->prev;
    800024f8:	04853783          	ld	a5,72(a0)
    800024fc:	00078663          	beqz	a5,80002508 <_ZN12kmem_cache_t10deallocKctEPS_+0x2c>
    80002500:	05053703          	ld	a4,80(a0)
    80002504:	04e7b823          	sd	a4,80(a5)
    //ubacuje se u listu slobodnih
    kct->next = freeHead;
    80002508:	0000d797          	auipc	a5,0xd
    8000250c:	5287b783          	ld	a5,1320(a5) # 8000fa30 <_ZN12kmem_cache_t8freeHeadE>
    80002510:	04f53423          	sd	a5,72(a0)
    kct->prev = nullptr;
    80002514:	04053823          	sd	zero,80(a0)
    if (freeHead) freeHead->prev = kct;
    80002518:	00078463          	beqz	a5,80002520 <_ZN12kmem_cache_t10deallocKctEPS_+0x44>
    8000251c:	04a7b823          	sd	a0,80(a5)
    freeHead = kct;
    80002520:	0000d797          	auipc	a5,0xd
    80002524:	50a7b823          	sd	a0,1296(a5) # 8000fa30 <_ZN12kmem_cache_t8freeHeadE>
}
    80002528:	00813403          	ld	s0,8(sp)
    8000252c:	01010113          	addi	sp,sp,16
    80002530:	00008067          	ret
    else allocatedHead = kct->next;
    80002534:	04853783          	ld	a5,72(a0)
    80002538:	0000d717          	auipc	a4,0xd
    8000253c:	50f73023          	sd	a5,1280(a4) # 8000fa38 <_ZN12kmem_cache_t13allocatedHeadE>
    80002540:	fb9ff06f          	j	800024f8 <_ZN12kmem_cache_t10deallocKctEPS_+0x1c>

0000000080002544 <_ZN12kmem_cache_t12getBuffCacheEm>:
kmem_cache_t* kmem_cache_t::getBuffCache(size_t size) {
    80002544:	ff010113          	addi	sp,sp,-16
    80002548:	00813423          	sd	s0,8(sp)
    8000254c:	01010413          	addi	s0,sp,16
    //dohvata BUFFCACHE za bafer prosledjene velicine
    int pow = 0; size_t buffSize = 1;
    80002550:	00100793          	li	a5,1
    80002554:	00000713          	li	a4,0
    while (buffSize < size) pow++, buffSize <<= 1;
    80002558:	00a7f863          	bgeu	a5,a0,80002568 <_ZN12kmem_cache_t12getBuffCacheEm+0x24>
    8000255c:	0017071b          	addiw	a4,a4,1
    80002560:	00179793          	slli	a5,a5,0x1
    80002564:	ff5ff06f          	j	80002558 <_ZN12kmem_cache_t12getBuffCacheEm+0x14>
    if (pow < buffPowMin) pow = buffPowMin;
    80002568:	00400793          	li	a5,4
    8000256c:	00e7da63          	bge	a5,a4,80002580 <_ZN12kmem_cache_t12getBuffCacheEm+0x3c>
    if (pow > buffPowMax) pow = buffPowMax;
    80002570:	01100793          	li	a5,17
    80002574:	00e7d863          	bge	a5,a4,80002584 <_ZN12kmem_cache_t12getBuffCacheEm+0x40>
    80002578:	01100713          	li	a4,17
    8000257c:	0080006f          	j	80002584 <_ZN12kmem_cache_t12getBuffCacheEm+0x40>
    if (pow < buffPowMin) pow = buffPowMin;
    80002580:	00500713          	li	a4,5
    return cacheMem + pow - buffPowMin;
    80002584:	00171513          	slli	a0,a4,0x1
    80002588:	00e50733          	add	a4,a0,a4
    8000258c:	00571713          	slli	a4,a4,0x5
    80002590:	e2070713          	addi	a4,a4,-480
}
    80002594:	0000d517          	auipc	a0,0xd
    80002598:	4ac53503          	ld	a0,1196(a0) # 8000fa40 <_ZN12kmem_cache_t8cacheMemE>
    8000259c:	00e50533          	add	a0,a0,a4
    800025a0:	00813403          	ld	s0,8(sp)
    800025a4:	01010113          	addi	sp,sp,16
    800025a8:	00008067          	ret

00000000800025ac <_ZN12kmem_cache_t4moveEPP5_SlabS2_S1_>:
void kmem_cache_t::move(_Slab** listFrom, _Slab** listTo, _Slab* slab) {
    800025ac:	ff010113          	addi	sp,sp,-16
    800025b0:	00813423          	sd	s0,8(sp)
    800025b4:	01010413          	addi	s0,sp,16
    //izbacivanje
    _Slab* prev = slab->prev;
    800025b8:	03063783          	ld	a5,48(a2)
    if (prev) prev->next = slab->next;
    800025bc:	04078063          	beqz	a5,800025fc <_ZN12kmem_cache_t4moveEPP5_SlabS2_S1_+0x50>
    800025c0:	02863703          	ld	a4,40(a2)
    800025c4:	02e7b423          	sd	a4,40(a5)
    else *listFrom = slab->next;
    _Slab* next = slab->next;
    800025c8:	02863703          	ld	a4,40(a2)
    if (next) next->prev = prev;
    800025cc:	00070463          	beqz	a4,800025d4 <_ZN12kmem_cache_t4moveEPP5_SlabS2_S1_+0x28>
    800025d0:	02f73823          	sd	a5,48(a4)
    //ubacivanje
    slab->next = *listTo; slab->prev = nullptr;
    800025d4:	0005b783          	ld	a5,0(a1) # 1000 <_entry-0x7ffff000>
    800025d8:	02f63423          	sd	a5,40(a2)
    800025dc:	02063823          	sd	zero,48(a2)
    if (*listTo) (*listTo)->prev = slab;
    800025e0:	0005b783          	ld	a5,0(a1)
    800025e4:	00078463          	beqz	a5,800025ec <_ZN12kmem_cache_t4moveEPP5_SlabS2_S1_+0x40>
    800025e8:	02c7b823          	sd	a2,48(a5)
    *listTo = slab;
    800025ec:	00c5b023          	sd	a2,0(a1)
}
    800025f0:	00813403          	ld	s0,8(sp)
    800025f4:	01010113          	addi	sp,sp,16
    800025f8:	00008067          	ret
    else *listFrom = slab->next;
    800025fc:	02863703          	ld	a4,40(a2)
    80002600:	00e53023          	sd	a4,0(a0)
    80002604:	fc5ff06f          	j	800025c8 <_ZN12kmem_cache_t4moveEPP5_SlabS2_S1_+0x1c>

0000000080002608 <_ZN12kmem_cache_t12calcSlabSizeEv>:
        if (cacheMem[i].dealloc(buff)) return true;
    }
    return false;
}

void kmem_cache_t::calcSlabSize() {
    80002608:	ff010113          	addi	sp,sp,-16
    8000260c:	00813423          	sd	s0,8(sp)
    80002610:	01010413          	addi	s0,sp,16
    slabSize = BLOCK_SIZE;
    80002614:	000017b7          	lui	a5,0x1
    80002618:	02f53423          	sd	a5,40(a0)
    if (buffCache) {
    8000261c:	04054783          	lbu	a5,64(a0)
    80002620:	00078e63          	beqz	a5,8000263c <_ZN12kmem_cache_t12calcSlabSizeEv+0x34>
        while (slotSize > slabSize) slabSize <<= 1;
    80002624:	02053703          	ld	a4,32(a0)
    80002628:	02853783          	ld	a5,40(a0)
    8000262c:	04e7f063          	bgeu	a5,a4,8000266c <_ZN12kmem_cache_t12calcSlabSizeEv+0x64>
    80002630:	00179793          	slli	a5,a5,0x1
    80002634:	02f53423          	sd	a5,40(a0)
    80002638:	fedff06f          	j	80002624 <_ZN12kmem_cache_t12calcSlabSizeEv+0x1c>
    }
    else {
        size_t headerSize = sizeof(_ObjSlab);
        if (slotSize <= BLOCK_SIZE / 8) return;
    8000263c:	02053683          	ld	a3,32(a0)
    80002640:	20000793          	li	a5,512
    80002644:	00d7e863          	bltu	a5,a3,80002654 <_ZN12kmem_cache_t12calcSlabSizeEv+0x4c>
    80002648:	0240006f          	j	8000266c <_ZN12kmem_cache_t12calcSlabSizeEv+0x64>
        else while (slotSize > slabSize - headerSize || (slabSize - headerSize) % slotSize > slotSize / 8) slabSize <<= 1;
    8000264c:	00179793          	slli	a5,a5,0x1
    80002650:	02f53423          	sd	a5,40(a0)
    80002654:	02853783          	ld	a5,40(a0)
    80002658:	fc878713          	addi	a4,a5,-56 # fc8 <_entry-0x7ffff038>
    8000265c:	fed768e3          	bltu	a4,a3,8000264c <_ZN12kmem_cache_t12calcSlabSizeEv+0x44>
    80002660:	02d77733          	remu	a4,a4,a3
    80002664:	0036d613          	srli	a2,a3,0x3
    80002668:	fee662e3          	bltu	a2,a4,8000264c <_ZN12kmem_cache_t12calcSlabSizeEv+0x44>
    }
}
    8000266c:	00813403          	ld	s0,8(sp)
    80002670:	01010113          	addi	sp,sp,16
    80002674:	00008067          	ret

0000000080002678 <_ZN12kmem_cache_tC1EPKcmPFvPvES4_b>:
kmem_cache_t::kmem_cache_t(const char* name, size_t size, void (*ctor)(void*), void (*dtor)(void*), bool buffCache) {
    80002678:	ff010113          	addi	sp,sp,-16
    8000267c:	00113423          	sd	ra,8(sp)
    80002680:	00813023          	sd	s0,0(sp)
    80002684:	01010413          	addi	s0,sp,16
    80002688:	04053c23          	sd	zero,88(a0)
    this->name = name;
    8000268c:	00b53c23          	sd	a1,24(a0)
    this->slotSize = size;
    80002690:	02c53023          	sd	a2,32(a0)
    if (buffCache) {
        //ovde bi trebalo proveriti da li je size stepen dvojke
    }
    this->ctor = ctor;
    80002694:	02d53823          	sd	a3,48(a0)
    this->dtor = dtor;
    80002698:	02e53c23          	sd	a4,56(a0)
    this->buffCache = buffCache;
    8000269c:	04f50023          	sb	a5,64(a0)
    full = free = partial = nullptr;
    800026a0:	00053823          	sd	zero,16(a0)
    800026a4:	00053423          	sd	zero,8(a0)
    800026a8:	00053023          	sd	zero,0(a0)
    err = nullptr;
    calcSlabSize();
    800026ac:	00000097          	auipc	ra,0x0
    800026b0:	f5c080e7          	jalr	-164(ra) # 80002608 <_ZN12kmem_cache_t12calcSlabSizeEv>
}
    800026b4:	00813083          	ld	ra,8(sp)
    800026b8:	00013403          	ld	s0,0(sp)
    800026bc:	01010113          	addi	sp,sp,16
    800026c0:	00008067          	ret

00000000800026c4 <_ZN12kmem_cache_tC1Ev>:
kmem_cache_t::kmem_cache_t() {
    800026c4:	ff010113          	addi	sp,sp,-16
    800026c8:	00813423          	sd	s0,8(sp)
    800026cc:	01010413          	addi	s0,sp,16
    800026d0:	04053c23          	sd	zero,88(a0)
    full = free = partial = nullptr;
    800026d4:	00053823          	sd	zero,16(a0)
    800026d8:	00053423          	sd	zero,8(a0)
    800026dc:	00053023          	sd	zero,0(a0)
    ctor = dtor = nullptr;
    800026e0:	02053c23          	sd	zero,56(a0)
    800026e4:	02053823          	sd	zero,48(a0)
    name = nullptr;
    800026e8:	00053c23          	sd	zero,24(a0)
    next = prev = nullptr;
    800026ec:	04053823          	sd	zero,80(a0)
    800026f0:	04053423          	sd	zero,72(a0)
    slotSize = slabSize = 0;
    800026f4:	02053423          	sd	zero,40(a0)
    800026f8:	02053023          	sd	zero,32(a0)
    buffCache = false;
    800026fc:	04050023          	sb	zero,64(a0)
    err = nullptr;
}
    80002700:	00813403          	ld	s0,8(sp)
    80002704:	01010113          	addi	sp,sp,16
    80002708:	00008067          	ret

000000008000270c <_ZN12kmem_cache_t9kmem_initEP10_BuddyTree>:
void kmem_cache_t::kmem_init(_BuddyTree* bud) {
    8000270c:	fd010113          	addi	sp,sp,-48
    80002710:	02113423          	sd	ra,40(sp)
    80002714:	02813023          	sd	s0,32(sp)
    80002718:	00913c23          	sd	s1,24(sp)
    8000271c:	01213823          	sd	s2,16(sp)
    80002720:	01313423          	sd	s3,8(sp)
    80002724:	03010413          	addi	s0,sp,48
    buddy = bud;
    80002728:	0000d497          	auipc	s1,0xd
    8000272c:	2f848493          	addi	s1,s1,760 # 8000fa20 <_ZN12kmem_cache_t5buddyE>
    80002730:	00a4b023          	sd	a0,0(s1)
    cacheMem = (kmem_cache_t*)buddy->allocBlock(0);
    80002734:	00000593          	li	a1,0
    80002738:	00004097          	auipc	ra,0x4
    8000273c:	1e4080e7          	jalr	484(ra) # 8000691c <_ZN10_BuddyTree10allocBlockEi>
    80002740:	02a4b023          	sd	a0,32(s1)
    for (int i = 0; i < MAX; i++) {
    80002744:	00000913          	li	s2,0
    kmem_cache_t* prev = nullptr, * cur = nullptr;
    80002748:	00000993          	li	s3,0
    8000274c:	00c0006f          	j	80002758 <_ZN12kmem_cache_t9kmem_initEP10_BuddyTree+0x4c>
    for (int i = 0; i < MAX; i++) {
    80002750:	0019091b          	addiw	s2,s2,1
        cur = cacheMem + buffCnt + i;
    80002754:	00048993          	mv	s3,s1
    for (int i = 0; i < MAX; i++) {
    80002758:	01300793          	li	a5,19
    8000275c:	0527c863          	blt	a5,s2,800027ac <_ZN12kmem_cache_t9kmem_initEP10_BuddyTree+0xa0>
        cur = cacheMem + buffCnt + i;
    80002760:	00d90793          	addi	a5,s2,13
    80002764:	00179493          	slli	s1,a5,0x1
    80002768:	00f484b3          	add	s1,s1,a5
    8000276c:	00549793          	slli	a5,s1,0x5
    80002770:	0000d497          	auipc	s1,0xd
    80002774:	2d04b483          	ld	s1,720(s1) # 8000fa40 <_ZN12kmem_cache_t8cacheMemE>
    80002778:	00f484b3          	add	s1,s1,a5
        new (cacheMem + buffCnt + i) kmem_cache_t();
    8000277c:	00048593          	mv	a1,s1
    80002780:	06000513          	li	a0,96
    80002784:	00000097          	auipc	ra,0x0
    80002788:	8a8080e7          	jalr	-1880(ra) # 8000202c <_ZnwmPv>
    8000278c:	00050663          	beqz	a0,80002798 <_ZN12kmem_cache_t9kmem_initEP10_BuddyTree+0x8c>
    80002790:	00000097          	auipc	ra,0x0
    80002794:	f34080e7          	jalr	-204(ra) # 800026c4 <_ZN12kmem_cache_tC1Ev>
        cur->prev = prev; cur->next = nullptr;
    80002798:	0534b823          	sd	s3,80(s1)
    8000279c:	0404b423          	sd	zero,72(s1)
        if (prev) prev->next = cur;
    800027a0:	fa0988e3          	beqz	s3,80002750 <_ZN12kmem_cache_t9kmem_initEP10_BuddyTree+0x44>
    800027a4:	0499b423          	sd	s1,72(s3)
    800027a8:	fa9ff06f          	j	80002750 <_ZN12kmem_cache_t9kmem_initEP10_BuddyTree+0x44>
    freeHead = cacheMem + buffCnt;
    800027ac:	0000d797          	auipc	a5,0xd
    800027b0:	27478793          	addi	a5,a5,628 # 8000fa20 <_ZN12kmem_cache_t5buddyE>
    800027b4:	0207b703          	ld	a4,32(a5)
    800027b8:	4e070693          	addi	a3,a4,1248
    800027bc:	00d7b823          	sd	a3,16(a5)
    allocatedHead = nullptr;
    800027c0:	0007bc23          	sd	zero,24(a5)
    buffSlabHead = (_BuffSlab*)(cacheMem + buffCnt + MAX);
    800027c4:	000015b7          	lui	a1,0x1
    800027c8:	c6058513          	addi	a0,a1,-928 # c60 <_entry-0x7ffff3a0>
    800027cc:	00a70533          	add	a0,a4,a0
    800027d0:	00a7b423          	sd	a0,8(a5)
    if (!formatBuffSlabSpace(buffSlabHead, (char*)cacheMem + BLOCK_SIZE)) {
    800027d4:	00b705b3          	add	a1,a4,a1
    800027d8:	00000097          	auipc	ra,0x0
    800027dc:	b1c080e7          	jalr	-1252(ra) # 800022f4 <_ZN12kmem_cache_t19formatBuffSlabSpaceEP9_BuffSlabPv>
    800027e0:	00050863          	beqz	a0,800027f0 <_ZN12kmem_cache_t9kmem_initEP10_BuddyTree+0xe4>
        cur = cacheMem + buffCnt + i;
    800027e4:	00000493          	li	s1,0
    800027e8:	02000913          	li	s2,32
    800027ec:	0200006f          	j	8000280c <_ZN12kmem_cache_t9kmem_initEP10_BuddyTree+0x100>
        buffSlabHead = nullptr; expandBuffSlabSpace();
    800027f0:	0000d797          	auipc	a5,0xd
    800027f4:	2207bc23          	sd	zero,568(a5) # 8000fa28 <_ZN12kmem_cache_t12buffSlabHeadE>
    800027f8:	00000097          	auipc	ra,0x0
    800027fc:	b94080e7          	jalr	-1132(ra) # 8000238c <_ZN12kmem_cache_t19expandBuffSlabSpaceEv>
    80002800:	fe5ff06f          	j	800027e4 <_ZN12kmem_cache_t9kmem_initEP10_BuddyTree+0xd8>
        buffSize <<= 1;
    80002804:	00191913          	slli	s2,s2,0x1
    for (int i = 0; i < buffCnt; i++) {
    80002808:	0014849b          	addiw	s1,s1,1
    8000280c:	00c00793          	li	a5,12
    80002810:	0497c863          	blt	a5,s1,80002860 <_ZN12kmem_cache_t9kmem_initEP10_BuddyTree+0x154>
        new (cacheMem + i) kmem_cache_t("buffCache", buffSize, nullptr, nullptr, true);
    80002814:	00149793          	slli	a5,s1,0x1
    80002818:	009787b3          	add	a5,a5,s1
    8000281c:	00579793          	slli	a5,a5,0x5
    80002820:	0000d597          	auipc	a1,0xd
    80002824:	2205b583          	ld	a1,544(a1) # 8000fa40 <_ZN12kmem_cache_t8cacheMemE>
    80002828:	00f585b3          	add	a1,a1,a5
    8000282c:	06000513          	li	a0,96
    80002830:	fffff097          	auipc	ra,0xfffff
    80002834:	7fc080e7          	jalr	2044(ra) # 8000202c <_ZnwmPv>
    80002838:	fc0506e3          	beqz	a0,80002804 <_ZN12kmem_cache_t9kmem_initEP10_BuddyTree+0xf8>
    8000283c:	00100793          	li	a5,1
    80002840:	00000713          	li	a4,0
    80002844:	00000693          	li	a3,0
    80002848:	00090613          	mv	a2,s2
    8000284c:	00009597          	auipc	a1,0x9
    80002850:	96458593          	addi	a1,a1,-1692 # 8000b1b0 <PAGEOFFMASK+0x18c>
    80002854:	00000097          	auipc	ra,0x0
    80002858:	e24080e7          	jalr	-476(ra) # 80002678 <_ZN12kmem_cache_tC1EPKcmPFvPvES4_b>
    8000285c:	fa9ff06f          	j	80002804 <_ZN12kmem_cache_t9kmem_initEP10_BuddyTree+0xf8>
}
    80002860:	02813083          	ld	ra,40(sp)
    80002864:	02013403          	ld	s0,32(sp)
    80002868:	01813483          	ld	s1,24(sp)
    8000286c:	01013903          	ld	s2,16(sp)
    80002870:	00813983          	ld	s3,8(sp)
    80002874:	03010113          	addi	sp,sp,48
    80002878:	00008067          	ret

000000008000287c <_ZN12kmem_cache_t12deallocSlabsEP5_Slab>:
void kmem_cache_t::deallocSlabs(_Slab* head) {
    8000287c:	fd010113          	addi	sp,sp,-48
    80002880:	02113423          	sd	ra,40(sp)
    80002884:	02813023          	sd	s0,32(sp)
    80002888:	00913c23          	sd	s1,24(sp)
    8000288c:	01213823          	sd	s2,16(sp)
    80002890:	01313423          	sd	s3,8(sp)
    80002894:	03010413          	addi	s0,sp,48
    80002898:	00050993          	mv	s3,a0
    8000289c:	00058493          	mv	s1,a1
    _Slab* cur = head;
    800028a0:	01c0006f          	j	800028bc <_ZN12kmem_cache_t12deallocSlabsEP5_Slab+0x40>
        if (buffCache) {
            _BuffSlab* t = (_BuffSlab*)tmp;
            buddy->dealloc(t->getSlab());
            deallocBuffSlab(t);
        }
        else buddy->dealloc(tmp);
    800028a4:	00048593          	mv	a1,s1
    800028a8:	0000d517          	auipc	a0,0xd
    800028ac:	17853503          	ld	a0,376(a0) # 8000fa20 <_ZN12kmem_cache_t5buddyE>
    800028b0:	00004097          	auipc	ra,0x4
    800028b4:	1c8080e7          	jalr	456(ra) # 80006a78 <_ZN10_BuddyTree7deallocEPv>
void kmem_cache_t::deallocSlabs(_Slab* head) {
    800028b8:	00090493          	mv	s1,s2
    while (cur) {
    800028bc:	02048a63          	beqz	s1,800028f0 <_ZN12kmem_cache_t12deallocSlabsEP5_Slab+0x74>
        cur = cur->next;
    800028c0:	0284b903          	ld	s2,40(s1)
        if (buffCache) {
    800028c4:	0409c783          	lbu	a5,64(s3)
    800028c8:	fc078ee3          	beqz	a5,800028a4 <_ZN12kmem_cache_t12deallocSlabsEP5_Slab+0x28>
            buddy->dealloc(t->getSlab());
    800028cc:	0384b583          	ld	a1,56(s1)
    800028d0:	0000d517          	auipc	a0,0xd
    800028d4:	15053503          	ld	a0,336(a0) # 8000fa20 <_ZN12kmem_cache_t5buddyE>
    800028d8:	00004097          	auipc	ra,0x4
    800028dc:	1a0080e7          	jalr	416(ra) # 80006a78 <_ZN10_BuddyTree7deallocEPv>
            deallocBuffSlab(t);
    800028e0:	00048513          	mv	a0,s1
    800028e4:	00000097          	auipc	ra,0x0
    800028e8:	b7c080e7          	jalr	-1156(ra) # 80002460 <_ZN12kmem_cache_t15deallocBuffSlabEP9_BuffSlab>
    800028ec:	fcdff06f          	j	800028b8 <_ZN12kmem_cache_t12deallocSlabsEP5_Slab+0x3c>
    }
}
    800028f0:	02813083          	ld	ra,40(sp)
    800028f4:	02013403          	ld	s0,32(sp)
    800028f8:	01813483          	ld	s1,24(sp)
    800028fc:	01013903          	ld	s2,16(sp)
    80002900:	00813983          	ld	s3,8(sp)
    80002904:	03010113          	addi	sp,sp,48
    80002908:	00008067          	ret

000000008000290c <_ZN12kmem_cache_tD1Ev>:
kmem_cache_t::~kmem_cache_t() {
    8000290c:	fe010113          	addi	sp,sp,-32
    80002910:	00113c23          	sd	ra,24(sp)
    80002914:	00813823          	sd	s0,16(sp)
    80002918:	00913423          	sd	s1,8(sp)
    8000291c:	02010413          	addi	s0,sp,32
    80002920:	00050493          	mv	s1,a0
    //dealokacija i reset podataka
    deallocSlabs(full); deallocSlabs(partial); deallocSlabs(free);
    80002924:	00053583          	ld	a1,0(a0)
    80002928:	00000097          	auipc	ra,0x0
    8000292c:	f54080e7          	jalr	-172(ra) # 8000287c <_ZN12kmem_cache_t12deallocSlabsEP5_Slab>
    80002930:	0104b583          	ld	a1,16(s1)
    80002934:	00048513          	mv	a0,s1
    80002938:	00000097          	auipc	ra,0x0
    8000293c:	f44080e7          	jalr	-188(ra) # 8000287c <_ZN12kmem_cache_t12deallocSlabsEP5_Slab>
    80002940:	0084b583          	ld	a1,8(s1)
    80002944:	00048513          	mv	a0,s1
    80002948:	00000097          	auipc	ra,0x0
    8000294c:	f34080e7          	jalr	-204(ra) # 8000287c <_ZN12kmem_cache_t12deallocSlabsEP5_Slab>
    ctor = dtor = nullptr;
    name = nullptr;
    slotSize = slabSize = 0;
    buffCache = false;
    err = nullptr;
}
    80002950:	01813083          	ld	ra,24(sp)
    80002954:	01013403          	ld	s0,16(sp)
    80002958:	00813483          	ld	s1,8(sp)
    8000295c:	02010113          	addi	sp,sp,32
    80002960:	00008067          	ret

0000000080002964 <_ZN12kmem_cache_t9allocSlabEv>:
_Slab* kmem_cache_t::allocSlab() {
    80002964:	fd010113          	addi	sp,sp,-48
    80002968:	02113423          	sd	ra,40(sp)
    8000296c:	02813023          	sd	s0,32(sp)
    80002970:	00913c23          	sd	s1,24(sp)
    80002974:	01213823          	sd	s2,16(sp)
    80002978:	01313423          	sd	s3,8(sp)
    8000297c:	03010413          	addi	s0,sp,48
    80002980:	00050493          	mv	s1,a0
    if (buffCache) {
    80002984:	04054783          	lbu	a5,64(a0)
    80002988:	06078863          	beqz	a5,800029f8 <_ZN12kmem_cache_t9allocSlabEv+0x94>
        _BuffSlab* slab = allocBuffSlab();
    8000298c:	00000097          	auipc	ra,0x0
    80002990:	a68080e7          	jalr	-1432(ra) # 800023f4 <_ZN12kmem_cache_t13allocBuffSlabEv>
    80002994:	00050913          	mv	s2,a0
        if (!slab) return nullptr;
    80002998:	0a050063          	beqz	a0,80002a38 <_ZN12kmem_cache_t9allocSlabEv+0xd4>
        void* slabSpace = buddy->alloc(slabSize);
    8000299c:	0284b583          	ld	a1,40(s1)
    800029a0:	0000d517          	auipc	a0,0xd
    800029a4:	08053503          	ld	a0,128(a0) # 8000fa20 <_ZN12kmem_cache_t5buddyE>
    800029a8:	00004097          	auipc	ra,0x4
    800029ac:	08c080e7          	jalr	140(ra) # 80006a34 <_ZN10_BuddyTree5allocEm>
    800029b0:	00050993          	mv	s3,a0
        if (!slabSpace) { deallocBuffSlab(slab); return nullptr; }
    800029b4:	02050863          	beqz	a0,800029e4 <_ZN12kmem_cache_t9allocSlabEv+0x80>
        new (slab) _BuffSlab(slotSize, slabSize, slabSpace);
    800029b8:	00090593          	mv	a1,s2
    800029bc:	04000513          	li	a0,64
    800029c0:	fffff097          	auipc	ra,0xfffff
    800029c4:	66c080e7          	jalr	1644(ra) # 8000202c <_ZnwmPv>
    800029c8:	06050863          	beqz	a0,80002a38 <_ZN12kmem_cache_t9allocSlabEv+0xd4>
    800029cc:	00098693          	mv	a3,s3
    800029d0:	0284b603          	ld	a2,40(s1)
    800029d4:	0204b583          	ld	a1,32(s1)
    800029d8:	00000097          	auipc	ra,0x0
    800029dc:	88c080e7          	jalr	-1908(ra) # 80002264 <_ZN9_BuffSlabC1EmmPv>
        return slab;
    800029e0:	0580006f          	j	80002a38 <_ZN12kmem_cache_t9allocSlabEv+0xd4>
        if (!slabSpace) { deallocBuffSlab(slab); return nullptr; }
    800029e4:	00090513          	mv	a0,s2
    800029e8:	00000097          	auipc	ra,0x0
    800029ec:	a78080e7          	jalr	-1416(ra) # 80002460 <_ZN12kmem_cache_t15deallocBuffSlabEP9_BuffSlab>
    800029f0:	00098913          	mv	s2,s3
    800029f4:	0440006f          	j	80002a38 <_ZN12kmem_cache_t9allocSlabEv+0xd4>
    }
    else {
        _ObjSlab* ret = (_ObjSlab*)buddy->alloc(slabSize);
    800029f8:	02853583          	ld	a1,40(a0)
    800029fc:	0000d517          	auipc	a0,0xd
    80002a00:	02453503          	ld	a0,36(a0) # 8000fa20 <_ZN12kmem_cache_t5buddyE>
    80002a04:	00004097          	auipc	ra,0x4
    80002a08:	030080e7          	jalr	48(ra) # 80006a34 <_ZN10_BuddyTree5allocEm>
    80002a0c:	00050913          	mv	s2,a0
        if (!ret) return nullptr;
    80002a10:	02050463          	beqz	a0,80002a38 <_ZN12kmem_cache_t9allocSlabEv+0xd4>
        new (ret) _ObjSlab(slotSize, slabSize);
    80002a14:	00050593          	mv	a1,a0
    80002a18:	03800513          	li	a0,56
    80002a1c:	fffff097          	auipc	ra,0xfffff
    80002a20:	610080e7          	jalr	1552(ra) # 8000202c <_ZnwmPv>
    80002a24:	00050a63          	beqz	a0,80002a38 <_ZN12kmem_cache_t9allocSlabEv+0xd4>
    80002a28:	0284b603          	ld	a2,40(s1)
    80002a2c:	0204b583          	ld	a1,32(s1)
    80002a30:	fffff097          	auipc	ra,0xfffff
    80002a34:	7b0080e7          	jalr	1968(ra) # 800021e0 <_ZN8_ObjSlabC1Emm>
        return ret;
    }

}
    80002a38:	00090513          	mv	a0,s2
    80002a3c:	02813083          	ld	ra,40(sp)
    80002a40:	02013403          	ld	s0,32(sp)
    80002a44:	01813483          	ld	s1,24(sp)
    80002a48:	01013903          	ld	s2,16(sp)
    80002a4c:	00813983          	ld	s3,8(sp)
    80002a50:	03010113          	addi	sp,sp,48
    80002a54:	00008067          	ret

0000000080002a58 <_ZN12kmem_cache_t5allocEv>:
void* kmem_cache_t::alloc() {
    80002a58:	fe010113          	addi	sp,sp,-32
    80002a5c:	00113c23          	sd	ra,24(sp)
    80002a60:	00813823          	sd	s0,16(sp)
    80002a64:	00913423          	sd	s1,8(sp)
    80002a68:	01213023          	sd	s2,0(sp)
    80002a6c:	02010413          	addi	s0,sp,32
    80002a70:	00050493          	mv	s1,a0
    void* ret;
    if (partial) {
    80002a74:	01053503          	ld	a0,16(a0)
    80002a78:	06050663          	beqz	a0,80002ae4 <_ZN12kmem_cache_t5allocEv+0x8c>
        ret = partial->alloc();
    80002a7c:	00053783          	ld	a5,0(a0)
    80002a80:	0007b783          	ld	a5,0(a5)
    80002a84:	000780e7          	jalr	a5
    80002a88:	00050913          	mv	s2,a0
        if (partial->isFull()) move(&partial, &full, partial); //prebacivanje iz partial u full listu
    80002a8c:	0104b503          	ld	a0,16(s1)
    80002a90:	00053783          	ld	a5,0(a0)
    80002a94:	0187b783          	ld	a5,24(a5)
    80002a98:	000780e7          	jalr	a5
    80002a9c:	02051863          	bnez	a0,80002acc <_ZN12kmem_cache_t5allocEv+0x74>
        }
        ret = free->alloc();
        if (free->isFull()) move(&free, &full, free); //prebacivanje iz free u full listu
        else move(&free, &partial, free); //prebacivanje iz free u partial listu
    }
    if (ctor) ctor(ret);
    80002aa0:	0304b783          	ld	a5,48(s1)
    80002aa4:	00078663          	beqz	a5,80002ab0 <_ZN12kmem_cache_t5allocEv+0x58>
    80002aa8:	00090513          	mv	a0,s2
    80002aac:	000780e7          	jalr	a5
    return ret;
}
    80002ab0:	00090513          	mv	a0,s2
    80002ab4:	01813083          	ld	ra,24(sp)
    80002ab8:	01013403          	ld	s0,16(sp)
    80002abc:	00813483          	ld	s1,8(sp)
    80002ac0:	00013903          	ld	s2,0(sp)
    80002ac4:	02010113          	addi	sp,sp,32
    80002ac8:	00008067          	ret
        if (partial->isFull()) move(&partial, &full, partial); //prebacivanje iz partial u full listu
    80002acc:	0104b603          	ld	a2,16(s1)
    80002ad0:	00048593          	mv	a1,s1
    80002ad4:	01048513          	addi	a0,s1,16
    80002ad8:	00000097          	auipc	ra,0x0
    80002adc:	ad4080e7          	jalr	-1324(ra) # 800025ac <_ZN12kmem_cache_t4moveEPP5_SlabS2_S1_>
    80002ae0:	fc1ff06f          	j	80002aa0 <_ZN12kmem_cache_t5allocEv+0x48>
        if (!free) free = allocSlab();
    80002ae4:	0084b783          	ld	a5,8(s1)
    80002ae8:	04078663          	beqz	a5,80002b34 <_ZN12kmem_cache_t5allocEv+0xdc>
        if (!free) {
    80002aec:	0084b903          	ld	s2,8(s1)
    80002af0:	04090c63          	beqz	s2,80002b48 <_ZN12kmem_cache_t5allocEv+0xf0>
        ret = free->alloc();
    80002af4:	00093783          	ld	a5,0(s2)
    80002af8:	0007b783          	ld	a5,0(a5)
    80002afc:	00090513          	mv	a0,s2
    80002b00:	000780e7          	jalr	a5
    80002b04:	00050913          	mv	s2,a0
        if (free->isFull()) move(&free, &full, free); //prebacivanje iz free u full listu
    80002b08:	0084b503          	ld	a0,8(s1)
    80002b0c:	00053783          	ld	a5,0(a0)
    80002b10:	0187b783          	ld	a5,24(a5)
    80002b14:	000780e7          	jalr	a5
    80002b18:	04050063          	beqz	a0,80002b58 <_ZN12kmem_cache_t5allocEv+0x100>
    80002b1c:	0084b603          	ld	a2,8(s1)
    80002b20:	00048593          	mv	a1,s1
    80002b24:	00848513          	addi	a0,s1,8
    80002b28:	00000097          	auipc	ra,0x0
    80002b2c:	a84080e7          	jalr	-1404(ra) # 800025ac <_ZN12kmem_cache_t4moveEPP5_SlabS2_S1_>
    80002b30:	f71ff06f          	j	80002aa0 <_ZN12kmem_cache_t5allocEv+0x48>
        if (!free) free = allocSlab();
    80002b34:	00048513          	mv	a0,s1
    80002b38:	00000097          	auipc	ra,0x0
    80002b3c:	e2c080e7          	jalr	-468(ra) # 80002964 <_ZN12kmem_cache_t9allocSlabEv>
    80002b40:	00a4b423          	sd	a0,8(s1)
    80002b44:	fa9ff06f          	j	80002aec <_ZN12kmem_cache_t5allocEv+0x94>
            err = "ALLOCATION_ERROR: COULD NOT ALLOCATE SLAB";
    80002b48:	00008797          	auipc	a5,0x8
    80002b4c:	67878793          	addi	a5,a5,1656 # 8000b1c0 <PAGEOFFMASK+0x19c>
    80002b50:	04f4bc23          	sd	a5,88(s1)
            return nullptr;
    80002b54:	f5dff06f          	j	80002ab0 <_ZN12kmem_cache_t5allocEv+0x58>
        else move(&free, &partial, free); //prebacivanje iz free u partial listu
    80002b58:	0084b603          	ld	a2,8(s1)
    80002b5c:	01048593          	addi	a1,s1,16
    80002b60:	00848513          	addi	a0,s1,8
    80002b64:	00000097          	auipc	ra,0x0
    80002b68:	a48080e7          	jalr	-1464(ra) # 800025ac <_ZN12kmem_cache_t4moveEPP5_SlabS2_S1_>
    80002b6c:	f35ff06f          	j	80002aa0 <_ZN12kmem_cache_t5allocEv+0x48>

0000000080002b70 <_ZN12kmem_cache_t7deallocEPv>:
/*bool kmem_cache_t::contains(_Slab* slab, void* obj) {
    return obj > slab && obj < (char*)slab + slabSize;
}*/
bool kmem_cache_t::dealloc(void* obj) {
    80002b70:	fd010113          	addi	sp,sp,-48
    80002b74:	02113423          	sd	ra,40(sp)
    80002b78:	02813023          	sd	s0,32(sp)
    80002b7c:	00913c23          	sd	s1,24(sp)
    80002b80:	01213823          	sd	s2,16(sp)
    80002b84:	01313423          	sd	s3,8(sp)
    80002b88:	01413023          	sd	s4,0(sp)
    80002b8c:	03010413          	addi	s0,sp,48
    80002b90:	00050a13          	mv	s4,a0
    80002b94:	00058993          	mv	s3,a1
    if (dtor) dtor(obj);
    80002b98:	03853783          	ld	a5,56(a0)
    80002b9c:	00078663          	beqz	a5,80002ba8 <_ZN12kmem_cache_t7deallocEPv+0x38>
    80002ba0:	00058513          	mv	a0,a1
    80002ba4:	000780e7          	jalr	a5
    _Slab* cur = full;
    80002ba8:	000a3903          	ld	s2,0(s4)
    while (cur) {
    80002bac:	0a090063          	beqz	s2,80002c4c <_ZN12kmem_cache_t7deallocEPv+0xdc>
        if (cur->contains(obj)) {
    80002bb0:	00093783          	ld	a5,0(s2)
    80002bb4:	0287b783          	ld	a5,40(a5)
    80002bb8:	00098593          	mv	a1,s3
    80002bbc:	00090513          	mv	a0,s2
    80002bc0:	000780e7          	jalr	a5
    80002bc4:	00050493          	mv	s1,a0
    80002bc8:	00051663          	bnez	a0,80002bd4 <_ZN12kmem_cache_t7deallocEPv+0x64>
            cur->dealloc(obj);
            if (cur->isEmpty()) move(&full, &free, cur); //prebacivanje iz full u free
            else move(&full, &partial, cur); //prebacivanje iz full u partial
            return true;
        }
        cur = cur->next;
    80002bcc:	02893903          	ld	s2,40(s2)
    while (cur) {
    80002bd0:	fddff06f          	j	80002bac <_ZN12kmem_cache_t7deallocEPv+0x3c>
            cur->dealloc(obj);
    80002bd4:	00093783          	ld	a5,0(s2)
    80002bd8:	0087b783          	ld	a5,8(a5)
    80002bdc:	00098593          	mv	a1,s3
    80002be0:	00090513          	mv	a0,s2
    80002be4:	000780e7          	jalr	a5
            if (cur->isEmpty()) move(&full, &free, cur); //prebacivanje iz full u free
    80002be8:	00093783          	ld	a5,0(s2)
    80002bec:	0107b783          	ld	a5,16(a5)
    80002bf0:	00090513          	mv	a0,s2
    80002bf4:	000780e7          	jalr	a5
    80002bf8:	02050e63          	beqz	a0,80002c34 <_ZN12kmem_cache_t7deallocEPv+0xc4>
    80002bfc:	00090613          	mv	a2,s2
    80002c00:	008a0593          	addi	a1,s4,8
    80002c04:	000a0513          	mv	a0,s4
    80002c08:	00000097          	auipc	ra,0x0
    80002c0c:	9a4080e7          	jalr	-1628(ra) # 800025ac <_ZN12kmem_cache_t4moveEPP5_SlabS2_S1_>
        }
        cur = cur->next;
    }
    if (!buffCache) err = "DEALLOCATION_ERROR: SLOT ADDRESS NOT FOUND IN CACHE.";
    return false;
}
    80002c10:	00048513          	mv	a0,s1
    80002c14:	02813083          	ld	ra,40(sp)
    80002c18:	02013403          	ld	s0,32(sp)
    80002c1c:	01813483          	ld	s1,24(sp)
    80002c20:	01013903          	ld	s2,16(sp)
    80002c24:	00813983          	ld	s3,8(sp)
    80002c28:	00013a03          	ld	s4,0(sp)
    80002c2c:	03010113          	addi	sp,sp,48
    80002c30:	00008067          	ret
            else move(&full, &partial, cur); //prebacivanje iz full u partial
    80002c34:	00090613          	mv	a2,s2
    80002c38:	010a0593          	addi	a1,s4,16
    80002c3c:	000a0513          	mv	a0,s4
    80002c40:	00000097          	auipc	ra,0x0
    80002c44:	96c080e7          	jalr	-1684(ra) # 800025ac <_ZN12kmem_cache_t4moveEPP5_SlabS2_S1_>
            return true;
    80002c48:	fc9ff06f          	j	80002c10 <_ZN12kmem_cache_t7deallocEPv+0xa0>
    cur = partial;
    80002c4c:	010a3903          	ld	s2,16(s4)
    while (cur) {
    80002c50:	06090463          	beqz	s2,80002cb8 <_ZN12kmem_cache_t7deallocEPv+0x148>
        if (cur->contains(obj)) {
    80002c54:	00093783          	ld	a5,0(s2)
    80002c58:	0287b783          	ld	a5,40(a5)
    80002c5c:	00098593          	mv	a1,s3
    80002c60:	00090513          	mv	a0,s2
    80002c64:	000780e7          	jalr	a5
    80002c68:	00050493          	mv	s1,a0
    80002c6c:	00051663          	bnez	a0,80002c78 <_ZN12kmem_cache_t7deallocEPv+0x108>
        cur = cur->next;
    80002c70:	02893903          	ld	s2,40(s2)
    while (cur) {
    80002c74:	fddff06f          	j	80002c50 <_ZN12kmem_cache_t7deallocEPv+0xe0>
            cur->dealloc(obj);
    80002c78:	00093783          	ld	a5,0(s2)
    80002c7c:	0087b783          	ld	a5,8(a5)
    80002c80:	00098593          	mv	a1,s3
    80002c84:	00090513          	mv	a0,s2
    80002c88:	000780e7          	jalr	a5
            if (cur->isEmpty()) move(&partial, &free, cur); //prebacivanje iz full u free
    80002c8c:	00093783          	ld	a5,0(s2)
    80002c90:	0107b783          	ld	a5,16(a5)
    80002c94:	00090513          	mv	a0,s2
    80002c98:	000780e7          	jalr	a5
    80002c9c:	f6050ae3          	beqz	a0,80002c10 <_ZN12kmem_cache_t7deallocEPv+0xa0>
    80002ca0:	00090613          	mv	a2,s2
    80002ca4:	008a0593          	addi	a1,s4,8
    80002ca8:	010a0513          	addi	a0,s4,16
    80002cac:	00000097          	auipc	ra,0x0
    80002cb0:	900080e7          	jalr	-1792(ra) # 800025ac <_ZN12kmem_cache_t4moveEPP5_SlabS2_S1_>
            return true;
    80002cb4:	f5dff06f          	j	80002c10 <_ZN12kmem_cache_t7deallocEPv+0xa0>
    if (!buffCache) err = "DEALLOCATION_ERROR: SLOT ADDRESS NOT FOUND IN CACHE.";
    80002cb8:	040a4483          	lbu	s1,64(s4)
    80002cbc:	00049a63          	bnez	s1,80002cd0 <_ZN12kmem_cache_t7deallocEPv+0x160>
    80002cc0:	00008797          	auipc	a5,0x8
    80002cc4:	53078793          	addi	a5,a5,1328 # 8000b1f0 <PAGEOFFMASK+0x1cc>
    80002cc8:	04fa3c23          	sd	a5,88(s4)
    80002ccc:	f45ff06f          	j	80002c10 <_ZN12kmem_cache_t7deallocEPv+0xa0>
    return false;
    80002cd0:	00000493          	li	s1,0
    80002cd4:	f3dff06f          	j	80002c10 <_ZN12kmem_cache_t7deallocEPv+0xa0>

0000000080002cd8 <_ZN12kmem_cache_t11deallocBuffEPv>:
bool kmem_cache_t::deallocBuff(void* buff) {
    80002cd8:	fe010113          	addi	sp,sp,-32
    80002cdc:	00113c23          	sd	ra,24(sp)
    80002ce0:	00813823          	sd	s0,16(sp)
    80002ce4:	00913423          	sd	s1,8(sp)
    80002ce8:	01213023          	sd	s2,0(sp)
    80002cec:	02010413          	addi	s0,sp,32
    80002cf0:	00050913          	mv	s2,a0
    for (int i = 0; i < buffPowMax - buffPowMin + 1; i++) {
    80002cf4:	00000493          	li	s1,0
    80002cf8:	00c00793          	li	a5,12
    80002cfc:	0297ca63          	blt	a5,s1,80002d30 <_ZN12kmem_cache_t11deallocBuffEPv+0x58>
        if (cacheMem[i].dealloc(buff)) return true;
    80002d00:	00149793          	slli	a5,s1,0x1
    80002d04:	009787b3          	add	a5,a5,s1
    80002d08:	00579793          	slli	a5,a5,0x5
    80002d0c:	00090593          	mv	a1,s2
    80002d10:	0000d517          	auipc	a0,0xd
    80002d14:	d3053503          	ld	a0,-720(a0) # 8000fa40 <_ZN12kmem_cache_t8cacheMemE>
    80002d18:	00f50533          	add	a0,a0,a5
    80002d1c:	00000097          	auipc	ra,0x0
    80002d20:	e54080e7          	jalr	-428(ra) # 80002b70 <_ZN12kmem_cache_t7deallocEPv>
    80002d24:	00051863          	bnez	a0,80002d34 <_ZN12kmem_cache_t11deallocBuffEPv+0x5c>
    for (int i = 0; i < buffPowMax - buffPowMin + 1; i++) {
    80002d28:	0014849b          	addiw	s1,s1,1
    80002d2c:	fcdff06f          	j	80002cf8 <_ZN12kmem_cache_t11deallocBuffEPv+0x20>
    return false;
    80002d30:	00000513          	li	a0,0
}
    80002d34:	01813083          	ld	ra,24(sp)
    80002d38:	01013403          	ld	s0,16(sp)
    80002d3c:	00813483          	ld	s1,8(sp)
    80002d40:	00013903          	ld	s2,0(sp)
    80002d44:	02010113          	addi	sp,sp,32
    80002d48:	00008067          	ret

0000000080002d4c <_ZN12kmem_cache_t6shrinkEv>:
int kmem_cache_t::shrink() {
    if (free) {
    80002d4c:	00853583          	ld	a1,8(a0)
    80002d50:	00059663          	bnez	a1,80002d5c <_ZN12kmem_cache_t6shrinkEv+0x10>
        deallocSlabs(free);
        free = nullptr;
        return 1;
    }
    return 0;
    80002d54:	00000513          	li	a0,0
}
    80002d58:	00008067          	ret
int kmem_cache_t::shrink() {
    80002d5c:	fe010113          	addi	sp,sp,-32
    80002d60:	00113c23          	sd	ra,24(sp)
    80002d64:	00813823          	sd	s0,16(sp)
    80002d68:	00913423          	sd	s1,8(sp)
    80002d6c:	02010413          	addi	s0,sp,32
    80002d70:	00050493          	mv	s1,a0
        deallocSlabs(free);
    80002d74:	00000097          	auipc	ra,0x0
    80002d78:	b08080e7          	jalr	-1272(ra) # 8000287c <_ZN12kmem_cache_t12deallocSlabsEP5_Slab>
        free = nullptr;
    80002d7c:	0004b423          	sd	zero,8(s1)
        return 1;
    80002d80:	00100513          	li	a0,1
}
    80002d84:	01813083          	ld	ra,24(sp)
    80002d88:	01013403          	ld	s0,16(sp)
    80002d8c:	00813483          	ld	s1,8(sp)
    80002d90:	02010113          	addi	sp,sp,32
    80002d94:	00008067          	ret

0000000080002d98 <_ZN12kmem_cache_t7slabNumEv>:
int kmem_cache_t::slabNum() {
    80002d98:	fd010113          	addi	sp,sp,-48
    80002d9c:	02813423          	sd	s0,40(sp)
    80002da0:	03010413          	addi	s0,sp,48
    int res = 0;
    _Slab* arrs[] = {free, partial, full};
    80002da4:	00853783          	ld	a5,8(a0)
    80002da8:	fcf43c23          	sd	a5,-40(s0)
    80002dac:	01053783          	ld	a5,16(a0)
    80002db0:	fef43023          	sd	a5,-32(s0)
    80002db4:	00053783          	ld	a5,0(a0)
    80002db8:	fef43423          	sd	a5,-24(s0)
    for (int i = 0; i < 3; i++) {
    80002dbc:	00000713          	li	a4,0
    int res = 0;
    80002dc0:	00000513          	li	a0,0
    80002dc4:	0080006f          	j	80002dcc <_ZN12kmem_cache_t7slabNumEv+0x34>
    for (int i = 0; i < 3; i++) {
    80002dc8:	0017071b          	addiw	a4,a4,1
    80002dcc:	00200793          	li	a5,2
    80002dd0:	02e7c263          	blt	a5,a4,80002df4 <_ZN12kmem_cache_t7slabNumEv+0x5c>
        _Slab* cur = arrs[i];
    80002dd4:	00371793          	slli	a5,a4,0x3
    80002dd8:	ff040693          	addi	a3,s0,-16
    80002ddc:	00f687b3          	add	a5,a3,a5
    80002de0:	fe87b783          	ld	a5,-24(a5)
        while (cur) { res++; cur = cur->next; }
    80002de4:	fe0782e3          	beqz	a5,80002dc8 <_ZN12kmem_cache_t7slabNumEv+0x30>
    80002de8:	0015051b          	addiw	a0,a0,1
    80002dec:	0287b783          	ld	a5,40(a5)
    80002df0:	ff5ff06f          	j	80002de4 <_ZN12kmem_cache_t7slabNumEv+0x4c>
    }
    return res;
}
    80002df4:	02813403          	ld	s0,40(sp)
    80002df8:	03010113          	addi	sp,sp,48
    80002dfc:	00008067          	ret

0000000080002e00 <_ZN12kmem_cache_t12slabCapacityEv>:
int kmem_cache_t::slabCapacity() {
    80002e00:	ff010113          	addi	sp,sp,-16
    80002e04:	00813423          	sd	s0,8(sp)
    80002e08:	01010413          	addi	s0,sp,16
    size_t actualSize = buffCache ? slabSize : slabSize - sizeof(_ObjSlab);
    80002e0c:	04054783          	lbu	a5,64(a0)
    80002e10:	02078063          	beqz	a5,80002e30 <_ZN12kmem_cache_t12slabCapacityEv+0x30>
    80002e14:	02853783          	ld	a5,40(a0)
    return actualSize / slotSize;
    80002e18:	02053503          	ld	a0,32(a0)
    80002e1c:	02a7d533          	divu	a0,a5,a0
}
    80002e20:	0005051b          	sext.w	a0,a0
    80002e24:	00813403          	ld	s0,8(sp)
    80002e28:	01010113          	addi	sp,sp,16
    80002e2c:	00008067          	ret
    size_t actualSize = buffCache ? slabSize : slabSize - sizeof(_ObjSlab);
    80002e30:	02853783          	ld	a5,40(a0)
    80002e34:	fc878793          	addi	a5,a5,-56
    80002e38:	fe1ff06f          	j	80002e18 <_ZN12kmem_cache_t12slabCapacityEv+0x18>

0000000080002e3c <_ZN12kmem_cache_t16allocatedSlotNumEv>:
int kmem_cache_t::allocatedSlotNum() {
    80002e3c:	fb010113          	addi	sp,sp,-80
    80002e40:	04113423          	sd	ra,72(sp)
    80002e44:	04813023          	sd	s0,64(sp)
    80002e48:	02913c23          	sd	s1,56(sp)
    80002e4c:	03213823          	sd	s2,48(sp)
    80002e50:	03313423          	sd	s3,40(sp)
    80002e54:	05010413          	addi	s0,sp,80
    int res = 0;
    _Slab* arrs[] = {free, partial, full};
    80002e58:	00853783          	ld	a5,8(a0)
    80002e5c:	faf43c23          	sd	a5,-72(s0)
    80002e60:	01053783          	ld	a5,16(a0)
    80002e64:	fcf43023          	sd	a5,-64(s0)
    80002e68:	00053783          	ld	a5,0(a0)
    80002e6c:	fcf43423          	sd	a5,-56(s0)
    for (int i = 1; i < 3; i++) {
    80002e70:	00100993          	li	s3,1
    int res = 0;
    80002e74:	00000913          	li	s2,0
    80002e78:	0080006f          	j	80002e80 <_ZN12kmem_cache_t16allocatedSlotNumEv+0x44>
    for (int i = 1; i < 3; i++) {
    80002e7c:	0019899b          	addiw	s3,s3,1
    80002e80:	00200793          	li	a5,2
    80002e84:	0337ca63          	blt	a5,s3,80002eb8 <_ZN12kmem_cache_t16allocatedSlotNumEv+0x7c>
        _Slab* cur = arrs[i];
    80002e88:	00399793          	slli	a5,s3,0x3
    80002e8c:	fd040713          	addi	a4,s0,-48
    80002e90:	00f707b3          	add	a5,a4,a5
    80002e94:	fe87b483          	ld	s1,-24(a5)
        while (cur) { res += cur->getAllocatedCount(); cur = cur->next; }
    80002e98:	fe0482e3          	beqz	s1,80002e7c <_ZN12kmem_cache_t16allocatedSlotNumEv+0x40>
    80002e9c:	0004b783          	ld	a5,0(s1)
    80002ea0:	0207b783          	ld	a5,32(a5)
    80002ea4:	00048513          	mv	a0,s1
    80002ea8:	000780e7          	jalr	a5
    80002eac:	00a9093b          	addw	s2,s2,a0
    80002eb0:	0284b483          	ld	s1,40(s1)
    80002eb4:	fe5ff06f          	j	80002e98 <_ZN12kmem_cache_t16allocatedSlotNumEv+0x5c>
    }
    return res;
}
    80002eb8:	00090513          	mv	a0,s2
    80002ebc:	04813083          	ld	ra,72(sp)
    80002ec0:	04013403          	ld	s0,64(sp)
    80002ec4:	03813483          	ld	s1,56(sp)
    80002ec8:	03013903          	ld	s2,48(sp)
    80002ecc:	02813983          	ld	s3,40(sp)
    80002ed0:	05010113          	addi	sp,sp,80
    80002ed4:	00008067          	ret

0000000080002ed8 <_ZN12kmem_cache_t9printInfoEv>:
void kmem_cache_t::printInfo() {
    80002ed8:	fd010113          	addi	sp,sp,-48
    80002edc:	02113423          	sd	ra,40(sp)
    80002ee0:	02813023          	sd	s0,32(sp)
    80002ee4:	00913c23          	sd	s1,24(sp)
    80002ee8:	01213823          	sd	s2,16(sp)
    80002eec:	01313423          	sd	s3,8(sp)
    80002ef0:	03010413          	addi	s0,sp,48
    80002ef4:	00050493          	mv	s1,a0
    int slabCnt = slabNum();
    80002ef8:	00000097          	auipc	ra,0x0
    80002efc:	ea0080e7          	jalr	-352(ra) # 80002d98 <_ZN12kmem_cache_t7slabNumEv>
    80002f00:	00050993          	mv	s3,a0
    int slabCap = slabCapacity();
    80002f04:	00048513          	mv	a0,s1
    80002f08:	00000097          	auipc	ra,0x0
    80002f0c:	ef8080e7          	jalr	-264(ra) # 80002e00 <_ZN12kmem_cache_t12slabCapacityEv>
    80002f10:	00050913          	mv	s2,a0
    _Console::printString("Cache: ");
    80002f14:	00008517          	auipc	a0,0x8
    80002f18:	31450513          	addi	a0,a0,788 # 8000b228 <PAGEOFFMASK+0x204>
    80002f1c:	00003097          	auipc	ra,0x3
    80002f20:	354080e7          	jalr	852(ra) # 80006270 <_ZN8_Console11printStringEPKc>
    _Console::printString(name);
    80002f24:	0184b503          	ld	a0,24(s1)
    80002f28:	00003097          	auipc	ra,0x3
    80002f2c:	348080e7          	jalr	840(ra) # 80006270 <_ZN8_Console11printStringEPKc>
    _Console::putc('\n');
    80002f30:	00a00513          	li	a0,10
    80002f34:	00003097          	auipc	ra,0x3
    80002f38:	210080e7          	jalr	528(ra) # 80006144 <_ZN8_Console4putcEc>

    _Console::printString("Slot size: ");
    80002f3c:	00008517          	auipc	a0,0x8
    80002f40:	2f450513          	addi	a0,a0,756 # 8000b230 <PAGEOFFMASK+0x20c>
    80002f44:	00003097          	auipc	ra,0x3
    80002f48:	32c080e7          	jalr	812(ra) # 80006270 <_ZN8_Console11printStringEPKc>
    _Console::printNum(slotSize);
    80002f4c:	0204b503          	ld	a0,32(s1)
    80002f50:	00003097          	auipc	ra,0x3
    80002f54:	38c080e7          	jalr	908(ra) # 800062dc <_ZN8_Console8printNumEm>
    _Console::putc('\n');
    80002f58:	00a00513          	li	a0,10
    80002f5c:	00003097          	auipc	ra,0x3
    80002f60:	1e8080e7          	jalr	488(ra) # 80006144 <_ZN8_Console4putcEc>

    _Console::printString("Slab size: ");
    80002f64:	00008517          	auipc	a0,0x8
    80002f68:	2dc50513          	addi	a0,a0,732 # 8000b240 <PAGEOFFMASK+0x21c>
    80002f6c:	00003097          	auipc	ra,0x3
    80002f70:	304080e7          	jalr	772(ra) # 80006270 <_ZN8_Console11printStringEPKc>
    _Console::printNum(slabSize);
    80002f74:	0284b503          	ld	a0,40(s1)
    80002f78:	00003097          	auipc	ra,0x3
    80002f7c:	364080e7          	jalr	868(ra) # 800062dc <_ZN8_Console8printNumEm>
    _Console::putc('\n');
    80002f80:	00a00513          	li	a0,10
    80002f84:	00003097          	auipc	ra,0x3
    80002f88:	1c0080e7          	jalr	448(ra) # 80006144 <_ZN8_Console4putcEc>

    _Console::printString("Slots per slab: ");
    80002f8c:	00008517          	auipc	a0,0x8
    80002f90:	2c450513          	addi	a0,a0,708 # 8000b250 <PAGEOFFMASK+0x22c>
    80002f94:	00003097          	auipc	ra,0x3
    80002f98:	2dc080e7          	jalr	732(ra) # 80006270 <_ZN8_Console11printStringEPKc>
    _Console::printNum(slabCap);
    80002f9c:	00090513          	mv	a0,s2
    80002fa0:	00003097          	auipc	ra,0x3
    80002fa4:	33c080e7          	jalr	828(ra) # 800062dc <_ZN8_Console8printNumEm>
    _Console::putc('\n');
    80002fa8:	00a00513          	li	a0,10
    80002fac:	00003097          	auipc	ra,0x3
    80002fb0:	198080e7          	jalr	408(ra) # 80006144 <_ZN8_Console4putcEc>

    _Console::printString("Number of slabs: ");
    80002fb4:	00008517          	auipc	a0,0x8
    80002fb8:	2b450513          	addi	a0,a0,692 # 8000b268 <PAGEOFFMASK+0x244>
    80002fbc:	00003097          	auipc	ra,0x3
    80002fc0:	2b4080e7          	jalr	692(ra) # 80006270 <_ZN8_Console11printStringEPKc>
    _Console::printNum(slabCnt);
    80002fc4:	00098513          	mv	a0,s3
    80002fc8:	00003097          	auipc	ra,0x3
    80002fcc:	314080e7          	jalr	788(ra) # 800062dc <_ZN8_Console8printNumEm>
    _Console::putc('\n');
    80002fd0:	00a00513          	li	a0,10
    80002fd4:	00003097          	auipc	ra,0x3
    80002fd8:	170080e7          	jalr	368(ra) # 80006144 <_ZN8_Console4putcEc>

    _Console::printString("Allocated objects / Total slots: ");
    80002fdc:	00008517          	auipc	a0,0x8
    80002fe0:	2a450513          	addi	a0,a0,676 # 8000b280 <PAGEOFFMASK+0x25c>
    80002fe4:	00003097          	auipc	ra,0x3
    80002fe8:	28c080e7          	jalr	652(ra) # 80006270 <_ZN8_Console11printStringEPKc>
    _Console::printNum(allocatedSlotNum());
    80002fec:	00048513          	mv	a0,s1
    80002ff0:	00000097          	auipc	ra,0x0
    80002ff4:	e4c080e7          	jalr	-436(ra) # 80002e3c <_ZN12kmem_cache_t16allocatedSlotNumEv>
    80002ff8:	00003097          	auipc	ra,0x3
    80002ffc:	2e4080e7          	jalr	740(ra) # 800062dc <_ZN8_Console8printNumEm>
    _Console::printString(" / ");
    80003000:	00008517          	auipc	a0,0x8
    80003004:	2a850513          	addi	a0,a0,680 # 8000b2a8 <PAGEOFFMASK+0x284>
    80003008:	00003097          	auipc	ra,0x3
    8000300c:	268080e7          	jalr	616(ra) # 80006270 <_ZN8_Console11printStringEPKc>
    _Console::printNum(slabCnt * slabCap);
    80003010:	0329853b          	mulw	a0,s3,s2
    80003014:	00003097          	auipc	ra,0x3
    80003018:	2c8080e7          	jalr	712(ra) # 800062dc <_ZN8_Console8printNumEm>
    _Console::putc('\n');
    8000301c:	00a00513          	li	a0,10
    80003020:	00003097          	auipc	ra,0x3
    80003024:	124080e7          	jalr	292(ra) # 80006144 <_ZN8_Console4putcEc>

    _Console::putc('\n');
    80003028:	00a00513          	li	a0,10
    8000302c:	00003097          	auipc	ra,0x3
    80003030:	118080e7          	jalr	280(ra) # 80006144 <_ZN8_Console4putcEc>
}
    80003034:	02813083          	ld	ra,40(sp)
    80003038:	02013403          	ld	s0,32(sp)
    8000303c:	01813483          	ld	s1,24(sp)
    80003040:	01013903          	ld	s2,16(sp)
    80003044:	00813983          	ld	s3,8(sp)
    80003048:	03010113          	addi	sp,sp,48
    8000304c:	00008067          	ret

0000000080003050 <_ZN12kmem_cache_t10printErrorEv>:
int kmem_cache_t::printError() {
    80003050:	fe010113          	addi	sp,sp,-32
    80003054:	00113c23          	sd	ra,24(sp)
    80003058:	00813823          	sd	s0,16(sp)
    8000305c:	00913423          	sd	s1,8(sp)
    80003060:	02010413          	addi	s0,sp,32
    80003064:	00050493          	mv	s1,a0
    if (err) {
    80003068:	05853503          	ld	a0,88(a0)
    8000306c:	02050a63          	beqz	a0,800030a0 <_ZN12kmem_cache_t10printErrorEv+0x50>
        _Console::printString(err);
    80003070:	00003097          	auipc	ra,0x3
    80003074:	200080e7          	jalr	512(ra) # 80006270 <_ZN8_Console11printStringEPKc>
        _Console::putc('\n');
    80003078:	00a00513          	li	a0,10
    8000307c:	00003097          	auipc	ra,0x3
    80003080:	0c8080e7          	jalr	200(ra) # 80006144 <_ZN8_Console4putcEc>
        err = nullptr;
    80003084:	0404bc23          	sd	zero,88(s1)
        return 1;
    80003088:	00100513          	li	a0,1
    }
    else {
        _Console::printString("NO ERROR!\n");
        return 0;
    }
}
    8000308c:	01813083          	ld	ra,24(sp)
    80003090:	01013403          	ld	s0,16(sp)
    80003094:	00813483          	ld	s1,8(sp)
    80003098:	02010113          	addi	sp,sp,32
    8000309c:	00008067          	ret
        _Console::printString("NO ERROR!\n");
    800030a0:	00008517          	auipc	a0,0x8
    800030a4:	21050513          	addi	a0,a0,528 # 8000b2b0 <PAGEOFFMASK+0x28c>
    800030a8:	00003097          	auipc	ra,0x3
    800030ac:	1c8080e7          	jalr	456(ra) # 80006270 <_ZN8_Console11printStringEPKc>
        return 0;
    800030b0:	00000513          	li	a0,0
    800030b4:	fd9ff06f          	j	8000308c <_ZN12kmem_cache_t10printErrorEv+0x3c>

00000000800030b8 <_ZN12kmem_cache_t9kmem_initEPvi>:

void kmem_cache_t::kmem_init(void* space, int block_num) {
    800030b8:	fe010113          	addi	sp,sp,-32
    800030bc:	00113c23          	sd	ra,24(sp)
    800030c0:	00813823          	sd	s0,16(sp)
    800030c4:	00913423          	sd	s1,8(sp)
    800030c8:	01213023          	sd	s2,0(sp)
    800030cc:	02010413          	addi	s0,sp,32
    void* heap_end = (char*)space + block_num * BLOCK_SIZE;
    800030d0:	00c5959b          	slliw	a1,a1,0xc
    800030d4:	00b50933          	add	s2,a0,a1
    _BuddyTree* buddy = new(space) _BuddyTree(heap_end, BLOCK_SIZE, PAGEOFFMASK);
    800030d8:	00050593          	mv	a1,a0
    800030dc:	03000513          	li	a0,48
    800030e0:	fffff097          	auipc	ra,0xfffff
    800030e4:	f4c080e7          	jalr	-180(ra) # 8000202c <_ZnwmPv>
    800030e8:	00050493          	mv	s1,a0
    800030ec:	00050e63          	beqz	a0,80003108 <_ZN12kmem_cache_t9kmem_initEPvi+0x50>
    800030f0:	000016b7          	lui	a3,0x1
    800030f4:	fff68693          	addi	a3,a3,-1 # fff <_entry-0x7ffff001>
    800030f8:	00001637          	lui	a2,0x1
    800030fc:	00090593          	mv	a1,s2
    80003100:	00003097          	auipc	ra,0x3
    80003104:	680080e7          	jalr	1664(ra) # 80006780 <_ZN10_BuddyTreeC1EPvmm>
    kmem_init(buddy);
    80003108:	00048513          	mv	a0,s1
    8000310c:	fffff097          	auipc	ra,0xfffff
    80003110:	600080e7          	jalr	1536(ra) # 8000270c <_ZN12kmem_cache_t9kmem_initEP10_BuddyTree>
}
    80003114:	01813083          	ld	ra,24(sp)
    80003118:	01013403          	ld	s0,16(sp)
    8000311c:	00813483          	ld	s1,8(sp)
    80003120:	00013903          	ld	s2,0(sp)
    80003124:	02010113          	addi	sp,sp,32
    80003128:	00008067          	ret

000000008000312c <_ZN12kmem_cache_t17kmem_cache_createEPKcmPFvPvES4_>:
kmem_cache_t* kmem_cache_t::kmem_cache_create(const char* name, size_t size, void (*ctor)(void*), void (*dtor)(void*)) {
    8000312c:	fc010113          	addi	sp,sp,-64
    80003130:	02113c23          	sd	ra,56(sp)
    80003134:	02813823          	sd	s0,48(sp)
    80003138:	02913423          	sd	s1,40(sp)
    8000313c:	03213023          	sd	s2,32(sp)
    80003140:	01313c23          	sd	s3,24(sp)
    80003144:	01413823          	sd	s4,16(sp)
    80003148:	01513423          	sd	s5,8(sp)
    8000314c:	04010413          	addi	s0,sp,64
    80003150:	00050913          	mv	s2,a0
    80003154:	00058993          	mv	s3,a1
    80003158:	00060a13          	mv	s4,a2
    8000315c:	00068a93          	mv	s5,a3
    kmem_cache_t* ret = allocKct();
    80003160:	fffff097          	auipc	ra,0xfffff
    80003164:	32c080e7          	jalr	812(ra) # 8000248c <_ZN12kmem_cache_t8allocKctEv>
    80003168:	00050493          	mv	s1,a0
    new (ret) kmem_cache_t(name, size, ctor, dtor, false);
    8000316c:	00050593          	mv	a1,a0
    80003170:	06000513          	li	a0,96
    80003174:	fffff097          	auipc	ra,0xfffff
    80003178:	eb8080e7          	jalr	-328(ra) # 8000202c <_ZnwmPv>
    8000317c:	02050063          	beqz	a0,8000319c <_ZN12kmem_cache_t17kmem_cache_createEPKcmPFvPvES4_+0x70>
    80003180:	00000793          	li	a5,0
    80003184:	000a8713          	mv	a4,s5
    80003188:	000a0693          	mv	a3,s4
    8000318c:	00098613          	mv	a2,s3
    80003190:	00090593          	mv	a1,s2
    80003194:	fffff097          	auipc	ra,0xfffff
    80003198:	4e4080e7          	jalr	1252(ra) # 80002678 <_ZN12kmem_cache_tC1EPKcmPFvPvES4_b>
    return ret;
}
    8000319c:	00048513          	mv	a0,s1
    800031a0:	03813083          	ld	ra,56(sp)
    800031a4:	03013403          	ld	s0,48(sp)
    800031a8:	02813483          	ld	s1,40(sp)
    800031ac:	02013903          	ld	s2,32(sp)
    800031b0:	01813983          	ld	s3,24(sp)
    800031b4:	01013a03          	ld	s4,16(sp)
    800031b8:	00813a83          	ld	s5,8(sp)
    800031bc:	04010113          	addi	sp,sp,64
    800031c0:	00008067          	ret

00000000800031c4 <_ZN12kmem_cache_t17kmem_cache_shrinkEPS_>:
int kmem_cache_t::kmem_cache_shrink(kmem_cache_t* cachep) {
    800031c4:	ff010113          	addi	sp,sp,-16
    800031c8:	00113423          	sd	ra,8(sp)
    800031cc:	00813023          	sd	s0,0(sp)
    800031d0:	01010413          	addi	s0,sp,16
    return cachep->shrink();
    800031d4:	00000097          	auipc	ra,0x0
    800031d8:	b78080e7          	jalr	-1160(ra) # 80002d4c <_ZN12kmem_cache_t6shrinkEv>
}
    800031dc:	00813083          	ld	ra,8(sp)
    800031e0:	00013403          	ld	s0,0(sp)
    800031e4:	01010113          	addi	sp,sp,16
    800031e8:	00008067          	ret

00000000800031ec <_ZN12kmem_cache_t16kmem_cache_allocEPS_>:
void* kmem_cache_t::kmem_cache_alloc(kmem_cache_t* cachep) {
    800031ec:	ff010113          	addi	sp,sp,-16
    800031f0:	00113423          	sd	ra,8(sp)
    800031f4:	00813023          	sd	s0,0(sp)
    800031f8:	01010413          	addi	s0,sp,16
    return cachep->alloc();
    800031fc:	00000097          	auipc	ra,0x0
    80003200:	85c080e7          	jalr	-1956(ra) # 80002a58 <_ZN12kmem_cache_t5allocEv>
}
    80003204:	00813083          	ld	ra,8(sp)
    80003208:	00013403          	ld	s0,0(sp)
    8000320c:	01010113          	addi	sp,sp,16
    80003210:	00008067          	ret

0000000080003214 <_ZN12kmem_cache_t15kmem_cache_freeEPS_Pv>:
void kmem_cache_t::kmem_cache_free(kmem_cache_t* cachep, void* objp) {
    80003214:	ff010113          	addi	sp,sp,-16
    80003218:	00113423          	sd	ra,8(sp)
    8000321c:	00813023          	sd	s0,0(sp)
    80003220:	01010413          	addi	s0,sp,16
    cachep->dealloc(objp);
    80003224:	00000097          	auipc	ra,0x0
    80003228:	94c080e7          	jalr	-1716(ra) # 80002b70 <_ZN12kmem_cache_t7deallocEPv>
}
    8000322c:	00813083          	ld	ra,8(sp)
    80003230:	00013403          	ld	s0,0(sp)
    80003234:	01010113          	addi	sp,sp,16
    80003238:	00008067          	ret

000000008000323c <_ZN12kmem_cache_t7kmallocEm>:
void* kmem_cache_t::kmalloc(size_t size) {
    8000323c:	ff010113          	addi	sp,sp,-16
    80003240:	00113423          	sd	ra,8(sp)
    80003244:	00813023          	sd	s0,0(sp)
    80003248:	01010413          	addi	s0,sp,16
    kmem_cache_t* cache = getBuffCache(size);
    8000324c:	fffff097          	auipc	ra,0xfffff
    80003250:	2f8080e7          	jalr	760(ra) # 80002544 <_ZN12kmem_cache_t12getBuffCacheEm>
    return cache->alloc();
    80003254:	00000097          	auipc	ra,0x0
    80003258:	804080e7          	jalr	-2044(ra) # 80002a58 <_ZN12kmem_cache_t5allocEv>
}
    8000325c:	00813083          	ld	ra,8(sp)
    80003260:	00013403          	ld	s0,0(sp)
    80003264:	01010113          	addi	sp,sp,16
    80003268:	00008067          	ret

000000008000326c <_ZN12kmem_cache_t5kfreeEPKv>:
void kmem_cache_t::kfree(const void* objp) {
    8000326c:	ff010113          	addi	sp,sp,-16
    80003270:	00113423          	sd	ra,8(sp)
    80003274:	00813023          	sd	s0,0(sp)
    80003278:	01010413          	addi	s0,sp,16
    void* obj = (void*) objp;
    deallocBuff(obj);
    8000327c:	00000097          	auipc	ra,0x0
    80003280:	a5c080e7          	jalr	-1444(ra) # 80002cd8 <_ZN12kmem_cache_t11deallocBuffEPv>
}
    80003284:	00813083          	ld	ra,8(sp)
    80003288:	00013403          	ld	s0,0(sp)
    8000328c:	01010113          	addi	sp,sp,16
    80003290:	00008067          	ret

0000000080003294 <_ZN12kmem_cache_t18kmem_cache_destroyEPS_>:
void kmem_cache_t::kmem_cache_destroy(kmem_cache_t* cachep) {
    80003294:	fe010113          	addi	sp,sp,-32
    80003298:	00113c23          	sd	ra,24(sp)
    8000329c:	00813823          	sd	s0,16(sp)
    800032a0:	00913423          	sd	s1,8(sp)
    800032a4:	02010413          	addi	s0,sp,32
    800032a8:	00050493          	mv	s1,a0
    cachep->~kmem_cache_t();
    800032ac:	fffff097          	auipc	ra,0xfffff
    800032b0:	660080e7          	jalr	1632(ra) # 8000290c <_ZN12kmem_cache_tD1Ev>
    deallocKct(cachep);
    800032b4:	00048513          	mv	a0,s1
    800032b8:	fffff097          	auipc	ra,0xfffff
    800032bc:	224080e7          	jalr	548(ra) # 800024dc <_ZN12kmem_cache_t10deallocKctEPS_>
}
    800032c0:	01813083          	ld	ra,24(sp)
    800032c4:	01013403          	ld	s0,16(sp)
    800032c8:	00813483          	ld	s1,8(sp)
    800032cc:	02010113          	addi	sp,sp,32
    800032d0:	00008067          	ret

00000000800032d4 <_ZN12kmem_cache_t15kmem_cache_infoEPS_>:
void kmem_cache_t::kmem_cache_info(kmem_cache_t* cachep) {
    800032d4:	ff010113          	addi	sp,sp,-16
    800032d8:	00113423          	sd	ra,8(sp)
    800032dc:	00813023          	sd	s0,0(sp)
    800032e0:	01010413          	addi	s0,sp,16
    cachep->printInfo();
    800032e4:	00000097          	auipc	ra,0x0
    800032e8:	bf4080e7          	jalr	-1036(ra) # 80002ed8 <_ZN12kmem_cache_t9printInfoEv>
}
    800032ec:	00813083          	ld	ra,8(sp)
    800032f0:	00013403          	ld	s0,0(sp)
    800032f4:	01010113          	addi	sp,sp,16
    800032f8:	00008067          	ret

00000000800032fc <_ZN12kmem_cache_t16kmem_cache_errorEPS_>:
int kmem_cache_t::kmem_cache_error(kmem_cache_t* cachep) {
    800032fc:	ff010113          	addi	sp,sp,-16
    80003300:	00113423          	sd	ra,8(sp)
    80003304:	00813023          	sd	s0,0(sp)
    80003308:	01010413          	addi	s0,sp,16
    return cachep->printError();
    8000330c:	00000097          	auipc	ra,0x0
    80003310:	d44080e7          	jalr	-700(ra) # 80003050 <_ZN12kmem_cache_t10printErrorEv>
}
    80003314:	00813083          	ld	ra,8(sp)
    80003318:	00013403          	ld	s0,0(sp)
    8000331c:	01010113          	addi	sp,sp,16
    80003320:	00008067          	ret

0000000080003324 <_ZN12kmem_cache_t20kmem_cache_info_buffEi>:
void kmem_cache_t::kmem_cache_info_buff(int pow) {
    if (pow < buffPowMin || pow > buffPowMax) return;
    80003324:	ffb5071b          	addiw	a4,a0,-5
    80003328:	00c00793          	li	a5,12
    8000332c:	00e7f463          	bgeu	a5,a4,80003334 <_ZN12kmem_cache_t20kmem_cache_info_buffEi+0x10>
    80003330:	00008067          	ret
void kmem_cache_t::kmem_cache_info_buff(int pow) {
    80003334:	ff010113          	addi	sp,sp,-16
    80003338:	00113423          	sd	ra,8(sp)
    8000333c:	00813023          	sd	s0,0(sp)
    80003340:	01010413          	addi	s0,sp,16
    int i = pow - buffPowMin;
    cacheMem[i].printInfo();
    80003344:	00171793          	slli	a5,a4,0x1
    80003348:	00e78533          	add	a0,a5,a4
    8000334c:	00551513          	slli	a0,a0,0x5
    80003350:	0000c797          	auipc	a5,0xc
    80003354:	6f07b783          	ld	a5,1776(a5) # 8000fa40 <_ZN12kmem_cache_t8cacheMemE>
    80003358:	00a78533          	add	a0,a5,a0
    8000335c:	00000097          	auipc	ra,0x0
    80003360:	b7c080e7          	jalr	-1156(ra) # 80002ed8 <_ZN12kmem_cache_t9printInfoEv>
}
    80003364:	00813083          	ld	ra,8(sp)
    80003368:	00013403          	ld	s0,0(sp)
    8000336c:	01010113          	addi	sp,sp,16
    80003370:	00008067          	ret

0000000080003374 <_ZN12kmem_cache_t10buddyAllocEi>:

void* kmem_cache_t::buddyAlloc(int pow) {
    80003374:	ff010113          	addi	sp,sp,-16
    80003378:	00113423          	sd	ra,8(sp)
    8000337c:	00813023          	sd	s0,0(sp)
    80003380:	01010413          	addi	s0,sp,16
    80003384:	00050593          	mv	a1,a0
    return buddy->allocBlock(pow);
    80003388:	0000c517          	auipc	a0,0xc
    8000338c:	69853503          	ld	a0,1688(a0) # 8000fa20 <_ZN12kmem_cache_t5buddyE>
    80003390:	00003097          	auipc	ra,0x3
    80003394:	58c080e7          	jalr	1420(ra) # 8000691c <_ZN10_BuddyTree10allocBlockEi>
}
    80003398:	00813083          	ld	ra,8(sp)
    8000339c:	00013403          	ld	s0,0(sp)
    800033a0:	01010113          	addi	sp,sp,16
    800033a4:	00008067          	ret

00000000800033a8 <_ZN12kmem_cache_t9buddyFreeEPv>:
void kmem_cache_t::buddyFree(void* ptr) {
    800033a8:	ff010113          	addi	sp,sp,-16
    800033ac:	00113423          	sd	ra,8(sp)
    800033b0:	00813023          	sd	s0,0(sp)
    800033b4:	01010413          	addi	s0,sp,16
    800033b8:	00050593          	mv	a1,a0
    buddy->dealloc(ptr);
    800033bc:	0000c517          	auipc	a0,0xc
    800033c0:	66453503          	ld	a0,1636(a0) # 8000fa20 <_ZN12kmem_cache_t5buddyE>
    800033c4:	00003097          	auipc	ra,0x3
    800033c8:	6b4080e7          	jalr	1716(ra) # 80006a78 <_ZN10_BuddyTree7deallocEPv>
}
    800033cc:	00813083          	ld	ra,8(sp)
    800033d0:	00013403          	ld	s0,0(sp)
    800033d4:	01010113          	addi	sp,sp,16
    800033d8:	00008067          	ret

00000000800033dc <_ZN12kmem_cache_t11getBuddyEndEv>:
void* kmem_cache_t::getBuddyEnd() {
    800033dc:	ff010113          	addi	sp,sp,-16
    800033e0:	00813423          	sd	s0,8(sp)
    800033e4:	01010413          	addi	s0,sp,16
    return buddy->getEnd();
    800033e8:	0000c797          	auipc	a5,0xc
    800033ec:	6387b783          	ld	a5,1592(a5) # 8000fa20 <_ZN12kmem_cache_t5buddyE>
    800033f0:	0187b503          	ld	a0,24(a5)
    800033f4:	00813403          	ld	s0,8(sp)
    800033f8:	01010113          	addi	sp,sp,16
    800033fc:	00008067          	ret

0000000080003400 <_ZN5_Slab17getAllocatedCountEv>:
    virtual int getAllocatedCount() { return allocated; }
    80003400:	ff010113          	addi	sp,sp,-16
    80003404:	00813423          	sd	s0,8(sp)
    80003408:	01010413          	addi	s0,sp,16
    8000340c:	01052503          	lw	a0,16(a0)
    80003410:	00813403          	ld	s0,8(sp)
    80003414:	01010113          	addi	sp,sp,16
    80003418:	00008067          	ret

000000008000341c <_ZN5_Slab8containsEPv>:
    virtual bool contains(void* adr) { return false; }//ova bi trebalo da bude pure virtual ali ne moze*
    8000341c:	ff010113          	addi	sp,sp,-16
    80003420:	00813423          	sd	s0,8(sp)
    80003424:	01010413          	addi	s0,sp,16
    80003428:	00000513          	li	a0,0
    8000342c:	00813403          	ld	s0,8(sp)
    80003430:	01010113          	addi	sp,sp,16
    80003434:	00008067          	ret

0000000080003438 <_ZN20_ThreadPriorityQueue4NodenwEm>:
#include "../h/_ThreadPriorityQueue.h"
#include "../h/_Thread.h"
#include "../h/_Mem.h"

kmem_cache_t* _ThreadPriorityQueue::Node::cache = nullptr;
void* _ThreadPriorityQueue::Node::operator new(size_t size) {
    80003438:	ff010113          	addi	sp,sp,-16
    8000343c:	00113423          	sd	ra,8(sp)
    80003440:	00813023          	sd	s0,0(sp)
    80003444:	01010413          	addi	s0,sp,16
    if (!cache) cache = kmem_cache_create("Thread_priority_queue::Node", sizeof(_ThreadPriorityQueue::Node), nullptr, nullptr);
    80003448:	0000c797          	auipc	a5,0xc
    8000344c:	6007b783          	ld	a5,1536(a5) # 8000fa48 <_ZN20_ThreadPriorityQueue4Node5cacheE>
    80003450:	02078263          	beqz	a5,80003474 <_ZN20_ThreadPriorityQueue4NodenwEm+0x3c>
    return kmem_cache_alloc(cache);
    80003454:	0000c517          	auipc	a0,0xc
    80003458:	5f453503          	ld	a0,1524(a0) # 8000fa48 <_ZN20_ThreadPriorityQueue4Node5cacheE>
    8000345c:	ffffe097          	auipc	ra,0xffffe
    80003460:	018080e7          	jalr	24(ra) # 80001474 <_Z16kmem_cache_allocP12kmem_cache_t>
}
    80003464:	00813083          	ld	ra,8(sp)
    80003468:	00013403          	ld	s0,0(sp)
    8000346c:	01010113          	addi	sp,sp,16
    80003470:	00008067          	ret
    if (!cache) cache = kmem_cache_create("Thread_priority_queue::Node", sizeof(_ThreadPriorityQueue::Node), nullptr, nullptr);
    80003474:	00000693          	li	a3,0
    80003478:	00000613          	li	a2,0
    8000347c:	01800593          	li	a1,24
    80003480:	00008517          	auipc	a0,0x8
    80003484:	e4850513          	addi	a0,a0,-440 # 8000b2c8 <_ZN12kmem_cache_t3MAXE+0x4>
    80003488:	ffffe097          	auipc	ra,0xffffe
    8000348c:	f9c080e7          	jalr	-100(ra) # 80001424 <_Z17kmem_cache_createPKcmPFvPvES3_>
    80003490:	0000c797          	auipc	a5,0xc
    80003494:	5aa7bc23          	sd	a0,1464(a5) # 8000fa48 <_ZN20_ThreadPriorityQueue4Node5cacheE>
    80003498:	fbdff06f          	j	80003454 <_ZN20_ThreadPriorityQueue4NodenwEm+0x1c>

000000008000349c <_ZN20_ThreadPriorityQueue4NodedlEPv>:
void _ThreadPriorityQueue::Node::operator delete(void* addr) {
    8000349c:	ff010113          	addi	sp,sp,-16
    800034a0:	00113423          	sd	ra,8(sp)
    800034a4:	00813023          	sd	s0,0(sp)
    800034a8:	01010413          	addi	s0,sp,16
    800034ac:	00050593          	mv	a1,a0
    kmem_cache_free(cache, addr);
    800034b0:	0000c517          	auipc	a0,0xc
    800034b4:	59853503          	ld	a0,1432(a0) # 8000fa48 <_ZN20_ThreadPriorityQueue4Node5cacheE>
    800034b8:	ffffe097          	auipc	ra,0xffffe
    800034bc:	fe4080e7          	jalr	-28(ra) # 8000149c <_Z15kmem_cache_freeP12kmem_cache_tPv>
}
    800034c0:	00813083          	ld	ra,8(sp)
    800034c4:	00013403          	ld	s0,0(sp)
    800034c8:	01010113          	addi	sp,sp,16
    800034cc:	00008067          	ret

00000000800034d0 <_ZN20_ThreadPriorityQueuenwEm>:

kmem_cache_t* _ThreadPriorityQueue::cache = nullptr;
void* _ThreadPriorityQueue::operator new(size_t size) {
    800034d0:	ff010113          	addi	sp,sp,-16
    800034d4:	00113423          	sd	ra,8(sp)
    800034d8:	00813023          	sd	s0,0(sp)
    800034dc:	01010413          	addi	s0,sp,16
    if (!cache) cache = kmem_cache_create("Thread_priority_queue Cache", sizeof(_ThreadPriorityQueue), nullptr, nullptr);
    800034e0:	0000c797          	auipc	a5,0xc
    800034e4:	5707b783          	ld	a5,1392(a5) # 8000fa50 <_ZN20_ThreadPriorityQueue5cacheE>
    800034e8:	02078263          	beqz	a5,8000350c <_ZN20_ThreadPriorityQueuenwEm+0x3c>
    return kmem_cache_alloc(cache);
    800034ec:	0000c517          	auipc	a0,0xc
    800034f0:	56453503          	ld	a0,1380(a0) # 8000fa50 <_ZN20_ThreadPriorityQueue5cacheE>
    800034f4:	ffffe097          	auipc	ra,0xffffe
    800034f8:	f80080e7          	jalr	-128(ra) # 80001474 <_Z16kmem_cache_allocP12kmem_cache_t>
}
    800034fc:	00813083          	ld	ra,8(sp)
    80003500:	00013403          	ld	s0,0(sp)
    80003504:	01010113          	addi	sp,sp,16
    80003508:	00008067          	ret
    if (!cache) cache = kmem_cache_create("Thread_priority_queue Cache", sizeof(_ThreadPriorityQueue), nullptr, nullptr);
    8000350c:	00000693          	li	a3,0
    80003510:	00000613          	li	a2,0
    80003514:	01000593          	li	a1,16
    80003518:	00008517          	auipc	a0,0x8
    8000351c:	dd050513          	addi	a0,a0,-560 # 8000b2e8 <_ZN12kmem_cache_t3MAXE+0x24>
    80003520:	ffffe097          	auipc	ra,0xffffe
    80003524:	f04080e7          	jalr	-252(ra) # 80001424 <_Z17kmem_cache_createPKcmPFvPvES3_>
    80003528:	0000c797          	auipc	a5,0xc
    8000352c:	52a7b423          	sd	a0,1320(a5) # 8000fa50 <_ZN20_ThreadPriorityQueue5cacheE>
    80003530:	fbdff06f          	j	800034ec <_ZN20_ThreadPriorityQueuenwEm+0x1c>

0000000080003534 <_ZN20_ThreadPriorityQueuedlEPv>:
void _ThreadPriorityQueue::operator delete(void* addr) {
    80003534:	ff010113          	addi	sp,sp,-16
    80003538:	00113423          	sd	ra,8(sp)
    8000353c:	00813023          	sd	s0,0(sp)
    80003540:	01010413          	addi	s0,sp,16
    80003544:	00050593          	mv	a1,a0
    kmem_cache_free(cache, addr);
    80003548:	0000c517          	auipc	a0,0xc
    8000354c:	50853503          	ld	a0,1288(a0) # 8000fa50 <_ZN20_ThreadPriorityQueue5cacheE>
    80003550:	ffffe097          	auipc	ra,0xffffe
    80003554:	f4c080e7          	jalr	-180(ra) # 8000149c <_Z15kmem_cache_freeP12kmem_cache_tPv>
}
    80003558:	00813083          	ld	ra,8(sp)
    8000355c:	00013403          	ld	s0,0(sp)
    80003560:	01010113          	addi	sp,sp,16
    80003564:	00008067          	ret

0000000080003568 <_ZN20_ThreadPriorityQueue3addEP7_Thread>:

int _ThreadPriorityQueue::add(thread_t thread) {
    80003568:	fd010113          	addi	sp,sp,-48
    8000356c:	02113423          	sd	ra,40(sp)
    80003570:	02813023          	sd	s0,32(sp)
    80003574:	00913c23          	sd	s1,24(sp)
    80003578:	01213823          	sd	s2,16(sp)
    8000357c:	01313423          	sd	s3,8(sp)
    80003580:	03010413          	addi	s0,sp,48
    80003584:	00050993          	mv	s3,a0
    80003588:	00058913          	mv	s2,a1
    Node* cur = new Node(thread);
    8000358c:	01800513          	li	a0,24
    80003590:	00000097          	auipc	ra,0x0
    80003594:	ea8080e7          	jalr	-344(ra) # 80003438 <_ZN20_ThreadPriorityQueue4NodenwEm>
    80003598:	00050493          	mv	s1,a0
    8000359c:	00050863          	beqz	a0,800035ac <_ZN20_ThreadPriorityQueue3addEP7_Thread+0x44>
        Node(thread_t thread) : thread(thread), next(0), prev(0) {}
    800035a0:	01253023          	sd	s2,0(a0)
    800035a4:	00053423          	sd	zero,8(a0)
    800035a8:	00053823          	sd	zero,16(a0)
    if (!cur) return -1;
    800035ac:	08048a63          	beqz	s1,80003640 <_ZN20_ThreadPriorityQueue3addEP7_Thread+0xd8>
    Node* prev, *next;
    if (thread->top()) {
    800035b0:	00090513          	mv	a0,s2
    800035b4:	00000097          	auipc	ra,0x0
    800035b8:	584080e7          	jalr	1412(ra) # 80003b38 <_ZN7_Thread3topEv>
    800035bc:	04050263          	beqz	a0,80003600 <_ZN20_ThreadPriorityQueue3addEP7_Thread+0x98>
        prev = nullptr, next = first;
    800035c0:	0009b603          	ld	a2,0(s3)
    800035c4:	00000793          	li	a5,0
        prev = last, next = nullptr;
        while (prev && prev->thread->getPriority() < thread->getPriority()) {
            next = prev; prev = prev->prev;
        }
    }
    cur->next = next;
    800035c8:	00c4b423          	sd	a2,8(s1)
    if (next) next->prev = cur;
    800035cc:	06060063          	beqz	a2,8000362c <_ZN20_ThreadPriorityQueue3addEP7_Thread+0xc4>
    800035d0:	00963823          	sd	s1,16(a2) # 1010 <_entry-0x7fffeff0>
    else last = cur;
    cur->prev = prev;
    800035d4:	00f4b823          	sd	a5,16(s1)
    if (prev) prev->next = cur;
    800035d8:	04078e63          	beqz	a5,80003634 <_ZN20_ThreadPriorityQueue3addEP7_Thread+0xcc>
    800035dc:	0097b423          	sd	s1,8(a5)
    else first = cur;
    return 0;
    800035e0:	00000513          	li	a0,0
}
    800035e4:	02813083          	ld	ra,40(sp)
    800035e8:	02013403          	ld	s0,32(sp)
    800035ec:	01813483          	ld	s1,24(sp)
    800035f0:	01013903          	ld	s2,16(sp)
    800035f4:	00813983          	ld	s3,8(sp)
    800035f8:	03010113          	addi	sp,sp,48
    800035fc:	00008067          	ret
        prev = last, next = nullptr;
    80003600:	0089b783          	ld	a5,8(s3)
    80003604:	00000613          	li	a2,0
    80003608:	00c0006f          	j	80003614 <_ZN20_ThreadPriorityQueue3addEP7_Thread+0xac>
            next = prev; prev = prev->prev;
    8000360c:	00078613          	mv	a2,a5
    80003610:	0107b783          	ld	a5,16(a5)
        while (prev && prev->thread->getPriority() < thread->getPriority()) {
    80003614:	fa078ae3          	beqz	a5,800035c8 <_ZN20_ThreadPriorityQueue3addEP7_Thread+0x60>
    80003618:	0007b703          	ld	a4,0(a5)
    int getPriority() { return priority; }
    8000361c:	02c72683          	lw	a3,44(a4)
    80003620:	02c92703          	lw	a4,44(s2)
    80003624:	fee6c4e3          	blt	a3,a4,8000360c <_ZN20_ThreadPriorityQueue3addEP7_Thread+0xa4>
    80003628:	fa1ff06f          	j	800035c8 <_ZN20_ThreadPriorityQueue3addEP7_Thread+0x60>
    else last = cur;
    8000362c:	0099b423          	sd	s1,8(s3)
    80003630:	fa5ff06f          	j	800035d4 <_ZN20_ThreadPriorityQueue3addEP7_Thread+0x6c>
    else first = cur;
    80003634:	0099b023          	sd	s1,0(s3)
    return 0;
    80003638:	00000513          	li	a0,0
    8000363c:	fa9ff06f          	j	800035e4 <_ZN20_ThreadPriorityQueue3addEP7_Thread+0x7c>
    if (!cur) return -1;
    80003640:	fff00513          	li	a0,-1
    80003644:	fa1ff06f          	j	800035e4 <_ZN20_ThreadPriorityQueue3addEP7_Thread+0x7c>

0000000080003648 <_ZN20_ThreadPriorityQueue6removeEv>:
thread_t _ThreadPriorityQueue::remove() {
    80003648:	fe010113          	addi	sp,sp,-32
    8000364c:	00113c23          	sd	ra,24(sp)
    80003650:	00813823          	sd	s0,16(sp)
    80003654:	00913423          	sd	s1,8(sp)
    80003658:	02010413          	addi	s0,sp,32
    8000365c:	00050793          	mv	a5,a0
    if (!first) return nullptr;
    80003660:	00053503          	ld	a0,0(a0)
    80003664:	04050063          	beqz	a0,800036a4 <_ZN20_ThreadPriorityQueue6removeEv+0x5c>
    thread_t ret = first->thread;
    80003668:	00053483          	ld	s1,0(a0)
    Node* node = first;
    first = node->next;
    8000366c:	00853703          	ld	a4,8(a0)
    80003670:	00e7b023          	sd	a4,0(a5)
    if (first) first->prev = nullptr;
    80003674:	02070463          	beqz	a4,8000369c <_ZN20_ThreadPriorityQueue6removeEv+0x54>
    80003678:	00073823          	sd	zero,16(a4)
    else last = nullptr;
    delete node;
    8000367c:	00000097          	auipc	ra,0x0
    80003680:	e20080e7          	jalr	-480(ra) # 8000349c <_ZN20_ThreadPriorityQueue4NodedlEPv>
    return ret;
}
    80003684:	00048513          	mv	a0,s1
    80003688:	01813083          	ld	ra,24(sp)
    8000368c:	01013403          	ld	s0,16(sp)
    80003690:	00813483          	ld	s1,8(sp)
    80003694:	02010113          	addi	sp,sp,32
    80003698:	00008067          	ret
    else last = nullptr;
    8000369c:	0007b423          	sd	zero,8(a5)
    800036a0:	fddff06f          	j	8000367c <_ZN20_ThreadPriorityQueue6removeEv+0x34>
    if (!first) return nullptr;
    800036a4:	00050493          	mv	s1,a0
    800036a8:	fddff06f          	j	80003684 <_ZN20_ThreadPriorityQueue6removeEv+0x3c>

00000000800036ac <_ZN20_ThreadPriorityQueue5emptyEv>:
int _ThreadPriorityQueue::empty() {
    800036ac:	ff010113          	addi	sp,sp,-16
    800036b0:	00813423          	sd	s0,8(sp)
    800036b4:	01010413          	addi	s0,sp,16
    return !first;
    800036b8:	00053503          	ld	a0,0(a0)
    800036bc:	00153513          	seqz	a0,a0
    800036c0:	00813403          	ld	s0,8(sp)
    800036c4:	01010113          	addi	sp,sp,16
    800036c8:	00008067          	ret

00000000800036cc <_ZN7_ThreadnwEm>:
const size_t _Thread::DEFAULT_SSP_SIZE = 4096*2;
thread_t _Thread::main;

kmem_cache_t* _Thread::cache = nullptr;

void* _Thread::operator new(size_t) {
    800036cc:	ff010113          	addi	sp,sp,-16
    800036d0:	00113423          	sd	ra,8(sp)
    800036d4:	00813023          	sd	s0,0(sp)
    800036d8:	01010413          	addi	s0,sp,16
    if (!cache) cache = kmem_cache_create("Thread Cache", sizeof(_Thread), nullptr, nullptr);
    800036dc:	0000c797          	auipc	a5,0xc
    800036e0:	37c7b783          	ld	a5,892(a5) # 8000fa58 <_ZN7_Thread5cacheE>
    800036e4:	02078263          	beqz	a5,80003708 <_ZN7_ThreadnwEm+0x3c>
    return kmem_cache_alloc(cache);
    800036e8:	0000c517          	auipc	a0,0xc
    800036ec:	37053503          	ld	a0,880(a0) # 8000fa58 <_ZN7_Thread5cacheE>
    800036f0:	ffffe097          	auipc	ra,0xffffe
    800036f4:	d84080e7          	jalr	-636(ra) # 80001474 <_Z16kmem_cache_allocP12kmem_cache_t>
}
    800036f8:	00813083          	ld	ra,8(sp)
    800036fc:	00013403          	ld	s0,0(sp)
    80003700:	01010113          	addi	sp,sp,16
    80003704:	00008067          	ret
    if (!cache) cache = kmem_cache_create("Thread Cache", sizeof(_Thread), nullptr, nullptr);
    80003708:	00000693          	li	a3,0
    8000370c:	00000613          	li	a2,0
    80003710:	04800593          	li	a1,72
    80003714:	00008517          	auipc	a0,0x8
    80003718:	bf450513          	addi	a0,a0,-1036 # 8000b308 <_ZN12kmem_cache_t3MAXE+0x44>
    8000371c:	ffffe097          	auipc	ra,0xffffe
    80003720:	d08080e7          	jalr	-760(ra) # 80001424 <_Z17kmem_cache_createPKcmPFvPvES3_>
    80003724:	0000c797          	auipc	a5,0xc
    80003728:	32a7ba23          	sd	a0,820(a5) # 8000fa58 <_ZN7_Thread5cacheE>
    8000372c:	fbdff06f          	j	800036e8 <_ZN7_ThreadnwEm+0x1c>

0000000080003730 <_ZN7_ThreaddlEPv>:
void _Thread::operator delete(void* addr) {
    80003730:	ff010113          	addi	sp,sp,-16
    80003734:	00113423          	sd	ra,8(sp)
    80003738:	00813023          	sd	s0,0(sp)
    8000373c:	01010413          	addi	s0,sp,16
    80003740:	00050593          	mv	a1,a0
    kmem_cache_free(cache, addr);
    80003744:	0000c517          	auipc	a0,0xc
    80003748:	31453503          	ld	a0,788(a0) # 8000fa58 <_ZN7_Thread5cacheE>
    8000374c:	ffffe097          	auipc	ra,0xffffe
    80003750:	d50080e7          	jalr	-688(ra) # 8000149c <_Z15kmem_cache_freeP12kmem_cache_tPv>
}
    80003754:	00813083          	ld	ra,8(sp)
    80003758:	00013403          	ld	s0,0(sp)
    8000375c:	01010113          	addi	sp,sp,16
    80003760:	00008067          	ret

0000000080003764 <_ZN7_ThreadD1Ev>:
_Thread::~_Thread() {}
    80003764:	ff010113          	addi	sp,sp,-16
    80003768:	00813423          	sd	s0,8(sp)
    8000376c:	01010413          	addi	s0,sp,16
    80003770:	00813403          	ld	s0,8(sp)
    80003774:	01010113          	addi	sp,sp,16
    80003778:	00008067          	ret

000000008000377c <_ZN7_ThreadC1EPFPvS0_ES0_S0_mibb>:
_Thread::_Thread(void* (*startRoutine)(void*), void* arg, void* stackSpace, size_t stackSize, int priority, bool daemon, bool isVoid) {
    8000377c:	fd010113          	addi	sp,sp,-48
    80003780:	02113423          	sd	ra,40(sp)
    80003784:	02813023          	sd	s0,32(sp)
    80003788:	00913c23          	sd	s1,24(sp)
    8000378c:	01213823          	sd	s2,16(sp)
    80003790:	01313423          	sd	s3,8(sp)
    80003794:	03010413          	addi	s0,sp,48
    80003798:	00050493          	mv	s1,a0
    8000379c:	00058993          	mv	s3,a1
    800037a0:	00060913          	mv	s2,a2
    flags = 0u;
    800037a4:	02052423          	sw	zero,40(a0)
    if (daemon) flags |= 32u;
    800037a8:	00080663          	beqz	a6,800037b4 <_ZN7_ThreadC1EPFPvS0_ES0_S0_mibb+0x38>
    800037ac:	02000613          	li	a2,32
    800037b0:	02c52423          	sw	a2,40(a0)
    this->priority = priority;
    800037b4:	02f4a623          	sw	a5,44(s1)
    parent = running;
    800037b8:	0000c797          	auipc	a5,0xc
    800037bc:	2a87b783          	ld	a5,680(a5) # 8000fa60 <_ZN7_Thread7runningE>
    800037c0:	02f4b823          	sd	a5,48(s1)
    waitManager = nullptr;
    800037c4:	0404b023          	sd	zero,64(s1)
    if (isVoid) returnValue = nullptr;
    800037c8:	06088663          	beqz	a7,80003834 <_ZN7_ThreadC1EPFPvS0_ES0_S0_mibb+0xb8>
    800037cc:	0204bc23          	sd	zero,56(s1)
    else returnValue = (void*)1;

    sp = stackSpace;
    sptop = (void *) ((char *) sp - stackSize);
    800037d0:	40e68733          	sub	a4,a3,a4
    800037d4:	00e4b823          	sd	a4,16(s1)
    sp = (void *) ((uint64) sp - (uint64) sp % 16);
    800037d8:	ff06f693          	andi	a3,a3,-16
    800037dc:	00d4b023          	sd	a3,0(s1)
    ssptop = _Mem::allocate((_Thread::DEFAULT_SSP_SIZE));
    800037e0:	00002537          	lui	a0,0x2
    800037e4:	00001097          	auipc	ra,0x1
    800037e8:	7bc080e7          	jalr	1980(ra) # 80004fa0 <_ZN4_Mem8allocateEm>
    800037ec:	00a4bc23          	sd	a0,24(s1)
    ssp = (char*)ssptop + _Thread::DEFAULT_SSP_SIZE;
    800037f0:	000027b7          	lui	a5,0x2
    800037f4:	00f50533          	add	a0,a0,a5
    ssp = (void*)((uint64)ssp - (uint64)ssp%16); //sp i ssp moraju biti deljivi sa 16
    800037f8:	ff057513          	andi	a0,a0,-16
    800037fc:	00a4b423          	sd	a0,8(s1)
    //stavljam na sstek start_routine i arg kako be starter mogao da zapocne nit
    __asm__ volatile("mv t5, %0": : "r"(ssp));
    80003800:	00050f13          	mv	t5,a0
    __asm__ volatile("sd %0, -8(t5)" : : "r"(startRoutine));
    80003804:	ff3f3c23          	sd	s3,-8(t5)
    __asm__ volatile("sd %0, -16(t5)" : : "r"(arg));
    80003808:	ff2f3823          	sd	s2,-16(t5)
    pc = (uint64) &starter;
    8000380c:	0000e797          	auipc	a5,0xe
    80003810:	85c7b783          	ld	a5,-1956(a5) # 80011068 <_GLOBAL_OFFSET_TABLE_+0x68>
    80003814:	02f4b023          	sd	a5,32(s1)
}
    80003818:	02813083          	ld	ra,40(sp)
    8000381c:	02013403          	ld	s0,32(sp)
    80003820:	01813483          	ld	s1,24(sp)
    80003824:	01013903          	ld	s2,16(sp)
    80003828:	00813983          	ld	s3,8(sp)
    8000382c:	03010113          	addi	sp,sp,48
    80003830:	00008067          	ret
    else returnValue = (void*)1;
    80003834:	00100793          	li	a5,1
    80003838:	02f4bc23          	sd	a5,56(s1)
    8000383c:	f95ff06f          	j	800037d0 <_ZN7_ThreadC1EPFPvS0_ES0_S0_mibb+0x54>

0000000080003840 <_ZN7_ThreadC1EPFPvS0_ES0_mibb>:
_Thread::_Thread(void* (*startRoutine)(void*), void* arg, size_t stackSize, int priority, bool daemon, bool isVoid) :
    80003840:	fb010113          	addi	sp,sp,-80
    80003844:	04113423          	sd	ra,72(sp)
    80003848:	04813023          	sd	s0,64(sp)
    8000384c:	02913c23          	sd	s1,56(sp)
    80003850:	03213823          	sd	s2,48(sp)
    80003854:	03313423          	sd	s3,40(sp)
    80003858:	03413023          	sd	s4,32(sp)
    8000385c:	01513c23          	sd	s5,24(sp)
    80003860:	01613823          	sd	s6,16(sp)
    80003864:	01713423          	sd	s7,8(sp)
    80003868:	05010413          	addi	s0,sp,80
    8000386c:	00050913          	mv	s2,a0
    80003870:	00058993          	mv	s3,a1
    80003874:	00060a13          	mv	s4,a2
    80003878:	00068493          	mv	s1,a3
    8000387c:	00070a93          	mv	s5,a4
    80003880:	00078b13          	mv	s6,a5
    80003884:	00080b93          	mv	s7,a6
_Thread(startRoutine, arg, (char*)_Mem::allocate(stackSize) + stackSize, stackSize, priority, daemon, isVoid) {}
    80003888:	00068513          	mv	a0,a3
    8000388c:	00001097          	auipc	ra,0x1
    80003890:	714080e7          	jalr	1812(ra) # 80004fa0 <_ZN4_Mem8allocateEm>
    80003894:	000b8893          	mv	a7,s7
    80003898:	000b0813          	mv	a6,s6
    8000389c:	000a8793          	mv	a5,s5
    800038a0:	00048713          	mv	a4,s1
    800038a4:	009506b3          	add	a3,a0,s1
    800038a8:	000a0613          	mv	a2,s4
    800038ac:	00098593          	mv	a1,s3
    800038b0:	00090513          	mv	a0,s2
    800038b4:	00000097          	auipc	ra,0x0
    800038b8:	ec8080e7          	jalr	-312(ra) # 8000377c <_ZN7_ThreadC1EPFPvS0_ES0_S0_mibb>
    800038bc:	04813083          	ld	ra,72(sp)
    800038c0:	04013403          	ld	s0,64(sp)
    800038c4:	03813483          	ld	s1,56(sp)
    800038c8:	03013903          	ld	s2,48(sp)
    800038cc:	02813983          	ld	s3,40(sp)
    800038d0:	02013a03          	ld	s4,32(sp)
    800038d4:	01813a83          	ld	s5,24(sp)
    800038d8:	01013b03          	ld	s6,16(sp)
    800038dc:	00813b83          	ld	s7,8(sp)
    800038e0:	05010113          	addi	sp,sp,80
    800038e4:	00008067          	ret

00000000800038e8 <_ZN7_ThreadC1EPFPvS0_ES0_ibb>:
_Thread::_Thread(void* (*startRoutine)(void*), void* arg, int priority, bool daemon, bool isVoid) :
    800038e8:	fe010113          	addi	sp,sp,-32
    800038ec:	00113c23          	sd	ra,24(sp)
    800038f0:	00813823          	sd	s0,16(sp)
    800038f4:	00913423          	sd	s1,8(sp)
    800038f8:	02010413          	addi	s0,sp,32
    800038fc:	00050493          	mv	s1,a0
_Thread(startRoutine, arg, nullptr, 0, priority, daemon, isVoid) { pc = (uint64) &sstarter; }
    80003900:	00078893          	mv	a7,a5
    80003904:	00070813          	mv	a6,a4
    80003908:	00068793          	mv	a5,a3
    8000390c:	00000713          	li	a4,0
    80003910:	00000693          	li	a3,0
    80003914:	00000097          	auipc	ra,0x0
    80003918:	e68080e7          	jalr	-408(ra) # 8000377c <_ZN7_ThreadC1EPFPvS0_ES0_S0_mibb>
    8000391c:	0000d797          	auipc	a5,0xd
    80003920:	7b47b783          	ld	a5,1972(a5) # 800110d0 <_GLOBAL_OFFSET_TABLE_+0xd0>
    80003924:	02f4b023          	sd	a5,32(s1)
    80003928:	01813083          	ld	ra,24(sp)
    8000392c:	01013403          	ld	s0,16(sp)
    80003930:	00813483          	ld	s1,8(sp)
    80003934:	02010113          	addi	sp,sp,32
    80003938:	00008067          	ret

000000008000393c <_ZN7_ThreadC1Ev>:
_Thread::_Thread() {
    8000393c:	ff010113          	addi	sp,sp,-16
    80003940:	00813423          	sd	s0,8(sp)
    80003944:	01010413          	addi	s0,sp,16
    sp = ssp = sptop = ssptop = nullptr;
    80003948:	00053c23          	sd	zero,24(a0) # 2018 <_entry-0x7fffdfe8>
    8000394c:	00053823          	sd	zero,16(a0)
    80003950:	00053423          	sd	zero,8(a0)
    80003954:	00053023          	sd	zero,0(a0)
    flags =  4;
    80003958:	00400793          	li	a5,4
    8000395c:	02f52423          	sw	a5,40(a0)
    parent = nullptr; waitManager =  nullptr; priority = TOP_PRIORITY; returnValue = nullptr; pc = 0;
    80003960:	02053823          	sd	zero,48(a0)
    80003964:	04053023          	sd	zero,64(a0)
    80003968:	3e800793          	li	a5,1000
    8000396c:	02f52623          	sw	a5,44(a0)
    80003970:	02053c23          	sd	zero,56(a0)
    80003974:	02053023          	sd	zero,32(a0)
}
    80003978:	00813403          	ld	s0,8(sp)
    8000397c:	01010113          	addi	sp,sp,16
    80003980:	00008067          	ret

0000000080003984 <_ZN7_Thread8busyWaitEv>:
    return create(handle, (void(*)(void*))startRoutine, nullptr, priority, options);
}
//cekanje da se probudi neka nit (ili da prodje buffer semafor)
//pritom moraju da budu dozvoljeni prekidi tajmera da bi tajmer mogao da radi svoj posao
//kao i hardvera u slucaju da sve niti npr cekaju da ucitaju karakter
void _Thread::busyWait() {
    80003984:	ff010113          	addi	sp,sp,-16
    80003988:	00113423          	sd	ra,8(sp)
    8000398c:	00813023          	sd	s0,0(sp)
    80003990:	01010413          	addi	s0,sp,16
    time = 1000;
    80003994:	3e800793          	li	a5,1000
    80003998:	0000c717          	auipc	a4,0xc
    8000399c:	daf73023          	sd	a5,-608(a4) # 8000f738 <_ZN7_Thread4timeE>
    _SBIT::SIEenable();//dozvola prekida (tajmera)
    800039a0:	ffffd097          	auipc	ra,0xffffd
    800039a4:	660080e7          	jalr	1632(ra) # 80001000 <_ZN5_SBIT9SIEenableEv>
    while (_Scheduler::empty()) time = 1000;
    800039a8:	ffffe097          	auipc	ra,0xffffe
    800039ac:	d38080e7          	jalr	-712(ra) # 800016e0 <_ZN10_Scheduler5emptyEv>
    800039b0:	00050a63          	beqz	a0,800039c4 <_ZN7_Thread8busyWaitEv+0x40>
    800039b4:	3e800793          	li	a5,1000
    800039b8:	0000c717          	auipc	a4,0xc
    800039bc:	d8f73023          	sd	a5,-640(a4) # 8000f738 <_ZN7_Thread4timeE>
    800039c0:	fe9ff06f          	j	800039a8 <_ZN7_Thread8busyWaitEv+0x24>
    _SBIT::SIEdisable();
    800039c4:	ffffd097          	auipc	ra,0xffffd
    800039c8:	644080e7          	jalr	1604(ra) # 80001008 <_ZN5_SBIT10SIEdisableEv>
    time = DEFAULT_TIME_SLICE;
    800039cc:	00200793          	li	a5,2
    800039d0:	0000c717          	auipc	a4,0xc
    800039d4:	d6f73423          	sd	a5,-664(a4) # 8000f738 <_ZN7_Thread4timeE>
}
    800039d8:	00813083          	ld	ra,8(sp)
    800039dc:	00013403          	ld	s0,0(sp)
    800039e0:	01010113          	addi	sp,sp,16
    800039e4:	00008067          	ret

00000000800039e8 <_ZN7_Thread5abortEv>:
    else _Scheduler::get(); //siguran sam da ce moci jer readyFirst != 0
    __asm__ volatile("mv ra, %0" : : "r"(running->pc));
    __asm__ volatile("ret");
    return 0;
}
void _Thread::abort() {
    800039e8:	ff010113          	addi	sp,sp,-16
    800039ec:	00813423          	sd	s0,8(sp)
    800039f0:	01010413          	addi	s0,sp,16
    running = main;
    800039f4:	0000c717          	auipc	a4,0xc
    800039f8:	06470713          	addi	a4,a4,100 # 8000fa58 <_ZN7_Thread5cacheE>
    800039fc:	01073783          	ld	a5,16(a4)
    80003a00:	00f73423          	sd	a5,8(a4)
    __asm__ volatile("mv ra, %0" : : "r"(running->pc));
    80003a04:	0207b783          	ld	a5,32(a5)
    80003a08:	00078093          	mv	ra,a5
    __asm__ volatile("ret");
    80003a0c:	00008067          	ret
}
    80003a10:	00813403          	ld	s0,8(sp)
    80003a14:	01010113          	addi	sp,sp,16
    80003a18:	00008067          	ret

0000000080003a1c <_ZN7_Thread4tickEv>:

void _Thread::tick() {
    80003a1c:	ff010113          	addi	sp,sp,-16
    80003a20:	00113423          	sd	ra,8(sp)
    80003a24:	00813023          	sd	s0,0(sp)
    80003a28:	01010413          	addi	s0,sp,16
    _Sleep::tick();
    80003a2c:	ffffe097          	auipc	ra,0xffffe
    80003a30:	264080e7          	jalr	612(ra) # 80001c90 <_ZN6_Sleep4tickEv>
    time--;
    80003a34:	0000c717          	auipc	a4,0xc
    80003a38:	d0470713          	addi	a4,a4,-764 # 8000f738 <_ZN7_Thread4timeE>
    80003a3c:	00073783          	ld	a5,0(a4)
    80003a40:	fff78793          	addi	a5,a5,-1
    80003a44:	00f73023          	sd	a5,0(a4)
    clock++;
    80003a48:	0000c697          	auipc	a3,0xc
    80003a4c:	01068693          	addi	a3,a3,16 # 8000fa58 <_ZN7_Thread5cacheE>
    80003a50:	0186b703          	ld	a4,24(a3)
    80003a54:	00170713          	addi	a4,a4,1
    80003a58:	00e6bc23          	sd	a4,24(a3)
    if (time <= 0) {
    80003a5c:	00078a63          	beqz	a5,80003a70 <_ZN7_Thread4tickEv+0x54>
        _Scheduler::put(running); //stavljam _running u ready
        time = DEFAULT_TIME_SLICE;
        thread_dispatch();
    }
}
    80003a60:	00813083          	ld	ra,8(sp)
    80003a64:	00013403          	ld	s0,0(sp)
    80003a68:	01010113          	addi	sp,sp,16
    80003a6c:	00008067          	ret
        _Scheduler::put(running); //stavljam _running u ready
    80003a70:	0000c517          	auipc	a0,0xc
    80003a74:	ff053503          	ld	a0,-16(a0) # 8000fa60 <_ZN7_Thread7runningE>
    80003a78:	ffffe097          	auipc	ra,0xffffe
    80003a7c:	bf4080e7          	jalr	-1036(ra) # 8000166c <_ZN10_Scheduler3putEP7_Thread>
        time = DEFAULT_TIME_SLICE;
    80003a80:	00200793          	li	a5,2
    80003a84:	0000c717          	auipc	a4,0xc
    80003a88:	caf73a23          	sd	a5,-844(a4) # 8000f738 <_ZN7_Thread4timeE>
        thread_dispatch();
    80003a8c:	ffffd097          	auipc	ra,0xffffd
    80003a90:	64c080e7          	jalr	1612(ra) # 800010d8 <_ZN7_Thread15thread_dispatchEv>
}
    80003a94:	fcdff06f          	j	80003a60 <_ZN7_Thread4tickEv+0x44>

0000000080003a98 <_ZN7_Thread8dispatchEv>:
    }
    safeDispatch();
    return 0;
}

void _Thread::dispatch() {
    80003a98:	ff010113          	addi	sp,sp,-16
    80003a9c:	00113423          	sd	ra,8(sp)
    80003aa0:	00813023          	sd	s0,0(sp)
    80003aa4:	01010413          	addi	s0,sp,16
    _Scheduler::put(running);
    80003aa8:	0000c517          	auipc	a0,0xc
    80003aac:	fb853503          	ld	a0,-72(a0) # 8000fa60 <_ZN7_Thread7runningE>
    80003ab0:	ffffe097          	auipc	ra,0xffffe
    80003ab4:	bbc080e7          	jalr	-1092(ra) # 8000166c <_ZN10_Scheduler3putEP7_Thread>
    time = DEFAULT_TIME_SLICE;
    80003ab8:	00200793          	li	a5,2
    80003abc:	0000c717          	auipc	a4,0xc
    80003ac0:	c6f73e23          	sd	a5,-900(a4) # 8000f738 <_ZN7_Thread4timeE>
    thread_dispatch();
    80003ac4:	ffffd097          	auipc	ra,0xffffd
    80003ac8:	614080e7          	jalr	1556(ra) # 800010d8 <_ZN7_Thread15thread_dispatchEv>
}
    80003acc:	00813083          	ld	ra,8(sp)
    80003ad0:	00013403          	ld	s0,0(sp)
    80003ad4:	01010113          	addi	sp,sp,16
    80003ad8:	00008067          	ret

0000000080003adc <_ZN7_Thread6kickedEv>:

int _Thread::kicked() {
    80003adc:	ff010113          	addi	sp,sp,-16
    80003ae0:	00813423          	sd	s0,8(sp)
    80003ae4:	01010413          	addi	s0,sp,16
    if (flags & 1ul) {
    80003ae8:	02852783          	lw	a5,40(a0)
    80003aec:	0017f713          	andi	a4,a5,1
    80003af0:	00071a63          	bnez	a4,80003b04 <_ZN7_Thread6kickedEv+0x28>
        flags = flags & ~1ul;
        return 1;
    }
    return 0;
    80003af4:	00000513          	li	a0,0
}
    80003af8:	00813403          	ld	s0,8(sp)
    80003afc:	01010113          	addi	sp,sp,16
    80003b00:	00008067          	ret
        flags = flags & ~1ul;
    80003b04:	ffe7f793          	andi	a5,a5,-2
    80003b08:	02f52423          	sw	a5,40(a0)
        return 1;
    80003b0c:	00100513          	li	a0,1
    80003b10:	fe9ff06f          	j	80003af8 <_ZN7_Thread6kickedEv+0x1c>

0000000080003b14 <_ZN7_Thread4kickEv>:
void _Thread::kick() {
    80003b14:	ff010113          	addi	sp,sp,-16
    80003b18:	00813423          	sd	s0,8(sp)
    80003b1c:	01010413          	addi	s0,sp,16
    flags = flags | 1ul;
    80003b20:	02852783          	lw	a5,40(a0)
    80003b24:	0017e793          	ori	a5,a5,1
    80003b28:	02f52423          	sw	a5,40(a0)
}
    80003b2c:	00813403          	ld	s0,8(sp)
    80003b30:	01010113          	addi	sp,sp,16
    80003b34:	00008067          	ret

0000000080003b38 <_ZN7_Thread3topEv>:
int _Thread::top() {
    80003b38:	ff010113          	addi	sp,sp,-16
    80003b3c:	00813423          	sd	s0,8(sp)
    80003b40:	01010413          	addi	s0,sp,16
    return priority == TOP_PRIORITY;
    80003b44:	02c52503          	lw	a0,44(a0)
    80003b48:	c1850513          	addi	a0,a0,-1000
}
    80003b4c:	00153513          	seqz	a0,a0
    80003b50:	00813403          	ld	s0,8(sp)
    80003b54:	01010113          	addi	sp,sp,16
    80003b58:	00008067          	ret

0000000080003b5c <_ZN7_Thread7startedEv>:
    }
    total++;
    if (!daemon()) user++;
    return 0;
}
int _Thread::started() {
    80003b5c:	ff010113          	addi	sp,sp,-16
    80003b60:	00813423          	sd	s0,8(sp)
    80003b64:	01010413          	addi	s0,sp,16
    return (flags & 4u) != 0;
    80003b68:	02852503          	lw	a0,40(a0)
    80003b6c:	00457513          	andi	a0,a0,4
}
    80003b70:	00a03533          	snez	a0,a0
    80003b74:	00813403          	ld	s0,8(sp)
    80003b78:	01010113          	addi	sp,sp,16
    80003b7c:	00008067          	ret

0000000080003b80 <_ZN7_Thread6finishEv>:
void _Thread::finish() {
    80003b80:	ff010113          	addi	sp,sp,-16
    80003b84:	00813423          	sd	s0,8(sp)
    80003b88:	01010413          	addi	s0,sp,16
    flags = flags | 8u;
    80003b8c:	02852783          	lw	a5,40(a0)
    80003b90:	0087e793          	ori	a5,a5,8
    80003b94:	02f52423          	sw	a5,40(a0)
}
    80003b98:	00813403          	ld	s0,8(sp)
    80003b9c:	01010113          	addi	sp,sp,16
    80003ba0:	00008067          	ret

0000000080003ba4 <_ZN7_Thread8finishedEv>:
int _Thread::finished() {
    80003ba4:	ff010113          	addi	sp,sp,-16
    80003ba8:	00813423          	sd	s0,8(sp)
    80003bac:	01010413          	addi	s0,sp,16
    return (flags & 8u) != 0u;
    80003bb0:	02852503          	lw	a0,40(a0)
    80003bb4:	00857513          	andi	a0,a0,8
}
    80003bb8:	00a03533          	snez	a0,a0
    80003bbc:	00813403          	ld	s0,8(sp)
    80003bc0:	01010113          	addi	sp,sp,16
    80003bc4:	00008067          	ret

0000000080003bc8 <_ZN7_Thread10parentWaitEv>:
void _Thread::parentWait() {
    80003bc8:	ff010113          	addi	sp,sp,-16
    80003bcc:	00813423          	sd	s0,8(sp)
    80003bd0:	01010413          	addi	s0,sp,16
    flags = flags | 16u;
    80003bd4:	02852783          	lw	a5,40(a0)
    80003bd8:	0107e793          	ori	a5,a5,16
    80003bdc:	02f52423          	sw	a5,40(a0)
}
    80003be0:	00813403          	ld	s0,8(sp)
    80003be4:	01010113          	addi	sp,sp,16
    80003be8:	00008067          	ret

0000000080003bec <_ZN7_Thread13parentWaitingEv>:
int _Thread::parentWaiting() {
    80003bec:	ff010113          	addi	sp,sp,-16
    80003bf0:	00813423          	sd	s0,8(sp)
    80003bf4:	01010413          	addi	s0,sp,16
    return (flags & 16u) != 0u;
    80003bf8:	02852503          	lw	a0,40(a0)
    80003bfc:	01057513          	andi	a0,a0,16
}
    80003c00:	00a03533          	snez	a0,a0
    80003c04:	00813403          	ld	s0,8(sp)
    80003c08:	01010113          	addi	sp,sp,16
    80003c0c:	00008067          	ret

0000000080003c10 <_ZN7_Thread14parentWaitStopEv>:
void _Thread::parentWaitStop() {
    80003c10:	ff010113          	addi	sp,sp,-16
    80003c14:	00813423          	sd	s0,8(sp)
    80003c18:	01010413          	addi	s0,sp,16
    flags &= ~(16u);
    80003c1c:	02852783          	lw	a5,40(a0)
    80003c20:	fef7f793          	andi	a5,a5,-17
    80003c24:	02f52423          	sw	a5,40(a0)
}
    80003c28:	00813403          	ld	s0,8(sp)
    80003c2c:	01010113          	addi	sp,sp,16
    80003c30:	00008067          	ret

0000000080003c34 <_ZN7_Thread6daemonEv>:
int _Thread::daemon() {
    80003c34:	ff010113          	addi	sp,sp,-16
    80003c38:	00813423          	sd	s0,8(sp)
    80003c3c:	01010413          	addi	s0,sp,16
    return (flags & 32u) != 0u;
    80003c40:	02852503          	lw	a0,40(a0)
    80003c44:	02057513          	andi	a0,a0,32
}
    80003c48:	00a03533          	snez	a0,a0
    80003c4c:	00813403          	ld	s0,8(sp)
    80003c50:	01010113          	addi	sp,sp,16
    80003c54:	00008067          	ret

0000000080003c58 <_ZN7_Thread5startEv>:
int _Thread::start() {
    80003c58:	fe010113          	addi	sp,sp,-32
    80003c5c:	00113c23          	sd	ra,24(sp)
    80003c60:	00813823          	sd	s0,16(sp)
    80003c64:	00913423          	sd	s1,8(sp)
    80003c68:	01213023          	sd	s2,0(sp)
    80003c6c:	02010413          	addi	s0,sp,32
    80003c70:	00050913          	mv	s2,a0
    if (started()) return 1;
    80003c74:	00000097          	auipc	ra,0x0
    80003c78:	ee8080e7          	jalr	-280(ra) # 80003b5c <_ZN7_Thread7startedEv>
    80003c7c:	02050263          	beqz	a0,80003ca0 <_ZN7_Thread5startEv+0x48>
    80003c80:	00100493          	li	s1,1
}
    80003c84:	00048513          	mv	a0,s1
    80003c88:	01813083          	ld	ra,24(sp)
    80003c8c:	01013403          	ld	s0,16(sp)
    80003c90:	00813483          	ld	s1,8(sp)
    80003c94:	00013903          	ld	s2,0(sp)
    80003c98:	02010113          	addi	sp,sp,32
    80003c9c:	00008067          	ret
    80003ca0:	00050493          	mv	s1,a0
    flags = flags | 4u;
    80003ca4:	02892783          	lw	a5,40(s2)
    80003ca8:	0047e793          	ori	a5,a5,4
    80003cac:	02f92423          	sw	a5,40(s2)
    int ret = _Scheduler::put(this);
    80003cb0:	00090513          	mv	a0,s2
    80003cb4:	ffffe097          	auipc	ra,0xffffe
    80003cb8:	9b8080e7          	jalr	-1608(ra) # 8000166c <_ZN10_Scheduler3putEP7_Thread>
    if (ret < 0) {
    80003cbc:	04054263          	bltz	a0,80003d00 <_ZN7_Thread5startEv+0xa8>
    total++;
    80003cc0:	0000c717          	auipc	a4,0xc
    80003cc4:	d9870713          	addi	a4,a4,-616 # 8000fa58 <_ZN7_Thread5cacheE>
    80003cc8:	02072783          	lw	a5,32(a4)
    80003ccc:	0017879b          	addiw	a5,a5,1
    80003cd0:	02f72023          	sw	a5,32(a4)
    if (!daemon()) user++;
    80003cd4:	00090513          	mv	a0,s2
    80003cd8:	00000097          	auipc	ra,0x0
    80003cdc:	f5c080e7          	jalr	-164(ra) # 80003c34 <_ZN7_Thread6daemonEv>
    80003ce0:	fa0512e3          	bnez	a0,80003c84 <_ZN7_Thread5startEv+0x2c>
    80003ce4:	0000c717          	auipc	a4,0xc
    80003ce8:	d7470713          	addi	a4,a4,-652 # 8000fa58 <_ZN7_Thread5cacheE>
    80003cec:	02472783          	lw	a5,36(a4)
    80003cf0:	0017879b          	addiw	a5,a5,1
    80003cf4:	02f72223          	sw	a5,36(a4)
    return 0;
    80003cf8:	00050493          	mv	s1,a0
    80003cfc:	f89ff06f          	j	80003c84 <_ZN7_Thread5startEv+0x2c>
        return ret; //greska u put (alokacija)
    80003d00:	00050493          	mv	s1,a0
    80003d04:	f81ff06f          	j	80003c84 <_ZN7_Thread5startEv+0x2c>

0000000080003d08 <_ZN7_Thread6createEPPS_PFPvS2_ES2_S2_mii>:
int _Thread::create(thread_t* handle, void* (*startRoutine)(void*), void* arg, void* stackSpace, size_t stackSize, int priority, int options) {
    80003d08:	fa010113          	addi	sp,sp,-96
    80003d0c:	04113c23          	sd	ra,88(sp)
    80003d10:	04813823          	sd	s0,80(sp)
    80003d14:	04913423          	sd	s1,72(sp)
    80003d18:	05213023          	sd	s2,64(sp)
    80003d1c:	03313c23          	sd	s3,56(sp)
    80003d20:	03413823          	sd	s4,48(sp)
    80003d24:	03513423          	sd	s5,40(sp)
    80003d28:	03613023          	sd	s6,32(sp)
    80003d2c:	01713c23          	sd	s7,24(sp)
    80003d30:	01813823          	sd	s8,16(sp)
    80003d34:	01913423          	sd	s9,8(sp)
    80003d38:	06010413          	addi	s0,sp,96
    80003d3c:	00050993          	mv	s3,a0
    80003d40:	00058a13          	mv	s4,a1
    80003d44:	00060a93          	mv	s5,a2
    80003d48:	00068b13          	mv	s6,a3
    80003d4c:	00070b93          	mv	s7,a4
    80003d50:	00078c13          	mv	s8,a5
    80003d54:	00080913          	mv	s2,a6
    thread_t t = new _Thread(startRoutine, arg, stackSpace, stackSize, priority, (options & SET_DAEMON) || running->daemon());
    80003d58:	00287813          	andi	a6,a6,2
    80003d5c:	02081063          	bnez	a6,80003d7c <_ZN7_Thread6createEPPS_PFPvS2_ES2_S2_mii+0x74>
    80003d60:	0000c517          	auipc	a0,0xc
    80003d64:	d0053503          	ld	a0,-768(a0) # 8000fa60 <_ZN7_Thread7runningE>
    80003d68:	00000097          	auipc	ra,0x0
    80003d6c:	ecc080e7          	jalr	-308(ra) # 80003c34 <_ZN7_Thread6daemonEv>
    80003d70:	04051663          	bnez	a0,80003dbc <_ZN7_Thread6createEPPS_PFPvS2_ES2_S2_mii+0xb4>
    80003d74:	00000c93          	li	s9,0
    80003d78:	0080006f          	j	80003d80 <_ZN7_Thread6createEPPS_PFPvS2_ES2_S2_mii+0x78>
    80003d7c:	00100c93          	li	s9,1
    80003d80:	04800513          	li	a0,72
    80003d84:	00000097          	auipc	ra,0x0
    80003d88:	948080e7          	jalr	-1720(ra) # 800036cc <_ZN7_ThreadnwEm>
    80003d8c:	00050493          	mv	s1,a0
    80003d90:	02050a63          	beqz	a0,80003dc4 <_ZN7_Thread6createEPPS_PFPvS2_ES2_S2_mii+0xbc>
    80003d94:	00000893          	li	a7,0
    80003d98:	000c8813          	mv	a6,s9
    80003d9c:	000c0793          	mv	a5,s8
    80003da0:	000b8713          	mv	a4,s7
    80003da4:	000b0693          	mv	a3,s6
    80003da8:	000a8613          	mv	a2,s5
    80003dac:	000a0593          	mv	a1,s4
    80003db0:	00000097          	auipc	ra,0x0
    80003db4:	9cc080e7          	jalr	-1588(ra) # 8000377c <_ZN7_ThreadC1EPFPvS0_ES0_S0_mibb>
    80003db8:	00c0006f          	j	80003dc4 <_ZN7_Thread6createEPPS_PFPvS2_ES2_S2_mii+0xbc>
    80003dbc:	00100c93          	li	s9,1
    80003dc0:	fc1ff06f          	j	80003d80 <_ZN7_Thread6createEPPS_PFPvS2_ES2_S2_mii+0x78>
    if (!t || !t->ssptop) return -1; //greska u alokaciji
    80003dc4:	06048063          	beqz	s1,80003e24 <_ZN7_Thread6createEPPS_PFPvS2_ES2_S2_mii+0x11c>
    80003dc8:	0184b783          	ld	a5,24(s1)
    80003dcc:	06078063          	beqz	a5,80003e2c <_ZN7_Thread6createEPPS_PFPvS2_ES2_S2_mii+0x124>
    if (handle) *handle = t;
    80003dd0:	00098463          	beqz	s3,80003dd8 <_ZN7_Thread6createEPPS_PFPvS2_ES2_S2_mii+0xd0>
    80003dd4:	0099b023          	sd	s1,0(s3)
    if (options & SET_START) return t->start();
    80003dd8:	00197513          	andi	a0,s2,1
    80003ddc:	02051c63          	bnez	a0,80003e14 <_ZN7_Thread6createEPPS_PFPvS2_ES2_S2_mii+0x10c>
}
    80003de0:	05813083          	ld	ra,88(sp)
    80003de4:	05013403          	ld	s0,80(sp)
    80003de8:	04813483          	ld	s1,72(sp)
    80003dec:	04013903          	ld	s2,64(sp)
    80003df0:	03813983          	ld	s3,56(sp)
    80003df4:	03013a03          	ld	s4,48(sp)
    80003df8:	02813a83          	ld	s5,40(sp)
    80003dfc:	02013b03          	ld	s6,32(sp)
    80003e00:	01813b83          	ld	s7,24(sp)
    80003e04:	01013c03          	ld	s8,16(sp)
    80003e08:	00813c83          	ld	s9,8(sp)
    80003e0c:	06010113          	addi	sp,sp,96
    80003e10:	00008067          	ret
    if (options & SET_START) return t->start();
    80003e14:	00048513          	mv	a0,s1
    80003e18:	00000097          	auipc	ra,0x0
    80003e1c:	e40080e7          	jalr	-448(ra) # 80003c58 <_ZN7_Thread5startEv>
    80003e20:	fc1ff06f          	j	80003de0 <_ZN7_Thread6createEPPS_PFPvS2_ES2_S2_mii+0xd8>
    if (!t || !t->ssptop) return -1; //greska u alokaciji
    80003e24:	fff00513          	li	a0,-1
    80003e28:	fb9ff06f          	j	80003de0 <_ZN7_Thread6createEPPS_PFPvS2_ES2_S2_mii+0xd8>
    80003e2c:	fff00513          	li	a0,-1
    80003e30:	fb1ff06f          	j	80003de0 <_ZN7_Thread6createEPPS_PFPvS2_ES2_S2_mii+0xd8>
    80003e34:	00050913          	mv	s2,a0
    thread_t t = new _Thread(startRoutine, arg, stackSpace, stackSize, priority, (options & SET_DAEMON) || running->daemon());
    80003e38:	00048513          	mv	a0,s1
    80003e3c:	00000097          	auipc	ra,0x0
    80003e40:	8f4080e7          	jalr	-1804(ra) # 80003730 <_ZN7_ThreaddlEPv>
    80003e44:	00090513          	mv	a0,s2
    80003e48:	0000d097          	auipc	ra,0xd
    80003e4c:	da0080e7          	jalr	-608(ra) # 80010be8 <_Unwind_Resume>

0000000080003e50 <_ZN7_Thread6createEPPS_PFPvS2_ES2_mii>:
int _Thread::create(thread_t* handle, void* (*startRoutine)(void*), void* arg, size_t stackSize, int priority, int options) {
    80003e50:	fb010113          	addi	sp,sp,-80
    80003e54:	04113423          	sd	ra,72(sp)
    80003e58:	04813023          	sd	s0,64(sp)
    80003e5c:	02913c23          	sd	s1,56(sp)
    80003e60:	03213823          	sd	s2,48(sp)
    80003e64:	03313423          	sd	s3,40(sp)
    80003e68:	03413023          	sd	s4,32(sp)
    80003e6c:	01513c23          	sd	s5,24(sp)
    80003e70:	01613823          	sd	s6,16(sp)
    80003e74:	01713423          	sd	s7,8(sp)
    80003e78:	01813023          	sd	s8,0(sp)
    80003e7c:	05010413          	addi	s0,sp,80
    80003e80:	00050993          	mv	s3,a0
    80003e84:	00058a13          	mv	s4,a1
    80003e88:	00060a93          	mv	s5,a2
    80003e8c:	00068b93          	mv	s7,a3
    80003e90:	00070b13          	mv	s6,a4
    80003e94:	00078913          	mv	s2,a5
    thread_t t = new _Thread(startRoutine, arg, stackSize, priority, (options & SET_DAEMON) || running->daemon());
    80003e98:	0027f793          	andi	a5,a5,2
    80003e9c:	02079063          	bnez	a5,80003ebc <_ZN7_Thread6createEPPS_PFPvS2_ES2_mii+0x6c>
    80003ea0:	0000c517          	auipc	a0,0xc
    80003ea4:	bc053503          	ld	a0,-1088(a0) # 8000fa60 <_ZN7_Thread7runningE>
    80003ea8:	00000097          	auipc	ra,0x0
    80003eac:	d8c080e7          	jalr	-628(ra) # 80003c34 <_ZN7_Thread6daemonEv>
    80003eb0:	04051463          	bnez	a0,80003ef8 <_ZN7_Thread6createEPPS_PFPvS2_ES2_mii+0xa8>
    80003eb4:	00000c13          	li	s8,0
    80003eb8:	0080006f          	j	80003ec0 <_ZN7_Thread6createEPPS_PFPvS2_ES2_mii+0x70>
    80003ebc:	00100c13          	li	s8,1
    80003ec0:	04800513          	li	a0,72
    80003ec4:	00000097          	auipc	ra,0x0
    80003ec8:	808080e7          	jalr	-2040(ra) # 800036cc <_ZN7_ThreadnwEm>
    80003ecc:	00050493          	mv	s1,a0
    80003ed0:	02050863          	beqz	a0,80003f00 <_ZN7_Thread6createEPPS_PFPvS2_ES2_mii+0xb0>
    80003ed4:	00000813          	li	a6,0
    80003ed8:	000c0793          	mv	a5,s8
    80003edc:	000b0713          	mv	a4,s6
    80003ee0:	000b8693          	mv	a3,s7
    80003ee4:	000a8613          	mv	a2,s5
    80003ee8:	000a0593          	mv	a1,s4
    80003eec:	00000097          	auipc	ra,0x0
    80003ef0:	954080e7          	jalr	-1708(ra) # 80003840 <_ZN7_ThreadC1EPFPvS0_ES0_mibb>
    80003ef4:	00c0006f          	j	80003f00 <_ZN7_Thread6createEPPS_PFPvS2_ES2_mii+0xb0>
    80003ef8:	00100c13          	li	s8,1
    80003efc:	fc5ff06f          	j	80003ec0 <_ZN7_Thread6createEPPS_PFPvS2_ES2_mii+0x70>
    if (!t || !t->ssptop) return -1; //greska u alokaciji
    80003f00:	04048e63          	beqz	s1,80003f5c <_ZN7_Thread6createEPPS_PFPvS2_ES2_mii+0x10c>
    80003f04:	0184b783          	ld	a5,24(s1)
    80003f08:	04078e63          	beqz	a5,80003f64 <_ZN7_Thread6createEPPS_PFPvS2_ES2_mii+0x114>
    if (handle) *handle = t;
    80003f0c:	00098463          	beqz	s3,80003f14 <_ZN7_Thread6createEPPS_PFPvS2_ES2_mii+0xc4>
    80003f10:	0099b023          	sd	s1,0(s3)
    if (options & SET_START) return t->start();
    80003f14:	00197513          	andi	a0,s2,1
    80003f18:	02051a63          	bnez	a0,80003f4c <_ZN7_Thread6createEPPS_PFPvS2_ES2_mii+0xfc>
}
    80003f1c:	04813083          	ld	ra,72(sp)
    80003f20:	04013403          	ld	s0,64(sp)
    80003f24:	03813483          	ld	s1,56(sp)
    80003f28:	03013903          	ld	s2,48(sp)
    80003f2c:	02813983          	ld	s3,40(sp)
    80003f30:	02013a03          	ld	s4,32(sp)
    80003f34:	01813a83          	ld	s5,24(sp)
    80003f38:	01013b03          	ld	s6,16(sp)
    80003f3c:	00813b83          	ld	s7,8(sp)
    80003f40:	00013c03          	ld	s8,0(sp)
    80003f44:	05010113          	addi	sp,sp,80
    80003f48:	00008067          	ret
    if (options & SET_START) return t->start();
    80003f4c:	00048513          	mv	a0,s1
    80003f50:	00000097          	auipc	ra,0x0
    80003f54:	d08080e7          	jalr	-760(ra) # 80003c58 <_ZN7_Thread5startEv>
    80003f58:	fc5ff06f          	j	80003f1c <_ZN7_Thread6createEPPS_PFPvS2_ES2_mii+0xcc>
    if (!t || !t->ssptop) return -1; //greska u alokaciji
    80003f5c:	fff00513          	li	a0,-1
    80003f60:	fbdff06f          	j	80003f1c <_ZN7_Thread6createEPPS_PFPvS2_ES2_mii+0xcc>
    80003f64:	fff00513          	li	a0,-1
    80003f68:	fb5ff06f          	j	80003f1c <_ZN7_Thread6createEPPS_PFPvS2_ES2_mii+0xcc>
    80003f6c:	00050913          	mv	s2,a0
    thread_t t = new _Thread(startRoutine, arg, stackSize, priority, (options & SET_DAEMON) || running->daemon());
    80003f70:	00048513          	mv	a0,s1
    80003f74:	fffff097          	auipc	ra,0xfffff
    80003f78:	7bc080e7          	jalr	1980(ra) # 80003730 <_ZN7_ThreaddlEPv>
    80003f7c:	00090513          	mv	a0,s2
    80003f80:	0000d097          	auipc	ra,0xd
    80003f84:	c68080e7          	jalr	-920(ra) # 80010be8 <_Unwind_Resume>

0000000080003f88 <_ZN7_Thread6createEPPS_PFPvS2_ES2_ii>:
int _Thread::create(thread_t* handle, void* (*startRoutine)(void*), void* arg, int priority, int options) {
    80003f88:	fb010113          	addi	sp,sp,-80
    80003f8c:	04113423          	sd	ra,72(sp)
    80003f90:	04813023          	sd	s0,64(sp)
    80003f94:	02913c23          	sd	s1,56(sp)
    80003f98:	03213823          	sd	s2,48(sp)
    80003f9c:	03313423          	sd	s3,40(sp)
    80003fa0:	03413023          	sd	s4,32(sp)
    80003fa4:	01513c23          	sd	s5,24(sp)
    80003fa8:	01613823          	sd	s6,16(sp)
    80003fac:	01713423          	sd	s7,8(sp)
    80003fb0:	05010413          	addi	s0,sp,80
    80003fb4:	00050993          	mv	s3,a0
    80003fb8:	00058b13          	mv	s6,a1
    80003fbc:	00060a93          	mv	s5,a2
    80003fc0:	00068a13          	mv	s4,a3
    80003fc4:	00070493          	mv	s1,a4
    thread_t t = new _Thread(startRoutine, arg, priority, (options & SET_DAEMON) || running->daemon());
    80003fc8:	00277793          	andi	a5,a4,2
    80003fcc:	02079063          	bnez	a5,80003fec <_ZN7_Thread6createEPPS_PFPvS2_ES2_ii+0x64>
    80003fd0:	0000c517          	auipc	a0,0xc
    80003fd4:	a9053503          	ld	a0,-1392(a0) # 8000fa60 <_ZN7_Thread7runningE>
    80003fd8:	00000097          	auipc	ra,0x0
    80003fdc:	c5c080e7          	jalr	-932(ra) # 80003c34 <_ZN7_Thread6daemonEv>
    80003fe0:	04051263          	bnez	a0,80004024 <_ZN7_Thread6createEPPS_PFPvS2_ES2_ii+0x9c>
    80003fe4:	00000b93          	li	s7,0
    80003fe8:	0080006f          	j	80003ff0 <_ZN7_Thread6createEPPS_PFPvS2_ES2_ii+0x68>
    80003fec:	00100b93          	li	s7,1
    80003ff0:	04800513          	li	a0,72
    80003ff4:	fffff097          	auipc	ra,0xfffff
    80003ff8:	6d8080e7          	jalr	1752(ra) # 800036cc <_ZN7_ThreadnwEm>
    80003ffc:	00050913          	mv	s2,a0
    80004000:	02050663          	beqz	a0,8000402c <_ZN7_Thread6createEPPS_PFPvS2_ES2_ii+0xa4>
    80004004:	00000793          	li	a5,0
    80004008:	000b8713          	mv	a4,s7
    8000400c:	000a0693          	mv	a3,s4
    80004010:	000a8613          	mv	a2,s5
    80004014:	000b0593          	mv	a1,s6
    80004018:	00000097          	auipc	ra,0x0
    8000401c:	8d0080e7          	jalr	-1840(ra) # 800038e8 <_ZN7_ThreadC1EPFPvS0_ES0_ibb>
    80004020:	00c0006f          	j	8000402c <_ZN7_Thread6createEPPS_PFPvS2_ES2_ii+0xa4>
    80004024:	00100b93          	li	s7,1
    80004028:	fc9ff06f          	j	80003ff0 <_ZN7_Thread6createEPPS_PFPvS2_ES2_ii+0x68>
    if (!t || !t->ssptop) return -1; //greska u alokaciji
    8000402c:	04090c63          	beqz	s2,80004084 <_ZN7_Thread6createEPPS_PFPvS2_ES2_ii+0xfc>
    80004030:	01893783          	ld	a5,24(s2)
    80004034:	04078c63          	beqz	a5,8000408c <_ZN7_Thread6createEPPS_PFPvS2_ES2_ii+0x104>
    if (handle) *handle = t;
    80004038:	00098463          	beqz	s3,80004040 <_ZN7_Thread6createEPPS_PFPvS2_ES2_ii+0xb8>
    8000403c:	0129b023          	sd	s2,0(s3)
    if (options & SET_START) return t->start();
    80004040:	0014f513          	andi	a0,s1,1
    80004044:	02051863          	bnez	a0,80004074 <_ZN7_Thread6createEPPS_PFPvS2_ES2_ii+0xec>
}
    80004048:	04813083          	ld	ra,72(sp)
    8000404c:	04013403          	ld	s0,64(sp)
    80004050:	03813483          	ld	s1,56(sp)
    80004054:	03013903          	ld	s2,48(sp)
    80004058:	02813983          	ld	s3,40(sp)
    8000405c:	02013a03          	ld	s4,32(sp)
    80004060:	01813a83          	ld	s5,24(sp)
    80004064:	01013b03          	ld	s6,16(sp)
    80004068:	00813b83          	ld	s7,8(sp)
    8000406c:	05010113          	addi	sp,sp,80
    80004070:	00008067          	ret
    if (options & SET_START) return t->start();
    80004074:	00090513          	mv	a0,s2
    80004078:	00000097          	auipc	ra,0x0
    8000407c:	be0080e7          	jalr	-1056(ra) # 80003c58 <_ZN7_Thread5startEv>
    80004080:	fc9ff06f          	j	80004048 <_ZN7_Thread6createEPPS_PFPvS2_ES2_ii+0xc0>
    if (!t || !t->ssptop) return -1; //greska u alokaciji
    80004084:	fff00513          	li	a0,-1
    80004088:	fc1ff06f          	j	80004048 <_ZN7_Thread6createEPPS_PFPvS2_ES2_ii+0xc0>
    8000408c:	fff00513          	li	a0,-1
    80004090:	fb9ff06f          	j	80004048 <_ZN7_Thread6createEPPS_PFPvS2_ES2_ii+0xc0>
    80004094:	00050493          	mv	s1,a0
    thread_t t = new _Thread(startRoutine, arg, priority, (options & SET_DAEMON) || running->daemon());
    80004098:	00090513          	mv	a0,s2
    8000409c:	fffff097          	auipc	ra,0xfffff
    800040a0:	694080e7          	jalr	1684(ra) # 80003730 <_ZN7_ThreaddlEPv>
    800040a4:	00048513          	mv	a0,s1
    800040a8:	0000d097          	auipc	ra,0xd
    800040ac:	b40080e7          	jalr	-1216(ra) # 80010be8 <_Unwind_Resume>

00000000800040b0 <_ZN7_Thread6createEPPS_PFvPvES2_S2_mii>:
int _Thread::create(thread_t* handle, void (*startRoutine)(void*), void* arg, void* stackSpace, size_t stackSize, int priority, int options) {
    800040b0:	fa010113          	addi	sp,sp,-96
    800040b4:	04113c23          	sd	ra,88(sp)
    800040b8:	04813823          	sd	s0,80(sp)
    800040bc:	04913423          	sd	s1,72(sp)
    800040c0:	05213023          	sd	s2,64(sp)
    800040c4:	03313c23          	sd	s3,56(sp)
    800040c8:	03413823          	sd	s4,48(sp)
    800040cc:	03513423          	sd	s5,40(sp)
    800040d0:	03613023          	sd	s6,32(sp)
    800040d4:	01713c23          	sd	s7,24(sp)
    800040d8:	01813823          	sd	s8,16(sp)
    800040dc:	01913423          	sd	s9,8(sp)
    800040e0:	06010413          	addi	s0,sp,96
    800040e4:	00050993          	mv	s3,a0
    800040e8:	00058a13          	mv	s4,a1
    800040ec:	00060a93          	mv	s5,a2
    800040f0:	00068b13          	mv	s6,a3
    800040f4:	00070b93          	mv	s7,a4
    800040f8:	00078c13          	mv	s8,a5
    800040fc:	00080913          	mv	s2,a6
    thread_t t = new _Thread((void*(*)(void*))startRoutine, arg, stackSpace, stackSize, priority, (options & SET_DAEMON) || running->daemon(), true);
    80004100:	00287813          	andi	a6,a6,2
    80004104:	02081063          	bnez	a6,80004124 <_ZN7_Thread6createEPPS_PFvPvES2_S2_mii+0x74>
    80004108:	0000c517          	auipc	a0,0xc
    8000410c:	95853503          	ld	a0,-1704(a0) # 8000fa60 <_ZN7_Thread7runningE>
    80004110:	00000097          	auipc	ra,0x0
    80004114:	b24080e7          	jalr	-1244(ra) # 80003c34 <_ZN7_Thread6daemonEv>
    80004118:	04051663          	bnez	a0,80004164 <_ZN7_Thread6createEPPS_PFvPvES2_S2_mii+0xb4>
    8000411c:	00000c93          	li	s9,0
    80004120:	0080006f          	j	80004128 <_ZN7_Thread6createEPPS_PFvPvES2_S2_mii+0x78>
    80004124:	00100c93          	li	s9,1
    80004128:	04800513          	li	a0,72
    8000412c:	fffff097          	auipc	ra,0xfffff
    80004130:	5a0080e7          	jalr	1440(ra) # 800036cc <_ZN7_ThreadnwEm>
    80004134:	00050493          	mv	s1,a0
    80004138:	02050a63          	beqz	a0,8000416c <_ZN7_Thread6createEPPS_PFvPvES2_S2_mii+0xbc>
    8000413c:	00100893          	li	a7,1
    80004140:	000c8813          	mv	a6,s9
    80004144:	000c0793          	mv	a5,s8
    80004148:	000b8713          	mv	a4,s7
    8000414c:	000b0693          	mv	a3,s6
    80004150:	000a8613          	mv	a2,s5
    80004154:	000a0593          	mv	a1,s4
    80004158:	fffff097          	auipc	ra,0xfffff
    8000415c:	624080e7          	jalr	1572(ra) # 8000377c <_ZN7_ThreadC1EPFPvS0_ES0_S0_mibb>
    80004160:	00c0006f          	j	8000416c <_ZN7_Thread6createEPPS_PFvPvES2_S2_mii+0xbc>
    80004164:	00100c93          	li	s9,1
    80004168:	fc1ff06f          	j	80004128 <_ZN7_Thread6createEPPS_PFvPvES2_S2_mii+0x78>
    if (!t) return -1; //greska u alokaciji
    8000416c:	04048c63          	beqz	s1,800041c4 <_ZN7_Thread6createEPPS_PFvPvES2_S2_mii+0x114>
    if (handle) *handle = t;
    80004170:	00098463          	beqz	s3,80004178 <_ZN7_Thread6createEPPS_PFvPvES2_S2_mii+0xc8>
    80004174:	0099b023          	sd	s1,0(s3)
    if (options & SET_START) return t->start();
    80004178:	00197513          	andi	a0,s2,1
    8000417c:	02051c63          	bnez	a0,800041b4 <_ZN7_Thread6createEPPS_PFvPvES2_S2_mii+0x104>
}
    80004180:	05813083          	ld	ra,88(sp)
    80004184:	05013403          	ld	s0,80(sp)
    80004188:	04813483          	ld	s1,72(sp)
    8000418c:	04013903          	ld	s2,64(sp)
    80004190:	03813983          	ld	s3,56(sp)
    80004194:	03013a03          	ld	s4,48(sp)
    80004198:	02813a83          	ld	s5,40(sp)
    8000419c:	02013b03          	ld	s6,32(sp)
    800041a0:	01813b83          	ld	s7,24(sp)
    800041a4:	01013c03          	ld	s8,16(sp)
    800041a8:	00813c83          	ld	s9,8(sp)
    800041ac:	06010113          	addi	sp,sp,96
    800041b0:	00008067          	ret
    if (options & SET_START) return t->start();
    800041b4:	00048513          	mv	a0,s1
    800041b8:	00000097          	auipc	ra,0x0
    800041bc:	aa0080e7          	jalr	-1376(ra) # 80003c58 <_ZN7_Thread5startEv>
    800041c0:	fc1ff06f          	j	80004180 <_ZN7_Thread6createEPPS_PFvPvES2_S2_mii+0xd0>
    if (!t) return -1; //greska u alokaciji
    800041c4:	fff00513          	li	a0,-1
    800041c8:	fb9ff06f          	j	80004180 <_ZN7_Thread6createEPPS_PFvPvES2_S2_mii+0xd0>
    800041cc:	00050913          	mv	s2,a0
    thread_t t = new _Thread((void*(*)(void*))startRoutine, arg, stackSpace, stackSize, priority, (options & SET_DAEMON) || running->daemon(), true);
    800041d0:	00048513          	mv	a0,s1
    800041d4:	fffff097          	auipc	ra,0xfffff
    800041d8:	55c080e7          	jalr	1372(ra) # 80003730 <_ZN7_ThreaddlEPv>
    800041dc:	00090513          	mv	a0,s2
    800041e0:	0000d097          	auipc	ra,0xd
    800041e4:	a08080e7          	jalr	-1528(ra) # 80010be8 <_Unwind_Resume>

00000000800041e8 <_ZN7_Thread6createEPPS_PFvvEPvmii>:
int _Thread::create(thread_t* handle, void (*startRoutine)(void), void* stackSpace, size_t stackSize, int priority, int options) {
    800041e8:	ff010113          	addi	sp,sp,-16
    800041ec:	00113423          	sd	ra,8(sp)
    800041f0:	00813023          	sd	s0,0(sp)
    800041f4:	01010413          	addi	s0,sp,16
    return create(handle, (void(*)(void*))startRoutine, nullptr, stackSpace, stackSize, priority, options);
    800041f8:	00078813          	mv	a6,a5
    800041fc:	00070793          	mv	a5,a4
    80004200:	00068713          	mv	a4,a3
    80004204:	00060693          	mv	a3,a2
    80004208:	00000613          	li	a2,0
    8000420c:	00000097          	auipc	ra,0x0
    80004210:	ea4080e7          	jalr	-348(ra) # 800040b0 <_ZN7_Thread6createEPPS_PFvPvES2_S2_mii>
}
    80004214:	00813083          	ld	ra,8(sp)
    80004218:	00013403          	ld	s0,0(sp)
    8000421c:	01010113          	addi	sp,sp,16
    80004220:	00008067          	ret

0000000080004224 <_ZN7_Thread6createEPPS_PFvPvES2_mii>:
int _Thread::create(thread_t* handle, void (*startRoutine)(void*), void* arg, size_t stackSize, int priority, int options) {
    80004224:	fb010113          	addi	sp,sp,-80
    80004228:	04113423          	sd	ra,72(sp)
    8000422c:	04813023          	sd	s0,64(sp)
    80004230:	02913c23          	sd	s1,56(sp)
    80004234:	03213823          	sd	s2,48(sp)
    80004238:	03313423          	sd	s3,40(sp)
    8000423c:	03413023          	sd	s4,32(sp)
    80004240:	01513c23          	sd	s5,24(sp)
    80004244:	01613823          	sd	s6,16(sp)
    80004248:	01713423          	sd	s7,8(sp)
    8000424c:	01813023          	sd	s8,0(sp)
    80004250:	05010413          	addi	s0,sp,80
    80004254:	00050993          	mv	s3,a0
    80004258:	00058a13          	mv	s4,a1
    8000425c:	00060a93          	mv	s5,a2
    80004260:	00068b93          	mv	s7,a3
    80004264:	00070b13          	mv	s6,a4
    80004268:	00078493          	mv	s1,a5
    thread_t t = new _Thread((void*(*)(void*))startRoutine, arg, stackSize, priority, (options & SET_DAEMON) || running->daemon(), true);
    8000426c:	0027f793          	andi	a5,a5,2
    80004270:	02079063          	bnez	a5,80004290 <_ZN7_Thread6createEPPS_PFvPvES2_mii+0x6c>
    80004274:	0000b517          	auipc	a0,0xb
    80004278:	7ec53503          	ld	a0,2028(a0) # 8000fa60 <_ZN7_Thread7runningE>
    8000427c:	00000097          	auipc	ra,0x0
    80004280:	9b8080e7          	jalr	-1608(ra) # 80003c34 <_ZN7_Thread6daemonEv>
    80004284:	04051463          	bnez	a0,800042cc <_ZN7_Thread6createEPPS_PFvPvES2_mii+0xa8>
    80004288:	00000c13          	li	s8,0
    8000428c:	0080006f          	j	80004294 <_ZN7_Thread6createEPPS_PFvPvES2_mii+0x70>
    80004290:	00100c13          	li	s8,1
    80004294:	04800513          	li	a0,72
    80004298:	fffff097          	auipc	ra,0xfffff
    8000429c:	434080e7          	jalr	1076(ra) # 800036cc <_ZN7_ThreadnwEm>
    800042a0:	00050913          	mv	s2,a0
    800042a4:	02050863          	beqz	a0,800042d4 <_ZN7_Thread6createEPPS_PFvPvES2_mii+0xb0>
    800042a8:	00100813          	li	a6,1
    800042ac:	000c0793          	mv	a5,s8
    800042b0:	000b0713          	mv	a4,s6
    800042b4:	000b8693          	mv	a3,s7
    800042b8:	000a8613          	mv	a2,s5
    800042bc:	000a0593          	mv	a1,s4
    800042c0:	fffff097          	auipc	ra,0xfffff
    800042c4:	580080e7          	jalr	1408(ra) # 80003840 <_ZN7_ThreadC1EPFPvS0_ES0_mibb>
    800042c8:	00c0006f          	j	800042d4 <_ZN7_Thread6createEPPS_PFvPvES2_mii+0xb0>
    800042cc:	00100c13          	li	s8,1
    800042d0:	fc5ff06f          	j	80004294 <_ZN7_Thread6createEPPS_PFvPvES2_mii+0x70>
    if (!t) return -1; //greska u alokaciji
    800042d4:	04090a63          	beqz	s2,80004328 <_ZN7_Thread6createEPPS_PFvPvES2_mii+0x104>
    if (handle) *handle = t;
    800042d8:	00098463          	beqz	s3,800042e0 <_ZN7_Thread6createEPPS_PFvPvES2_mii+0xbc>
    800042dc:	0129b023          	sd	s2,0(s3)
    if (options & SET_START) return t->start();
    800042e0:	0014f513          	andi	a0,s1,1
    800042e4:	02051a63          	bnez	a0,80004318 <_ZN7_Thread6createEPPS_PFvPvES2_mii+0xf4>
}
    800042e8:	04813083          	ld	ra,72(sp)
    800042ec:	04013403          	ld	s0,64(sp)
    800042f0:	03813483          	ld	s1,56(sp)
    800042f4:	03013903          	ld	s2,48(sp)
    800042f8:	02813983          	ld	s3,40(sp)
    800042fc:	02013a03          	ld	s4,32(sp)
    80004300:	01813a83          	ld	s5,24(sp)
    80004304:	01013b03          	ld	s6,16(sp)
    80004308:	00813b83          	ld	s7,8(sp)
    8000430c:	00013c03          	ld	s8,0(sp)
    80004310:	05010113          	addi	sp,sp,80
    80004314:	00008067          	ret
    if (options & SET_START) return t->start();
    80004318:	00090513          	mv	a0,s2
    8000431c:	00000097          	auipc	ra,0x0
    80004320:	93c080e7          	jalr	-1732(ra) # 80003c58 <_ZN7_Thread5startEv>
    80004324:	fc5ff06f          	j	800042e8 <_ZN7_Thread6createEPPS_PFvPvES2_mii+0xc4>
    if (!t) return -1; //greska u alokaciji
    80004328:	fff00513          	li	a0,-1
    8000432c:	fbdff06f          	j	800042e8 <_ZN7_Thread6createEPPS_PFvPvES2_mii+0xc4>
    80004330:	00050493          	mv	s1,a0
    thread_t t = new _Thread((void*(*)(void*))startRoutine, arg, stackSize, priority, (options & SET_DAEMON) || running->daemon(), true);
    80004334:	00090513          	mv	a0,s2
    80004338:	fffff097          	auipc	ra,0xfffff
    8000433c:	3f8080e7          	jalr	1016(ra) # 80003730 <_ZN7_ThreaddlEPv>
    80004340:	00048513          	mv	a0,s1
    80004344:	0000d097          	auipc	ra,0xd
    80004348:	8a4080e7          	jalr	-1884(ra) # 80010be8 <_Unwind_Resume>

000000008000434c <_ZN7_Thread6createEPPS_PFvvEmii>:
int _Thread::create(thread_t* handle, void (*startRoutine)(void), size_t stackSize, int priority, int options) {
    8000434c:	ff010113          	addi	sp,sp,-16
    80004350:	00113423          	sd	ra,8(sp)
    80004354:	00813023          	sd	s0,0(sp)
    80004358:	01010413          	addi	s0,sp,16
    8000435c:	00070793          	mv	a5,a4
    return create(handle, (void(*)(void*))startRoutine, nullptr, stackSize, priority, options);
    80004360:	00068713          	mv	a4,a3
    80004364:	00060693          	mv	a3,a2
    80004368:	00000613          	li	a2,0
    8000436c:	00000097          	auipc	ra,0x0
    80004370:	eb8080e7          	jalr	-328(ra) # 80004224 <_ZN7_Thread6createEPPS_PFvPvES2_mii>
}
    80004374:	00813083          	ld	ra,8(sp)
    80004378:	00013403          	ld	s0,0(sp)
    8000437c:	01010113          	addi	sp,sp,16
    80004380:	00008067          	ret

0000000080004384 <_ZN7_Thread6createEPPS_PFvPvES2_ii>:
int _Thread::create(thread_t* handle, void (*startRoutine)(void*), void* arg, int priority, int options) {
    80004384:	fb010113          	addi	sp,sp,-80
    80004388:	04113423          	sd	ra,72(sp)
    8000438c:	04813023          	sd	s0,64(sp)
    80004390:	02913c23          	sd	s1,56(sp)
    80004394:	03213823          	sd	s2,48(sp)
    80004398:	03313423          	sd	s3,40(sp)
    8000439c:	03413023          	sd	s4,32(sp)
    800043a0:	01513c23          	sd	s5,24(sp)
    800043a4:	01613823          	sd	s6,16(sp)
    800043a8:	01713423          	sd	s7,8(sp)
    800043ac:	05010413          	addi	s0,sp,80
    800043b0:	00050993          	mv	s3,a0
    800043b4:	00058b13          	mv	s6,a1
    800043b8:	00060a93          	mv	s5,a2
    800043bc:	00068a13          	mv	s4,a3
    800043c0:	00070493          	mv	s1,a4
    thread_t t = new _Thread((void*(*)(void*))startRoutine, arg, priority, (options & SET_DAEMON) || running->daemon(), true);
    800043c4:	00277793          	andi	a5,a4,2
    800043c8:	02079063          	bnez	a5,800043e8 <_ZN7_Thread6createEPPS_PFvPvES2_ii+0x64>
    800043cc:	0000b517          	auipc	a0,0xb
    800043d0:	69453503          	ld	a0,1684(a0) # 8000fa60 <_ZN7_Thread7runningE>
    800043d4:	00000097          	auipc	ra,0x0
    800043d8:	860080e7          	jalr	-1952(ra) # 80003c34 <_ZN7_Thread6daemonEv>
    800043dc:	04051263          	bnez	a0,80004420 <_ZN7_Thread6createEPPS_PFvPvES2_ii+0x9c>
    800043e0:	00000b93          	li	s7,0
    800043e4:	0080006f          	j	800043ec <_ZN7_Thread6createEPPS_PFvPvES2_ii+0x68>
    800043e8:	00100b93          	li	s7,1
    800043ec:	04800513          	li	a0,72
    800043f0:	fffff097          	auipc	ra,0xfffff
    800043f4:	2dc080e7          	jalr	732(ra) # 800036cc <_ZN7_ThreadnwEm>
    800043f8:	00050913          	mv	s2,a0
    800043fc:	02050663          	beqz	a0,80004428 <_ZN7_Thread6createEPPS_PFvPvES2_ii+0xa4>
    80004400:	00100793          	li	a5,1
    80004404:	000b8713          	mv	a4,s7
    80004408:	000a0693          	mv	a3,s4
    8000440c:	000a8613          	mv	a2,s5
    80004410:	000b0593          	mv	a1,s6
    80004414:	fffff097          	auipc	ra,0xfffff
    80004418:	4d4080e7          	jalr	1236(ra) # 800038e8 <_ZN7_ThreadC1EPFPvS0_ES0_ibb>
    8000441c:	00c0006f          	j	80004428 <_ZN7_Thread6createEPPS_PFvPvES2_ii+0xa4>
    80004420:	00100b93          	li	s7,1
    80004424:	fc9ff06f          	j	800043ec <_ZN7_Thread6createEPPS_PFvPvES2_ii+0x68>
    if (!t || !t->ssptop) return -1; //greska u alokaciji
    80004428:	04090c63          	beqz	s2,80004480 <_ZN7_Thread6createEPPS_PFvPvES2_ii+0xfc>
    8000442c:	01893783          	ld	a5,24(s2)
    80004430:	04078c63          	beqz	a5,80004488 <_ZN7_Thread6createEPPS_PFvPvES2_ii+0x104>
    if (handle) *handle = t;
    80004434:	00098463          	beqz	s3,8000443c <_ZN7_Thread6createEPPS_PFvPvES2_ii+0xb8>
    80004438:	0129b023          	sd	s2,0(s3)
    if (options & SET_START) return t->start();
    8000443c:	0014f513          	andi	a0,s1,1
    80004440:	02051863          	bnez	a0,80004470 <_ZN7_Thread6createEPPS_PFvPvES2_ii+0xec>
}
    80004444:	04813083          	ld	ra,72(sp)
    80004448:	04013403          	ld	s0,64(sp)
    8000444c:	03813483          	ld	s1,56(sp)
    80004450:	03013903          	ld	s2,48(sp)
    80004454:	02813983          	ld	s3,40(sp)
    80004458:	02013a03          	ld	s4,32(sp)
    8000445c:	01813a83          	ld	s5,24(sp)
    80004460:	01013b03          	ld	s6,16(sp)
    80004464:	00813b83          	ld	s7,8(sp)
    80004468:	05010113          	addi	sp,sp,80
    8000446c:	00008067          	ret
    if (options & SET_START) return t->start();
    80004470:	00090513          	mv	a0,s2
    80004474:	fffff097          	auipc	ra,0xfffff
    80004478:	7e4080e7          	jalr	2020(ra) # 80003c58 <_ZN7_Thread5startEv>
    8000447c:	fc9ff06f          	j	80004444 <_ZN7_Thread6createEPPS_PFvPvES2_ii+0xc0>
    if (!t || !t->ssptop) return -1; //greska u alokaciji
    80004480:	fff00513          	li	a0,-1
    80004484:	fc1ff06f          	j	80004444 <_ZN7_Thread6createEPPS_PFvPvES2_ii+0xc0>
    80004488:	fff00513          	li	a0,-1
    8000448c:	fb9ff06f          	j	80004444 <_ZN7_Thread6createEPPS_PFvPvES2_ii+0xc0>
    80004490:	00050493          	mv	s1,a0
    thread_t t = new _Thread((void*(*)(void*))startRoutine, arg, priority, (options & SET_DAEMON) || running->daemon(), true);
    80004494:	00090513          	mv	a0,s2
    80004498:	fffff097          	auipc	ra,0xfffff
    8000449c:	298080e7          	jalr	664(ra) # 80003730 <_ZN7_ThreaddlEPv>
    800044a0:	00048513          	mv	a0,s1
    800044a4:	0000c097          	auipc	ra,0xc
    800044a8:	744080e7          	jalr	1860(ra) # 80010be8 <_Unwind_Resume>

00000000800044ac <_ZN7_Thread6createEPPS_PFvvEii>:
int _Thread::create(thread_t* handle, void (*startRoutine)(void), int priority, int options) {
    800044ac:	ff010113          	addi	sp,sp,-16
    800044b0:	00113423          	sd	ra,8(sp)
    800044b4:	00813023          	sd	s0,0(sp)
    800044b8:	01010413          	addi	s0,sp,16
    800044bc:	00068713          	mv	a4,a3
    return create(handle, (void(*)(void*))startRoutine, nullptr, priority, options);
    800044c0:	00060693          	mv	a3,a2
    800044c4:	00000613          	li	a2,0
    800044c8:	00000097          	auipc	ra,0x0
    800044cc:	ebc080e7          	jalr	-324(ra) # 80004384 <_ZN7_Thread6createEPPS_PFvPvES2_ii>
}
    800044d0:	00813083          	ld	ra,8(sp)
    800044d4:	00013403          	ld	s0,0(sp)
    800044d8:	01010113          	addi	sp,sp,16
    800044dc:	00008067          	ret

00000000800044e0 <_ZN7_Thread10limitReachEv>:
void _Thread::limitReach() {
    800044e0:	ff010113          	addi	sp,sp,-16
    800044e4:	00813423          	sd	s0,8(sp)
    800044e8:	01010413          	addi	s0,sp,16
    flags = flags | 64u;
    800044ec:	02852783          	lw	a5,40(a0)
    800044f0:	0407e793          	ori	a5,a5,64
    800044f4:	02f52423          	sw	a5,40(a0)
}
    800044f8:	00813403          	ld	s0,8(sp)
    800044fc:	01010113          	addi	sp,sp,16
    80004500:	00008067          	ret

0000000080004504 <_ZN7_Thread12limitReachedEv>:
int _Thread::limitReached() {
    80004504:	ff010113          	addi	sp,sp,-16
    80004508:	00813423          	sd	s0,8(sp)
    8000450c:	01010413          	addi	s0,sp,16
    int ret = flags & 64u ? 1 : 0;
    80004510:	02852783          	lw	a5,40(a0)
    80004514:	0067d71b          	srliw	a4,a5,0x6
    flags = flags & ~64u;
    80004518:	fbf7f793          	andi	a5,a5,-65
    8000451c:	02f52423          	sw	a5,40(a0)
    return ret;
}
    80004520:	00177513          	andi	a0,a4,1
    80004524:	00813403          	ld	s0,8(sp)
    80004528:	01010113          	addi	sp,sp,16
    8000452c:	00008067          	ret

0000000080004530 <_ZN7_Thread11interruptedEv>:
        int ret = waitManager->interrupt();
        return check_wait(ret);
    }
    return 0;
}
int _Thread::interrupted() {
    80004530:	ff010113          	addi	sp,sp,-16
    80004534:	00813423          	sd	s0,8(sp)
    80004538:	01010413          	addi	s0,sp,16
    int ret = flags & 128u ? 1 : 0;
    8000453c:	02852783          	lw	a5,40(a0)
    80004540:	0077d71b          	srliw	a4,a5,0x7
    flags &= ~128u;
    80004544:	f7f7f793          	andi	a5,a5,-129
    80004548:	02f52423          	sw	a5,40(a0)
    return ret;
}
    8000454c:	00177513          	andi	a0,a4,1
    80004550:	00813403          	ld	s0,8(sp)
    80004554:	01010113          	addi	sp,sp,16
    80004558:	00008067          	ret

000000008000455c <_ZN7_Thread13isInterruptedEv>:
int _Thread::isInterrupted() {
    8000455c:	ff010113          	addi	sp,sp,-16
    80004560:	00813423          	sd	s0,8(sp)
    80004564:	01010413          	addi	s0,sp,16
    return (flags & 128u ? 1 : 0);
    80004568:	02852503          	lw	a0,40(a0)
    8000456c:	0075551b          	srliw	a0,a0,0x7
}
    80004570:	00157513          	andi	a0,a0,1
    80004574:	00813403          	ld	s0,8(sp)
    80004578:	01010113          	addi	sp,sp,16
    8000457c:	00008067          	ret

0000000080004580 <_ZN7_Thread12safeDispatchEv>:
    }
    if (running->limitReached()) return 1;
    if (pret) *pret = returnValue;
    return 0;
}
void _Thread::safeDispatch() {
    80004580:	ff010113          	addi	sp,sp,-16
    80004584:	00113423          	sd	ra,8(sp)
    80004588:	00813023          	sd	s0,0(sp)
    8000458c:	01010413          	addi	s0,sp,16
    busyWait();
    80004590:	fffff097          	auipc	ra,0xfffff
    80004594:	3f4080e7          	jalr	1012(ra) # 80003984 <_ZN7_Thread8busyWaitEv>
    time = DEFAULT_TIME_SLICE;
    80004598:	00200793          	li	a5,2
    8000459c:	0000b717          	auipc	a4,0xb
    800045a0:	18f73e23          	sd	a5,412(a4) # 8000f738 <_ZN7_Thread4timeE>
    thread_dispatch();
    800045a4:	ffffd097          	auipc	ra,0xffffd
    800045a8:	b34080e7          	jalr	-1228(ra) # 800010d8 <_ZN7_Thread15thread_dispatchEv>
}
    800045ac:	00813083          	ld	ra,8(sp)
    800045b0:	00013403          	ld	s0,0(sp)
    800045b4:	01010113          	addi	sp,sp,16
    800045b8:	00008067          	ret

00000000800045bc <_ZN7_Thread4joinEPPv>:
int _Thread::join(void** pret) {
    800045bc:	fd010113          	addi	sp,sp,-48
    800045c0:	02113423          	sd	ra,40(sp)
    800045c4:	02813023          	sd	s0,32(sp)
    800045c8:	00913c23          	sd	s1,24(sp)
    800045cc:	01213823          	sd	s2,16(sp)
    800045d0:	01313423          	sd	s3,8(sp)
    800045d4:	01413023          	sd	s4,0(sp)
    800045d8:	03010413          	addi	s0,sp,48
    800045dc:	00050493          	mv	s1,a0
    if (running != parent) return -1; //join moze da pozove samo roditeljska nit
    800045e0:	03053783          	ld	a5,48(a0)
    800045e4:	0000b517          	auipc	a0,0xb
    800045e8:	47c53503          	ld	a0,1148(a0) # 8000fa60 <_ZN7_Thread7runningE>
    800045ec:	0ea79263          	bne	a5,a0,800046d0 <_ZN7_Thread4joinEPPv+0x114>
    800045f0:	00058993          	mv	s3,a1
    if (running->isInterrupted()) return 0; //prekinuta nit se automatski izbacuje
    800045f4:	00000097          	auipc	ra,0x0
    800045f8:	f68080e7          	jalr	-152(ra) # 8000455c <_ZN7_Thread13isInterruptedEv>
    800045fc:	00050913          	mv	s2,a0
    80004600:	0c051c63          	bnez	a0,800046d8 <_ZN7_Thread4joinEPPv+0x11c>
    if (!finished()) {
    80004604:	00048513          	mv	a0,s1
    80004608:	fffff097          	auipc	ra,0xfffff
    8000460c:	59c080e7          	jalr	1436(ra) # 80003ba4 <_ZN7_Thread8finishedEv>
    80004610:	02050a63          	beqz	a0,80004644 <_ZN7_Thread4joinEPPv+0x88>
    if (pret) *pret = returnValue;
    80004614:	00098663          	beqz	s3,80004620 <_ZN7_Thread4joinEPPv+0x64>
    80004618:	0384b783          	ld	a5,56(s1)
    8000461c:	00f9b023          	sd	a5,0(s3)
}
    80004620:	00090513          	mv	a0,s2
    80004624:	02813083          	ld	ra,40(sp)
    80004628:	02013403          	ld	s0,32(sp)
    8000462c:	01813483          	ld	s1,24(sp)
    80004630:	01013903          	ld	s2,16(sp)
    80004634:	00813983          	ld	s3,8(sp)
    80004638:	00013a03          	ld	s4,0(sp)
    8000463c:	03010113          	addi	sp,sp,48
    80004640:	00008067          	ret
class _JoinManager : public _WaitManager {
public:
    _JoinManager(thread_t my_thread, thread_t join_thread);
    static kmem_cache_t* cache;
    void*  operator new(size_t size) {
        if (!cache) cache = kmem_cache_create("Join_manager Cache", sizeof(_JoinManager), nullptr, nullptr);
    80004644:	0000d797          	auipc	a5,0xd
    80004648:	a147b783          	ld	a5,-1516(a5) # 80011058 <_GLOBAL_OFFSET_TABLE_+0x58>
    8000464c:	0007b783          	ld	a5,0(a5)
    80004650:	02078c63          	beqz	a5,80004688 <_ZN7_Thread4joinEPPv+0xcc>
        return kmem_cache_alloc(cache);
    80004654:	0000d797          	auipc	a5,0xd
    80004658:	a047b783          	ld	a5,-1532(a5) # 80011058 <_GLOBAL_OFFSET_TABLE_+0x58>
    8000465c:	0007b503          	ld	a0,0(a5)
    80004660:	ffffd097          	auipc	ra,0xffffd
    80004664:	e14080e7          	jalr	-492(ra) # 80001474 <_Z16kmem_cache_allocP12kmem_cache_t>
    80004668:	00050a13          	mv	s4,a0
        _WaitManager* manager = new _JoinManager(_Thread::running, this);
    8000466c:	04050463          	beqz	a0,800046b4 <_ZN7_Thread4joinEPPv+0xf8>
    80004670:	00048613          	mv	a2,s1
    80004674:	0000b597          	auipc	a1,0xb
    80004678:	3ec5b583          	ld	a1,1004(a1) # 8000fa60 <_ZN7_Thread7runningE>
    8000467c:	00003097          	auipc	ra,0x3
    80004680:	4e4080e7          	jalr	1252(ra) # 80007b60 <_ZN12_JoinManagerC1EP7_ThreadS1_>
    80004684:	0300006f          	j	800046b4 <_ZN7_Thread4joinEPPv+0xf8>
        if (!cache) cache = kmem_cache_create("Join_manager Cache", sizeof(_JoinManager), nullptr, nullptr);
    80004688:	00000693          	li	a3,0
    8000468c:	00000613          	li	a2,0
    80004690:	01800593          	li	a1,24
    80004694:	00007517          	auipc	a0,0x7
    80004698:	c8450513          	addi	a0,a0,-892 # 8000b318 <_ZN12kmem_cache_t3MAXE+0x54>
    8000469c:	ffffd097          	auipc	ra,0xffffd
    800046a0:	d88080e7          	jalr	-632(ra) # 80001424 <_Z17kmem_cache_createPKcmPFvPvES3_>
    800046a4:	0000d797          	auipc	a5,0xd
    800046a8:	9b47b783          	ld	a5,-1612(a5) # 80011058 <_GLOBAL_OFFSET_TABLE_+0x58>
    800046ac:	00a7b023          	sd	a0,0(a5)
    800046b0:	fa5ff06f          	j	80004654 <_ZN7_Thread4joinEPPv+0x98>
        if (!manager) return -1;
    800046b4:	020a0663          	beqz	s4,800046e0 <_ZN7_Thread4joinEPPv+0x124>
        parentWait();
    800046b8:	00048513          	mv	a0,s1
    800046bc:	fffff097          	auipc	ra,0xfffff
    800046c0:	50c080e7          	jalr	1292(ra) # 80003bc8 <_ZN7_Thread10parentWaitEv>
        safeDispatch();
    800046c4:	00000097          	auipc	ra,0x0
    800046c8:	ebc080e7          	jalr	-324(ra) # 80004580 <_ZN7_Thread12safeDispatchEv>
    800046cc:	f49ff06f          	j	80004614 <_ZN7_Thread4joinEPPv+0x58>
    if (running != parent) return -1; //join moze da pozove samo roditeljska nit
    800046d0:	fff00913          	li	s2,-1
    800046d4:	f4dff06f          	j	80004620 <_ZN7_Thread4joinEPPv+0x64>
    if (running->isInterrupted()) return 0; //prekinuta nit se automatski izbacuje
    800046d8:	00000913          	li	s2,0
    800046dc:	f45ff06f          	j	80004620 <_ZN7_Thread4joinEPPv+0x64>
        if (!manager) return -1;
    800046e0:	fff00913          	li	s2,-1
    800046e4:	f3dff06f          	j	80004620 <_ZN7_Thread4joinEPPv+0x64>
    800046e8:	00050493          	mv	s1,a0
    }
    void operator delete(void* adr) { kmem_cache_free(cache, adr);}
    800046ec:	000a0593          	mv	a1,s4
    800046f0:	0000d797          	auipc	a5,0xd
    800046f4:	9687b783          	ld	a5,-1688(a5) # 80011058 <_GLOBAL_OFFSET_TABLE_+0x58>
    800046f8:	0007b503          	ld	a0,0(a5)
    800046fc:	ffffd097          	auipc	ra,0xffffd
    80004700:	da0080e7          	jalr	-608(ra) # 8000149c <_Z15kmem_cache_freeP12kmem_cache_tPv>
    80004704:	00048513          	mv	a0,s1
    80004708:	0000c097          	auipc	ra,0xc
    8000470c:	4e0080e7          	jalr	1248(ra) # 80010be8 <_Unwind_Resume>

0000000080004710 <_ZN7_Thread9normalizeEi>:

int _Thread::normalize(int priority) {
    80004710:	ff010113          	addi	sp,sp,-16
    80004714:	00813423          	sd	s0,8(sp)
    80004718:	01010413          	addi	s0,sp,16
    if (priority > 100) priority = 100;
    8000471c:	06400793          	li	a5,100
    80004720:	00a7cc63          	blt	a5,a0,80004738 <_ZN7_Thread9normalizeEi+0x28>
    else if (priority < -100) priority = -100;
    80004724:	f9c00793          	li	a5,-100
    80004728:	00f54c63          	blt	a0,a5,80004740 <_ZN7_Thread9normalizeEi+0x30>
    return priority;
}
    8000472c:	00813403          	ld	s0,8(sp)
    80004730:	01010113          	addi	sp,sp,16
    80004734:	00008067          	ret
    if (priority > 100) priority = 100;
    80004738:	06400513          	li	a0,100
    8000473c:	ff1ff06f          	j	8000472c <_ZN7_Thread9normalizeEi+0x1c>
    else if (priority < -100) priority = -100;
    80004740:	f9c00513          	li	a0,-100
    80004744:	fe9ff06f          	j	8000472c <_ZN7_Thread9normalizeEi+0x1c>

0000000080004748 <_ZN7_Thread10setManagerEP12_WaitManager>:

void _Thread::setManager(_WaitManager* manager) {
    80004748:	ff010113          	addi	sp,sp,-16
    8000474c:	00813423          	sd	s0,8(sp)
    80004750:	01010413          	addi	s0,sp,16
    waitManager = manager;
    80004754:	04b53023          	sd	a1,64(a0)
}
    80004758:	00813403          	ld	s0,8(sp)
    8000475c:	01010113          	addi	sp,sp,16
    80004760:	00008067          	ret

0000000080004764 <_ZN7_Thread9timeSleepEm>:
int _Thread::timeSleep(time_t time) {
    80004764:	fd010113          	addi	sp,sp,-48
    80004768:	02113423          	sd	ra,40(sp)
    8000476c:	02813023          	sd	s0,32(sp)
    80004770:	00913c23          	sd	s1,24(sp)
    80004774:	01213823          	sd	s2,16(sp)
    80004778:	01313423          	sd	s3,8(sp)
    8000477c:	03010413          	addi	s0,sp,48
    80004780:	00050913          	mv	s2,a0
    if (_Thread::running->isInterrupted()) return 2; //prekinuta nit se automatski izbacuje
    80004784:	0000b997          	auipc	s3,0xb
    80004788:	2dc9b983          	ld	s3,732(s3) # 8000fa60 <_ZN7_Thread7runningE>
    8000478c:	00098513          	mv	a0,s3
    80004790:	00000097          	auipc	ra,0x0
    80004794:	dcc080e7          	jalr	-564(ra) # 8000455c <_ZN7_Thread13isInterruptedEv>
    80004798:	0e051463          	bnez	a0,80004880 <_ZN7_Thread9timeSleepEm+0x11c>
    8000479c:	00050493          	mv	s1,a0
    if (!time) {
    800047a0:	02091e63          	bnez	s2,800047dc <_ZN7_Thread9timeSleepEm+0x78>
        ret = _Scheduler::put(running);
    800047a4:	00098513          	mv	a0,s3
    800047a8:	ffffd097          	auipc	ra,0xffffd
    800047ac:	ec4080e7          	jalr	-316(ra) # 8000166c <_ZN10_Scheduler3putEP7_Thread>
        if (ret) return ret;
    800047b0:	0c051c63          	bnez	a0,80004888 <_ZN7_Thread9timeSleepEm+0x124>
    safeDispatch();
    800047b4:	00000097          	auipc	ra,0x0
    800047b8:	dcc080e7          	jalr	-564(ra) # 80004580 <_ZN7_Thread12safeDispatchEv>
}
    800047bc:	00048513          	mv	a0,s1
    800047c0:	02813083          	ld	ra,40(sp)
    800047c4:	02013403          	ld	s0,32(sp)
    800047c8:	01813483          	ld	s1,24(sp)
    800047cc:	01013903          	ld	s2,16(sp)
    800047d0:	00813983          	ld	s3,8(sp)
    800047d4:	03010113          	addi	sp,sp,48
    800047d8:	00008067          	ret
        ret = _Sleep::put(running, time);
    800047dc:	00090593          	mv	a1,s2
    800047e0:	00098513          	mv	a0,s3
    800047e4:	ffffd097          	auipc	ra,0xffffd
    800047e8:	3e0080e7          	jalr	992(ra) # 80001bc4 <_ZN6_Sleep3putEP7_Threadm>
        if (ret) return ret;
    800047ec:	00050663          	beqz	a0,800047f8 <_ZN7_Thread9timeSleepEm+0x94>
    800047f0:	00050493          	mv	s1,a0
    800047f4:	fc9ff06f          	j	800047bc <_ZN7_Thread9timeSleepEm+0x58>
        if (!cache) cache = kmem_cache_create("Sleep_manager Cache", sizeof(_SleepManager), nullptr, nullptr);
    800047f8:	0000d797          	auipc	a5,0xd
    800047fc:	8807b783          	ld	a5,-1920(a5) # 80011078 <_GLOBAL_OFFSET_TABLE_+0x78>
    80004800:	0007b783          	ld	a5,0(a5)
    80004804:	02078a63          	beqz	a5,80004838 <_ZN7_Thread9timeSleepEm+0xd4>
        return kmem_cache_alloc(cache);
    80004808:	0000d797          	auipc	a5,0xd
    8000480c:	8707b783          	ld	a5,-1936(a5) # 80011078 <_GLOBAL_OFFSET_TABLE_+0x78>
    80004810:	0007b503          	ld	a0,0(a5)
    80004814:	ffffd097          	auipc	ra,0xffffd
    80004818:	c60080e7          	jalr	-928(ra) # 80001474 <_Z16kmem_cache_allocP12kmem_cache_t>
    8000481c:	00050913          	mv	s2,a0
        _WaitManager* manager = new _SleepManager(_Thread::running);
    80004820:	04050263          	beqz	a0,80004864 <_ZN7_Thread9timeSleepEm+0x100>
    80004824:	0000b597          	auipc	a1,0xb
    80004828:	23c5b583          	ld	a1,572(a1) # 8000fa60 <_ZN7_Thread7runningE>
    8000482c:	00003097          	auipc	ra,0x3
    80004830:	2f4080e7          	jalr	756(ra) # 80007b20 <_ZN13_SleepManagerC1EP7_Thread>
    80004834:	0300006f          	j	80004864 <_ZN7_Thread9timeSleepEm+0x100>
        if (!cache) cache = kmem_cache_create("Sleep_manager Cache", sizeof(_SleepManager), nullptr, nullptr);
    80004838:	00000693          	li	a3,0
    8000483c:	00000613          	li	a2,0
    80004840:	01000593          	li	a1,16
    80004844:	00007517          	auipc	a0,0x7
    80004848:	aec50513          	addi	a0,a0,-1300 # 8000b330 <_ZN12kmem_cache_t3MAXE+0x6c>
    8000484c:	ffffd097          	auipc	ra,0xffffd
    80004850:	bd8080e7          	jalr	-1064(ra) # 80001424 <_Z17kmem_cache_createPKcmPFvPvES3_>
    80004854:	0000d797          	auipc	a5,0xd
    80004858:	8247b783          	ld	a5,-2012(a5) # 80011078 <_GLOBAL_OFFSET_TABLE_+0x78>
    8000485c:	00a7b023          	sd	a0,0(a5)
    80004860:	fa9ff06f          	j	80004808 <_ZN7_Thread9timeSleepEm+0xa4>
        if (!manager) return -1;
    80004864:	02090663          	beqz	s2,80004890 <_ZN7_Thread9timeSleepEm+0x12c>
        _Thread::running->setManager(manager);
    80004868:	00090593          	mv	a1,s2
    8000486c:	0000b517          	auipc	a0,0xb
    80004870:	1f453503          	ld	a0,500(a0) # 8000fa60 <_ZN7_Thread7runningE>
    80004874:	00000097          	auipc	ra,0x0
    80004878:	ed4080e7          	jalr	-300(ra) # 80004748 <_ZN7_Thread10setManagerEP12_WaitManager>
    8000487c:	f39ff06f          	j	800047b4 <_ZN7_Thread9timeSleepEm+0x50>
    if (_Thread::running->isInterrupted()) return 2; //prekinuta nit se automatski izbacuje
    80004880:	00200493          	li	s1,2
    80004884:	f39ff06f          	j	800047bc <_ZN7_Thread9timeSleepEm+0x58>
        if (ret) return ret;
    80004888:	00050493          	mv	s1,a0
    8000488c:	f31ff06f          	j	800047bc <_ZN7_Thread9timeSleepEm+0x58>
        if (!manager) return -1;
    80004890:	fff00493          	li	s1,-1
    80004894:	f29ff06f          	j	800047bc <_ZN7_Thread9timeSleepEm+0x58>
    80004898:	00050493          	mv	s1,a0
    void operator delete(void* adr) { kmem_cache_free(cache, adr);}
    8000489c:	00090593          	mv	a1,s2
    800048a0:	0000c797          	auipc	a5,0xc
    800048a4:	7d87b783          	ld	a5,2008(a5) # 80011078 <_GLOBAL_OFFSET_TABLE_+0x78>
    800048a8:	0007b503          	ld	a0,0(a5)
    800048ac:	ffffd097          	auipc	ra,0xffffd
    800048b0:	bf0080e7          	jalr	-1040(ra) # 8000149c <_Z15kmem_cache_freeP12kmem_cache_tPv>
    800048b4:	00048513          	mv	a0,s1
    800048b8:	0000c097          	auipc	ra,0xc
    800048bc:	330080e7          	jalr	816(ra) # 80010be8 <_Unwind_Resume>

00000000800048c0 <_ZN7_Thread13removeManagerEv>:
int _Thread::check_wait(int ret) {
    if (!ret) return 0;
    removeManager();
    return _Scheduler::put(this);
}
void _Thread::removeManager() {
    800048c0:	fe010113          	addi	sp,sp,-32
    800048c4:	00113c23          	sd	ra,24(sp)
    800048c8:	00813823          	sd	s0,16(sp)
    800048cc:	00913423          	sd	s1,8(sp)
    800048d0:	02010413          	addi	s0,sp,32
    800048d4:	00050493          	mv	s1,a0
    if (waitManager) {
    800048d8:	04053503          	ld	a0,64(a0)
    800048dc:	00050a63          	beqz	a0,800048f0 <_ZN7_Thread13removeManagerEv+0x30>
        delete waitManager;
    800048e0:	00053783          	ld	a5,0(a0)
    800048e4:	0287b783          	ld	a5,40(a5)
    800048e8:	000780e7          	jalr	a5
        waitManager = nullptr;
    800048ec:	0404b023          	sd	zero,64(s1)
    }
    800048f0:	01813083          	ld	ra,24(sp)
    800048f4:	01013403          	ld	s0,16(sp)
    800048f8:	00813483          	ld	s1,8(sp)
    800048fc:	02010113          	addi	sp,sp,32
    80004900:	00008067          	ret

0000000080004904 <_ZN7_Thread9joinLimitEPPvm>:
int _Thread::joinLimit(void** pret, time_t limit) {
    80004904:	fd010113          	addi	sp,sp,-48
    80004908:	02113423          	sd	ra,40(sp)
    8000490c:	02813023          	sd	s0,32(sp)
    80004910:	00913c23          	sd	s1,24(sp)
    80004914:	01213823          	sd	s2,16(sp)
    80004918:	01313423          	sd	s3,8(sp)
    8000491c:	01413023          	sd	s4,0(sp)
    80004920:	03010413          	addi	s0,sp,48
    80004924:	00050493          	mv	s1,a0
    if (running != parent) return -1;
    80004928:	03053783          	ld	a5,48(a0)
    8000492c:	0000b517          	auipc	a0,0xb
    80004930:	13453503          	ld	a0,308(a0) # 8000fa60 <_ZN7_Thread7runningE>
    80004934:	10a79a63          	bne	a5,a0,80004a48 <_ZN7_Thread9joinLimitEPPvm+0x144>
    80004938:	00058993          	mv	s3,a1
    8000493c:	00060913          	mv	s2,a2
    if (_Thread::running->isInterrupted()) return 0; //prekinuta nit se automatski izbacuje
    80004940:	00000097          	auipc	ra,0x0
    80004944:	c1c080e7          	jalr	-996(ra) # 8000455c <_ZN7_Thread13isInterruptedEv>
    80004948:	10051463          	bnez	a0,80004a50 <_ZN7_Thread9joinLimitEPPvm+0x14c>
    if (!finished()) {
    8000494c:	00048513          	mv	a0,s1
    80004950:	fffff097          	auipc	ra,0xfffff
    80004954:	254080e7          	jalr	596(ra) # 80003ba4 <_ZN7_Thread8finishedEv>
    80004958:	0a051a63          	bnez	a0,80004a0c <_ZN7_Thread9joinLimitEPPvm+0x108>
        if (!limit) return 1;
    8000495c:	00091663          	bnez	s2,80004968 <_ZN7_Thread9joinLimitEPPvm+0x64>
    80004960:	00100913          	li	s2,1
    80004964:	0f00006f          	j	80004a54 <_ZN7_Thread9joinLimitEPPvm+0x150>
class _JoinSleepManager : public _WaitManager {
public:
    _JoinSleepManager(thread_t my_thread, thread_t join_thread);
    static kmem_cache_t* cache;
    void*  operator new(size_t size) {
        if (!cache) cache = kmem_cache_create("JoinSleep_manager Cache", sizeof(_JoinSleepManager), nullptr, nullptr);
    80004968:	0000c797          	auipc	a5,0xc
    8000496c:	6e07b783          	ld	a5,1760(a5) # 80011048 <_GLOBAL_OFFSET_TABLE_+0x48>
    80004970:	0007b783          	ld	a5,0(a5)
    80004974:	02078c63          	beqz	a5,800049ac <_ZN7_Thread9joinLimitEPPvm+0xa8>
        return kmem_cache_alloc(cache);
    80004978:	0000c797          	auipc	a5,0xc
    8000497c:	6d07b783          	ld	a5,1744(a5) # 80011048 <_GLOBAL_OFFSET_TABLE_+0x48>
    80004980:	0007b503          	ld	a0,0(a5)
    80004984:	ffffd097          	auipc	ra,0xffffd
    80004988:	af0080e7          	jalr	-1296(ra) # 80001474 <_Z16kmem_cache_allocP12kmem_cache_t>
    8000498c:	00050a13          	mv	s4,a0
