GAS LISTING /tmp/cciywJfY.s 			page 1


   1              		.file	"_Buffer.cpp"
   2              		.option pic
   3              		.option norelax
   4              		.text
   5              	.Ltext0:
   6              		.section	.rodata.str1.8,"aMS",@progbits,1
   7              		.align	3
   8              	.LC0:
   9 0000 42756666 		.string	"Buffer Cache"
   9      65722043 
   9      61636865 
   9      00
  10              		.text
  11              		.align	2
  12              		.globl	_ZN7_BuffernwEm
  14              	_ZN7_BuffernwEm:
  15              	.LFB4:
  16              		.file 1 "src/_Buffer.cpp"
   1:src/_Buffer.cpp **** //
   2:src/_Buffer.cpp **** // Created by os on 5/3/22.
   3:src/_Buffer.cpp **** //
   4:src/_Buffer.cpp **** 
   5:src/_Buffer.cpp **** #include "../h/_Buffer.h"
   6:src/_Buffer.cpp **** #include "../h/_Mem.h"
   7:src/_Buffer.cpp **** #include "../h/_Sem.h"
   8:src/_Buffer.cpp **** 
   9:src/_Buffer.cpp **** kmem_cache_t* _Buffer::cache = nullptr;
  10:src/_Buffer.cpp **** 
  11:src/_Buffer.cpp **** void* _Buffer::operator new(size_t) {
  17              		.loc 1 11 37
  18              		.cfi_startproc
  19 0000 130101FF 		addi	sp,sp,-16
  20              		.cfi_def_cfa_offset 16
  21 0004 23341100 		sd	ra,8(sp)
  22 0008 23308100 		sd	s0,0(sp)
  23              		.cfi_offset 1, -8
  24              		.cfi_offset 8, -16
  25 000c 13040101 		addi	s0,sp,16
  26              		.cfi_def_cfa 8, 0
  12:src/_Buffer.cpp ****     if (!cache) cache = kmem_cache_create("Buffer Cache", sizeof(_Buffer), nullptr, nullptr);
  27              		.loc 1 12 5
  28              		.loc 1 12 9 is_stmt 0
  29 0010 97070000 		ld	a5,.LANCHOR0
  29      83B70700 
  30              		.loc 1 12 5
  31 0018 63820702 		beqz	a5,.L4
  32              	.L2:
  13:src/_Buffer.cpp ****     return kmem_cache_alloc(cache);
  33              		.loc 1 13 5 is_stmt 1
  34              		.loc 1 13 28 is_stmt 0
  35 001c 17050000 		ld	a0,.LANCHOR0
  35      03350500 
  36 0024 97000000 		call	_Z16kmem_cache_allocP12kmem_cache_t@plt
  36      E7800000 
  37              	.LVL0:
  14:src/_Buffer.cpp **** }
  38              		.loc 1 14 1
GAS LISTING /tmp/cciywJfY.s 			page 2


  39 002c 83308100 		ld	ra,8(sp)
  40              		.cfi_remember_state
  41              		.cfi_restore 1
  42 0030 03340100 		ld	s0,0(sp)
  43              		.cfi_restore 8
  44              		.cfi_def_cfa 2, 16
  45 0034 13010101 		addi	sp,sp,16
  46              		.cfi_def_cfa_offset 0
  47 0038 67800000 		jr	ra
  48              	.L4:
  49              		.cfi_restore_state
  12:src/_Buffer.cpp ****     if (!cache) cache = kmem_cache_create("Buffer Cache", sizeof(_Buffer), nullptr, nullptr);
  50              		.loc 1 12 17 is_stmt 1 discriminator 1
  12:src/_Buffer.cpp ****     if (!cache) cache = kmem_cache_create("Buffer Cache", sizeof(_Buffer), nullptr, nullptr);
  51              		.loc 1 12 42 is_stmt 0 discriminator 1
  52 003c 93060000 		li	a3,0
  53 0040 13060000 		li	a2,0
  54 0044 93058002 		li	a1,40
  55 0048 17050000 		lla	a0,.LC0
  55      13050500 
  56 0050 97000000 		call	_Z17kmem_cache_createPKcmPFvPvES3_@plt
  56      E7800000 
  57              	.LVL1:
  12:src/_Buffer.cpp ****     if (!cache) cache = kmem_cache_create("Buffer Cache", sizeof(_Buffer), nullptr, nullptr);
  58              		.loc 1 12 23 discriminator 1
  59 0058 97070000 		sd	a0,.LANCHOR0,a5
  59      23B0A700 
  60 0060 6FF0DFFB 		j	.L2
  61              		.cfi_endproc
  62              	.LFE4:
  64              		.align	2
  65              		.globl	_ZN7_BufferdlEPv
  67              	_ZN7_BufferdlEPv:
  68              	.LFB5:
  15:src/_Buffer.cpp **** void _Buffer::operator delete(void* addr) {
  69              		.loc 1 15 43 is_stmt 1
  70              		.cfi_startproc
  71              	.LVL2:
  72 0064 130101FF 		addi	sp,sp,-16
  73              		.cfi_def_cfa_offset 16
  74 0068 23341100 		sd	ra,8(sp)
  75 006c 23308100 		sd	s0,0(sp)
  76              		.cfi_offset 1, -8
  77              		.cfi_offset 8, -16
  78 0070 13040101 		addi	s0,sp,16
  79              		.cfi_def_cfa 8, 0
  80 0074 93050500 		mv	a1,a0
  16:src/_Buffer.cpp ****     kmem_cache_free(cache, addr);
  81              		.loc 1 16 5
  82              		.loc 1 16 20 is_stmt 0
  83 0078 17050000 		ld	a0,.LANCHOR0
  83      03350500 
  84              	.LVL3:
  85 0080 97000000 		call	_Z15kmem_cache_freeP12kmem_cache_tPv@plt
  85      E7800000 
  86              	.LVL4:
  17:src/_Buffer.cpp **** }
GAS LISTING /tmp/cciywJfY.s 			page 3


  87              		.loc 1 17 1
  88 0088 83308100 		ld	ra,8(sp)
  89              		.cfi_restore 1
  90 008c 03340100 		ld	s0,0(sp)
  91              		.cfi_restore 8
  92              		.cfi_def_cfa 2, 16
  93 0090 13010101 		addi	sp,sp,16
  94              		.cfi_def_cfa_offset 0
  95 0094 67800000 		jr	ra
  96              		.cfi_endproc
  97              	.LFE5:
  99              		.align	2
 100              		.globl	_ZN7_BufferC2Ej
 102              	_ZN7_BufferC2Ej:
 103              	.LFB7:
  18:src/_Buffer.cpp **** 
  19:src/_Buffer.cpp **** _Buffer::_Buffer(unsigned sz) {
 104              		.loc 1 19 1 is_stmt 1
 105              		.cfi_startproc
 106              	.LVL5:
 107 0098 130101FE 		addi	sp,sp,-32
 108              		.cfi_def_cfa_offset 32
 109 009c 233C1100 		sd	ra,24(sp)
 110 00a0 23388100 		sd	s0,16(sp)
 111 00a4 23349100 		sd	s1,8(sp)
 112              		.cfi_offset 1, -8
 113              		.cfi_offset 8, -16
 114              		.cfi_offset 9, -24
 115 00a8 13040102 		addi	s0,sp,32
 116              		.cfi_def_cfa 8, 0
 117 00ac 93040500 		mv	s1,a0
 118              	.LBB6:
  20:src/_Buffer.cpp ****     front = rear = 0;
 119              		.loc 1 20 5
 120              		.loc 1 20 18 is_stmt 0
 121 00b0 23260500 		sw	zero,12(a0)
 122              		.loc 1 20 11
 123 00b4 23240500 		sw	zero,8(a0)
  21:src/_Buffer.cpp ****     size = sz;
 124              		.loc 1 21 5 is_stmt 1
 125              		.loc 1 21 10 is_stmt 0
 126 00b8 2328B500 		sw	a1,16(a0)
  22:src/_Buffer.cpp ****     arr = (char*) _Mem::alloc(_Mem::getBlockNum(sizeof(char) * size));
 127              		.loc 1 22 5 is_stmt 1
 128              		.loc 1 22 30 is_stmt 0
 129 00bc 13950502 		slli	a0,a1,32
 130              	.LVL6:
 131 00c0 13550502 		srli	a0,a0,32
 132 00c4 97000000 		call	_ZN4_Mem11getBlockNumEm@plt
 132      E7800000 
 133              	.LVL7:
 134 00cc 97000000 		call	_ZN4_Mem5allocEm@plt
 134      E7800000 
 135              	.LVL8:
 136              		.loc 1 22 9
 137 00d4 23B0A400 		sd	a0,0(s1)
  23:src/_Buffer.cpp ****     _Sem::open(&semin, size);
GAS LISTING /tmp/cciywJfY.s 			page 4


 138              		.loc 1 23 5 is_stmt 1
 139              		.loc 1 23 15 is_stmt 0
 140 00d8 83A50401 		lw	a1,16(s1)
 141 00dc 13858401 		addi	a0,s1,24
 142 00e0 97000000 		call	_ZN4_Sem4openEPPS_j@plt
 142      E7800000 
 143              	.LVL9:
  24:src/_Buffer.cpp ****     _Sem::open(&semout, 0);
 144              		.loc 1 24 5 is_stmt 1
 145              		.loc 1 24 15 is_stmt 0
 146 00e8 93050000 		li	a1,0
 147 00ec 13850402 		addi	a0,s1,32
 148 00f0 97000000 		call	_ZN4_Sem4openEPPS_j@plt
 148      E7800000 
 149              	.LVL10:
 150              	.LBE6:
  25:src/_Buffer.cpp **** }
 151              		.loc 1 25 1
 152 00f8 83308101 		ld	ra,24(sp)
 153              		.cfi_restore 1
 154 00fc 03340101 		ld	s0,16(sp)
 155              		.cfi_restore 8
 156              		.cfi_def_cfa 2, 32
 157 0100 83348100 		ld	s1,8(sp)
 158              		.cfi_restore 9
 159              	.LVL11:
 160 0104 13010102 		addi	sp,sp,32
 161              		.cfi_def_cfa_offset 0
 162 0108 67800000 		jr	ra
 163              		.cfi_endproc
 164              	.LFE7:
 166              		.globl	_ZN7_BufferC1Ej
 167              		.set	_ZN7_BufferC1Ej,_ZN7_BufferC2Ej
 168              		.align	2
 169              		.globl	_ZN7_Buffer3putEc
 171              	_ZN7_Buffer3putEc:
 172              	.LFB9:
  26:src/_Buffer.cpp **** 
  27:src/_Buffer.cpp **** void _Buffer::put(char c) {
 173              		.loc 1 27 27 is_stmt 1
 174              		.cfi_startproc
 175              	.LVL12:
 176 010c 130101FE 		addi	sp,sp,-32
 177              		.cfi_def_cfa_offset 32
 178 0110 233C1100 		sd	ra,24(sp)
 179 0114 23388100 		sd	s0,16(sp)
 180 0118 23349100 		sd	s1,8(sp)
 181 011c 23302101 		sd	s2,0(sp)
 182              		.cfi_offset 1, -8
 183              		.cfi_offset 8, -16
 184              		.cfi_offset 9, -24
 185              		.cfi_offset 18, -32
 186 0120 13040102 		addi	s0,sp,32
 187              		.cfi_def_cfa 8, 0
 188 0124 93040500 		mv	s1,a0
 189 0128 13890500 		mv	s2,a1
  28:src/_Buffer.cpp ****     semin->wait();
GAS LISTING /tmp/cciywJfY.s 			page 5


 190              		.loc 1 28 5
 191              		.loc 1 28 16 is_stmt 0
 192 012c 03358501 		ld	a0,24(a0)
 193              	.LVL13:
 194 0130 97000000 		call	_ZN4_Sem4waitEv@plt
 194      E7800000 
 195              	.LVL14:
  29:src/_Buffer.cpp ****     arr[rear] = c;
 196              		.loc 1 29 5 is_stmt 1
 197 0138 83B70400 		ld	a5,0(s1)
 198              		.loc 1 29 9 is_stmt 0
 199 013c 03E7C400 		lwu	a4,12(s1)
 200              		.loc 1 29 13
 201 0140 B387E700 		add	a5,a5,a4
 202              		.loc 1 29 15
 203 0144 23802701 		sb	s2,0(a5)
  30:src/_Buffer.cpp ****     rear = (rear + 1) % size;
 204              		.loc 1 30 5 is_stmt 1
 205              		.loc 1 30 13 is_stmt 0
 206 0148 83A7C400 		lw	a5,12(s1)
 207              		.loc 1 30 18
 208 014c 9B871700 		addiw	a5,a5,1
 209              		.loc 1 30 25
 210 0150 03A70401 		lw	a4,16(s1)
 211              		.loc 1 30 23
 212 0154 BBF7E702 		remuw	a5,a5,a4
 213              		.loc 1 30 10
 214 0158 23A6F400 		sw	a5,12(s1)
  31:src/_Buffer.cpp ****     semout->signal();
 215              		.loc 1 31 5 is_stmt 1
 216              		.loc 1 31 19 is_stmt 0
 217 015c 03B50402 		ld	a0,32(s1)
 218 0160 97000000 		call	_ZN4_Sem6signalEv@plt
 218      E7800000 
 219              	.LVL15:
  32:src/_Buffer.cpp **** }
 220              		.loc 1 32 1
 221 0168 83308101 		ld	ra,24(sp)
 222              		.cfi_restore 1
 223 016c 03340101 		ld	s0,16(sp)
 224              		.cfi_restore 8
 225              		.cfi_def_cfa 2, 32
 226 0170 83348100 		ld	s1,8(sp)
 227              		.cfi_restore 9
 228              	.LVL16:
 229 0174 03390100 		ld	s2,0(sp)
 230              		.cfi_restore 18
 231 0178 13010102 		addi	sp,sp,32
 232              		.cfi_def_cfa_offset 0
 233 017c 67800000 		jr	ra
 234              		.cfi_endproc
 235              	.LFE9:
 237              		.align	2
 238              		.globl	_ZN7_Buffer3getEv
 240              	_ZN7_Buffer3getEv:
 241              	.LFB10:
  33:src/_Buffer.cpp **** char _Buffer::get() {
GAS LISTING /tmp/cciywJfY.s 			page 6


 242              		.loc 1 33 21 is_stmt 1
 243              		.cfi_startproc
 244              	.LVL17:
 245 0180 130101FE 		addi	sp,sp,-32
 246              		.cfi_def_cfa_offset 32
 247 0184 233C1100 		sd	ra,24(sp)
 248 0188 23388100 		sd	s0,16(sp)
 249 018c 23349100 		sd	s1,8(sp)
 250 0190 23302101 		sd	s2,0(sp)
 251              		.cfi_offset 1, -8
 252              		.cfi_offset 8, -16
 253              		.cfi_offset 9, -24
 254              		.cfi_offset 18, -32
 255 0194 13040102 		addi	s0,sp,32
 256              		.cfi_def_cfa 8, 0
 257 0198 93040500 		mv	s1,a0
  34:src/_Buffer.cpp ****     semout->wait();
 258              		.loc 1 34 5
 259              		.loc 1 34 17 is_stmt 0
 260 019c 03350502 		ld	a0,32(a0)
 261              	.LVL18:
 262 01a0 97000000 		call	_ZN4_Sem4waitEv@plt
 262      E7800000 
 263              	.LVL19:
  35:src/_Buffer.cpp ****     char ret = arr[front];
 264              		.loc 1 35 5 is_stmt 1
 265              		.loc 1 35 16 is_stmt 0
 266 01a8 03B70400 		ld	a4,0(s1)
 267              		.loc 1 35 20
 268 01ac 83A78400 		lw	a5,8(s1)
 269 01b0 93960702 		slli	a3,a5,32
 270 01b4 93D60602 		srli	a3,a3,32
 271              		.loc 1 35 25
 272 01b8 3307D700 		add	a4,a4,a3
 273              		.loc 1 35 10
 274 01bc 03490700 		lbu	s2,0(a4)
 275              	.LVL20:
  36:src/_Buffer.cpp ****     front = (front + 1) % size;
 276              		.loc 1 36 5 is_stmt 1
 277              		.loc 1 36 20 is_stmt 0
 278 01c0 9B871700 		addiw	a5,a5,1
 279              		.loc 1 36 27
 280 01c4 03A70401 		lw	a4,16(s1)
 281              		.loc 1 36 25
 282 01c8 BBF7E702 		remuw	a5,a5,a4
 283              		.loc 1 36 11
 284 01cc 23A4F400 		sw	a5,8(s1)
  37:src/_Buffer.cpp ****     semin->signal();
 285              		.loc 1 37 5 is_stmt 1
 286              		.loc 1 37 18 is_stmt 0
 287 01d0 03B58401 		ld	a0,24(s1)
 288 01d4 97000000 		call	_ZN4_Sem6signalEv@plt
 288      E7800000 
 289              	.LVL21:
  38:src/_Buffer.cpp ****     return ret;
 290              		.loc 1 38 5 is_stmt 1
  39:src/_Buffer.cpp **** }
GAS LISTING /tmp/cciywJfY.s 			page 7


 291              		.loc 1 39 1 is_stmt 0
 292 01dc 13050900 		mv	a0,s2
 293 01e0 83308101 		ld	ra,24(sp)
 294              		.cfi_restore 1
 295 01e4 03340101 		ld	s0,16(sp)
 296              		.cfi_restore 8
 297              		.cfi_def_cfa 2, 32
 298 01e8 83348100 		ld	s1,8(sp)
 299              		.cfi_restore 9
 300              	.LVL22:
 301 01ec 03390100 		ld	s2,0(sp)
 302              		.cfi_restore 18
 303              	.LVL23:
 304 01f0 13010102 		addi	sp,sp,32
 305              		.cfi_def_cfa_offset 0
 306 01f4 67800000 		jr	ra
 307              		.cfi_endproc
 308              	.LFE10:
 310              		.align	2
 311              		.globl	_ZN7_Buffer4fullEv
 313              	_ZN7_Buffer4fullEv:
 314              	.LFB11:
  40:src/_Buffer.cpp **** 
  41:src/_Buffer.cpp **** int _Buffer::full() {
 315              		.loc 1 41 21 is_stmt 1
 316              		.cfi_startproc
 317              	.LVL24:
 318 01f8 130101FF 		addi	sp,sp,-16
 319              		.cfi_def_cfa_offset 16
 320 01fc 23348100 		sd	s0,8(sp)
 321              		.cfi_offset 8, -8
 322 0200 13040101 		addi	s0,sp,16
 323              		.cfi_def_cfa 8, 0
  42:src/_Buffer.cpp ****     return semin->getVal() <= 0;
 324              		.loc 1 42 5
 325              		.loc 1 42 12 is_stmt 0
 326 0204 83378501 		ld	a5,24(a0)
 327              	.LVL25:
 328              	.LBB7:
 329              	.LBB8:
 330              		.file 2 "src/../h/_Sem.h"
   1:src/../h/_Sem.h **** //
   2:src/../h/_Sem.h **** // Created by os on 5/3/22.
   3:src/../h/_Sem.h **** //
   4:src/../h/_Sem.h **** 
   5:src/../h/_Sem.h **** #ifndef PROJECT_BASE__SEM_H
   6:src/../h/_Sem.h **** #define PROJECT_BASE__SEM_H
   7:src/../h/_Sem.h **** #include "_ThreadList.h"
   8:src/../h/_Sem.h **** #include "types.h"
   9:src/../h/_Sem.h **** #include "_slab.h"
  10:src/../h/_Sem.h **** 
  11:src/../h/_Sem.h **** class _Sem {
  12:src/../h/_Sem.h ****     _ThreadList list; //obican red
  13:src/../h/_Sem.h ****     unsigned val; //val se nikad ne spusta ispod 0
  14:src/../h/_Sem.h **** 
  15:src/../h/_Sem.h ****     static kmem_cache_t* cache;
  16:src/../h/_Sem.h **** public:
GAS LISTING /tmp/cciywJfY.s 			page 8


  17:src/../h/_Sem.h ****     void* operator new(size_t);
  18:src/../h/_Sem.h ****     void operator delete(void* addr);
  19:src/../h/_Sem.h ****     _Sem(unsigned);
  20:src/../h/_Sem.h **** 
  21:src/../h/_Sem.h ****     int wait();
  22:src/../h/_Sem.h ****     int signal();
  23:src/../h/_Sem.h ****     int signalEvent(); //signal koji nikad ne povecava val iznad 1
  24:src/../h/_Sem.h ****     int signalAll(); //oslobadja sve koji cekaju na semaforu
  25:src/../h/_Sem.h ****     int wait(time_t limit); //cekanje sa vremenskim ogranicenjem
  26:src/../h/_Sem.h ****     unsigned getVal() { return val; }
 331              		.loc 2 26 25 is_stmt 1
 332              		.loc 2 26 32 is_stmt 0
 333 0208 03A50701 		lw	a0,16(a5)
 334              	.LVL26:
 335              	.LBE8:
 336              	.LBE7:
  43:src/_Buffer.cpp **** }
 337              		.loc 1 43 1
 338 020c 13351500 		seqz	a0,a0
 339 0210 03348100 		ld	s0,8(sp)
 340              		.cfi_restore 8
 341              		.cfi_def_cfa 2, 16
 342 0214 13010101 		addi	sp,sp,16
 343              		.cfi_def_cfa_offset 0
 344 0218 67800000 		jr	ra
 345              		.cfi_endproc
 346              	.LFE11:
 348              		.align	2
 349              		.globl	_ZN7_Buffer5emptyEv
 351              	_ZN7_Buffer5emptyEv:
 352              	.LFB12:
  44:src/_Buffer.cpp **** int _Buffer::empty() {
 353              		.loc 1 44 22 is_stmt 1
 354              		.cfi_startproc
 355              	.LVL27:
 356 021c 130101FF 		addi	sp,sp,-16
 357              		.cfi_def_cfa_offset 16
 358 0220 23348100 		sd	s0,8(sp)
 359              		.cfi_offset 8, -8
 360 0224 13040101 		addi	s0,sp,16
 361              		.cfi_def_cfa 8, 0
  45:src/_Buffer.cpp ****     return semout->getVal() <= 0;
 362              		.loc 1 45 5
 363              		.loc 1 45 12 is_stmt 0
 364 0228 83370502 		ld	a5,32(a0)
 365              	.LVL28:
 366              	.LBB9:
 367              	.LBB10:
 368              		.loc 2 26 25 is_stmt 1
 369              		.loc 2 26 32 is_stmt 0
 370 022c 03A50701 		lw	a0,16(a5)
 371              	.LVL29:
 372              	.LBE10:
 373              	.LBE9:
  46:src/_Buffer.cpp **** }
 374              		.loc 1 46 1
 375 0230 13351500 		seqz	a0,a0
GAS LISTING /tmp/cciywJfY.s 			page 9


 376 0234 03348100 		ld	s0,8(sp)
 377              		.cfi_restore 8
 378              		.cfi_def_cfa 2, 16
 379 0238 13010101 		addi	sp,sp,16
 380              		.cfi_def_cfa_offset 0
 381 023c 67800000 		jr	ra
 382              		.cfi_endproc
 383              	.LFE12:
 385              		.globl	_ZN7_Buffer5cacheE
 386              		.bss
 387              		.align	3
 388              		.set	.LANCHOR0,. + 0
 391              	_ZN7_Buffer5cacheE:
 392 0000 00000000 		.zero	8
 392      00000000 
 393              		.text
 394              	.Letext0:
 395              		.file 3 "src/../h/../lib/hw.h"
 396              		.file 4 "src/../h/types.h"
 397              		.file 5 "src/../h/_slab.h"
 398              		.file 6 "src/../h/_Buffer.h"
 399              		.file 7 "src/../h/_Mem.h"
 400              		.file 8 "src/../h/_ThreadList.h"
GAS LISTING /tmp/cciywJfY.s 			page 10

