GAS LISTING /tmp/ccrDlfhX.s 			page 1


   1              		.file	"_Console.cpp"
   2              		.option pic
   3              		.option norelax
   4              		.text
   5              	.Ltext0:
   6              		.align	2
   7              		.globl	_ZN8_Console6putterEv
   9              	_ZN8_Console6putterEv:
  10              	.LFB10:
  11              		.file 1 "src/_Console.cpp"
   1:src/_Console.cpp **** //
   2:src/_Console.cpp **** // Created by os on 5/3/22.
   3:src/_Console.cpp **** //
   4:src/_Console.cpp **** 
   5:src/_Console.cpp **** #include "../h/_Console.h"
   6:src/_Console.cpp **** #include "../h/_Buffer.h"
   7:src/_Console.cpp **** #include "../h/_Mem.h"
   8:src/_Console.cpp **** #include "../h/_Thread.h"
   9:src/_Console.cpp **** #include "../h/_Sem.h"
  10:src/_Console.cpp **** #include "../h/_SBIT.h"
  11:src/_Console.cpp **** 
  12:src/_Console.cpp **** _Buffer* _Console::buffin;
  13:src/_Console.cpp **** _Buffer* _Console::buffout;
  14:src/_Console.cpp **** _Sem* _Console::ready;
  15:src/_Console.cpp **** _Sem* _Console::go;
  16:src/_Console.cpp **** void _Console::init() {
  17:src/_Console.cpp ****     buffin = new _Buffer(INPUT_BUFFER_SIZE);
  18:src/_Console.cpp ****     buffout = new _Buffer(OUTPUT_BUFFER_SIZE);
  19:src/_Console.cpp ****     ready = new _Sem(0);
  20:src/_Console.cpp ****     go = new _Sem(0);
  21:src/_Console.cpp ****     _Thread::create(nullptr, &putter, _Thread::TOP_PRIORITY, _Thread::SET_START);
  22:src/_Console.cpp **** }
  23:src/_Console.cpp **** 
  24:src/_Console.cpp **** void _Console::putc(char c) {
  25:src/_Console.cpp ****     buffout->put(c);
  26:src/_Console.cpp ****     go->signal();
  27:src/_Console.cpp ****     _Thread::dispatch();
  28:src/_Console.cpp **** }
  29:src/_Console.cpp **** char _Console::getc() {
  30:src/_Console.cpp ****     return buffin->get();
  31:src/_Console.cpp **** }
  32:src/_Console.cpp **** 
  33:src/_Console.cpp **** void _Console::handle() {
  34:src/_Console.cpp ****     char status;
  35:src/_Console.cpp ****     while (1) {
  36:src/_Console.cpp ****         if (buffin->full()) break;//kod punog bafera se samo odlaze ucitavanje
  37:src/_Console.cpp ****         status = *(char*)CONSOLE_STATUS;
  38:src/_Console.cpp ****         if (!(status & CONSOLE_RX_STATUS_BIT)) break;
  39:src/_Console.cpp ****         char c = *(char*)CONSOLE_RX_DATA;
  40:src/_Console.cpp ****         buffin->put(c);
  41:src/_Console.cpp ****     }
  42:src/_Console.cpp ****     status = *(char*)CONSOLE_STATUS;
  43:src/_Console.cpp ****     if (status & CONSOLE_TX_STATUS_BIT) {
  44:src/_Console.cpp ****         ready->signalEvent();
  45:src/_Console.cpp ****     }
  46:src/_Console.cpp ****     plic_complete(10);
  47:src/_Console.cpp ****     return;
GAS LISTING /tmp/ccrDlfhX.s 			page 2


  48:src/_Console.cpp **** }
  49:src/_Console.cpp **** 
  50:src/_Console.cpp **** void _Console::putter() {
  12              		.loc 1 50 25
  13              		.cfi_startproc
  14 0000 130101FE 		addi	sp,sp,-32
  15              		.cfi_def_cfa_offset 32
  16 0004 233C1100 		sd	ra,24(sp)
  17 0008 23388100 		sd	s0,16(sp)
  18 000c 23349100 		sd	s1,8(sp)
  19              		.cfi_offset 1, -8
  20              		.cfi_offset 8, -16
  21              		.cfi_offset 9, -24
  22 0010 13040102 		addi	s0,sp,32
  23              		.cfi_def_cfa 8, 0
  51:src/_Console.cpp ****     _SBIT::SIEdisable();
  24              		.loc 1 51 5
  25              		.loc 1 51 22 is_stmt 0
  26 0014 97000000 		call	_ZN5_SBIT10SIEdisableEv@plt
  26      E7800000 
  27              	.LVL0:
  28 001c 6F004001 		j	.L4
  29              	.LVL1:
  30              	.L6:
  31              	.LBB2:
  32              	.LBB3:
  52:src/_Console.cpp ****     while(true) {
  53:src/_Console.cpp ****         go->wait();
  54:src/_Console.cpp ****         if (buffout->empty()) break;
  55:src/_Console.cpp ****         char c = buffout->get();
  56:src/_Console.cpp **** 
  57:src/_Console.cpp ****         while (true) {
  58:src/_Console.cpp ****             ready->wait();
  59:src/_Console.cpp ****             char status = *(char*)CONSOLE_STATUS;
  60:src/_Console.cpp ****             if (status & CONSOLE_TX_STATUS_BIT) {
  61:src/_Console.cpp ****                 *(char *) CONSOLE_TX_DATA = c;
  33              		.loc 1 61 17 is_stmt 1
  34 0020 97070000 		la	a5,CONSOLE_TX_DATA
  34      83B70700 
  35 0028 83B70700 		ld	a5,0(a5)
  36              		.loc 1 61 43 is_stmt 0
  37 002c 23809700 		sb	s1,0(a5)
  38              	.LVL2:
  62:src/_Console.cpp ****                 break;
  39              		.loc 1 62 17 is_stmt 1
  40              	.LBE3:
  41              	.LBE2:
  52:src/_Console.cpp ****     while(true) {
  42              		.loc 1 52 5
  43              	.L4:
  52:src/_Console.cpp ****     while(true) {
  44              		.loc 1 52 5
  45              	.LBB5:
  53:src/_Console.cpp ****         if (buffout->empty()) break;
  46              		.loc 1 53 9
  53:src/_Console.cpp ****         if (buffout->empty()) break;
  47              		.loc 1 53 17 is_stmt 0
GAS LISTING /tmp/ccrDlfhX.s 			page 3


  48 0030 97040000 		lla	s1,.LANCHOR0
  48      93840400 
  49 0038 03B50400 		ld	a0,0(s1)
  50 003c 97000000 		call	_ZN4_Sem4waitEv@plt
  50      E7800000 
  51              	.LVL3:
  54:src/_Console.cpp ****         char c = buffout->get();
  52              		.loc 1 54 9 is_stmt 1
  54:src/_Console.cpp ****         char c = buffout->get();
  53              		.loc 1 54 27 is_stmt 0
  54 0044 03B58400 		ld	a0,8(s1)
  55 0048 97000000 		call	_ZN7_Buffer5emptyEv@plt
  55      E7800000 
  56              	.LVL4:
  54:src/_Console.cpp ****         char c = buffout->get();
  57              		.loc 1 54 9
  58 0050 63120504 		bnez	a0,.L1
  55:src/_Console.cpp **** 
  59              		.loc 1 55 9 is_stmt 1
  55:src/_Console.cpp **** 
  60              		.loc 1 55 30 is_stmt 0
  61 0054 17050000 		ld	a0,.LANCHOR0+8
  61      03350500 
  62 005c 97000000 		call	_ZN7_Buffer3getEv@plt
  62      E7800000 
  63              	.LVL5:
  64 0064 93040500 		mv	s1,a0
  65              	.LVL6:
  66              	.L3:
  57:src/_Console.cpp ****             ready->wait();
  67              		.loc 1 57 9 is_stmt 1
  68              	.LBB4:
  58:src/_Console.cpp ****             char status = *(char*)CONSOLE_STATUS;
  69              		.loc 1 58 13
  58:src/_Console.cpp ****             char status = *(char*)CONSOLE_STATUS;
  70              		.loc 1 58 24 is_stmt 0
  71 0068 17050000 		ld	a0,.LANCHOR0+16
  71      03350500 
  72 0070 97000000 		call	_ZN4_Sem4waitEv@plt
  72      E7800000 
  73              	.LVL7:
  59:src/_Console.cpp ****             if (status & CONSOLE_TX_STATUS_BIT) {
  74              		.loc 1 59 13 is_stmt 1
  59:src/_Console.cpp ****             if (status & CONSOLE_TX_STATUS_BIT) {
  75              		.loc 1 59 27 is_stmt 0
  76 0078 97070000 		la	a5,CONSOLE_STATUS
  76      83B70700 
  77 0080 83B70700 		ld	a5,0(a5)
  59:src/_Console.cpp ****             if (status & CONSOLE_TX_STATUS_BIT) {
  78              		.loc 1 59 18
  79 0084 83C70700 		lbu	a5,0(a5)
  80              	.LVL8:
  60:src/_Console.cpp ****                 *(char *) CONSOLE_TX_DATA = c;
  81              		.loc 1 60 13 is_stmt 1
  82 0088 93F70702 		andi	a5,a5,32
  83              	.LVL9:
  84 008c E38E07FC 		beqz	a5,.L3
GAS LISTING /tmp/ccrDlfhX.s 			page 4


  85 0090 6FF01FF9 		j	.L6
  86              	.LVL10:
  87              	.L1:
  88              	.LBE4:
  89              	.LBE5:
  63:src/_Console.cpp ****             }
  64:src/_Console.cpp ****             //moze da se desi da do budjenja niti putter periferija iz nekog razloga resetuje ready
  65:src/_Console.cpp ****         }
  66:src/_Console.cpp ****         //dajem malo vremena hardveru da ponovo generise prekid
  67:src/_Console.cpp ****         /*_SBIT::SSIEdisable();
  68:src/_Console.cpp ****         _SBIT::SIEenable();
  69:src/_Console.cpp ****         for (int i = 0; i < 10; i++);
  70:src/_Console.cpp ****         _SBIT::SIEdisable();
  71:src/_Console.cpp ****         _SBIT::SSIEenable();*/
  72:src/_Console.cpp ****         //
  73:src/_Console.cpp ****     }
  74:src/_Console.cpp **** }
  90              		.loc 1 74 1 is_stmt 0
  91 0094 83308101 		ld	ra,24(sp)
  92              		.cfi_restore 1
  93 0098 03340101 		ld	s0,16(sp)
  94              		.cfi_restore 8
  95              		.cfi_def_cfa 2, 32
  96 009c 83348100 		ld	s1,8(sp)
  97              		.cfi_restore 9
  98 00a0 13010102 		addi	sp,sp,32
  99              		.cfi_def_cfa_offset 0
 100 00a4 67800000 		jr	ra
 101              		.cfi_endproc
 102              	.LFE10:
 104              		.align	2
 105              		.globl	_ZN8_Console4initEv
 107              	_ZN8_Console4initEv:
 108              	.LFB6:
  16:src/_Console.cpp ****     buffin = new _Buffer(INPUT_BUFFER_SIZE);
 109              		.loc 1 16 23 is_stmt 1
 110              		.cfi_startproc
 111              		.cfi_personality 0x9b,DW.ref.__gxx_personality_v0
 112              		.cfi_lsda 0x1b,.LLSDA6
 113 00a8 130101FE 		addi	sp,sp,-32
 114              		.cfi_def_cfa_offset 32
 115 00ac 233C1100 		sd	ra,24(sp)
 116 00b0 23388100 		sd	s0,16(sp)
 117 00b4 23349100 		sd	s1,8(sp)
 118 00b8 23302101 		sd	s2,0(sp)
 119              		.cfi_offset 1, -8
 120              		.cfi_offset 8, -16
 121              		.cfi_offset 9, -24
 122              		.cfi_offset 18, -32
 123 00bc 13040102 		addi	s0,sp,32
 124              		.cfi_def_cfa 8, 0
  17:src/_Console.cpp ****     buffout = new _Buffer(OUTPUT_BUFFER_SIZE);
 125              		.loc 1 17 5
  17:src/_Console.cpp ****     buffout = new _Buffer(OUTPUT_BUFFER_SIZE);
 126              		.loc 1 17 43 is_stmt 0
 127 00c0 13058002 		li	a0,40
 128              	.LEHB0:
GAS LISTING /tmp/ccrDlfhX.s 			page 5


 129 00c4 97000000 		call	_ZN7_BuffernwEm@plt
 129      E7800000 
 130              	.LVL11:
 131              	.LEHE0:
 132 00cc 93040500 		mv	s1,a0
 133 00d0 63080500 		beqz	a0,.L8
  17:src/_Console.cpp ****     buffout = new _Buffer(OUTPUT_BUFFER_SIZE);
 134              		.loc 1 17 43 discriminator 1
 135 00d4 9305803E 		li	a1,1000
 136              	.LEHB1:
 137 00d8 97000000 		call	_ZN7_BufferC1Ej@plt
 137      E7800000 
 138              	.LVL12:
 139              	.LEHE1:
 140              	.L8:
  17:src/_Console.cpp ****     buffout = new _Buffer(OUTPUT_BUFFER_SIZE);
 141              		.loc 1 17 12 discriminator 6
 142 00e0 97070000 		sd	s1,.LANCHOR0+24,a5
 142      23B09700 
  18:src/_Console.cpp ****     ready = new _Sem(0);
 143              		.loc 1 18 5 is_stmt 1 discriminator 6
  18:src/_Console.cpp ****     ready = new _Sem(0);
 144              		.loc 1 18 45 is_stmt 0 discriminator 6
 145 00e8 13058002 		li	a0,40
 146              	.LEHB2:
 147 00ec 97000000 		call	_ZN7_BuffernwEm@plt
 147      E7800000 
 148              	.LVL13:
 149              	.LEHE2:
 150 00f4 93040500 		mv	s1,a0
 151 00f8 63080500 		beqz	a0,.L9
  18:src/_Console.cpp ****     ready = new _Sem(0);
 152              		.loc 1 18 45 discriminator 1
 153 00fc 9305803E 		li	a1,1000
 154              	.LEHB3:
 155 0100 97000000 		call	_ZN7_BufferC1Ej@plt
 155      E7800000 
 156              	.LVL14:
 157              	.LEHE3:
 158              	.L9:
  18:src/_Console.cpp ****     ready = new _Sem(0);
 159              		.loc 1 18 13 discriminator 6
 160 0108 97070000 		sd	s1,.LANCHOR0+8,a5
 160      23B09700 
  19:src/_Console.cpp ****     go = new _Sem(0);
 161              		.loc 1 19 5 is_stmt 1 discriminator 6
  19:src/_Console.cpp ****     go = new _Sem(0);
 162              		.loc 1 19 23 is_stmt 0 discriminator 6
 163 0110 13058001 		li	a0,24
 164              	.LEHB4:
 165 0114 97000000 		call	_ZN4_SemnwEm@plt
 165      E7800000 
 166              	.LVL15:
 167              	.LEHE4:
 168 011c 93040500 		mv	s1,a0
 169 0120 63080500 		beqz	a0,.L10
  19:src/_Console.cpp ****     go = new _Sem(0);
GAS LISTING /tmp/ccrDlfhX.s 			page 6


 170              		.loc 1 19 23 discriminator 1
 171 0124 93050000 		li	a1,0
 172              	.LEHB5:
 173 0128 97000000 		call	_ZN4_SemC1Ej@plt
 173      E7800000 
 174              	.LVL16:
 175              	.LEHE5:
 176              	.L10:
  19:src/_Console.cpp ****     go = new _Sem(0);
 177              		.loc 1 19 11 discriminator 6
 178 0130 97070000 		sd	s1,.LANCHOR0+16,a5
 178      23B09700 
  20:src/_Console.cpp ****     _Thread::create(nullptr, &putter, _Thread::TOP_PRIORITY, _Thread::SET_START);
 179              		.loc 1 20 5 is_stmt 1 discriminator 6
  20:src/_Console.cpp ****     _Thread::create(nullptr, &putter, _Thread::TOP_PRIORITY, _Thread::SET_START);
 180              		.loc 1 20 20 is_stmt 0 discriminator 6
 181 0138 13058001 		li	a0,24
 182              	.LEHB6:
 183 013c 97000000 		call	_ZN4_SemnwEm@plt
 183      E7800000 
 184              	.LVL17:
 185              	.LEHE6:
 186 0144 93040500 		mv	s1,a0
 187 0148 63080500 		beqz	a0,.L11
  20:src/_Console.cpp ****     _Thread::create(nullptr, &putter, _Thread::TOP_PRIORITY, _Thread::SET_START);
 188              		.loc 1 20 20 discriminator 1
 189 014c 93050000 		li	a1,0
 190              	.LEHB7:
 191 0150 97000000 		call	_ZN4_SemC1Ej@plt
 191      E7800000 
 192              	.LVL18:
 193              	.LEHE7:
 194              	.L11:
  20:src/_Console.cpp ****     _Thread::create(nullptr, &putter, _Thread::TOP_PRIORITY, _Thread::SET_START);
 195              		.loc 1 20 8 discriminator 6
 196 0158 97070000 		sd	s1,.LANCHOR0,a5
 196      23B09700 
  21:src/_Console.cpp **** }
 197              		.loc 1 21 5 is_stmt 1 discriminator 6
  21:src/_Console.cpp **** }
 198              		.loc 1 21 20 is_stmt 0 discriminator 6
 199 0160 93061000 		li	a3,1
 200 0164 1306803E 		li	a2,1000
 201 0168 97050000 		lla	a1,_ZN8_Console6putterEv
 201      93850500 
 202 0170 13050000 		li	a0,0
 203              	.LEHB8:
 204 0174 97000000 		call	_ZN7_Thread6createEPPS_PFvvEii@plt
 204      E7800000 
 205              	.LVL19:
 206              	.LEHE8:
  22:src/_Console.cpp **** 
 207              		.loc 1 22 1 discriminator 6
 208 017c 83308101 		ld	ra,24(sp)
 209              		.cfi_remember_state
 210              		.cfi_restore 1
 211 0180 03340101 		ld	s0,16(sp)
GAS LISTING /tmp/ccrDlfhX.s 			page 7


 212              		.cfi_restore 8
 213              		.cfi_def_cfa 2, 32
 214 0184 83348100 		ld	s1,8(sp)
 215              		.cfi_restore 9
 216 0188 03390100 		ld	s2,0(sp)
 217              		.cfi_restore 18
 218 018c 13010102 		addi	sp,sp,32
 219              		.cfi_def_cfa_offset 0
 220 0190 67800000 		jr	ra
 221              	.L16:
 222              		.cfi_restore_state
 223 0194 13090500 		mv	s2,a0
  17:src/_Console.cpp ****     buffout = new _Buffer(OUTPUT_BUFFER_SIZE);
 224              		.loc 1 17 43
 225 0198 13850400 		mv	a0,s1
 226 019c 97000000 		call	_ZN7_BufferdlEPv@plt
 226      E7800000 
 227              	.LVL20:
 228 01a4 13050900 		mv	a0,s2
 229              	.LEHB9:
 230 01a8 97000000 		call	_Unwind_Resume@plt
 230      E7800000 
 231              	.LVL21:
 232              	.LEHE9:
 233              	.L17:
 234 01b0 13090500 		mv	s2,a0
  18:src/_Console.cpp ****     ready = new _Sem(0);
 235              		.loc 1 18 45
 236 01b4 13850400 		mv	a0,s1
 237 01b8 97000000 		call	_ZN7_BufferdlEPv@plt
 237      E7800000 
 238              	.LVL22:
 239 01c0 13050900 		mv	a0,s2
 240              	.LEHB10:
 241 01c4 97000000 		call	_Unwind_Resume@plt
 241      E7800000 
 242              	.LVL23:
 243              	.LEHE10:
 244              	.L18:
 245 01cc 13090500 		mv	s2,a0
  19:src/_Console.cpp ****     go = new _Sem(0);
 246              		.loc 1 19 23
 247 01d0 13850400 		mv	a0,s1
 248 01d4 97000000 		call	_ZN4_SemdlEPv@plt
 248      E7800000 
 249              	.LVL24:
 250 01dc 13050900 		mv	a0,s2
 251              	.LEHB11:
 252 01e0 97000000 		call	_Unwind_Resume@plt
 252      E7800000 
 253              	.LVL25:
 254              	.LEHE11:
 255              	.L19:
 256 01e8 13090500 		mv	s2,a0
  20:src/_Console.cpp ****     _Thread::create(nullptr, &putter, _Thread::TOP_PRIORITY, _Thread::SET_START);
 257              		.loc 1 20 20
 258 01ec 13850400 		mv	a0,s1
GAS LISTING /tmp/ccrDlfhX.s 			page 8


 259 01f0 97000000 		call	_ZN4_SemdlEPv@plt
 259      E7800000 
 260              	.LVL26:
 261 01f8 13050900 		mv	a0,s2
 262              	.LEHB12:
 263 01fc 97000000 		call	_Unwind_Resume@plt
 263      E7800000 
 264              	.LVL27:
 265              	.LEHE12:
 266              		.cfi_endproc
 267              	.LFE6:
 268              		.globl	__gxx_personality_v0
 269              		.section	.gcc_except_table,"a",@progbits
 270              	.LLSDA6:
 271 0000 FF       		.byte	0xff
 272 0001 FF       		.byte	0xff
 273 0002 03       		.byte	0x3
 274 0003 A901     		.byte	0xa9,0x1
 275 0005 00000000 		.4byte	.LEHB0-.LFB6
 276 0009 00000000 		.4byte	.LEHE0-.LEHB0
 277 000d 00000000 		.4byte	0
 278 0011 00       		.byte	0
 279 0012 00000000 		.4byte	.LEHB1-.LFB6
 280 0016 00000000 		.4byte	.LEHE1-.LEHB1
 281 001a 00000000 		.4byte	.L16-.LFB6
 282 001e 00       		.byte	0
 283 001f 00000000 		.4byte	.LEHB2-.LFB6
 284 0023 00000000 		.4byte	.LEHE2-.LEHB2
 285 0027 00000000 		.4byte	0
 286 002b 00       		.byte	0
 287 002c 00000000 		.4byte	.LEHB3-.LFB6
 288 0030 00000000 		.4byte	.LEHE3-.LEHB3
 289 0034 00000000 		.4byte	.L17-.LFB6
 290 0038 00       		.byte	0
 291 0039 00000000 		.4byte	.LEHB4-.LFB6
 292 003d 00000000 		.4byte	.LEHE4-.LEHB4
 293 0041 00000000 		.4byte	0
 294 0045 00       		.byte	0
 295 0046 00000000 		.4byte	.LEHB5-.LFB6
 296 004a 00000000 		.4byte	.LEHE5-.LEHB5
 297 004e 00000000 		.4byte	.L18-.LFB6
 298 0052 00       		.byte	0
 299 0053 00000000 		.4byte	.LEHB6-.LFB6
 300 0057 00000000 		.4byte	.LEHE6-.LEHB6
 301 005b 00000000 		.4byte	0
 302 005f 00       		.byte	0
 303 0060 00000000 		.4byte	.LEHB7-.LFB6
 304 0064 00000000 		.4byte	.LEHE7-.LEHB7
 305 0068 00000000 		.4byte	.L19-.LFB6
 306 006c 00       		.byte	0
 307 006d 00000000 		.4byte	.LEHB8-.LFB6
 308 0071 00000000 		.4byte	.LEHE8-.LEHB8
 309 0075 00000000 		.4byte	0
 310 0079 00       		.byte	0
 311 007a 00000000 		.4byte	.LEHB9-.LFB6
 312 007e 00000000 		.4byte	.LEHE9-.LEHB9
 313 0082 00000000 		.4byte	0
GAS LISTING /tmp/ccrDlfhX.s 			page 9


 314 0086 00       		.byte	0
 315 0087 00000000 		.4byte	.LEHB10-.LFB6
 316 008b 00000000 		.4byte	.LEHE10-.LEHB10
 317 008f 00000000 		.4byte	0
 318 0093 00       		.byte	0
 319 0094 00000000 		.4byte	.LEHB11-.LFB6
 320 0098 00000000 		.4byte	.LEHE11-.LEHB11
 321 009c 00000000 		.4byte	0
 322 00a0 00       		.byte	0
 323 00a1 00000000 		.4byte	.LEHB12-.LFB6
 324 00a5 00000000 		.4byte	.LEHE12-.LEHB12
 325 00a9 00000000 		.4byte	0
 326 00ad 00       		.byte	0
 327              		.text
 329              		.align	2
 330              		.globl	_ZN8_Console4putcEc
 332              	_ZN8_Console4putcEc:
 333              	.LFB7:
  24:src/_Console.cpp ****     buffout->put(c);
 334              		.loc 1 24 29 is_stmt 1
 335              		.cfi_startproc
 336              	.LVL28:
 337 0204 130101FE 		addi	sp,sp,-32
 338              		.cfi_def_cfa_offset 32
 339 0208 233C1100 		sd	ra,24(sp)
 340 020c 23388100 		sd	s0,16(sp)
 341 0210 23349100 		sd	s1,8(sp)
 342              		.cfi_offset 1, -8
 343              		.cfi_offset 8, -16
 344              		.cfi_offset 9, -24
 345 0214 13040102 		addi	s0,sp,32
 346              		.cfi_def_cfa 8, 0
 347 0218 93050500 		mv	a1,a0
  25:src/_Console.cpp ****     go->signal();
 348              		.loc 1 25 5
  25:src/_Console.cpp ****     go->signal();
 349              		.loc 1 25 17 is_stmt 0
 350 021c 97040000 		lla	s1,.LANCHOR0
 350      93840400 
 351 0224 03B58400 		ld	a0,8(s1)
 352              	.LVL29:
 353 0228 97000000 		call	_ZN7_Buffer3putEc@plt
 353      E7800000 
 354              	.LVL30:
  26:src/_Console.cpp ****     _Thread::dispatch();
 355              		.loc 1 26 5 is_stmt 1
  26:src/_Console.cpp ****     _Thread::dispatch();
 356              		.loc 1 26 15 is_stmt 0
 357 0230 03B50400 		ld	a0,0(s1)
 358 0234 97000000 		call	_ZN4_Sem6signalEv@plt
 358      E7800000 
 359              	.LVL31:
  27:src/_Console.cpp **** }
 360              		.loc 1 27 5 is_stmt 1
  27:src/_Console.cpp **** }
 361              		.loc 1 27 22 is_stmt 0
 362 023c 97000000 		call	_ZN7_Thread8dispatchEv@plt
GAS LISTING /tmp/ccrDlfhX.s 			page 10


 362      E7800000 
 363              	.LVL32:
  28:src/_Console.cpp **** char _Console::getc() {
 364              		.loc 1 28 1
 365 0244 83308101 		ld	ra,24(sp)
 366              		.cfi_restore 1
 367 0248 03340101 		ld	s0,16(sp)
 368              		.cfi_restore 8
 369              		.cfi_def_cfa 2, 32
 370 024c 83348100 		ld	s1,8(sp)
 371              		.cfi_restore 9
 372 0250 13010102 		addi	sp,sp,32
 373              		.cfi_def_cfa_offset 0
 374 0254 67800000 		jr	ra
 375              		.cfi_endproc
 376              	.LFE7:
 378              		.align	2
 379              		.globl	_ZN8_Console4getcEv
 381              	_ZN8_Console4getcEv:
 382              	.LFB8:
  29:src/_Console.cpp ****     return buffin->get();
 383              		.loc 1 29 23 is_stmt 1
 384              		.cfi_startproc
 385 0258 130101FF 		addi	sp,sp,-16
 386              		.cfi_def_cfa_offset 16
 387 025c 23341100 		sd	ra,8(sp)
 388 0260 23308100 		sd	s0,0(sp)
 389              		.cfi_offset 1, -8
 390              		.cfi_offset 8, -16
 391 0264 13040101 		addi	s0,sp,16
 392              		.cfi_def_cfa 8, 0
  30:src/_Console.cpp **** }
 393              		.loc 1 30 5
  30:src/_Console.cpp **** }
 394              		.loc 1 30 23 is_stmt 0
 395 0268 17050000 		ld	a0,.LANCHOR0+24
 395      03350500 
 396 0270 97000000 		call	_ZN7_Buffer3getEv@plt
 396      E7800000 
 397              	.LVL33:
  31:src/_Console.cpp **** 
 398              		.loc 1 31 1
 399 0278 83308100 		ld	ra,8(sp)
 400              		.cfi_restore 1
 401 027c 03340100 		ld	s0,0(sp)
 402              		.cfi_restore 8
 403              		.cfi_def_cfa 2, 16
 404 0280 13010101 		addi	sp,sp,16
 405              		.cfi_def_cfa_offset 0
 406 0284 67800000 		jr	ra
 407              		.cfi_endproc
 408              	.LFE8:
 410              		.align	2
 411              		.globl	_ZN8_Console6handleEv
 413              	_ZN8_Console6handleEv:
 414              	.LFB9:
  33:src/_Console.cpp ****     char status;
GAS LISTING /tmp/ccrDlfhX.s 			page 11


 415              		.loc 1 33 25 is_stmt 1
 416              		.cfi_startproc
 417 0288 130101FF 		addi	sp,sp,-16
 418              		.cfi_def_cfa_offset 16
 419 028c 23341100 		sd	ra,8(sp)
 420 0290 23308100 		sd	s0,0(sp)
 421              		.cfi_offset 1, -8
 422              		.cfi_offset 8, -16
 423 0294 13040101 		addi	s0,sp,16
 424              		.cfi_def_cfa 8, 0
 425              	.L28:
  34:src/_Console.cpp ****     while (1) {
 426              		.loc 1 34 5
  35:src/_Console.cpp ****         if (buffin->full()) break;//kod punog bafera se samo odlaze ucitavanje
 427              		.loc 1 35 5
 428              	.LBB6:
  36:src/_Console.cpp ****         status = *(char*)CONSOLE_STATUS;
 429              		.loc 1 36 9
  36:src/_Console.cpp ****         status = *(char*)CONSOLE_STATUS;
 430              		.loc 1 36 25 is_stmt 0
 431 0298 17050000 		ld	a0,.LANCHOR0+24
 431      03350500 
 432 02a0 97000000 		call	_ZN7_Buffer4fullEv@plt
 432      E7800000 
 433              	.LVL34:
  36:src/_Console.cpp ****         status = *(char*)CONSOLE_STATUS;
 434              		.loc 1 36 9
 435 02a8 63100504 		bnez	a0,.L27
  37:src/_Console.cpp ****         if (!(status & CONSOLE_RX_STATUS_BIT)) break;
 436              		.loc 1 37 9 is_stmt 1
  37:src/_Console.cpp ****         if (!(status & CONSOLE_RX_STATUS_BIT)) break;
 437              		.loc 1 37 18 is_stmt 0
 438 02ac 97070000 		la	a5,CONSOLE_STATUS
 438      83B70700 
 439 02b4 83B70700 		ld	a5,0(a5)
  37:src/_Console.cpp ****         if (!(status & CONSOLE_RX_STATUS_BIT)) break;
 440              		.loc 1 37 16
 441 02b8 83C70700 		lbu	a5,0(a5)
 442              	.LVL35:
  38:src/_Console.cpp ****         char c = *(char*)CONSOLE_RX_DATA;
 443              		.loc 1 38 9 is_stmt 1
 444 02bc 93F71700 		andi	a5,a5,1
 445              	.LVL36:
 446 02c0 63840702 		beqz	a5,.L27
  39:src/_Console.cpp ****         buffin->put(c);
 447              		.loc 1 39 9
  39:src/_Console.cpp ****         buffin->put(c);
 448              		.loc 1 39 18 is_stmt 0
 449 02c4 97070000 		la	a5,CONSOLE_RX_DATA
 449      83B70700 
 450 02cc 83B70700 		ld	a5,0(a5)
 451              	.LVL37:
  40:src/_Console.cpp ****     }
 452              		.loc 1 40 9 is_stmt 1
  40:src/_Console.cpp ****     }
 453              		.loc 1 40 20 is_stmt 0
 454 02d0 83C50700 		lbu	a1,0(a5)
GAS LISTING /tmp/ccrDlfhX.s 			page 12


 455 02d4 17050000 		ld	a0,.LANCHOR0+24
 455      03350500 
 456 02dc 97000000 		call	_ZN7_Buffer3putEc@plt
 456      E7800000 
 457              	.LVL38:
 458              	.LBE6:
  35:src/_Console.cpp ****         if (buffin->full()) break;//kod punog bafera se samo odlaze ucitavanje
 459              		.loc 1 35 5 is_stmt 1
  41:src/_Console.cpp ****     status = *(char*)CONSOLE_STATUS;
 460              		.loc 1 41 5 is_stmt 0
 461 02e4 6FF05FFB 		j	.L28
 462              	.L27:
  42:src/_Console.cpp ****     if (status & CONSOLE_TX_STATUS_BIT) {
 463              		.loc 1 42 5 is_stmt 1
  42:src/_Console.cpp ****     if (status & CONSOLE_TX_STATUS_BIT) {
 464              		.loc 1 42 14 is_stmt 0
 465 02e8 97070000 		la	a5,CONSOLE_STATUS
 465      83B70700 
 466 02f0 83B70700 		ld	a5,0(a5)
  42:src/_Console.cpp ****     if (status & CONSOLE_TX_STATUS_BIT) {
 467              		.loc 1 42 12
 468 02f4 83C70700 		lbu	a5,0(a5)
 469              	.LVL39:
  43:src/_Console.cpp ****         ready->signalEvent();
 470              		.loc 1 43 5 is_stmt 1
 471 02f8 93F70702 		andi	a5,a5,32
 472              	.LVL40:
 473 02fc 63900702 		bnez	a5,.L31
 474              	.LVL41:
 475              	.L29:
  46:src/_Console.cpp ****     return;
 476              		.loc 1 46 5
  46:src/_Console.cpp ****     return;
 477              		.loc 1 46 18 is_stmt 0
 478 0300 1305A000 		li	a0,10
 479 0304 97000000 		call	plic_complete@plt
 479      E7800000 
 480              	.LVL42:
  47:src/_Console.cpp **** }
 481              		.loc 1 47 5 is_stmt 1
  48:src/_Console.cpp **** 
 482              		.loc 1 48 1 is_stmt 0
 483 030c 83308100 		ld	ra,8(sp)
 484              		.cfi_remember_state
 485              		.cfi_restore 1
 486 0310 03340100 		ld	s0,0(sp)
 487              		.cfi_restore 8
 488              		.cfi_def_cfa 2, 16
 489 0314 13010101 		addi	sp,sp,16
 490              		.cfi_def_cfa_offset 0
 491 0318 67800000 		jr	ra
 492              	.LVL43:
 493              	.L31:
 494              		.cfi_restore_state
  44:src/_Console.cpp ****     }
 495              		.loc 1 44 9 is_stmt 1
  44:src/_Console.cpp ****     }
GAS LISTING /tmp/ccrDlfhX.s 			page 13


 496              		.loc 1 44 27 is_stmt 0
 497 031c 17050000 		ld	a0,.LANCHOR0+16
 497      03350500 
 498 0324 97000000 		call	_ZN4_Sem11signalEventEv@plt
 498      E7800000 
 499              	.LVL44:
 500 032c 6FF05FFD 		j	.L29
 501              		.cfi_endproc
 502              	.LFE9:
 504              		.align	2
 505              		.globl	_ZN8_Console11printStringEPKc
 507              	_ZN8_Console11printStringEPKc:
 508              	.LFB11:
  75:src/_Console.cpp **** 
  76:src/_Console.cpp **** void _Console::printString(const char* s) {
 509              		.loc 1 76 43 is_stmt 1
 510              		.cfi_startproc
 511              	.LVL45:
 512 0330 130101FE 		addi	sp,sp,-32
 513              		.cfi_def_cfa_offset 32
 514 0334 233C1100 		sd	ra,24(sp)
 515 0338 23388100 		sd	s0,16(sp)
 516 033c 23349100 		sd	s1,8(sp)
 517 0340 23302101 		sd	s2,0(sp)
 518              		.cfi_offset 1, -8
 519              		.cfi_offset 8, -16
 520              		.cfi_offset 9, -24
 521              		.cfi_offset 18, -32
 522 0344 13040102 		addi	s0,sp,32
 523              		.cfi_def_cfa 8, 0
 524 0348 93040500 		mv	s1,a0
 525              	.LVL46:
 526              	.L34:
  77:src/_Console.cpp ****     while (*s) {
 527              		.loc 1 77 5
 528              		.loc 1 77 13
 529              		.loc 1 77 12 is_stmt 0
 530 034c 83C50400 		lbu	a1,0(s1)
 531              		.loc 1 77 13
 532 0350 63860502 		beqz	a1,.L33
  78:src/_Console.cpp ****         buffout->put(*s++);
 533              		.loc 1 78 9 is_stmt 1
 534              		.loc 1 78 24 is_stmt 0
 535 0354 93841400 		addi	s1,s1,1
 536              	.LVL47:
 537              		.loc 1 78 21
 538 0358 17090000 		lla	s2,.LANCHOR0
 538      13090900 
 539 0360 03358900 		ld	a0,8(s2)
 540 0364 97000000 		call	_ZN7_Buffer3putEc@plt
 540      E7800000 
 541              	.LVL48:
  79:src/_Console.cpp ****         go->signal();
 542              		.loc 1 79 9 is_stmt 1
 543              		.loc 1 79 19 is_stmt 0
 544 036c 03350900 		ld	a0,0(s2)
 545 0370 97000000 		call	_ZN4_Sem6signalEv@plt
GAS LISTING /tmp/ccrDlfhX.s 			page 14


 545      E7800000 
 546              	.LVL49:
  77:src/_Console.cpp ****     while (*s) {
 547              		.loc 1 77 5
 548 0378 6FF05FFD 		j	.L34
 549              	.L33:
  80:src/_Console.cpp ****     }
  81:src/_Console.cpp ****     _Thread::dispatch();
 550              		.loc 1 81 5 is_stmt 1
 551              		.loc 1 81 22 is_stmt 0
 552 037c 97000000 		call	_ZN7_Thread8dispatchEv@plt
 552      E7800000 
 553              	.LVL50:
  82:src/_Console.cpp **** }
 554              		.loc 1 82 1
 555 0384 83308101 		ld	ra,24(sp)
 556              		.cfi_restore 1
 557 0388 03340101 		ld	s0,16(sp)
 558              		.cfi_restore 8
 559              		.cfi_def_cfa 2, 32
 560 038c 83348100 		ld	s1,8(sp)
 561              		.cfi_restore 9
 562              	.LVL51:
 563 0390 03390100 		ld	s2,0(sp)
 564              		.cfi_restore 18
 565 0394 13010102 		addi	sp,sp,32
 566              		.cfi_def_cfa_offset 0
 567 0398 67800000 		jr	ra
 568              		.cfi_endproc
 569              	.LFE11:
 571              		.align	2
 572              		.globl	_ZN8_Console8printNumEm
 574              	_ZN8_Console8printNumEm:
 575              	.LFB12:
  83:src/_Console.cpp **** void _Console::printNum(uint64 x) {
 576              		.loc 1 83 35 is_stmt 1
 577              		.cfi_startproc
 578              	.LVL52:
 579 039c 130101FB 		addi	sp,sp,-80
 580              		.cfi_def_cfa_offset 80
 581 03a0 23341104 		sd	ra,72(sp)
 582 03a4 23308104 		sd	s0,64(sp)
 583              		.cfi_offset 1, -8
 584              		.cfi_offset 8, -16
 585 03a8 13040105 		addi	s0,sp,80
 586              		.cfi_def_cfa 8, 0
  84:src/_Console.cpp ****     if (x == 0) {putc('0'); return; }
 587              		.loc 1 84 5
 588 03ac 63080502 		beqz	a0,.L44
  85:src/_Console.cpp ****     char buff[30];
  86:src/_Console.cpp ****     int i = 0;
 589              		.loc 1 86 9 is_stmt 0
 590 03b0 93070000 		li	a5,0
 591              	.L37:
 592              	.LVL53:
  87:src/_Console.cpp ****     while (x) {
 593              		.loc 1 87 5 is_stmt 1
GAS LISTING /tmp/ccrDlfhX.s 			page 15


 594              		.loc 1 87 12
 595 03b4 630C0502 		beqz	a0,.L42
  88:src/_Console.cpp ****         buff[i++] = '0' + x % 10;
 596              		.loc 1 88 9
 597              		.loc 1 88 29 is_stmt 0
 598 03b8 9306A000 		li	a3,10
 599 03bc 3377D502 		remu	a4,a0,a3
 600              	.LVL54:
 601              		.loc 1 88 25
 602 03c0 13070703 		addi	a4,a4,48
 603              		.loc 1 88 19
 604 03c4 130604FF 		addi	a2,s0,-16
 605 03c8 3306F600 		add	a2,a2,a5
 606 03cc 2300E6FE 		sb	a4,-32(a2)
  89:src/_Console.cpp ****         x /= 10;
 607              		.loc 1 89 9 is_stmt 1
 608              		.loc 1 89 11 is_stmt 0
 609 03d0 3355D502 		divu	a0,a0,a3
 610              	.LVL55:
  88:src/_Console.cpp ****         buff[i++] = '0' + x % 10;
 611              		.loc 1 88 15
 612 03d4 9B871700 		addiw	a5,a5,1
 613              	.LVL56:
  87:src/_Console.cpp ****     while (x) {
 614              		.loc 1 87 5
 615 03d8 6FF0DFFD 		j	.L37
 616              	.L44:
  84:src/_Console.cpp ****     char buff[30];
 617              		.loc 1 84 18 is_stmt 1 discriminator 1
  84:src/_Console.cpp ****     char buff[30];
 618              		.loc 1 84 22 is_stmt 0 discriminator 1
 619 03dc 13050003 		li	a0,48
 620              	.LVL57:
 621 03e0 97000000 		call	_ZN8_Console4putcEc
 621      E7800000 
 622              	.LVL58:
  84:src/_Console.cpp ****     char buff[30];
 623              		.loc 1 84 29 is_stmt 1 discriminator 1
 624 03e8 6F00C004 		j	.L36
 625              	.LVL59:
 626              	.L42:
  90:src/_Console.cpp ****     }
  91:src/_Console.cpp ****     char buff2[31]; int j = 0;
 627              		.loc 1 91 25 is_stmt 0
 628 03ec 13070000 		li	a4,0
 629 03f0 6F004002 		j	.L39
 630              	.LVL60:
 631              	.L45:
  92:src/_Console.cpp ****     while (i--) {
  93:src/_Console.cpp ****         buff2[j++] = buff[i];
 632              		.loc 1 93 9 is_stmt 1
 633              		.loc 1 93 28 is_stmt 0
 634 03f4 930704FF 		addi	a5,s0,-16
 635              	.LVL61:
 636 03f8 B387D700 		add	a5,a5,a3
 637 03fc 03C607FE 		lbu	a2,-32(a5)
 638              		.loc 1 93 20
GAS LISTING /tmp/ccrDlfhX.s 			page 16


 639 0400 930704FF 		addi	a5,s0,-16
 640 0404 B387E700 		add	a5,a5,a4
 641 0408 2380C7FC 		sb	a2,-64(a5)
 642              		.loc 1 93 16
 643 040c 1B071700 		addiw	a4,a4,1
 644              	.LVL62:
  92:src/_Console.cpp ****     while (i--) {
 645              		.loc 1 92 13
 646 0410 93870600 		mv	a5,a3
 647              	.L39:
 648              	.LVL63:
  92:src/_Console.cpp ****     while (i--) {
 649              		.loc 1 92 5 is_stmt 1
  92:src/_Console.cpp ****     while (i--) {
 650              		.loc 1 92 13
 651 0414 9B86F7FF 		addiw	a3,a5,-1
 652              	.LVL64:
 653 0418 E39E07FC 		bnez	a5,.L45
  94:src/_Console.cpp ****     }
  95:src/_Console.cpp ****     buff2[j] = '\0';
 654              		.loc 1 95 5
 655              		.loc 1 95 14 is_stmt 0
 656 041c 930704FF 		addi	a5,s0,-16
 657              	.LVL65:
 658 0420 3387E700 		add	a4,a5,a4
 659              	.LVL66:
 660 0424 230007FC 		sb	zero,-64(a4)
  96:src/_Console.cpp ****     printString(buff2);
 661              		.loc 1 96 5 is_stmt 1
 662              		.loc 1 96 16 is_stmt 0
 663 0428 130504FB 		addi	a0,s0,-80
 664              	.LVL67:
 665 042c 97000000 		call	_ZN8_Console11printStringEPKc
 665      E7800000 
 666              	.LVL68:
 667              	.L36:
  97:src/_Console.cpp **** };
 668              		.loc 1 97 1
 669 0434 83308104 		ld	ra,72(sp)
 670              		.cfi_restore 1
 671 0438 03340104 		ld	s0,64(sp)
 672              		.cfi_restore 8
 673              		.cfi_def_cfa 2, 80
 674 043c 13010105 		addi	sp,sp,80
 675              		.cfi_def_cfa_offset 0
 676 0440 67800000 		jr	ra
 677              		.cfi_endproc
 678              	.LFE12:
 680              		.globl	_ZN8_Console2goE
 681              		.globl	_ZN8_Console5readyE
 682              		.globl	_ZN8_Console7buffoutE
 683              		.globl	_ZN8_Console6buffinE
 684              		.bss
 685              		.align	3
 686              		.set	.LANCHOR0,. + 0
 689              	_ZN8_Console2goE:
 690 0000 00000000 		.zero	8
GAS LISTING /tmp/ccrDlfhX.s 			page 17


 690      00000000 
 693              	_ZN8_Console7buffoutE:
 694 0008 00000000 		.zero	8
 694      00000000 
 697              	_ZN8_Console5readyE:
 698 0010 00000000 		.zero	8
 698      00000000 
 701              	_ZN8_Console6buffinE:
 702 0018 00000000 		.zero	8
 702      00000000 
 703              		.text
 704              	.Letext0:
 705              		.file 2 "src/../h/../lib/hw.h"
 706              		.file 3 "src/../h/types.h"
 707              		.file 4 "src/../h/_Thread.h"
 708              		.file 5 "src/../h/_Sem.h"
 709              		.file 6 "src/../h/_slab.h"
 710              		.file 7 "src/../h/_Buffer.h"
 711              		.file 8 "src/../h/_Console.h"
 712              		.file 9 "src/../h/_ThreadList.h"
 713              		.file 10 "src/../h/_SBIT.h"
 4892              		.align	3
 4895              	DW.ref.__gxx_personality_v0:
 4896 0000 00000000 		.dword	__gxx_personality_v0
 4896      00000000 
 4897              		.ident	"GCC: (Ubuntu 9.4.0-1ubuntu1~20.04) 9.4.0"
 4898              		.section	.note.GNU-stack,"",@progbits
GAS LISTING /tmp/ccrDlfhX.s 			page 18

