GAS LISTING /tmp/cch3sy7e.s 			page 1


   1              		.file	"_handle.cpp"
   2              		.option pic
   3              		.option norelax
   4              		.text
   5              	.Ltext0:
   6              		.section	.rodata.str1.8,"aMS",@progbits,1
   7              		.align	3
   8              	.LC0:
   9 0000 4552524F 		.string	"ERROR: Instruction Page Fault!!\n"
   9      523A2049 
   9      6E737472 
   9      75637469 
   9      6F6E2050 
  10 0021 00000000 		.align	3
  10      000000
  11              	.LC1:
  12 0028 4552524F 		.string	"ERROR: Load Page Fault!!\n"
  12      523A204C 
  12      6F616420 
  12      50616765 
  12      20466175 
  13 0042 00000000 		.align	3
  13      0000
  14              	.LC2:
  15 0048 4552524F 		.string	"ERROR: Store Page Fault!!\n"
  15      523A2053 
  15      746F7265 
  15      20506167 
  15      65204661 
  16              		.text
  17              		.align	2
  18              		.globl	_Z7_handlemmmmmmmm
  20              	_Z7_handlemmmmmmmm:
  21              	.LFB6:
  22              		.file 1 "src/_handle.cpp"
   1:src/_handle.cpp **** //
   2:src/_handle.cpp **** // Created by os on 5/3/22.
   3:src/_handle.cpp **** //
   4:src/_handle.cpp **** 
   5:src/_handle.cpp **** //
   6:src/_handle.cpp **** // Created by os on 4/15/22.
   7:src/_handle.cpp **** //
   8:src/_handle.cpp **** #include "../lib/hw.h"
   9:src/_handle.cpp **** //#include "../lib/console.h"
  10:src/_handle.cpp **** #include "../h/_Mem.h"
  11:src/_handle.cpp **** #include "../h/_Thread.h"
  12:src/_handle.cpp **** #include "../h/_Sem.h"
  13:src/_handle.cpp **** #include "../h/_Console.h"
  14:src/_handle.cpp **** #include "../h/_SBIT.h"
  15:src/_handle.cpp **** 
  16:src/_handle.cpp **** #define TIMER 0x8000000000000001UL
  17:src/_handle.cpp **** #define HARDWARE 0x8000000000000009UL
  18:src/_handle.cpp **** #define BADCODE 0X0000000000000002UL
  19:src/_handle.cpp **** #define BADREAD 0x0000000000000005UL
  20:src/_handle.cpp **** #define BADWRITE 0x0000000000000007UL
  21:src/_handle.cpp **** #define ECALL 0x0000000000000008UL
  22:src/_handle.cpp **** #define ECALL2 0x0000000000000009UL
GAS LISTING /tmp/cch3sy7e.s 			page 2


  23:src/_handle.cpp **** #define IPF 0x0CUL
  24:src/_handle.cpp **** #define LPF 0x0DUL
  25:src/_handle.cpp **** #define SPF 0x0FUL
  26:src/_handle.cpp **** 
  27:src/_handle.cpp **** uint64 _handle(uint64 type, uint64 a, uint64 b, uint64 c, uint64 d, uint64 e, uint64 f, uint64 g) {
  23              		.loc 1 27 99
  24              		.cfi_startproc
  25              	.LVL0:
  26 0000 130101FB 		addi	sp,sp,-80
  27              		.cfi_def_cfa_offset 80
  28 0004 23341104 		sd	ra,72(sp)
  29 0008 23308104 		sd	s0,64(sp)
  30 000c 233C9102 		sd	s1,56(sp)
  31 0010 23382103 		sd	s2,48(sp)
  32 0014 23343103 		sd	s3,40(sp)
  33 0018 23304103 		sd	s4,32(sp)
  34 001c 233C5101 		sd	s5,24(sp)
  35 0020 23386101 		sd	s6,16(sp)
  36 0024 23347101 		sd	s7,8(sp)
  37 0028 23308101 		sd	s8,0(sp)
  38              		.cfi_offset 1, -8
  39              		.cfi_offset 8, -16
  40              		.cfi_offset 9, -24
  41              		.cfi_offset 18, -32
  42              		.cfi_offset 19, -40
  43              		.cfi_offset 20, -48
  44              		.cfi_offset 21, -56
  45              		.cfi_offset 22, -64
  46              		.cfi_offset 23, -72
  47              		.cfi_offset 24, -80
  48 002c 13040105 		addi	s0,sp,80
  49              		.cfi_def_cfa 8, 0
  50 0030 138B0700 		mv	s6,a5
  28:src/_handle.cpp ****     uint64 cause;
  51              		.loc 1 28 5
  29:src/_handle.cpp ****     __asm__ volatile("csrr %0, scause" : "=r"(cause));
  52              		.loc 1 29 5
  53              		.loc 1 29 54 is_stmt 0
  54              	#APP
  55              	# 29 "src/_handle.cpp" 1
  30              	    if (cause == TIMER) {
  56              		csrr a5, scause
  57              	# 0 "" 2
  58              	.LVL1:
  59              		.loc 1 30 5 is_stmt 1
  60              	#NO_APP
  61 0038 1303F0FF 		li	t1,-1
  62 003c 1313F303 		slli	t1,t1,63
  63 0040 13031300 		addi	t1,t1,1
  64 0044 638C6704 		beq	a5,t1,.L40
  65 0048 93040500 		mv	s1,a0
  66 004c 13890500 		mv	s2,a1
  67 0050 93090600 		mv	s3,a2
  68 0054 138A0600 		mv	s4,a3
  69 0058 930A0700 		mv	s5,a4
  70 005c 130C0800 		mv	s8,a6
  71 0060 938B0800 		mv	s7,a7
GAS LISTING /tmp/cch3sy7e.s 			page 3


  31:src/_handle.cpp ****         _SBIT::SIP1clear();
  32:src/_handle.cpp ****         _Thread::tick();
  33:src/_handle.cpp ****         return 0;
  34:src/_handle.cpp ****     }
  35:src/_handle.cpp ****     else if (cause == HARDWARE) {
  72              		.loc 1 35 10
  73 0064 1307F0FF 		li	a4,-1
  74              	.LVL2:
  75 0068 1317F703 		slli	a4,a4,63
  76 006c 13079700 		addi	a4,a4,9
  77 0070 6382E704 		beq	a5,a4,.L41
  36:src/_handle.cpp ****         //console_handler();
  37:src/_handle.cpp ****         if (plic_claim() == 10) _Console::handle();//console_handler();//
  38:src/_handle.cpp ****         //ako nije 10? nepoznat prekid
  39:src/_handle.cpp ****         //_Thread::dispatch();//dispatch da bi putter ako je signaliziran odmah uradio svoje...
  40:src/_handle.cpp ****         return 0;
  41:src/_handle.cpp ****     }
  42:src/_handle.cpp ****     else if (cause == IPF || cause == LPF || cause == SPF) {
  78              		.loc 1 42 10
  79              		.loc 1 42 27 is_stmt 0
  80 0074 138747FF 		addi	a4,a5,-12
  81              		.loc 1 42 10
  82 0078 93061000 		li	a3,1
  83              	.LVL3:
  84 007c 63FEE604 		bleu	a4,a3,.L6
  85              		.loc 1 42 43 discriminator 1
  86 0080 1307F000 		li	a4,15
  87 0084 638AE704 		beq	a5,a4,.L6
  43:src/_handle.cpp ****         if (cause == IPF) _Console::printString("ERROR: Instruction Page Fault!!\n");
  44:src/_handle.cpp ****         else if (cause == LPF) _Console::printString("ERROR: Load Page Fault!!\n");
  45:src/_handle.cpp ****         else _Console::printString("ERROR: Store Page Fault!!\n");
  46:src/_handle.cpp ****         _Thread::abort();
  47:src/_handle.cpp ****     }
  48:src/_handle.cpp ****     else if (cause != ECALL && cause != ECALL2) {
  88              		.loc 1 48 10 is_stmt 1
  89              		.loc 1 48 29 is_stmt 0
  90 0088 938787FF 		addi	a5,a5,-8
  91              	.LVL4:
  92              		.loc 1 48 10
  93 008c 13071000 		li	a4,1
  94 0090 6378F706 		bleu	a5,a4,.L11
  49:src/_handle.cpp ****         //NEPREDVIDJENI PREKIDI
  50:src/_handle.cpp ****         return 0;
  95              		.loc 1 50 16
  96 0094 13050000 		li	a0,0
  97              	.LVL5:
  98 0098 6F00802B 		j	.L1
  99              	.LVL6:
 100              	.L40:
  31:src/_handle.cpp ****         _Thread::tick();
 101              		.loc 1 31 9 is_stmt 1
  31:src/_handle.cpp ****         _Thread::tick();
 102              		.loc 1 31 25 is_stmt 0
 103 009c 97000000 		call	_ZN5_SBIT9SIP1clearEv@plt
 103      E7800000 
 104              	.LVL7:
  32:src/_handle.cpp ****         return 0;
GAS LISTING /tmp/cch3sy7e.s 			page 4


 105              		.loc 1 32 9 is_stmt 1
  32:src/_handle.cpp ****         return 0;
 106              		.loc 1 32 22 is_stmt 0
 107 00a4 97000000 		call	_ZN7_Thread4tickEv@plt
 107      E7800000 
 108              	.LVL8:
  33:src/_handle.cpp ****     }
 109              		.loc 1 33 9 is_stmt 1
  33:src/_handle.cpp ****     }
 110              		.loc 1 33 16 is_stmt 0
 111 00ac 13050000 		li	a0,0
 112 00b0 6F00002A 		j	.L1
 113              	.LVL9:
 114              	.L41:
  37:src/_handle.cpp ****         //ako nije 10? nepoznat prekid
 115              		.loc 1 37 9 is_stmt 1
  37:src/_handle.cpp ****         //ako nije 10? nepoznat prekid
 116              		.loc 1 37 23 is_stmt 0
 117 00b4 97000000 		call	plic_claim@plt
 117      E7800000 
 118              	.LVL10:
  37:src/_handle.cpp ****         //ako nije 10? nepoznat prekid
 119              		.loc 1 37 9
 120 00bc 9307A000 		li	a5,10
 121 00c0 6306F500 		beq	a0,a5,.L42
 122              	.L5:
  40:src/_handle.cpp ****     }
 123              		.loc 1 40 9 is_stmt 1
  40:src/_handle.cpp ****     }
 124              		.loc 1 40 16 is_stmt 0
 125 00c4 13050000 		li	a0,0
 126 00c8 6F008028 		j	.L1
 127              	.L42:
  37:src/_handle.cpp ****         //ako nije 10? nepoznat prekid
 128              		.loc 1 37 33 is_stmt 1 discriminator 1
  37:src/_handle.cpp ****         //ako nije 10? nepoznat prekid
 129              		.loc 1 37 49 is_stmt 0 discriminator 1
 130 00cc 97000000 		call	_ZN8_Console6handleEv@plt
 130      E7800000 
 131              	.LVL11:
 132 00d4 6FF01FFF 		j	.L5
 133              	.LVL12:
 134              	.L6:
  43:src/_handle.cpp ****         else if (cause == LPF) _Console::printString("ERROR: Load Page Fault!!\n");
 135              		.loc 1 43 9 is_stmt 1
 136 00d8 1307C000 		li	a4,12
 137 00dc 6386E704 		beq	a5,a4,.L43
  44:src/_handle.cpp ****         else _Console::printString("ERROR: Store Page Fault!!\n");
 138              		.loc 1 44 14
 139 00e0 1307D000 		li	a4,13
 140 00e4 638CE704 		beq	a5,a4,.L44
  45:src/_handle.cpp ****         _Thread::abort();
 141              		.loc 1 45 14
  45:src/_handle.cpp ****         _Thread::abort();
 142              		.loc 1 45 35 is_stmt 0
 143 00e8 17050000 		lla	a0,.LC2
 143      13050500 
GAS LISTING /tmp/cch3sy7e.s 			page 5


 144 00f0 97000000 		call	_ZN8_Console11printStringEPKc@plt
 144      E7800000 
 145              	.LVL13:
 146              	.L9:
  46:src/_handle.cpp ****     }
 147              		.loc 1 46 9 is_stmt 1
  46:src/_handle.cpp ****     }
 148              		.loc 1 46 23 is_stmt 0
 149 00f8 97000000 		call	_ZN7_Thread5abortEv@plt
 149      E7800000 
 150              	.LVL14:
 151              	.L11:
  51:src/_handle.cpp ****     }
  52:src/_handle.cpp ****     //softverski prekid
  53:src/_handle.cpp ****     __asm__ volatile("csrc sip, 0x2");
 152              		.loc 1 53 5 is_stmt 1
 153              		.loc 1 53 38 is_stmt 0
 154              	#APP
 155              	# 53 "src/_handle.cpp" 1
  54              	    switch(type) {
 156              		csrc sip, 0x2
 157              	# 0 "" 2
 158              		.loc 1 54 5 is_stmt 1
 159              	#NO_APP
 160 0104 93072004 		li	a5,66
 161 0108 63E29724 		bgtu	s1,a5,.L38
 162 010c 93942400 		slli	s1,s1,2
 163              	.LVL15:
 164 0110 17070000 		lla	a4,.L13
 164      13070700 
 165 0118 B384E400 		add	s1,s1,a4
 166 011c 83A70400 		lw	a5,0(s1)
 167 0120 B387E700 		add	a5,a5,a4
 168 0124 67800700 		jr	a5
 169              		.section	.rodata
 170              		.align	2
 171              		.align	2
 172              	.L13:
 173 0000 00000000 		.word	.L38-.L13
 174 0004 00000000 		.word	.L36-.L13
 175 0008 00000000 		.word	.L35-.L13
 176 000c 00000000 		.word	.L38-.L13
 177 0010 00000000 		.word	.L38-.L13
 178 0014 00000000 		.word	.L38-.L13
 179 0018 00000000 		.word	.L38-.L13
 180 001c 00000000 		.word	.L38-.L13
 181 0020 00000000 		.word	.L38-.L13
 182 0024 00000000 		.word	.L38-.L13
 183 0028 00000000 		.word	.L38-.L13
 184 002c 00000000 		.word	.L38-.L13
 185 0030 00000000 		.word	.L38-.L13
 186 0034 00000000 		.word	.L38-.L13
 187 0038 00000000 		.word	.L38-.L13
 188 003c 00000000 		.word	.L38-.L13
 189 0040 00000000 		.word	.L38-.L13
 190 0044 00000000 		.word	.L34-.L13
 191 0048 00000000 		.word	.L33-.L13
GAS LISTING /tmp/cch3sy7e.s 			page 6


 192 004c 00000000 		.word	.L32-.L13
 193 0050 00000000 		.word	.L31-.L13
 194 0054 00000000 		.word	.L30-.L13
 195 0058 00000000 		.word	.L29-.L13
 196 005c 00000000 		.word	.L28-.L13
 197 0060 00000000 		.word	.L27-.L13
 198 0064 00000000 		.word	.L26-.L13
 199 0068 00000000 		.word	.L38-.L13
 200 006c 00000000 		.word	.L38-.L13
 201 0070 00000000 		.word	.L38-.L13
 202 0074 00000000 		.word	.L38-.L13
 203 0078 00000000 		.word	.L38-.L13
 204 007c 00000000 		.word	.L38-.L13
 205 0080 00000000 		.word	.L38-.L13
 206 0084 00000000 		.word	.L25-.L13
 207 0088 00000000 		.word	.L24-.L13
 208 008c 00000000 		.word	.L23-.L13
 209 0090 00000000 		.word	.L22-.L13
 210 0094 00000000 		.word	.L21-.L13
 211 0098 00000000 		.word	.L20-.L13
 212 009c 00000000 		.word	.L19-.L13
 213 00a0 00000000 		.word	.L18-.L13
 214 00a4 00000000 		.word	.L17-.L13
 215 00a8 00000000 		.word	.L38-.L13
 216 00ac 00000000 		.word	.L38-.L13
 217 00b0 00000000 		.word	.L38-.L13
 218 00b4 00000000 		.word	.L38-.L13
 219 00b8 00000000 		.word	.L38-.L13
 220 00bc 00000000 		.word	.L38-.L13
 221 00c0 00000000 		.word	.L38-.L13
 222 00c4 00000000 		.word	.L16-.L13
 223 00c8 00000000 		.word	.L15-.L13
 224 00cc 00000000 		.word	.L38-.L13
 225 00d0 00000000 		.word	.L38-.L13
 226 00d4 00000000 		.word	.L38-.L13
 227 00d8 00000000 		.word	.L38-.L13
 228 00dc 00000000 		.word	.L38-.L13
 229 00e0 00000000 		.word	.L38-.L13
 230 00e4 00000000 		.word	.L38-.L13
 231 00e8 00000000 		.word	.L38-.L13
 232 00ec 00000000 		.word	.L38-.L13
 233 00f0 00000000 		.word	.L38-.L13
 234 00f4 00000000 		.word	.L38-.L13
 235 00f8 00000000 		.word	.L38-.L13
 236 00fc 00000000 		.word	.L38-.L13
 237 0100 00000000 		.word	.L38-.L13
 238 0104 00000000 		.word	.L14-.L13
 239 0108 00000000 		.word	.L12-.L13
 240              		.text
 241              	.LVL16:
 242              	.L43:
  43:src/_handle.cpp ****         else if (cause == LPF) _Console::printString("ERROR: Load Page Fault!!\n");
 243              		.loc 1 43 27 discriminator 1
  43:src/_handle.cpp ****         else if (cause == LPF) _Console::printString("ERROR: Load Page Fault!!\n");
 244              		.loc 1 43 48 is_stmt 0 discriminator 1
 245 0128 17050000 		lla	a0,.LC0
 245      13050500 
GAS LISTING /tmp/cch3sy7e.s 			page 7


 246 0130 97000000 		call	_ZN8_Console11printStringEPKc@plt
 246      E7800000 
 247              	.LVL17:
 248 0138 6FF01FFC 		j	.L9
 249              	.LVL18:
 250              	.L44:
  44:src/_handle.cpp ****         else _Console::printString("ERROR: Store Page Fault!!\n");
 251              		.loc 1 44 32 is_stmt 1 discriminator 1
  44:src/_handle.cpp ****         else _Console::printString("ERROR: Store Page Fault!!\n");
 252              		.loc 1 44 53 is_stmt 0 discriminator 1
 253 013c 17050000 		lla	a0,.LC1
 253      13050500 
 254 0144 97000000 		call	_ZN8_Console11printStringEPKc@plt
 254      E7800000 
 255              	.LVL19:
 256 014c 6FF0DFFA 		j	.L9
 257              	.LVL20:
 258              	.L36:
  55:src/_handle.cpp ****         case 0x01:
 259              		.loc 1 55 9 is_stmt 1
  56:src/_handle.cpp ****             return (uint64)_Mem::allocate((size_t)a);
 260              		.loc 1 56 13
 261              		.loc 1 56 42 is_stmt 0
 262 0150 13050900 		mv	a0,s2
 263 0154 97000000 		call	_ZN4_Mem8allocateEm@plt
 263      E7800000 
 264              	.LVL21:
 265              		.loc 1 56 52
 266 015c 6F00401F 		j	.L1
 267              	.L35:
  57:src/_handle.cpp ****         case 0x02:
 268              		.loc 1 57 9 is_stmt 1
  58:src/_handle.cpp ****             return _Mem::free((void*)a);
 269              		.loc 1 58 13
 270              		.loc 1 58 30 is_stmt 0
 271 0160 13050900 		mv	a0,s2
 272 0164 97000000 		call	_ZN4_Mem4freeEPv@plt
 272      E7800000 
 273              	.LVL22:
 274              		.loc 1 58 39
 275 016c 6F00401E 		j	.L1
 276              	.L34:
  59:src/_handle.cpp **** 
  60:src/_handle.cpp ****         case 0x11:
 277              		.loc 1 60 9 is_stmt 1
  61:src/_handle.cpp ****             return _Thread::create((thread_t *) a, (void* (*)(void *)) b, (void *) c, (void *) d, (
 278              		.loc 1 61 13
 279              		.loc 1 61 35 is_stmt 0
 280 0170 1B050C00 		sext.w	a0,s8
 281 0174 97000000 		call	_ZN7_Thread9normalizeEi@plt
 281      E7800000 
 282              	.LVL23:
 283 017c 93070500 		mv	a5,a0
 284 0180 1B880B00 		sext.w	a6,s7
 285 0184 13070B00 		mv	a4,s6
 286 0188 93860A00 		mv	a3,s5
 287 018c 13060A00 		mv	a2,s4
GAS LISTING /tmp/cch3sy7e.s 			page 8


 288 0190 93850900 		mv	a1,s3
 289 0194 13050900 		mv	a0,s2
 290 0198 97000000 		call	_ZN7_Thread6createEPPS_PFPvS2_ES2_S2_mii@plt
 290      E7800000 
 291              	.LVL24:
  62:src/_handle.cpp ****                                        _Thread::normalize((int) f), (int) (g));
 292              		.loc 1 62 78
 293 01a0 6F00001B 		j	.L1
 294              	.L33:
  63:src/_handle.cpp ****         case 0x12:
 295              		.loc 1 63 9 is_stmt 1
  64:src/_handle.cpp ****             return _Thread::create((thread_t *) a, (void (*)(void *)) b, (void *) c, (void *) d, (s
 296              		.loc 1 64 13
 297              		.loc 1 64 35 is_stmt 0
 298 01a4 1B050C00 		sext.w	a0,s8
 299 01a8 97000000 		call	_ZN7_Thread9normalizeEi@plt
 299      E7800000 
 300              	.LVL25:
 301 01b0 93070500 		mv	a5,a0
 302 01b4 1B880B00 		sext.w	a6,s7
 303 01b8 13070B00 		mv	a4,s6
 304 01bc 93860A00 		mv	a3,s5
 305 01c0 13060A00 		mv	a2,s4
 306 01c4 93850900 		mv	a1,s3
 307 01c8 13050900 		mv	a0,s2
 308 01cc 97000000 		call	_ZN7_Thread6createEPPS_PFvPvES2_S2_mii@plt
 308      E7800000 
 309              	.LVL26:
  65:src/_handle.cpp ****                                    _Thread::normalize((int) f), (int) (g));
 310              		.loc 1 65 74
 311 01d4 6F00C017 		j	.L1
 312              	.L32:
  66:src/_handle.cpp ****         case 0x13:
 313              		.loc 1 66 9 is_stmt 1
  67:src/_handle.cpp ****             return _Thread::exit((void*)a);
 314              		.loc 1 67 13
 315              		.loc 1 67 33 is_stmt 0
 316 01d8 13050900 		mv	a0,s2
 317 01dc 97000000 		call	_ZN7_Thread4exitEPv@plt
 317      E7800000 
 318              	.LVL27:
 319              		.loc 1 67 42
 320 01e4 6F00C016 		j	.L1
 321              	.L31:
  68:src/_handle.cpp ****         case 0x14:
 322              		.loc 1 68 9 is_stmt 1
  69:src/_handle.cpp ****             _Thread::dispatch();
 323              		.loc 1 69 13
 324              		.loc 1 69 30 is_stmt 0
 325 01e8 97000000 		call	_ZN7_Thread8dispatchEv@plt
 325      E7800000 
 326              	.LVL28:
  70:src/_handle.cpp ****             return 0;
 327              		.loc 1 70 13 is_stmt 1
 328              		.loc 1 70 20 is_stmt 0
 329 01f0 13050000 		li	a0,0
 330 01f4 6F00C015 		j	.L1
GAS LISTING /tmp/cch3sy7e.s 			page 9


 331              	.L30:
  71:src/_handle.cpp ****         case 0x15:
 332              		.loc 1 71 9 is_stmt 1
  72:src/_handle.cpp ****             return ((thread_t)a)->start();
 333              		.loc 1 72 13
 334              		.loc 1 72 40 is_stmt 0
 335 01f8 13050900 		mv	a0,s2
 336 01fc 97000000 		call	_ZN7_Thread5startEv@plt
 336      E7800000 
 337              	.LVL29:
 338              		.loc 1 72 41
 339 0204 6F00C014 		j	.L1
 340              	.L29:
  73:src/_handle.cpp ****         case 0x16:
 341              		.loc 1 73 9 is_stmt 1
  74:src/_handle.cpp ****             return ((thread_t)a)->join((void**)b);
 342              		.loc 1 74 13
 343              		.loc 1 74 39 is_stmt 0
 344 0208 93850900 		mv	a1,s3
 345 020c 13050900 		mv	a0,s2
 346 0210 97000000 		call	_ZN7_Thread4joinEPPv@plt
 346      E7800000 
 347              	.LVL30:
 348              		.loc 1 74 49
 349 0218 6F008013 		j	.L1
 350              	.L28:
  75:src/_handle.cpp ****         case 0x17:
 351              		.loc 1 75 9 is_stmt 1
  76:src/_handle.cpp ****             return ((thread_t) a)->joinLimit((void **) b, (time_t) c);
 352              		.loc 1 76 13
 353              		.loc 1 76 45 is_stmt 0
 354 021c 13060A00 		mv	a2,s4
 355 0220 93850900 		mv	a1,s3
 356 0224 13050900 		mv	a0,s2
 357 0228 97000000 		call	_ZN7_Thread9joinLimitEPPvm@plt
 357      E7800000 
 358              	.LVL31:
 359              		.loc 1 76 69
 360 0230 6F000012 		j	.L1
 361              	.L27:
  77:src/_handle.cpp ****         case 0x18:
 362              		.loc 1 77 9 is_stmt 1
  78:src/_handle.cpp ****             return ((thread_t)a)->interrupt();
 363              		.loc 1 78 13
 364              		.loc 1 78 44 is_stmt 0
 365 0234 13050900 		mv	a0,s2
 366 0238 97000000 		call	_ZN7_Thread9interruptEv@plt
 366      E7800000 
 367              	.LVL32:
 368              		.loc 1 78 45
 369 0240 6F000011 		j	.L1
 370              	.L26:
  79:src/_handle.cpp ****         case 0x19:
 371              		.loc 1 79 9 is_stmt 1
  80:src/_handle.cpp ****             return _Thread::running->interrupted();
 372              		.loc 1 80 13
 373              		.loc 1 80 49 is_stmt 0
GAS LISTING /tmp/cch3sy7e.s 			page 10


 374 0244 97070000 		la	a5,_ZN7_Thread7runningE
 374      83B70700 
 375 024c 03B50700 		ld	a0,0(a5)
 376 0250 97000000 		call	_ZN7_Thread11interruptedEv@plt
 376      E7800000 
 377              	.LVL33:
 378              		.loc 1 80 50
 379 0258 6F00800F 		j	.L1
 380              	.L25:
  81:src/_handle.cpp **** 
  82:src/_handle.cpp ****         case 0x21:
 381              		.loc 1 82 9 is_stmt 1
  83:src/_handle.cpp ****             return _Sem::open((sem_t*)a, (unsigned)b);
 382              		.loc 1 83 13
 383              		.loc 1 83 30 is_stmt 0
 384 025c 9B850900 		sext.w	a1,s3
 385 0260 13050900 		mv	a0,s2
 386 0264 97000000 		call	_ZN4_Sem4openEPPS_j@plt
 386      E7800000 
 387              	.LVL34:
 388              		.loc 1 83 53
 389 026c 6F00400E 		j	.L1
 390              	.L24:
  84:src/_handle.cpp ****         case 0x22:
 391              		.loc 1 84 9 is_stmt 1
  85:src/_handle.cpp ****             return _Sem::close((sem_t)a);
 392              		.loc 1 85 13
 393              		.loc 1 85 31 is_stmt 0
 394 0270 13050900 		mv	a0,s2
 395 0274 97000000 		call	_ZN4_Sem5closeEPS_@plt
 395      E7800000 
 396              	.LVL35:
 397              		.loc 1 85 40
 398 027c 6F00400D 		j	.L1
 399              	.L23:
  86:src/_handle.cpp ****         case 0x23:
 400              		.loc 1 86 9 is_stmt 1
  87:src/_handle.cpp ****             return ((sem_t)a)->wait();
 401              		.loc 1 87 13
 402              		.loc 1 87 36 is_stmt 0
 403 0280 13050900 		mv	a0,s2
 404 0284 97000000 		call	_ZN4_Sem4waitEv@plt
 404      E7800000 
 405              	.LVL36:
 406              		.loc 1 87 37
 407 028c 6F00400C 		j	.L1
 408              	.L22:
  88:src/_handle.cpp ****         case 0x24:
 409              		.loc 1 88 9 is_stmt 1
  89:src/_handle.cpp ****             return ((sem_t)a)->signal();
 410              		.loc 1 89 13
 411              		.loc 1 89 38 is_stmt 0
 412 0290 13050900 		mv	a0,s2
 413 0294 97000000 		call	_ZN4_Sem6signalEv@plt
 413      E7800000 
 414              	.LVL37:
 415              		.loc 1 89 39
GAS LISTING /tmp/cch3sy7e.s 			page 11


 416 029c 6F00400B 		j	.L1
 417              	.L21:
  90:src/_handle.cpp ****         case 0x25:
 418              		.loc 1 90 9 is_stmt 1
  91:src/_handle.cpp ****             return _Sem::waitOR((sem_t) a, (sem_t) b);
 419              		.loc 1 91 13
 420              		.loc 1 91 32 is_stmt 0
 421 02a0 93850900 		mv	a1,s3
 422 02a4 13050900 		mv	a0,s2
 423 02a8 97000000 		call	_ZN4_Sem6waitOREPS_S0_@plt
 423      E7800000 
 424              	.LVL38:
 425              		.loc 1 91 53
 426 02b0 6F00000A 		j	.L1
 427              	.L20:
  92:src/_handle.cpp ****         case 0x26:
 428              		.loc 1 92 9 is_stmt 1
  93:src/_handle.cpp ****             return _Sem::semWaitAND((sem_t) a, (sem_t) b);
 429              		.loc 1 93 13
 430              		.loc 1 93 36 is_stmt 0
 431 02b4 93850900 		mv	a1,s3
 432 02b8 13050900 		mv	a0,s2
 433 02bc 97000000 		call	_ZN4_Sem10semWaitANDEPS_S0_@plt
 433      E7800000 
 434              	.LVL39:
 435              		.loc 1 93 57
 436 02c4 6F00C008 		j	.L1
 437              	.L19:
  94:src/_handle.cpp ****         case 0x27:
 438              		.loc 1 94 9 is_stmt 1
  95:src/_handle.cpp ****             return ((sem_t)a)->wait((time_t)b);
 439              		.loc 1 95 13
 440              		.loc 1 95 36 is_stmt 0
 441 02c8 93850900 		mv	a1,s3
 442 02cc 13050900 		mv	a0,s2
 443 02d0 97000000 		call	_ZN4_Sem4waitEm@plt
 443      E7800000 
 444              	.LVL40:
 445              		.loc 1 95 46
 446 02d8 6F008007 		j	.L1
 447              	.L18:
  96:src/_handle.cpp ****         case 0x28:
 448              		.loc 1 96 9 is_stmt 1
  97:src/_handle.cpp ****             return _Sem::semWaitORLimit((sem_t) a, (sem_t) b, (time_t) c);
 449              		.loc 1 97 13
 450              		.loc 1 97 40 is_stmt 0
 451 02dc 13060A00 		mv	a2,s4
 452 02e0 93850900 		mv	a1,s3
 453 02e4 13050900 		mv	a0,s2
 454 02e8 97000000 		call	_ZN4_Sem14semWaitORLimitEPS_S0_m@plt
 454      E7800000 
 455              	.LVL41:
 456              		.loc 1 97 73
 457 02f0 6F000006 		j	.L1
 458              	.L17:
  98:src/_handle.cpp ****         case 0x29:
 459              		.loc 1 98 9 is_stmt 1
GAS LISTING /tmp/cch3sy7e.s 			page 12


  99:src/_handle.cpp ****             return _Sem::semWaitANDLimit((sem_t) a, (sem_t) b, (time_t) c);
 460              		.loc 1 99 13
 461              		.loc 1 99 41 is_stmt 0
 462 02f4 13060A00 		mv	a2,s4
 463 02f8 93850900 		mv	a1,s3
 464 02fc 13050900 		mv	a0,s2
 465 0300 97000000 		call	_ZN4_Sem15semWaitANDLimitEPS_S0_m@plt
 465      E7800000 
 466              	.LVL42:
 467              		.loc 1 99 74
 468 0308 6F008004 		j	.L1
 469              	.L16:
 100:src/_handle.cpp **** 
 101:src/_handle.cpp ****         case 0x31:
 470              		.loc 1 101 9 is_stmt 1
 102:src/_handle.cpp ****             return _Thread::timeSleep((time_t) a);
 471              		.loc 1 102 13
 472              		.loc 1 102 38 is_stmt 0
 473 030c 13050900 		mv	a0,s2
 474 0310 97000000 		call	_ZN7_Thread9timeSleepEm@plt
 474      E7800000 
 475              	.LVL43:
 476              		.loc 1 102 49
 477 0318 6F008003 		j	.L1
 478              	.L15:
 103:src/_handle.cpp ****         case 0x32:
 479              		.loc 1 103 9 is_stmt 1
 104:src/_handle.cpp ****             return _Thread::getTime();
 480              		.loc 1 104 13
 481              	.LBB4:
 482              	.LBB5:
 483              		.file 2 "src/../h/_Thread.h"
   1:src/../h/_Thread.h **** //
   2:src/../h/_Thread.h **** // Created by os on 5/2/22.
   3:src/../h/_Thread.h **** //
   4:src/../h/_Thread.h **** 
   5:src/../h/_Thread.h **** #ifndef PROJECT_BASE__THREAD_H
   6:src/../h/_Thread.h **** #define PROJECT_BASE__THREAD_H
   7:src/../h/_Thread.h **** #include "../lib/hw.h"
   8:src/../h/_Thread.h **** #include "types.h"
   9:src/../h/_Thread.h **** #include "_slab.h"
  10:src/../h/_Thread.h **** class _WaitManager;
  11:src/../h/_Thread.h **** 
  12:src/../h/_Thread.h **** class _Thread{
  13:src/../h/_Thread.h ****     void* sp, *ssp, *sptop, *ssptop;//sptop i ssptop pokazuju na adresu vrha (tj. dna) steka, tj. n
  14:src/../h/_Thread.h ****     //vracenu iz mem_alloc
  15:src/../h/_Thread.h ****     uint64 pc;//ovde se cuva pc kad se menja kontekst
  16:src/../h/_Thread.h ****     unsigned flags; //7 - interrupted, 6 - limitReached, 5 - daemon, 4 - parentjoin, 3 - finished, 
  17:src/../h/_Thread.h ****     int priority;
  18:src/../h/_Thread.h ****     thread_t parent;
  19:src/../h/_Thread.h ****     void* returnValue;
  20:src/../h/_Thread.h ****     _WaitManager* waitManager;
  21:src/../h/_Thread.h **** 
  22:src/../h/_Thread.h ****     static kmem_cache_t* cache;
  23:src/../h/_Thread.h **** public:
  24:src/../h/_Thread.h ****     void* operator new(size_t);
  25:src/../h/_Thread.h ****     void operator delete(void* addr);
GAS LISTING /tmp/cch3sy7e.s 			page 13


  26:src/../h/_Thread.h ****     _Thread(void* (*startRoutine)(void*), void* arg, void* sp, size_t stackSize, int priority = NOR
  27:src/../h/_Thread.h ****     _Thread(void* (*startRoutine)(void*), void* arg, size_t stackSize, int priority = NORM_PRIORITY
  28:src/../h/_Thread.h ****     _Thread(void* (*startRoutine)(void*), void* arg, int priority = NORM_PRIORITY, bool daemon = fa
  29:src/../h/_Thread.h ****     _Thread();
  30:src/../h/_Thread.h ****     ~_Thread();
  31:src/../h/_Thread.h **** 
  32:src/../h/_Thread.h ****     //OSNOVNE METODE
  33:src/../h/_Thread.h ****     static int create(thread_t* handle, void* (*startRoutine)(void*), void* arg, void* stackSpace, 
  34:src/../h/_Thread.h ****     static int create(thread_t* handle, void* (*startRoutine)(void*), void* arg, size_t stackSize, 
  35:src/../h/_Thread.h ****     static int create(thread_t* handle, void* (*startRoutine)(void*), void* arg, int priority, int 
  36:src/../h/_Thread.h ****     static int create(thread_t* handle, void (*startRoutine)(void*), void* arg, void* stack_space, 
  37:src/../h/_Thread.h ****     static int create(thread_t* handle, void (*startRoutine)(void*), void* arg, size_t stackSize, i
  38:src/../h/_Thread.h ****     static int create(thread_t* handle, void (*startRoutine)(void*), void* arg, int priority, int o
  39:src/../h/_Thread.h ****     static int create(thread_t* handle, void (*startRoutine)(void), void* stack_space, size_t stack
  40:src/../h/_Thread.h ****     static int create(thread_t* handle, void (*startRoutine)(void), size_t stackSize, int priority,
  41:src/../h/_Thread.h ****     static int create(thread_t* handle, void (*startRoutine)(void), int priority, int options);
  42:src/../h/_Thread.h **** 
  43:src/../h/_Thread.h ****     static int exit(void* ret);
  44:src/../h/_Thread.h ****     static void abort();
  45:src/../h/_Thread.h ****     static void dispatch();
  46:src/../h/_Thread.h ****     static void safeDispatch();
  47:src/../h/_Thread.h ****     static int timeSleep(time_t time);
  48:src/../h/_Thread.h ****     int getPriority() { return priority; }
  49:src/../h/_Thread.h **** 
  50:src/../h/_Thread.h ****     //funkcije za postavljanje i dohvatanje flag bitova
  51:src/../h/_Thread.h ****     int kicked();
  52:src/../h/_Thread.h ****     void kick();
  53:src/../h/_Thread.h ****     int started();
  54:src/../h/_Thread.h ****     int start();
  55:src/../h/_Thread.h ****     void finish();
  56:src/../h/_Thread.h ****     int finished();
  57:src/../h/_Thread.h ****     int daemon();
  58:src/../h/_Thread.h ****     void parentWait();
  59:src/../h/_Thread.h ****     int parentWaiting();
  60:src/../h/_Thread.h ****     void parentWaitStop();
  61:src/../h/_Thread.h ****     void limitReach();
  62:src/../h/_Thread.h ****     int limitReached();
  63:src/../h/_Thread.h ****     int interrupt();
  64:src/../h/_Thread.h ****     int interrupted();
  65:src/../h/_Thread.h ****     int isInterrupted();
  66:src/../h/_Thread.h ****     int top();
  67:src/../h/_Thread.h **** 
  68:src/../h/_Thread.h ****     //FUNKCIJE ZA IMPLEMENTACIJU CEKANJA
  69:src/../h/_Thread.h ****     int join(void** pret);
  70:src/../h/_Thread.h ****     int joinLimit(void** pret, time_t limit);
  71:src/../h/_Thread.h ****     //dodela wait manager-a
  72:src/../h/_Thread.h ****     void setManager(_WaitManager*);
  73:src/../h/_Thread.h ****     //obavestavanje o izlasku iz nekog reda cekanja
  74:src/../h/_Thread.h ****     int sem_pass(sem_t);
  75:src/../h/_Thread.h ****     int sleepPass();
  76:src/../h/_Thread.h ****     int joinPass();
  77:src/../h/_Thread.h ****     int sem_kick(sem_t);
  78:src/../h/_Thread.h ****     int check_wait(int);
  79:src/../h/_Thread.h ****     void removeManager();
  80:src/../h/_Thread.h **** 
  81:src/../h/_Thread.h ****     static time_t getTime() { return clock; }
 484              		.loc 2 81 31
GAS LISTING /tmp/cch3sy7e.s 			page 14


 485              		.loc 2 81 38 is_stmt 0
 486 031c 97070000 		la	a5,_ZN7_Thread5clockE
 486      83B70700 
 487 0324 03B50700 		ld	a0,0(a5)
 488              	.LBE5:
 489              	.LBE4:
 490              		.loc 1 104 37
 491 0328 6F008002 		j	.L1
 492              	.L14:
 105:src/_handle.cpp **** 
 106:src/_handle.cpp ****         case 0x41:
 493              		.loc 1 106 9 is_stmt 1
 107:src/_handle.cpp ****             return _Console::getc();
 494              		.loc 1 107 13
 495              		.loc 1 107 34 is_stmt 0
 496 032c 97000000 		call	_ZN8_Console4getcEv@plt
 496      E7800000 
 497              	.LVL44:
 498              		.loc 1 107 35
 499 0334 6F00C001 		j	.L1
 500              	.L12:
 108:src/_handle.cpp ****         case 0x42:
 501              		.loc 1 108 9 is_stmt 1
 109:src/_handle.cpp ****             _Console::putc((char)a);
 502              		.loc 1 109 13
 503              		.loc 1 109 27 is_stmt 0
 504 0338 1375F90F 		andi	a0,s2,0xff
 505 033c 97000000 		call	_ZN8_Console4putcEc@plt
 505      E7800000 
 506              	.LVL45:
 110:src/_handle.cpp ****             return 0;
 507              		.loc 1 110 13 is_stmt 1
 508              		.loc 1 110 20 is_stmt 0
 509 0344 13050000 		li	a0,0
 510 0348 6F008000 		j	.L1
 511              	.L38:
  53:src/_handle.cpp ****     switch(type) {
 512              		.loc 1 53 38
 513 034c 13050000 		li	a0,0
 514              	.LVL46:
 515              	.L1:
 111:src/_handle.cpp ****         default:
 112:src/_handle.cpp ****             break;
 113:src/_handle.cpp ****     }
 114:src/_handle.cpp ****     return 0;
 115:src/_handle.cpp **** }
 516              		.loc 1 115 1
 517 0350 83308104 		ld	ra,72(sp)
 518              		.cfi_restore 1
 519 0354 03340104 		ld	s0,64(sp)
 520              		.cfi_restore 8
 521              		.cfi_def_cfa 2, 80
 522 0358 83348103 		ld	s1,56(sp)
 523              		.cfi_restore 9
 524 035c 03390103 		ld	s2,48(sp)
 525              		.cfi_restore 18
 526 0360 83398102 		ld	s3,40(sp)
GAS LISTING /tmp/cch3sy7e.s 			page 15


 527              		.cfi_restore 19
 528 0364 033A0102 		ld	s4,32(sp)
 529              		.cfi_restore 20
 530 0368 833A8101 		ld	s5,24(sp)
 531              		.cfi_restore 21
 532 036c 033B0101 		ld	s6,16(sp)
 533              		.cfi_restore 22
 534              	.LVL47:
 535 0370 833B8100 		ld	s7,8(sp)
 536              		.cfi_restore 23
 537 0374 033C0100 		ld	s8,0(sp)
 538              		.cfi_restore 24
 539 0378 13010105 		addi	sp,sp,80
 540              		.cfi_def_cfa_offset 0
 541 037c 67800000 		jr	ra
 542              		.cfi_endproc
 543              	.LFE6:
 545              	.Letext0:
 546              		.file 3 "src/../lib/hw.h"
 547              		.file 4 "src/../h/_Mem.h"
 548              		.file 5 "src/../h/types.h"
 549              		.file 6 "src/../h/_Sem.h"
 550              		.file 7 "src/../h/_slab.h"
 551              		.file 8 "src/../h/_ThreadList.h"
 552              		.file 9 "src/../h/_Buffer.h"
 553              		.file 10 "src/../h/_Console.h"
 554              		.file 11 "src/../h/_SBIT.h"
GAS LISTING /tmp/cch3sy7e.s 			page 16

