GAS LISTING /tmp/ccJayaG5.s 			page 1


   1              		.file	"_main.cpp"
   2              		.option pic
   3              		.option norelax
   4              		.text
   5              	.Ltext0:
   6              		.align	2
   7              		.globl	main
   9              	main:
  10              	.LFB21:
  11              		.file 1 "src/_main.cpp"
   1:src/_main.cpp **** //
   2:src/_main.cpp **** // Created by os on 5/3/22.
   3:src/_main.cpp **** //
   4:src/_main.cpp **** #include "../lib/hw.h"
   5:src/_main.cpp **** #include "../h/_Thread.h"
   6:src/_main.cpp **** #include "../h/_Mem.h"
   7:src/_main.cpp **** #include "../h/_SBIT.h"
   8:src/_main.cpp **** #include "../h/_Console.h"
   9:src/_main.cpp **** #include "../h/_PMT.h"
  10:src/_main.cpp **** #include "../h/_placementNew.h"
  11:src/_main.cpp **** extern "C" void trap();
  12:src/_main.cpp **** void userMain();
  13:src/_main.cpp **** 
  14:src/_main.cpp **** const uint64 FIRSTKERNELPAGE = 0x80000ul;
  15:src/_main.cpp **** const uint64 LASTKERNELPAGE = 0x80010ul;
  16:src/_main.cpp **** _PMT* pmt;
  17:src/_main.cpp **** 
  18:src/_main.cpp **** 
  19:src/_main.cpp **** int main() {
  12              		.loc 1 19 12
  13              		.cfi_startproc
  14              		.cfi_personality 0x9b,DW.ref.__gxx_personality_v0
  15              		.cfi_lsda 0x1b,.LLSDA21
  16 0000 130101FD 		addi	sp,sp,-48
  17              		.cfi_def_cfa_offset 48
  18 0004 23341102 		sd	ra,40(sp)
  19 0008 23308102 		sd	s0,32(sp)
  20 000c 233C9100 		sd	s1,24(sp)
  21 0010 23382101 		sd	s2,16(sp)
  22 0014 23343101 		sd	s3,8(sp)
  23 0018 23304101 		sd	s4,0(sp)
  24              		.cfi_offset 1, -8
  25              		.cfi_offset 8, -16
  26              		.cfi_offset 9, -24
  27              		.cfi_offset 18, -32
  28              		.cfi_offset 19, -40
  29              		.cfi_offset 20, -48
  30 001c 13040103 		addi	s0,sp,48
  31              		.cfi_def_cfa 8, 0
  20:src/_main.cpp ****     _SBIT::SIEdisable();
  32              		.loc 1 20 5
  33              	.LEHB0:
  34              		.loc 1 20 22 is_stmt 0
  35 0020 97000000 		call	_ZN5_SBIT10SIEdisableEv@plt
  35      E7800000 
  36              	.LVL0:
  21:src/_main.cpp ****     _SBIT::SSIEenable();
GAS LISTING /tmp/ccJayaG5.s 			page 2


  37              		.loc 1 21 5 is_stmt 1
  38              		.loc 1 21 22 is_stmt 0
  39 0028 97000000 		call	_ZN5_SBIT10SSIEenableEv@plt
  39      E7800000 
  40              	.LVL1:
  22:src/_main.cpp ****     _SBIT::SEIEenable();//dozvoljavam prekide (kada je SIE ukljucen)
  41              		.loc 1 22 5 is_stmt 1
  42              		.loc 1 22 22 is_stmt 0
  43 0030 97000000 		call	_ZN5_SBIT10SEIEenableEv@plt
  43      E7800000 
  44              	.LVL2:
  23:src/_main.cpp ****     __asm__ volatile("csrw stvec, %0" : : "r"(&trap));//inicijalizujem pokazivac na prekidnu rutinu
  45              		.loc 1 23 5 is_stmt 1
  46              		.loc 1 23 54 is_stmt 0
  47 0038 97070000 		la	a5,trap
  47      83B70700 
  48              	#APP
  49              	# 23 "src/_main.cpp" 1
  24              	
  25:src/_main.cpp ****     //RASPODELA MEMORIJE
  26:src/_main.cpp ****     uint64 kernelHeapStart = (uint64)HEAP_START_ADDR;
  50              		csrw stvec, a5
  51              	# 0 "" 2
  52              		.loc 1 26 5 is_stmt 1
  53              		.loc 1 26 12 is_stmt 0
  54              	#NO_APP
  55 0044 97070000 		la	a5,HEAP_START_ADDR
  55      83B70700 
  56 004c 83B40700 		ld	s1,0(a5)
  57              	.LVL3:
  27:src/_main.cpp ****     kernelHeapStart = (kernelHeapStart + PAGEOFFMASK) & ~PAGEOFFMASK;
  58              		.loc 1 27 5 is_stmt 1
  59              		.loc 1 27 42 is_stmt 0
  60 0050 97070000 		la	a5,PAGEOFFMASK
  60      83B70700 
  61 0058 83A90700 		lw	s3,0(a5)
  62              		.loc 1 27 40
  63 005c B3849900 		add	s1,s3,s1
  64              	.LVL4:
  65              		.loc 1 27 57
  66 0060 13C9F9FF 		not	s2,s3
  67              		.loc 1 27 21
  68 0064 B3F42401 		and	s1,s1,s2
  69              	.LVL5:
  28:src/_main.cpp ****     size_t memSize = (uint64)HEAP_END_ADDR - kernelHeapStart;
  70              		.loc 1 28 5 is_stmt 1
  71              		.loc 1 28 44 is_stmt 0
  72 0068 170A0000 		la	s4,HEAP_END_ADDR
  72      033A0A00 
  73 0070 83350A00 		ld	a1,0(s4)
  74              		.loc 1 28 12
  75 0074 B3859540 		sub	a1,a1,s1
  76              	.LVL6:
  29:src/_main.cpp ****     kmem_init((void*)kernelHeapStart, memSize / 8 / BLOCK_SIZE);
  77              		.loc 1 29 5 is_stmt 1
  78              		.loc 1 29 14 is_stmt 0
  79 0078 93D5F500 		srli	a1,a1,15
GAS LISTING /tmp/ccJayaG5.s 			page 3


  80              	.LVL7:
  81 007c 9B850500 		sext.w	a1,a1
  82 0080 13850400 		mv	a0,s1
  83 0084 97000000 		call	_Z9kmem_initPvi@plt
  83      E7800000 
  84              	.LVL8:
  30:src/_main.cpp ****     uint64 userHeapStart = (uint64)getBuddyEnd();
  85              		.loc 1 30 5 is_stmt 1
  86              		.loc 1 30 47 is_stmt 0
  87 008c 97000000 		call	_Z11getBuddyEndv@plt
  87      E7800000 
  88              	.LVL9:
  31:src/_main.cpp ****     userHeapStart = (userHeapStart + PAGEOFFMASK) & ~PAGEOFFMASK; //prva sledeca stranica
  89              		.loc 1 31 5 is_stmt 1
  90              		.loc 1 31 36 is_stmt 0
  91 0094 B389A900 		add	s3,s3,a0
  92              		.loc 1 31 19
  93 0098 33793901 		and	s2,s2,s3
  94              	.LVL10:
  32:src/_main.cpp ****     _Mem::init((void*)userHeapStart, HEAP_END_ADDR);
  95              		.loc 1 32 5 is_stmt 1
  96              		.loc 1 32 15 is_stmt 0
  97 009c 83350A00 		ld	a1,0(s4)
  98 00a0 13050900 		mv	a0,s2
  99 00a4 97000000 		call	_ZN4_Mem4initEPKvS1_@plt
  99      E7800000 
 100              	.LVL11:
  33:src/_main.cpp ****     //KRAJ RASPODELE MEMORIJE
  34:src/_main.cpp **** 
  35:src/_main.cpp ****     //INICIJALIZACIJA PMT
  36:src/_main.cpp ****     pmt = (_PMT*)buddyAlloc(0);
 101              		.loc 1 36 5 is_stmt 1
 102              		.loc 1 36 28 is_stmt 0
 103 00ac 13050000 		li	a0,0
 104 00b0 97000000 		call	_Z10buddyAlloci@plt
 104      E7800000 
 105              	.LVL12:
 106 00b8 93050500 		mv	a1,a0
 107              		.loc 1 36 9
 108 00bc 97070000 		sd	a0,.LANCHOR0,a5
 108      23B0A700 
  37:src/_main.cpp ****     new(pmt) _PMT(true);
 109              		.loc 1 37 5 is_stmt 1
 110              		.loc 1 37 23 is_stmt 0
 111 00c4 37150000 		li	a0,4096
 112 00c8 97000000 		call	_ZnwmPv@plt
 112      E7800000 
 113              	.LVL13:
 114 00d0 63080500 		beqz	a0,.L2
 115              		.loc 1 37 23 discriminator 1
 116 00d4 93051000 		li	a1,1
 117 00d8 97000000 		call	_ZN4_PMTC1Eb@plt
 117      E7800000 
 118              	.LVL14:
 119              	.L2:
  38:src/_main.cpp ****     pmt->clearU(((kernelHeapStart) >> PAGEOFF), (((uint64)userHeapStart) >> PAGEOFF) - 1);
 120              		.loc 1 38 5 is_stmt 1
GAS LISTING /tmp/ccJayaG5.s 			page 4


 121              		.loc 1 38 39 is_stmt 0
 122 00e0 97070000 		la	a5,PAGEOFF
 122      83B70700 
 123 00e8 83A90700 		lw	s3,0(a5)
 124              		.loc 1 38 74
 125 00ec 33563901 		srl	a2,s2,s3
 126              		.loc 1 38 16
 127 00f0 17090000 		lla	s2,.LANCHOR0
 127      13090900 
 128              	.LVL15:
 129 00f8 1306F6FF 		addi	a2,a2,-1
 130 00fc B3D53401 		srl	a1,s1,s3
 131 0100 03350900 		ld	a0,0(s2)
 132 0104 97000000 		call	_ZN4_PMT6clearUEmm@plt
 132      E7800000 
 133              	.LVL16:
  39:src/_main.cpp ****     pmt->clearU(FIRSTKERNELPAGE, LASTKERNELPAGE);
 134              		.loc 1 39 5 is_stmt 1
 135              		.loc 1 39 16 is_stmt 0
 136 010c 37060800 		li	a2,524288
 137 0110 13060601 		addi	a2,a2,16
 138 0114 B7050800 		li	a1,524288
 139 0118 03350900 		ld	a0,0(s2)
 140 011c 97000000 		call	_ZN4_PMT6clearUEmm@plt
 140      E7800000 
 141              	.LVL17:
  40:src/_main.cpp ****     uint64 satp = 0x8000000000000000ul | (((uint64)pmt) >> PAGEOFF);
 142              		.loc 1 40 5 is_stmt 1
 143              		.loc 1 40 57 is_stmt 0
 144 0124 83340900 		ld	s1,0(s2)
 145              	.LVL18:
 146 0128 B3D43401 		srl	s1,s1,s3
 147              		.loc 1 40 12
 148 012c 9307F0FF 		li	a5,-1
 149 0130 9397F703 		slli	a5,a5,63
 150 0134 B3E4F400 		or	s1,s1,a5
 151              	.LVL19:
  41:src/_main.cpp ****     _SBIT::SUMset();
 152              		.loc 1 41 5 is_stmt 1
 153              		.loc 1 41 18 is_stmt 0
 154 0138 97000000 		call	_ZN5_SBIT6SUMsetEv@plt
 154      E7800000 
 155              	.LVL20:
  42:src/_main.cpp ****     _SBIT::SATPset(satp);
 156              		.loc 1 42 5 is_stmt 1
 157              		.loc 1 42 19 is_stmt 0
 158 0140 13850400 		mv	a0,s1
 159 0144 97000000 		call	_ZN5_SBIT7SATPsetEm@plt
 159      E7800000 
 160              	.LVL21:
  43:src/_main.cpp ****     //KRAJ INICIJALIZACIJE PMT
  44:src/_main.cpp **** 
  45:src/_main.cpp ****     _Thread::main = new _Thread();
 161              		.loc 1 45 5 is_stmt 1
 162              		.loc 1 45 33 is_stmt 0
 163 014c 13058004 		li	a0,72
 164 0150 97000000 		call	_ZN7_ThreadnwEm@plt
GAS LISTING /tmp/ccJayaG5.s 			page 5


 164      E7800000 
 165              	.LVL22:
 166              	.LEHE0:
 167 0158 93040500 		mv	s1,a0
 168              	.LVL23:
 169 015c 63060502 		beqz	a0,.L3
 170              	.LEHB1:
 171 0160 97000000 		call	_ZN7_ThreadC1Ev@plt
 171      E7800000 
 172              	.LVL24:
 173              	.LEHE1:
 174 0168 6F000002 		j	.L3
 175              	.L5:
 176 016c 13090500 		mv	s2,a0
 177 0170 13850400 		mv	a0,s1
 178 0174 97000000 		call	_ZN7_ThreaddlEPv@plt
 178      E7800000 
 179              	.LVL25:
 180 017c 13050900 		mv	a0,s2
 181              	.LEHB2:
 182 0180 97000000 		call	_Unwind_Resume@plt
 182      E7800000 
 183              	.LVL26:
 184              	.L3:
 185              		.loc 1 45 19 discriminator 3
 186 0188 97070000 		la	a5,_ZN7_Thread4mainE
 186      83B70700 
 187 0190 23B09700 		sd	s1,0(a5)
  46:src/_main.cpp ****     _Thread::running = _Thread::main;
 188              		.loc 1 46 5 is_stmt 1 discriminator 3
 189              		.loc 1 46 22 is_stmt 0 discriminator 3
 190 0194 97070000 		la	a5,_ZN7_Thread7runningE
 190      83B70700 
 191 019c 23B09700 		sd	s1,0(a5)
  47:src/_main.cpp ****     _Console::init();
 192              		.loc 1 47 5 is_stmt 1 discriminator 3
 193              		.loc 1 47 19 is_stmt 0 discriminator 3
 194 01a0 97000000 		call	_ZN8_Console4initEv@plt
 194      E7800000 
 195              	.LVL27:
  48:src/_main.cpp **** 
  49:src/_main.cpp ****     //Kreiranje prve korisnicke niti
  50:src/_main.cpp ****     _Thread::create(nullptr, &userMain, DEFAULT_STACK_SIZE, _Thread::NORM_PRIORITY, _Thread::SET_ST
 196              		.loc 1 50 5 is_stmt 1 discriminator 3
 197              		.loc 1 50 20 is_stmt 0 discriminator 3
 198 01a8 13071000 		li	a4,1
 199 01ac 93060000 		li	a3,0
 200 01b0 37160000 		li	a2,4096
 201 01b4 97050000 		la	a1,_Z8userMainv
 201      83B50500 
 202 01bc 13050000 		li	a0,0
 203 01c0 97000000 		call	_ZN7_Thread6createEPPS_PFvvEmii@plt
 203      E7800000 
 204              	.LVL28:
  51:src/_main.cpp ****     _Thread::thread_dispatch();
 205              		.loc 1 51 5 is_stmt 1 discriminator 3
 206              		.loc 1 51 29 is_stmt 0 discriminator 3
GAS LISTING /tmp/ccJayaG5.s 			page 6


 207 01c8 97000000 		call	_ZN7_Thread15thread_dispatchEv@plt
 207      E7800000 
 208              	.LVL29:
 209              	.LEHE2:
  52:src/_main.cpp **** /*
  53:src/_main.cpp ****     //Kreiranje prve korisnicke nit varijanta 2 - nit ima sistemske privilegije
  54:src/_main.cpp ****     _Thread::create(nullptr, &userMain, _Thread::NORM_PRIORITY, _Thread::SET_START);
  55:src/_main.cpp ****     _Thread::thread_dispatch();
  56:src/_main.cpp **** */
  57:src/_main.cpp **** 
  58:src/_main.cpp ****     return 0;
 210              		.loc 1 58 5 is_stmt 1 discriminator 3
  59:src/_main.cpp **** }...
 211              		.loc 1 59 1 is_stmt 0 discriminator 3
 212 01d0 13050000 		li	a0,0
 213 01d4 83308102 		ld	ra,40(sp)
 214              		.cfi_restore 1
 215 01d8 03340102 		ld	s0,32(sp)
 216              		.cfi_restore 8
 217              		.cfi_def_cfa 2, 48
 218 01dc 83348101 		ld	s1,24(sp)
 219              		.cfi_restore 9
 220 01e0 03390101 		ld	s2,16(sp)
 221              		.cfi_restore 18
 222 01e4 83398100 		ld	s3,8(sp)
 223              		.cfi_restore 19
 224 01e8 033A0100 		ld	s4,0(sp)
 225              		.cfi_restore 20
 226 01ec 13010103 		addi	sp,sp,48
 227              		.cfi_def_cfa_offset 0
 228 01f0 67800000 		jr	ra
 229              		.cfi_endproc
 230              	.LFE21:
 231              		.globl	__gxx_personality_v0
 232              		.section	.gcc_except_table,"a",@progbits
 233              	.LLSDA21:
 234 0000 FF       		.byte	0xff
 235 0001 FF       		.byte	0xff
 236 0002 03       		.byte	0x3
 237 0003 27       		.byte	0x27
 238 0004 00000000 		.4byte	.LEHB0-.LFB21
 239 0008 00000000 		.4byte	.LEHE0-.LEHB0
 240 000c 00000000 		.4byte	0
 241 0010 00       		.byte	0
 242 0011 00000000 		.4byte	.LEHB1-.LFB21
 243 0015 00000000 		.4byte	.LEHE1-.LEHB1
 244 0019 00000000 		.4byte	.L5-.LFB21
 245 001d 00       		.byte	0
 246 001e 00000000 		.4byte	.LEHB2-.LFB21
 247 0022 00000000 		.4byte	.LEHE2-.LEHB2
 248 0026 00000000 		.4byte	0
 249 002a 00       		.byte	0
 250              		.text
 252              		.globl	pmt
 253              		.bss
 254              		.align	3
 255              		.set	.LANCHOR0,. + 0
GAS LISTING /tmp/ccJayaG5.s 			page 7


 258              	pmt:
 259 0000 00000000 		.zero	8
 259      00000000 
 260              		.text
 261              	.Letext0:
 262              		.file 2 "src/../lib/hw.h"
 263              		.file 3 "src/../h/types.h"
 264              		.file 4 "src/../h/_Thread.h"
 265              		.file 5 "src/../h/_slab.h"
 266              		.file 6 "src/../h/_Mem.h"
 267              		.file 7 "src/../h/_SBIT.h"
 268              		.file 8 "src/../h/_Buffer.h"
 269              		.file 9 "src/../h/_Console.h"
 270              		.file 10 "src/../h/_PMT.h"
 271              		.file 11 "src/../h/_placementNew.h"
 4019              		.align	3
 4022              	DW.ref.__gxx_personality_v0:
 4023 0000 00000000 		.dword	__gxx_personality_v0
 4023      00000000 
 4024              		.ident	"GCC: (Ubuntu 9.4.0-1ubuntu1~20.04) 9.4.0"
 4025              		.section	.note.GNU-stack,"",@progbits
GAS LISTING /tmp/ccJayaG5.s 			page 8

