GAS LISTING /tmp/ccKKSmy8.s 			page 1


   1              		.file	"_Mem.cpp"
   2              		.option pic
   3              		.option norelax
   4              		.text
   5              	.Ltext0:
   6              		.align	2
   7              		.globl	_ZN4_Mem4initEPKvS1_
   9              	_ZN4_Mem4initEPKvS1_:
  10              	.LFB0:
  11              		.file 1 "src/_Mem.cpp"
   1:src/_Mem.cpp  **** //
   2:src/_Mem.cpp  **** // Created by os on 5/2/22.
   3:src/_Mem.cpp  **** //
   4:src/_Mem.cpp  **** 
   5:src/_Mem.cpp  **** #include "../h/_Mem.h"
   6:src/_Mem.cpp  **** 
   7:src/_Mem.cpp  **** 
   8:src/_Mem.cpp  **** const size_t _Mem::header_size = sizeof(size_t); //kada se alocira neki segment, prvih header_size 
   9:src/_Mem.cpp  **** //zapamti broj alociranih blokova, zbog cega ce C API funkcija zapravo da alocira header_size bajto
  10:src/_Mem.cpp  **** _Mem::Descriptor* _Mem::head;
  11:src/_Mem.cpp  **** void _Mem::init(const void* heap_start, const void* heap_end) {
  12              		.loc 1 11 63
  13              		.cfi_startproc
  14              	.LVL0:
  15 0000 130101FF 		addi	sp,sp,-16
  16              		.cfi_def_cfa_offset 16
  17 0004 23348100 		sd	s0,8(sp)
  18              		.cfi_offset 8, -8
  19 0008 13040101 		addi	s0,sp,16
  20              		.cfi_def_cfa 8, 0
  12:src/_Mem.cpp  ****     head = (_Mem::Descriptor*)heap_start;
  21              		.loc 1 12 5
  22              		.loc 1 12 10 is_stmt 0
  23 000c 97070000 		lla	a5,.LANCHOR0
  23      93870700 
  24 0014 23B0A700 		sd	a0,0(a5)
  13:src/_Mem.cpp  ****     head->blocknum = (size_t)((char*)heap_end - (char*)heap_start) / MEM_BLOCK_SIZE; //visak memori
  25              		.loc 1 13 5 is_stmt 1
  26              		.loc 1 13 47 is_stmt 0
  27 0018 B385A540 		sub	a1,a1,a0
  28              	.LVL1:
  29              		.loc 1 13 68
  30 001c 93D56500 		srli	a1,a1,6
  31              		.loc 1 13 20
  32 0020 2330B500 		sd	a1,0(a0)
  14:src/_Mem.cpp  ****     //MEM_BLOCK_SIZE se ignorise i ne alocira
  15:src/_Mem.cpp  ****     head->next = 0;
  33              		.loc 1 15 5 is_stmt 1
  34              		.loc 1 15 11 is_stmt 0
  35 0024 83B70700 		ld	a5,0(a5)
  36              		.loc 1 15 16
  37 0028 23B40700 		sd	zero,8(a5)
  16:src/_Mem.cpp  **** }
  38              		.loc 1 16 1
  39 002c 03348100 		ld	s0,8(sp)
  40              		.cfi_restore 8
  41              		.cfi_def_cfa 2, 16
GAS LISTING /tmp/ccKKSmy8.s 			page 2


  42 0030 13010101 		addi	sp,sp,16
  43              		.cfi_def_cfa_offset 0
  44 0034 67800000 		jr	ra
  45              		.cfi_endproc
  46              	.LFE0:
  48              		.align	2
  49              		.globl	_ZN4_Mem5allocEm
  51              	_ZN4_Mem5allocEm:
  52              	.LFB1:
  17:src/_Mem.cpp  **** 
  18:src/_Mem.cpp  **** void* _Mem::alloc(size_t size) {
  53              		.loc 1 18 32 is_stmt 1
  54              		.cfi_startproc
  55              	.LVL2:
  56 0038 130101FF 		addi	sp,sp,-16
  57              		.cfi_def_cfa_offset 16
  58 003c 23348100 		sd	s0,8(sp)
  59              		.cfi_offset 8, -8
  60 0040 13040101 		addi	s0,sp,16
  61              		.cfi_def_cfa 8, 0
  62 0044 13070500 		mv	a4,a0
  19:src/_Mem.cpp  ****     _Mem::Descriptor* cur = head, *prev = 0;
  63              		.loc 1 19 5
  64              		.loc 1 19 23 is_stmt 0
  65 0048 17050000 		ld	a0,.LANCHOR0
  65      03350500 
  66              	.LVL3:
  67              		.loc 1 19 36
  68 0050 93060000 		li	a3,0
  69              	.LVL4:
  70              	.L5:
  20:src/_Mem.cpp  ****     while (cur && cur->blocknum < size) prev = cur, cur = cur->next; //first-fit
  71              		.loc 1 20 5 is_stmt 1 discriminator 3
  72              		.loc 1 20 16 discriminator 3
  73 0054 630C0500 		beqz	a0,.L4
  74              		.loc 1 20 24 is_stmt 0 discriminator 1
  75 0058 83370500 		ld	a5,0(a0)
  76              		.loc 1 20 16 discriminator 1
  77 005c 63F8E700 		bgeu	a5,a4,.L4
  78              		.loc 1 20 41 is_stmt 1 discriminator 2
  79              	.LVL5:
  80              		.loc 1 20 46 is_stmt 0 discriminator 2
  81 0060 93060500 		mv	a3,a0
  82              		.loc 1 20 57 discriminator 2
  83 0064 03358500 		ld	a0,8(a0)
  84              	.LVL6:
  85              		.loc 1 20 5 discriminator 2
  86 0068 6FF0DFFE 		j	.L5
  87              	.L4:
  21:src/_Mem.cpp  ****     if (!cur) return 0;//nema mesta;
  88              		.loc 1 21 5 is_stmt 1
  89 006c 630A0502 		beqz	a0,.L3
  22:src/_Mem.cpp  ****     _Mem::Descriptor* next;
  90              		.loc 1 22 5
  23:src/_Mem.cpp  ****     if (cur->blocknum == size) next = cur->next;
  91              		.loc 1 23 5
  92              		.loc 1 23 14 is_stmt 0
GAS LISTING /tmp/ccKKSmy8.s 			page 3


  93 0070 03360500 		ld	a2,0(a0)
  94              		.loc 1 23 5
  95 0074 630CE602 		beq	a2,a4,.L12
  24:src/_Mem.cpp  ****     else {//nealocirani deo segmenta postaje novi segment
  25:src/_Mem.cpp  ****         next = (_Mem::Descriptor*)((char*)cur + size * MEM_BLOCK_SIZE);
  96              		.loc 1 25 9 is_stmt 1
  97              		.loc 1 25 54 is_stmt 0
  98 0078 93176700 		slli	a5,a4,6
  99              		.loc 1 25 14
 100 007c B307F500 		add	a5,a0,a5
 101              	.LVL7:
  26:src/_Mem.cpp  ****         next->blocknum = cur->blocknum - size;
 102              		.loc 1 26 9 is_stmt 1
 103              		.loc 1 26 40 is_stmt 0
 104 0080 3306E640 		sub	a2,a2,a4
 105              		.loc 1 26 24
 106 0084 23B0C700 		sd	a2,0(a5)
  27:src/_Mem.cpp  ****         next->next = cur->next;
 107              		.loc 1 27 9 is_stmt 1
 108              		.loc 1 27 27 is_stmt 0
 109 0088 03368500 		ld	a2,8(a0)
 110              		.loc 1 27 20
 111 008c 23B4C700 		sd	a2,8(a5)
  28:src/_Mem.cpp  ****         cur->blocknum = size;
 112              		.loc 1 28 9 is_stmt 1
 113              		.loc 1 28 23 is_stmt 0
 114 0090 2330E500 		sd	a4,0(a0)
 115              	.L8:
  29:src/_Mem.cpp  ****     }
  30:src/_Mem.cpp  ****     if (prev) prev->next = next;
 116              		.loc 1 30 5 is_stmt 1
 117 0094 63800602 		beqz	a3,.L9
 118              		.loc 1 30 15 discriminator 1
 119              		.loc 1 30 26 is_stmt 0 discriminator 1
 120 0098 23B4F600 		sd	a5,8(a3)
 121              	.LVL8:
 122              	.L10:
  31:src/_Mem.cpp  ****     else head = next;
  32:src/_Mem.cpp  ****     return (void*)((char*)cur + header_size);//vraca se pokazivac koji pokazuje IZA header-a
 123              		.loc 1 32 5 is_stmt 1
 124              		.loc 1 32 44 is_stmt 0
 125 009c 13058500 		addi	a0,a0,8
 126              	.LVL9:
 127              	.L3:
  33:src/_Mem.cpp  **** }
 128              		.loc 1 33 1
 129 00a0 03348100 		ld	s0,8(sp)
 130              		.cfi_remember_state
 131              		.cfi_restore 8
 132              		.cfi_def_cfa 2, 16
 133 00a4 13010101 		addi	sp,sp,16
 134              		.cfi_def_cfa_offset 0
 135 00a8 67800000 		jr	ra
 136              	.LVL10:
 137              	.L12:
 138              		.cfi_restore_state
  23:src/_Mem.cpp  ****     else {//nealocirani deo segmenta postaje novi segment
GAS LISTING /tmp/ccKKSmy8.s 			page 4


 139              		.loc 1 23 32 is_stmt 1 discriminator 1
  23:src/_Mem.cpp  ****     else {//nealocirani deo segmenta postaje novi segment
 140              		.loc 1 23 37 is_stmt 0 discriminator 1
 141 00ac 83378500 		ld	a5,8(a0)
 142              	.LVL11:
 143 00b0 6FF05FFE 		j	.L8
 144              	.L9:
  31:src/_Mem.cpp  ****     else head = next;
 145              		.loc 1 31 10 is_stmt 1
  31:src/_Mem.cpp  ****     else head = next;
 146              		.loc 1 31 15 is_stmt 0
 147 00b4 17070000 		sd	a5,.LANCHOR0,a4
 147      2330F700 
 148              	.LVL12:
 149 00bc 6FF01FFE 		j	.L10
 150              		.cfi_endproc
 151              	.LFE1:
 153              		.align	2
 154              		.globl	_ZN4_Mem4freeEPv
 156              	_ZN4_Mem4freeEPv:
 157              	.LFB3:
  34:src/_Mem.cpp  **** void* _Mem::allocate(size_t size) {
  35:src/_Mem.cpp  ****     return _Mem::alloc(_Mem::getBlockNum(size));
  36:src/_Mem.cpp  **** }
  37:src/_Mem.cpp  **** int _Mem::free(void* addr) {
 158              		.loc 1 37 28 is_stmt 1
 159              		.cfi_startproc
 160              	.LVL13:
 161 00c0 130101FF 		addi	sp,sp,-16
 162              		.cfi_def_cfa_offset 16
 163 00c4 23348100 		sd	s0,8(sp)
 164              		.cfi_offset 8, -8
 165 00c8 13040101 		addi	s0,sp,16
 166              		.cfi_def_cfa 8, 0
  38:src/_Mem.cpp  ****     if (!addr) return 0;
 167              		.loc 1 38 5
 168 00cc 630E0504 		beqz	a0,.L14
  39:src/_Mem.cpp  ****     _Mem::Descriptor* cur = (_Mem::Descriptor*)((char*)addr - header_size);
 169              		.loc 1 39 5
 170              		.loc 1 39 23 is_stmt 0
 171 00d0 130785FF 		addi	a4,a0,-8
 172              	.LVL14:
  40:src/_Mem.cpp  ****     void* end = (void*)((char*)cur + cur->blocknum * MEM_BLOCK_SIZE);
 173              		.loc 1 40 5 is_stmt 1
 174              		.loc 1 40 43 is_stmt 0
 175 00d4 033585FF 		ld	a0,-8(a0)
 176              	.LVL15:
 177              		.loc 1 40 52
 178 00d8 93176500 		slli	a5,a0,6
 179              		.loc 1 40 11
 180 00dc 3306F700 		add	a2,a4,a5
 181              	.LVL16:
  41:src/_Mem.cpp  ****     _Mem::Descriptor* next = head, *prev = 0;
 182              		.loc 1 41 5 is_stmt 1
 183              		.loc 1 41 23 is_stmt 0
 184 00e0 97070000 		ld	a5,.LANCHOR0
 184      83B70700 
GAS LISTING /tmp/ccKKSmy8.s 			page 5


 185              	.LVL17:
 186              		.loc 1 41 37
 187 00e8 93060000 		li	a3,0
 188              	.LVL18:
 189              	.L16:
  42:src/_Mem.cpp  ****     while (next && next < cur) prev = next, next = next->next;//u lancu slobodnih segmenata, trazim
 190              		.loc 1 42 5 is_stmt 1 discriminator 3
 191              		.loc 1 42 17 discriminator 3
 192 00ec 638A0700 		beqz	a5,.L15
 193              		.loc 1 42 17 is_stmt 0 discriminator 1
 194 00f0 63F8E700 		bgeu	a5,a4,.L15
 195              		.loc 1 42 32 is_stmt 1 discriminator 2
 196              	.LVL19:
 197              		.loc 1 42 37 is_stmt 0 discriminator 2
 198 00f4 93860700 		mv	a3,a5
 199              		.loc 1 42 50 discriminator 2
 200 00f8 83B78700 		ld	a5,8(a5)
 201              	.LVL20:
 202              		.loc 1 42 5 discriminator 2
 203 00fc 6FF01FFF 		j	.L16
 204              	.L15:
  43:src/_Mem.cpp  ****     //iza segemnta koji se dealocira (to ce biti next, a prev ce biti prvi prethodni)
  44:src/_Mem.cpp  ****     if (prev && (char*)prev + prev->blocknum * MEM_BLOCK_SIZE == (char*)cur) {//ako su prev i cur s
 205              		.loc 1 44 5 is_stmt 1
 206 0100 638A0600 		beqz	a3,.L17
 207              		.loc 1 44 37 is_stmt 0 discriminator 1
 208 0104 03B80600 		ld	a6,0(a3)
 209              		.loc 1 44 46 discriminator 1
 210 0108 93156800 		slli	a1,a6,6
 211              		.loc 1 44 29 discriminator 1
 212 010c B385B600 		add	a1,a3,a1
 213              		.loc 1 44 14 discriminator 1
 214 0110 6384E502 		beq	a1,a4,.L22
 215              	.L17:
  45:src/_Mem.cpp  ****         prev->blocknum +=  cur->blocknum;
  46:src/_Mem.cpp  ****         cur = prev;
  47:src/_Mem.cpp  ****     }
  48:src/_Mem.cpp  ****     else if (prev) prev->next = cur;
 216              		.loc 1 48 10 is_stmt 1
 217 0114 638A0602 		beqz	a3,.L19
 218              		.loc 1 48 20 discriminator 1
 219              		.loc 1 48 31 is_stmt 0 discriminator 1
 220 0118 23B4E600 		sd	a4,8(a3)
 221              	.LVL21:
 222              	.L18:
  49:src/_Mem.cpp  ****     else head = cur;
  50:src/_Mem.cpp  ****     if (next && (void*)next == end) {//ako su spojeni next i cur
 223              		.loc 1 50 5 is_stmt 1
 224 011c 63840700 		beqz	a5,.L20
 225              		.loc 1 50 14 is_stmt 0 discriminator 1
 226 0120 638AC702 		beq	a5,a2,.L23
 227              	.L20:
  51:src/_Mem.cpp  ****         cur->blocknum += next->blocknum;
  52:src/_Mem.cpp  ****         cur->next = next->next;
  53:src/_Mem.cpp  ****     }
  54:src/_Mem.cpp  ****     else cur->next = next;
 228              		.loc 1 54 10 is_stmt 1
GAS LISTING /tmp/ccKKSmy8.s 			page 6


 229              		.loc 1 54 20 is_stmt 0
 230 0124 2334F700 		sd	a5,8(a4)
 231              	.LVL22:
 232              	.L14:
  55:src/_Mem.cpp  ****     return 0;
  56:src/_Mem.cpp  **** }
 233              		.loc 1 56 1
 234 0128 13050000 		li	a0,0
 235 012c 03348100 		ld	s0,8(sp)
 236              		.cfi_remember_state
 237              		.cfi_restore 8
 238              		.cfi_def_cfa 2, 16
 239 0130 13010101 		addi	sp,sp,16
 240              		.cfi_def_cfa_offset 0
 241 0134 67800000 		jr	ra
 242              	.LVL23:
 243              	.L22:
 244              		.cfi_restore_state
  45:src/_Mem.cpp  ****         cur = prev;
 245              		.loc 1 45 9 is_stmt 1
  45:src/_Mem.cpp  ****         cur = prev;
 246              		.loc 1 45 24 is_stmt 0
 247 0138 33050501 		add	a0,a0,a6
 248 013c 23B0A600 		sd	a0,0(a3)
  46:src/_Mem.cpp  ****     }
 249              		.loc 1 46 9 is_stmt 1
 250              	.LVL24:
  46:src/_Mem.cpp  ****     }
 251              		.loc 1 46 13 is_stmt 0
 252 0140 13870600 		mv	a4,a3
 253 0144 6FF09FFD 		j	.L18
 254              	.LVL25:
 255              	.L19:
  49:src/_Mem.cpp  ****     if (next && (void*)next == end) {//ako su spojeni next i cur
 256              		.loc 1 49 10 is_stmt 1
  49:src/_Mem.cpp  ****     if (next && (void*)next == end) {//ako su spojeni next i cur
 257              		.loc 1 49 15 is_stmt 0
 258 0148 97060000 		sd	a4,.LANCHOR0,a3
 258      23B0E600 
 259              	.LVL26:
 260 0150 6FF0DFFC 		j	.L18
 261              	.L23:
  51:src/_Mem.cpp  ****         cur->next = next->next;
 262              		.loc 1 51 9 is_stmt 1
  51:src/_Mem.cpp  ****         cur->next = next->next;
 263              		.loc 1 51 32 is_stmt 0
 264 0154 03B60700 		ld	a2,0(a5)
 265              	.LVL27:
  51:src/_Mem.cpp  ****         cur->next = next->next;
 266              		.loc 1 51 23
 267 0158 83360700 		ld	a3,0(a4)
 268 015c B386C600 		add	a3,a3,a2
 269 0160 2330D700 		sd	a3,0(a4)
  52:src/_Mem.cpp  ****     }
 270              		.loc 1 52 9 is_stmt 1
  52:src/_Mem.cpp  ****     }
 271              		.loc 1 52 27 is_stmt 0
GAS LISTING /tmp/ccKKSmy8.s 			page 7


 272 0164 83B78700 		ld	a5,8(a5)
 273              	.LVL28:
  52:src/_Mem.cpp  ****     }
 274              		.loc 1 52 19
 275 0168 2334F700 		sd	a5,8(a4)
 276 016c 6FF0DFFB 		j	.L14
 277              		.cfi_endproc
 278              	.LFE3:
 280              		.align	2
 281              		.globl	_ZN4_Mem11getBlockNumEm
 283              	_ZN4_Mem11getBlockNumEm:
 284              	.LFB4:
  57:src/_Mem.cpp  **** 
  58:src/_Mem.cpp  **** size_t _Mem::getBlockNum(size_t size) {
 285              		.loc 1 58 39 is_stmt 1
 286              		.cfi_startproc
 287              	.LVL29:
 288 0170 130101FF 		addi	sp,sp,-16
 289              		.cfi_def_cfa_offset 16
 290 0174 23348100 		sd	s0,8(sp)
 291              		.cfi_offset 8, -8
 292 0178 13040101 		addi	s0,sp,16
 293              		.cfi_def_cfa 8, 0
  59:src/_Mem.cpp  ****     return (size + header_size + MEM_BLOCK_SIZE - 1) / MEM_BLOCK_SIZE;
 294              		.loc 1 59 5
 295              		.loc 1 59 49 is_stmt 0
 296 017c 13057504 		addi	a0,a0,71
 297              	.LVL30:
  60:src/_Mem.cpp  **** }
 298              		.loc 1 60 1
 299 0180 13556500 		srli	a0,a0,6
 300              	.LVL31:
 301 0184 03348100 		ld	s0,8(sp)
 302              		.cfi_restore 8
 303              		.cfi_def_cfa 2, 16
 304 0188 13010101 		addi	sp,sp,16
 305              		.cfi_def_cfa_offset 0
 306 018c 67800000 		jr	ra
 307              		.cfi_endproc
 308              	.LFE4:
 310              		.align	2
 311              		.globl	_ZN4_Mem8allocateEm
 313              	_ZN4_Mem8allocateEm:
 314              	.LFB2:
  34:src/_Mem.cpp  ****     return _Mem::alloc(_Mem::getBlockNum(size));
 315              		.loc 1 34 35 is_stmt 1
 316              		.cfi_startproc
 317              	.LVL32:
 318 0190 130101FF 		addi	sp,sp,-16
 319              		.cfi_def_cfa_offset 16
 320 0194 23341100 		sd	ra,8(sp)
 321 0198 23308100 		sd	s0,0(sp)
 322              		.cfi_offset 1, -8
 323              		.cfi_offset 8, -16
 324 019c 13040101 		addi	s0,sp,16
 325              		.cfi_def_cfa 8, 0
  35:src/_Mem.cpp  **** }
GAS LISTING /tmp/ccKKSmy8.s 			page 8


 326              		.loc 1 35 5
  35:src/_Mem.cpp  **** }
 327              		.loc 1 35 23 is_stmt 0
 328 01a0 97000000 		call	_ZN4_Mem11getBlockNumEm
 328      E7800000 
 329              	.LVL33:
 330 01a8 97000000 		call	_ZN4_Mem5allocEm
 330      E7800000 
 331              	.LVL34:
  36:src/_Mem.cpp  **** int _Mem::free(void* addr) {
 332              		.loc 1 36 1
 333 01b0 83308100 		ld	ra,8(sp)
 334              		.cfi_restore 1
 335 01b4 03340100 		ld	s0,0(sp)
 336              		.cfi_restore 8
 337              		.cfi_def_cfa 2, 16
 338 01b8 13010101 		addi	sp,sp,16
 339              		.cfi_def_cfa_offset 0
 340 01bc 67800000 		jr	ra
 341              		.cfi_endproc
 342              	.LFE2:
 344              		.globl	_ZN4_Mem4headE
 345              		.globl	_ZN4_Mem11header_sizeE
 346              		.section	.rodata
 347              		.align	3
 350              	_ZN4_Mem11header_sizeE:
 351 0000 08000000 		.dword	8
 351      00000000 
 352              		.bss
 353              		.align	3
 354              		.set	.LANCHOR0,. + 0
 357              	_ZN4_Mem4headE:
 358 0000 00000000 		.zero	8
 358      00000000 
 359              		.text
 360              	.Letext0:
 361              		.file 2 "src/../h/../lib/hw.h"
 362              		.file 3 "src/../h/_Mem.h"
GAS LISTING /tmp/ccKKSmy8.s 			page 9


DEFINED SYMBOLS
                            *ABS*:0000000000000000 _Mem.cpp
     /tmp/ccKKSmy8.s:9      .text:0000000000000000 _ZN4_Mem4initEPKvS1_
     /tmp/ccKKSmy8.s:13     .text:0000000000000000 .L0 
     /tmp/ccKKSmy8.s:15     .text:0000000000000000 .L0 
     /tmp/ccKKSmy8.s:16     .text:0000000000000004 .L0 
     /tmp/ccKKSmy8.s:18     .text:0000000000000008 .L0 
     /tmp/ccKKSmy8.s:20     .text:000000000000000c .L0 
     /tmp/ccKKSmy8.s:22     .text:000000000000000c .L0 
     /tmp/ccKKSmy8.s:23     .text:000000000000000c .L0 
     /tmp/ccKKSmy8.s:26     .text:0000000000000018 .L0 
     /tmp/ccKKSmy8.s:27     .text:0000000000000018 .L0 
     /tmp/ccKKSmy8.s:30     .text:000000000000001c .L0 
     /tmp/ccKKSmy8.s:32     .text:0000000000000020 .L0 
     /tmp/ccKKSmy8.s:34     .text:0000000000000024 .L0 
     /tmp/ccKKSmy8.s:35     .text:0000000000000024 .L0 
     /tmp/ccKKSmy8.s:37     .text:0000000000000028 .L0 
     /tmp/ccKKSmy8.s:39     .text:000000000000002c .L0 
     /tmp/ccKKSmy8.s:40     .text:0000000000000030 .L0 
     /tmp/ccKKSmy8.s:41     .text:0000000000000030 .L0 
     /tmp/ccKKSmy8.s:43     .text:0000000000000034 .L0 
     /tmp/ccKKSmy8.s:45     .text:0000000000000038 .L0 
     /tmp/ccKKSmy8.s:51     .text:0000000000000038 _ZN4_Mem5allocEm
     /tmp/ccKKSmy8.s:54     .text:0000000000000038 .L0 
     /tmp/ccKKSmy8.s:56     .text:0000000000000038 .L0 
     /tmp/ccKKSmy8.s:57     .text:000000000000003c .L0 
     /tmp/ccKKSmy8.s:59     .text:0000000000000040 .L0 
     /tmp/ccKKSmy8.s:61     .text:0000000000000044 .L0 
     /tmp/ccKKSmy8.s:64     .text:0000000000000048 .L0 
     /tmp/ccKKSmy8.s:65     .text:0000000000000048 .L0 
     /tmp/ccKKSmy8.s:68     .text:0000000000000050 .L0 
     /tmp/ccKKSmy8.s:72     .text:0000000000000054 .L0 
     /tmp/ccKKSmy8.s:73     .text:0000000000000054 .L0 
     /tmp/ccKKSmy8.s:75     .text:0000000000000058 .L0 
     /tmp/ccKKSmy8.s:77     .text:000000000000005c .L0 
     /tmp/ccKKSmy8.s:80     .text:0000000000000060 .L0 
     /tmp/ccKKSmy8.s:81     .text:0000000000000060 .L0 
     /tmp/ccKKSmy8.s:83     .text:0000000000000064 .L0 
     /tmp/ccKKSmy8.s:86     .text:0000000000000068 .L0 
     /tmp/ccKKSmy8.s:89     .text:000000000000006c .L0 
     /tmp/ccKKSmy8.s:91     .text:0000000000000070 .L0 
     /tmp/ccKKSmy8.s:92     .text:0000000000000070 .L0 
     /tmp/ccKKSmy8.s:93     .text:0000000000000070 .L0 
     /tmp/ccKKSmy8.s:95     .text:0000000000000074 .L0 
     /tmp/ccKKSmy8.s:97     .text:0000000000000078 .L0 
     /tmp/ccKKSmy8.s:98     .text:0000000000000078 .L0 
     /tmp/ccKKSmy8.s:100    .text:000000000000007c .L0 
     /tmp/ccKKSmy8.s:103    .text:0000000000000080 .L0 
     /tmp/ccKKSmy8.s:104    .text:0000000000000080 .L0 
     /tmp/ccKKSmy8.s:106    .text:0000000000000084 .L0 
     /tmp/ccKKSmy8.s:108    .text:0000000000000088 .L0 
     /tmp/ccKKSmy8.s:109    .text:0000000000000088 .L0 
     /tmp/ccKKSmy8.s:111    .text:000000000000008c .L0 
     /tmp/ccKKSmy8.s:113    .text:0000000000000090 .L0 
     /tmp/ccKKSmy8.s:114    .text:0000000000000090 .L0 
     /tmp/ccKKSmy8.s:117    .text:0000000000000094 .L0 
     /tmp/ccKKSmy8.s:119    .text:0000000000000098 .L0 
GAS LISTING /tmp/ccKKSmy8.s 			page 10


     /tmp/ccKKSmy8.s:120    .text:0000000000000098 .L0 
     /tmp/ccKKSmy8.s:124    .text:000000000000009c .L0 
     /tmp/ccKKSmy8.s:125    .text:000000000000009c .L0 
     /tmp/ccKKSmy8.s:129    .text:00000000000000a0 .L0 
     /tmp/ccKKSmy8.s:130    .text:00000000000000a4 .L0 
     /tmp/ccKKSmy8.s:131    .text:00000000000000a4 .L0 
     /tmp/ccKKSmy8.s:132    .text:00000000000000a4 .L0 
     /tmp/ccKKSmy8.s:134    .text:00000000000000a8 .L0 
     /tmp/ccKKSmy8.s:138    .text:00000000000000ac .L0 
     /tmp/ccKKSmy8.s:140    .text:00000000000000ac .L0 
     /tmp/ccKKSmy8.s:141    .text:00000000000000ac .L0 
     /tmp/ccKKSmy8.s:146    .text:00000000000000b4 .L0 
     /tmp/ccKKSmy8.s:147    .text:00000000000000b4 .L0 
     /tmp/ccKKSmy8.s:150    .text:00000000000000c0 .L0 
     /tmp/ccKKSmy8.s:156    .text:00000000000000c0 _ZN4_Mem4freeEPv
     /tmp/ccKKSmy8.s:159    .text:00000000000000c0 .L0 
     /tmp/ccKKSmy8.s:161    .text:00000000000000c0 .L0 
     /tmp/ccKKSmy8.s:162    .text:00000000000000c4 .L0 
     /tmp/ccKKSmy8.s:164    .text:00000000000000c8 .L0 
     /tmp/ccKKSmy8.s:166    .text:00000000000000cc .L0 
     /tmp/ccKKSmy8.s:168    .text:00000000000000cc .L0 
     /tmp/ccKKSmy8.s:170    .text:00000000000000d0 .L0 
     /tmp/ccKKSmy8.s:171    .text:00000000000000d0 .L0 
     /tmp/ccKKSmy8.s:174    .text:00000000000000d4 .L0 
     /tmp/ccKKSmy8.s:175    .text:00000000000000d4 .L0 
     /tmp/ccKKSmy8.s:178    .text:00000000000000d8 .L0 
     /tmp/ccKKSmy8.s:180    .text:00000000000000dc .L0 
     /tmp/ccKKSmy8.s:183    .text:00000000000000e0 .L0 
     /tmp/ccKKSmy8.s:184    .text:00000000000000e0 .L0 
     /tmp/ccKKSmy8.s:187    .text:00000000000000e8 .L0 
     /tmp/ccKKSmy8.s:191    .text:00000000000000ec .L0 
     /tmp/ccKKSmy8.s:192    .text:00000000000000ec .L0 
     /tmp/ccKKSmy8.s:194    .text:00000000000000f0 .L0 
     /tmp/ccKKSmy8.s:197    .text:00000000000000f4 .L0 
     /tmp/ccKKSmy8.s:198    .text:00000000000000f4 .L0 
     /tmp/ccKKSmy8.s:200    .text:00000000000000f8 .L0 
     /tmp/ccKKSmy8.s:203    .text:00000000000000fc .L0 
     /tmp/ccKKSmy8.s:206    .text:0000000000000100 .L0 
     /tmp/ccKKSmy8.s:208    .text:0000000000000104 .L0 
     /tmp/ccKKSmy8.s:210    .text:0000000000000108 .L0 
     /tmp/ccKKSmy8.s:212    .text:000000000000010c .L0 
     /tmp/ccKKSmy8.s:214    .text:0000000000000110 .L0 
     /tmp/ccKKSmy8.s:217    .text:0000000000000114 .L0 
     /tmp/ccKKSmy8.s:219    .text:0000000000000118 .L0 
     /tmp/ccKKSmy8.s:220    .text:0000000000000118 .L0 
     /tmp/ccKKSmy8.s:224    .text:000000000000011c .L0 
     /tmp/ccKKSmy8.s:226    .text:0000000000000120 .L0 
     /tmp/ccKKSmy8.s:229    .text:0000000000000124 .L0 
     /tmp/ccKKSmy8.s:230    .text:0000000000000124 .L0 
     /tmp/ccKKSmy8.s:234    .text:0000000000000128 .L0 
     /tmp/ccKKSmy8.s:236    .text:0000000000000130 .L0 
     /tmp/ccKKSmy8.s:237    .text:0000000000000130 .L0 
     /tmp/ccKKSmy8.s:238    .text:0000000000000130 .L0 
     /tmp/ccKKSmy8.s:240    .text:0000000000000134 .L0 
     /tmp/ccKKSmy8.s:244    .text:0000000000000138 .L0 
     /tmp/ccKKSmy8.s:246    .text:0000000000000138 .L0 
     /tmp/ccKKSmy8.s:247    .text:0000000000000138 .L0 
GAS LISTING /tmp/ccKKSmy8.s 			page 11


     /tmp/ccKKSmy8.s:251    .text:0000000000000140 .L0 
     /tmp/ccKKSmy8.s:252    .text:0000000000000140 .L0 
     /tmp/ccKKSmy8.s:257    .text:0000000000000148 .L0 
     /tmp/ccKKSmy8.s:258    .text:0000000000000148 .L0 
     /tmp/ccKKSmy8.s:263    .text:0000000000000154 .L0 
     /tmp/ccKKSmy8.s:264    .text:0000000000000154 .L0 
     /tmp/ccKKSmy8.s:267    .text:0000000000000158 .L0 
     /tmp/ccKKSmy8.s:271    .text:0000000000000164 .L0 
     /tmp/ccKKSmy8.s:272    .text:0000000000000164 .L0 
     /tmp/ccKKSmy8.s:275    .text:0000000000000168 .L0 
     /tmp/ccKKSmy8.s:277    .text:0000000000000170 .L0 
     /tmp/ccKKSmy8.s:283    .text:0000000000000170 _ZN4_Mem11getBlockNumEm
     /tmp/ccKKSmy8.s:286    .text:0000000000000170 .L0 
     /tmp/ccKKSmy8.s:288    .text:0000000000000170 .L0 
     /tmp/ccKKSmy8.s:289    .text:0000000000000174 .L0 
     /tmp/ccKKSmy8.s:291    .text:0000000000000178 .L0 
     /tmp/ccKKSmy8.s:293    .text:000000000000017c .L0 
     /tmp/ccKKSmy8.s:295    .text:000000000000017c .L0 
     /tmp/ccKKSmy8.s:296    .text:000000000000017c .L0 
     /tmp/ccKKSmy8.s:299    .text:0000000000000180 .L0 
     /tmp/ccKKSmy8.s:302    .text:0000000000000188 .L0 
     /tmp/ccKKSmy8.s:303    .text:0000000000000188 .L0 
     /tmp/ccKKSmy8.s:305    .text:000000000000018c .L0 
     /tmp/ccKKSmy8.s:307    .text:0000000000000190 .L0 
     /tmp/ccKKSmy8.s:313    .text:0000000000000190 _ZN4_Mem8allocateEm
     /tmp/ccKKSmy8.s:316    .text:0000000000000190 .L0 
     /tmp/ccKKSmy8.s:318    .text:0000000000000190 .L0 
     /tmp/ccKKSmy8.s:319    .text:0000000000000194 .L0 
     /tmp/ccKKSmy8.s:322    .text:000000000000019c .L0 
     /tmp/ccKKSmy8.s:323    .text:000000000000019c .L0 
     /tmp/ccKKSmy8.s:325    .text:00000000000001a0 .L0 
     /tmp/ccKKSmy8.s:327    .text:00000000000001a0 .L0 
     /tmp/ccKKSmy8.s:328    .text:00000000000001a0 .L0 
     /tmp/ccKKSmy8.s:333    .text:00000000000001b0 .L0 
     /tmp/ccKKSmy8.s:334    .text:00000000000001b4 .L0 
     /tmp/ccKKSmy8.s:336    .text:00000000000001b8 .L0 
     /tmp/ccKKSmy8.s:337    .text:00000000000001b8 .L0 
     /tmp/ccKKSmy8.s:339    .text:00000000000001bc .L0 
     /tmp/ccKKSmy8.s:341    .text:00000000000001c0 .L0 
     /tmp/ccKKSmy8.s:357    .bss:0000000000000000 _ZN4_Mem4headE
     /tmp/ccKKSmy8.s:350    .rodata:0000000000000000 _ZN4_Mem11header_sizeE
     /tmp/ccKKSmy8.s:354    .bss:0000000000000000 .LANCHOR0
     /tmp/ccKKSmy8.s:363    .text:00000000000001c0 .L0 
     /tmp/ccKKSmy8.s:23     .text:000000000000000c .L0 
     /tmp/ccKKSmy8.s:65     .text:0000000000000048 .L0 
     /tmp/ccKKSmy8.s:147    .text:00000000000000b4 .L0 
     /tmp/ccKKSmy8.s:184    .text:00000000000000e0 .L0 
     /tmp/ccKKSmy8.s:258    .text:0000000000000148 .L0 
     /tmp/ccKKSmy8.s:87     .text:000000000000006c .L4
     /tmp/ccKKSmy8.s:70     .text:0000000000000054 .L5
     /tmp/ccKKSmy8.s:127    .text:00000000000000a0 .L3
     /tmp/ccKKSmy8.s:137    .text:00000000000000ac .L12
     /tmp/ccKKSmy8.s:144    .text:00000000000000b4 .L9
     /tmp/ccKKSmy8.s:115    .text:0000000000000094 .L8
     /tmp/ccKKSmy8.s:122    .text:000000000000009c .L10
     /tmp/ccKKSmy8.s:232    .text:0000000000000128 .L14
     /tmp/ccKKSmy8.s:204    .text:0000000000000100 .L15
GAS LISTING /tmp/ccKKSmy8.s 			page 12


     /tmp/ccKKSmy8.s:189    .text:00000000000000ec .L16
     /tmp/ccKKSmy8.s:215    .text:0000000000000114 .L17
     /tmp/ccKKSmy8.s:243    .text:0000000000000138 .L22
     /tmp/ccKKSmy8.s:255    .text:0000000000000148 .L19
     /tmp/ccKKSmy8.s:227    .text:0000000000000124 .L20
     /tmp/ccKKSmy8.s:261    .text:0000000000000154 .L23
     /tmp/ccKKSmy8.s:222    .text:000000000000011c .L18
     /tmp/ccKKSmy8.s:780    .debug_abbrev:0000000000000000 .Ldebug_abbrev0
     /tmp/ccKKSmy8.s:1558   .debug_str:0000000000000149 .LASF36
     /tmp/ccKKSmy8.s:1584   .debug_str:00000000000002c3 .LASF37
     /tmp/ccKKSmy8.s:1540   .debug_str:00000000000000b4 .LASF38
     /tmp/ccKKSmy8.s:5      .text:0000000000000000 .Ltext0
     /tmp/ccKKSmy8.s:360    .text:00000000000001c0 .Letext0
     /tmp/ccKKSmy8.s:1508   .debug_line:0000000000000000 .Ldebug_line0
     /tmp/ccKKSmy8.s:1556   .debug_str:000000000000013c .LASF0
     /tmp/ccKKSmy8.s:1544   .debug_str:00000000000000ea .LASF1
     /tmp/ccKKSmy8.s:1538   .debug_str:00000000000000a6 .LASF2
     /tmp/ccKKSmy8.s:1522   .debug_str:0000000000000049 .LASF4
     /tmp/ccKKSmy8.s:1542   .debug_str:00000000000000d8 .LASF3
     /tmp/ccKKSmy8.s:1514   .debug_str:000000000000001e .LASF5
     /tmp/ccKKSmy8.s:1510   .debug_str:0000000000000000 .LASF6
     /tmp/ccKKSmy8.s:1534   .debug_str:0000000000000084 .LASF7
     /tmp/ccKKSmy8.s:1560   .debug_str:0000000000000219 .LASF8
     /tmp/ccKKSmy8.s:1520   .debug_str:000000000000003b .LASF9
     /tmp/ccKKSmy8.s:1594   .debug_str:00000000000002fa .LASF10
     /tmp/ccKKSmy8.s:1536   .debug_str:0000000000000097 .LASF11
     /tmp/ccKKSmy8.s:1580   .debug_str:00000000000002a7 .LASF12
     /tmp/ccKKSmy8.s:1564   .debug_str:000000000000023f .LASF13
     /tmp/ccKKSmy8.s:1546   .debug_str:00000000000000fd .LASF14
     /tmp/ccKKSmy8.s:1528   .debug_str:000000000000005e .LASF15
     /tmp/ccKKSmy8.s:1562   .debug_str:0000000000000229 .LASF16
     /tmp/ccKKSmy8.s:1548   .debug_str:0000000000000109 .LASF39
     /tmp/ccKKSmy8.s:1530   .debug_str:0000000000000074 .LASF40
     /tmp/ccKKSmy8.s:1524   .debug_str:0000000000000050 .LASF17
     /tmp/ccKKSmy8.s:1516   .debug_str:0000000000000025 .LASF18
     /tmp/ccKKSmy8.s:1552   .debug_str:000000000000011f .LASF41
     /tmp/ccKKSmy8.s:1526   .debug_str:0000000000000059 .LASF25
     /tmp/ccKKSmy8.s:1576   .debug_str:000000000000028c .LASF27
     /tmp/ccKKSmy8.s:1578   .debug_str:00000000000002a1 .LASF19
     /tmp/ccKKSmy8.s:1518   .debug_str:000000000000002a .LASF21
     /tmp/ccKKSmy8.s:1570   .debug_str:000000000000025d .LASF20
     /tmp/ccKKSmy8.s:1588   .debug_str:00000000000002d5 .LASF22
     /tmp/ccKKSmy8.s:1566   .debug_str:000000000000024f .LASF23
     /tmp/ccKKSmy8.s:1550   .debug_str:000000000000010e .LASF24
     /tmp/ccKKSmy8.s:1582   .debug_str:00000000000002b7 .LASF42
     /tmp/ccKKSmy8.s:1592   .debug_str:00000000000002ee .LASF26
     /tmp/ccKKSmy8.s:1554   .debug_str:0000000000000124 .LASF28
     /tmp/ccKKSmy8.s:1574   .debug_str:0000000000000275 .LASF29
     /tmp/ccKKSmy8.s:1572   .debug_str:0000000000000266 .LASF30
     /tmp/ccKKSmy8.s:284    .text:0000000000000170 .LFB4
     /tmp/ccKKSmy8.s:308    .text:0000000000000190 .LFE4
     /tmp/ccKKSmy8.s:1586   .debug_str:00000000000002d0 .LASF31
     /tmp/ccKKSmy8.s:1273   .debug_loc:0000000000000000 .LLST10
     /tmp/ccKKSmy8.s:157    .text:00000000000000c0 .LFB3
     /tmp/ccKKSmy8.s:278    .text:0000000000000170 .LFE3
     /tmp/ccKKSmy8.s:1532   .debug_str:000000000000007f .LASF32
     /tmp/ccKKSmy8.s:1293   .debug_loc:000000000000004f .LLST5
GAS LISTING /tmp/ccKKSmy8.s 			page 13


     /tmp/ccKKSmy8.s:1313   .debug_loc:000000000000009d .LLST6
     /tmp/ccKKSmy8.s:1332   .debug_loc:00000000000000f9 .LLST7
     /tmp/ccKKSmy8.s:1343   .debug_loc:000000000000012f .LLST8
     /tmp/ccKKSmy8.s:1590   .debug_str:00000000000002e9 .LASF33
     /tmp/ccKKSmy8.s:1363   .debug_loc:000000000000018c .LLST9
     /tmp/ccKKSmy8.s:314    .text:0000000000000190 .LFB2
     /tmp/ccKKSmy8.s:342    .text:00000000000001c0 .LFE2
     /tmp/ccKKSmy8.s:1387   .debug_loc:00000000000001fc .LLST11
     /tmp/ccKKSmy8.s:329    .text:00000000000001a8 .LVL33
     /tmp/ccKKSmy8.s:331    .text:00000000000001b0 .LVL34
     /tmp/ccKKSmy8.s:52     .text:0000000000000038 .LFB1
     /tmp/ccKKSmy8.s:151    .text:00000000000000c0 .LFE1
     /tmp/ccKKSmy8.s:1401   .debug_loc:0000000000000235 .LLST1
     /tmp/ccKKSmy8.s:1430   .debug_loc:00000000000002aa .LLST2
     /tmp/ccKKSmy8.s:1450   .debug_loc:0000000000000307 .LLST3
     /tmp/ccKKSmy8.s:1470   .debug_loc:0000000000000364 .LLST4
     /tmp/ccKKSmy8.s:10     .text:0000000000000000 .LFB0
     /tmp/ccKKSmy8.s:46     .text:0000000000000038 .LFE0
     /tmp/ccKKSmy8.s:1512   .debug_str:0000000000000013 .LASF34
     /tmp/ccKKSmy8.s:1568   .debug_str:0000000000000254 .LASF35
     /tmp/ccKKSmy8.s:1481   .debug_loc:000000000000039a .LLST0
     /tmp/ccKKSmy8.s:287    .text:0000000000000170 .LVL29
     /tmp/ccKKSmy8.s:297    .text:0000000000000180 .LVL30
     /tmp/ccKKSmy8.s:300    .text:0000000000000184 .LVL31
     /tmp/ccKKSmy8.s:160    .text:00000000000000c0 .LVL13
     /tmp/ccKKSmy8.s:176    .text:00000000000000d8 .LVL15
     /tmp/ccKKSmy8.s:221    .text:000000000000011c .LVL21
     /tmp/ccKKSmy8.s:172    .text:00000000000000d4 .LVL14
     /tmp/ccKKSmy8.s:231    .text:0000000000000128 .LVL22
     /tmp/ccKKSmy8.s:242    .text:0000000000000138 .LVL23
     /tmp/ccKKSmy8.s:250    .text:0000000000000140 .LVL24
     /tmp/ccKKSmy8.s:254    .text:0000000000000148 .LVL25
     /tmp/ccKKSmy8.s:181    .text:00000000000000e0 .LVL16
     /tmp/ccKKSmy8.s:265    .text:0000000000000158 .LVL27
     /tmp/ccKKSmy8.s:185    .text:00000000000000e8 .LVL17
     /tmp/ccKKSmy8.s:196    .text:00000000000000f4 .LVL19
     /tmp/ccKKSmy8.s:201    .text:00000000000000fc .LVL20
     /tmp/ccKKSmy8.s:273    .text:0000000000000168 .LVL28
     /tmp/ccKKSmy8.s:188    .text:00000000000000ec .LVL18
     /tmp/ccKKSmy8.s:259    .text:0000000000000150 .LVL26
     /tmp/ccKKSmy8.s:317    .text:0000000000000190 .LVL32
     /tmp/ccKKSmy8.s:55     .text:0000000000000038 .LVL2
     /tmp/ccKKSmy8.s:66     .text:0000000000000050 .LVL3
     /tmp/ccKKSmy8.s:121    .text:000000000000009c .LVL8
     /tmp/ccKKSmy8.s:136    .text:00000000000000ac .LVL10
     /tmp/ccKKSmy8.s:148    .text:00000000000000bc .LVL12
     /tmp/ccKKSmy8.s:79     .text:0000000000000060 .LVL5
     /tmp/ccKKSmy8.s:84     .text:0000000000000068 .LVL6
     /tmp/ccKKSmy8.s:126    .text:00000000000000a0 .LVL9
     /tmp/ccKKSmy8.s:69     .text:0000000000000054 .LVL4
     /tmp/ccKKSmy8.s:101    .text:0000000000000080 .LVL7
     /tmp/ccKKSmy8.s:142    .text:00000000000000b0 .LVL11
     /tmp/ccKKSmy8.s:14     .text:0000000000000000 .LVL0
     /tmp/ccKKSmy8.s:28     .text:000000000000001c .LVL1
     /tmp/ccKKSmy8.s:364    .debug_info:0000000000000000 .Ldebug_info0

NO UNDEFINED SYMBOLS
GAS LISTING /tmp/ccKKSmy8.s 			page 14


