GAS LISTING /tmp/ccAbe50I.s 			page 1


   1              		.file	"_PMT.cpp"
   2              		.option pic
   3              		.option norelax
   4              		.text
   5              	.Ltext0:
   6              		.align	2
   7              		.globl	_ZN4_PMTC2Eb
   9              	_ZN4_PMTC2Eb:
  10              	.LFB46:
  11              		.file 1 "src/_PMT.cpp"
   1:src/_PMT.cpp  **** //
   2:src/_PMT.cpp  **** // Created by os on 11/24/22.
   3:src/_PMT.cpp  **** //
   4:src/_PMT.cpp  **** #include "../lib/hw.h"
   5:src/_PMT.cpp  **** #include "../h/_slab.h"
   6:src/_PMT.cpp  **** #include "../h/_BuddyAllocator.h"
   7:src/_PMT.cpp  **** #include "../h/_PMT.h"
   8:src/_PMT.cpp  **** 
   9:src/_PMT.cpp  **** _PMT::_PMT(bool direct) {
  12              		.loc 1 9 1
  13              		.cfi_startproc
  14              	.LVL0:
  15 0000 130101FF 		addi	sp,sp,-16
  16              		.cfi_def_cfa_offset 16
  17 0004 23348100 		sd	s0,8(sp)
  18              		.cfi_offset 8, -8
  19 0008 13040101 		addi	s0,sp,16
  20              		.cfi_def_cfa 8, 0
  21              	.LBB76:
  22              		.loc 1 9 23 is_stmt 0
  23 000c 13070500 		mv	a4,a0
  24 0010 9307F01F 		li	a5,511
  25              	.L3:
  26              		.loc 1 9 23 is_stmt 1 discriminator 4
  27 0014 63CA0700 		bltz	a5,.L2
  28              	.LVL1:
  29              	.LBB77:
  30              	.LBB78:
  31              		.file 2 "src/../h/_PMT.h"
   1:src/../h/_PMT.h **** //
   2:src/../h/_PMT.h **** // Created by os on 11/26/22.
   3:src/../h/_PMT.h **** //
   4:src/../h/_PMT.h **** 
   5:src/../h/_PMT.h **** #ifndef BASE_PREDAJA__PMT_H
   6:src/../h/_PMT.h **** #define BASE_PREDAJA__PMT_H
   7:src/../h/_PMT.h **** 
   8:src/../h/_PMT.h **** class _PMTE {
   9:src/../h/_PMT.h ****     uint64 val;
  10:src/../h/_PMT.h ****     /*
  11:src/../h/_PMT.h ****      * 63 - 54 : ? = 0
  12:src/../h/_PMT.h ****      * 53 - 10 : Frame
  13:src/../h/_PMT.h ****      * 9 - 8 : RSW = 0
  14:src/../h/_PMT.h ****      * 7 : D = 1
  15:src/../h/_PMT.h ****      * 6 : A = 1 //Postavlja A i D na 1 jer implementacija ni mogla da izazove page fault u suprotn
  16:src/../h/_PMT.h ****      * 5 : G = 1 //Global, jer ce biti samo jedna _PMT
  17:src/../h/_PMT.h ****      * 4 : U
  18:src/../h/_PMT.h ****      * 3 : X = 1
GAS LISTING /tmp/ccAbe50I.s 			page 2


  19:src/../h/_PMT.h ****      * 2 : W = 1;
  20:src/../h/_PMT.h ****      * 1 : R = 1
  21:src/../h/_PMT.h ****      * 0 : V
  22:src/../h/_PMT.h ****      */
  23:src/../h/_PMT.h **** public:
  24:src/../h/_PMT.h ****     _PMTE() { val = 0; }
  32              		.loc 2 24 15
  33              		.loc 2 24 19 is_stmt 0
  34 0018 23300700 		sd	zero,0(a4)
  35              	.LVL2:
  36              	.LBE78:
  37              	.LBE77:
  38              		.loc 1 9 23
  39 001c 13078700 		addi	a4,a4,8
  40              		.loc 1 9 23 is_stmt 1
  41 0020 9387F7FF 		addi	a5,a5,-1
  42 0024 6FF01FFF 		j	.L3
  43              	.L2:
  44              	.LBB79:
  10:src/_PMT.cpp  ****     if (!direct) return;
  45              		.loc 1 10 5 discriminator 2
  46 0028 63860502 		beqz	a1,.L1
  47              	.LBB80:
  11:src/_PMT.cpp  ****     for (int i = 0; i < 512; i++) {
  48              		.loc 1 11 14 is_stmt 0
  49 002c 93070000 		li	a5,0
  50              	.L5:
  51              	.LVL3:
  52              		.loc 1 11 23 is_stmt 1 discriminator 3
  53 0030 1307F01F 		li	a4,511
  54 0034 6340F702 		bgt	a5,a4,.L1
  12:src/_PMT.cpp  ****         entries[i].setDefaultLeaf(); //PRAVIM SUPERPAGE
  55              		.loc 1 12 9 discriminator 2
  56              	.LVL4:
  57              	.LBE80:
  58              	.LBE79:
  59              	.LBE76:
  25:src/../h/_PMT.h ****     void setV() { val |= 1; }
  26:src/../h/_PMT.h ****     bool isValid() { return val & 1;}
  27:src/../h/_PMT.h ****     void clearV() { val &= ~(uint64)1; }
  28:src/../h/_PMT.h ****     void setRWX () { val |= 14; }
  29:src/../h/_PMT.h ****     bool isLeaf() { return (val >> 1) & 7ull; }
  30:src/../h/_PMT.h ****     void setAD() { val |= 192; }
  31:src/../h/_PMT.h ****     void setFrame(uint64 frame) {
  32:src/../h/_PMT.h ****         val &= 0xFFC00000000003FFULL;
  33:src/../h/_PMT.h ****         val |= frame << 10;
  34:src/../h/_PMT.h ****     }
  35:src/../h/_PMT.h ****     uint64 getFrame() {
  36:src/../h/_PMT.h ****         return (val >> 10) & 0xFFFFFFFFFFFULL;
  37:src/../h/_PMT.h ****     }
  38:src/../h/_PMT.h ****     void setG() { val |= 32; }
  39:src/../h/_PMT.h ****     void setDefaultLeaf() {
  40:src/../h/_PMT.h ****         val = 0;
  60              		.loc 2 40 9 discriminator 2
  41:src/../h/_PMT.h ****         setV(); setRWX(); setAD(); setG(); setU();
  61              		.loc 2 41 9 discriminator 2
  25:src/../h/_PMT.h ****     void setV() { val |= 1; }
GAS LISTING /tmp/ccAbe50I.s 			page 3


  62              		.loc 2 25 19 discriminator 2
  63              		.loc 2 41 17 discriminator 2
  28:src/../h/_PMT.h ****     bool isLeaf() { return (val >> 1) & 7ull; }
  64              		.loc 2 28 22 discriminator 2
  65              		.loc 2 41 27 discriminator 2
  30:src/../h/_PMT.h ****     void setFrame(uint64 frame) {
  66              		.loc 2 30 20 discriminator 2
  67              		.loc 2 41 36 discriminator 2
  38:src/../h/_PMT.h ****     void setDefaultLeaf() {
  68              		.loc 2 38 19 discriminator 2
  69              		.loc 2 41 44 discriminator 2
  42:src/../h/_PMT.h ****     }
  43:src/../h/_PMT.h ****     void setDefaultNode() {
  44:src/../h/_PMT.h ****         val = 0;
  45:src/../h/_PMT.h ****         setV();
  46:src/../h/_PMT.h ****     }
  47:src/../h/_PMT.h ****     void setU() { val |= 16; }
  70              		.loc 2 47 19 discriminator 2
  71              	.LBB85:
  72              	.LBB84:
  73              	.LBB83:
  13:src/_PMT.cpp  ****         entries[i].setFrame(((uint64)i) << 18);
  74              		.loc 1 13 9 discriminator 2
  75              	.LBB81:
  76              	.LBB82:
  32:src/../h/_PMT.h ****         val |= frame << 10;
  77              		.loc 2 32 9 discriminator 2
  33:src/../h/_PMT.h ****     }
  78              		.loc 2 33 9 discriminator 2
  33:src/../h/_PMT.h ****     }
  79              		.loc 2 33 22 is_stmt 0 discriminator 2
  80 0038 9396C701 		slli	a3,a5,28
  33:src/../h/_PMT.h ****     }
  81              		.loc 2 33 13 discriminator 2
  82 003c 13973700 		slli	a4,a5,3
  83 0040 3307E500 		add	a4,a0,a4
  84 0044 93E6F60F 		ori	a3,a3,255
  85 0048 2330D700 		sd	a3,0(a4)
  86              	.LVL5:
  87              	.LBE82:
  88              	.LBE81:
  11:src/_PMT.cpp  ****         entries[i].setDefaultLeaf(); //PRAVIM SUPERPAGE
  89              		.loc 1 11 5 is_stmt 1 discriminator 2
  90 004c 9B871700 		addiw	a5,a5,1
  91              	.LVL6:
  92 0050 6FF01FFE 		j	.L5
  93              	.L1:
  94              	.LBE83:
  95              	.LBE84:
  96              	.LBE85:
  14:src/_PMT.cpp  ****         /*_PMTE* pmt2 = (_PMTE*) buddyAlloc(0);
  15:src/_PMT.cpp  ****         entries[i].setFrame((uint64)pmt2 >> 12);
  16:src/_PMT.cpp  ****         for (int j = 0; j < 512; j++) {
  17:src/_PMT.cpp  ****             pmt2[j].setDefaultNode();
  18:src/_PMT.cpp  ****             _PMTE* pmt3 = (_PMTE*)buddyAlloc(0);
  19:src/_PMT.cpp  ****             pmt2[j].setFrame((uint64)pmt2 >> 12);
  20:src/_PMT.cpp  ****             for (int k = 0; k < 512; k++) {
GAS LISTING /tmp/ccAbe50I.s 			page 4


  21:src/_PMT.cpp  ****                 pmt3[k].setDefaultLeaf();
  22:src/_PMT.cpp  ****                 uint64 frame = ((uint64)k << 18) | ((uint64)j << 9) | ((uint64)i);
  23:src/_PMT.cpp  ****                 pmt3[k].setFrame(frame);
  24:src/_PMT.cpp  ****             }
  25:src/_PMT.cpp  ****         }*/
  26:src/_PMT.cpp  ****     }
  27:src/_PMT.cpp  **** }
  97              		.loc 1 27 1 is_stmt 0
  98 0054 03348100 		ld	s0,8(sp)
  99              		.cfi_restore 8
 100              		.cfi_def_cfa 2, 16
 101 0058 13010101 		addi	sp,sp,16
 102              		.cfi_def_cfa_offset 0
 103 005c 67800000 		jr	ra
 104              		.cfi_endproc
 105              	.LFE46:
 107              		.globl	_ZN4_PMTC1Eb
 108              		.set	_ZN4_PMTC1Eb,_ZN4_PMTC2Eb
 109              		.align	2
 110              		.globl	_ZN4_PMT8getEntryEm
 112              	_ZN4_PMT8getEntryEm:
 113              	.LFB48:
  28:src/_PMT.cpp  **** _PMTE* _PMT::getEntry(uint64 page) {
 114              		.loc 1 28 36 is_stmt 1
 115              		.cfi_startproc
 116              	.LVL7:
 117 0060 130101FD 		addi	sp,sp,-48
 118              		.cfi_def_cfa_offset 48
 119 0064 23341102 		sd	ra,40(sp)
 120 0068 23308102 		sd	s0,32(sp)
 121 006c 233C9100 		sd	s1,24(sp)
 122 0070 23382101 		sd	s2,16(sp)
 123 0074 23343101 		sd	s3,8(sp)
 124 0078 23304101 		sd	s4,0(sp)
 125              		.cfi_offset 1, -8
 126              		.cfi_offset 8, -16
 127              		.cfi_offset 9, -24
 128              		.cfi_offset 18, -32
 129              		.cfi_offset 19, -40
 130              		.cfi_offset 20, -48
 131 007c 13040103 		addi	s0,sp,48
 132              		.cfi_def_cfa 8, 0
  29:src/_PMT.cpp  ****     int k = page & 0x1ffull;
 133              		.loc 1 29 5
 134              		.loc 1 29 9 is_stmt 0
 135 0080 93F4F51F 		andi	s1,a1,511
 136              	.LVL8:
  30:src/_PMT.cpp  ****     int j = (page >> 9) & 0x1ffull;
 137              		.loc 1 30 5 is_stmt 1
 138              		.loc 1 30 19 is_stmt 0
 139 0084 13DA9500 		srli	s4,a1,9
 140              	.LVL9:
  31:src/_PMT.cpp  ****     int i = (page >> 18) & 0x1ffull;
 141              		.loc 1 31 5 is_stmt 1
 142              		.loc 1 31 19 is_stmt 0
 143 0088 93D52501 		srli	a1,a1,18
 144              	.LVL10:
GAS LISTING /tmp/ccAbe50I.s 			page 5


 145              		.loc 1 31 9
 146 008c 13F9F51F 		andi	s2,a1,511
 147              	.LVL11:
  32:src/_PMT.cpp  ****     if (!entries[i].isValid()) return nullptr;
 148              		.loc 1 32 5 is_stmt 1
 149              	.LBB86:
 150              	.LBB87:
  26:src/../h/_PMT.h ****     void clearV() { val &= ~(uint64)1; }
 151              		.loc 2 26 22
  26:src/../h/_PMT.h ****     void clearV() { val &= ~(uint64)1; }
 152              		.loc 2 26 29 is_stmt 0
 153 0090 93173900 		slli	a5,s2,3
 154 0094 B307F500 		add	a5,a0,a5
 155 0098 83B70700 		ld	a5,0(a5)
  26:src/../h/_PMT.h ****     void clearV() { val &= ~(uint64)1; }
 156              		.loc 2 26 33
 157 009c 13F71700 		andi	a4,a5,1
 158              	.LVL12:
 159              	.LBE87:
 160              	.LBE86:
 161              		.loc 1 32 5
 162 00a0 63040716 		beqz	a4,.L13
 163 00a4 93090500 		mv	s3,a0
 164 00a8 137AFA1F 		andi	s4,s4,511
 165              	.LVL13:
  33:src/_PMT.cpp  ****     if (entries[i].isLeaf()) {
 166              		.loc 1 33 5 is_stmt 1
 167              	.LBB88:
 168              	.LBB89:
 169              	.LBB90:
  29:src/../h/_PMT.h ****     void setAD() { val |= 192; }
 170              		.loc 2 29 21
  29:src/../h/_PMT.h ****     void setAD() { val |= 192; }
 171              		.loc 2 29 33 is_stmt 0
 172 00ac 93D71700 		srli	a5,a5,1
  29:src/../h/_PMT.h ****     void setAD() { val |= 192; }
 173              		.loc 2 29 39
 174 00b0 93F77700 		andi	a5,a5,7
 175              	.LVL14:
 176              	.LBE90:
 177              	.LBE89:
 178              		.loc 1 33 5
 179 00b4 63980708 		bnez	a5,.L17
 180              	.LVL15:
 181              	.L9:
 182              	.LBE88:
  34:src/_PMT.cpp  ****         _PMTE *pmt2 = (_PMTE *) buddyAlloc(0);
  35:src/_PMT.cpp  ****         uint64 supFrame = entries[i].getFrame();
  36:src/_PMT.cpp  ****         entries[i].setDefaultNode();
  37:src/_PMT.cpp  ****         entries[i].setFrame((uint64) pmt2 >> 12);
  38:src/_PMT.cpp  ****         for (int t = 0; t < 512; t++) {
  39:src/_PMT.cpp  ****             pmt2[t].setDefaultLeaf();
  40:src/_PMT.cpp  ****             pmt2[t].setFrame(supFrame | ((uint64) t) << 9);
  41:src/_PMT.cpp  ****         }
  42:src/_PMT.cpp  ****     }
  43:src/_PMT.cpp  ****     uint64 pmt2frame = entries[i].getFrame();
 183              		.loc 1 43 5 is_stmt 1
GAS LISTING /tmp/ccAbe50I.s 			page 6


 184              	.LBB102:
 185              	.LBB103:
  36:src/../h/_PMT.h ****     }
 186              		.loc 2 36 9
  36:src/../h/_PMT.h ****     }
 187              		.loc 2 36 17 is_stmt 0
 188 00b8 13193900 		slli	s2,s2,3
 189              	.LVL16:
 190 00bc B3892901 		add	s3,s3,s2
 191              	.LVL17:
 192 00c0 83B70900 		ld	a5,0(s3)
  36:src/../h/_PMT.h ****     }
 193              		.loc 2 36 21
 194 00c4 93D7A700 		srli	a5,a5,10
 195              	.LVL18:
 196              	.LBE103:
 197              	.LBE102:
  44:src/_PMT.cpp  ****     _PMTE* pmt2 = (_PMTE*) (pmt2frame << 12);
 198              		.loc 1 44 5 is_stmt 1
 199              		.loc 1 44 39 is_stmt 0
 200 00c8 9397C700 		slli	a5,a5,12
 201              	.LVL19:
 202 00cc 3707F0FF 		li	a4,-1048576
 203 00d0 13578700 		srli	a4,a4,8
 204 00d4 B3F7E700 		and	a5,a5,a4
 205              	.LVL20:
  45:src/_PMT.cpp  ****     if (!pmt2[j].isValid()) return nullptr;
 206              		.loc 1 45 5 is_stmt 1
 207              		.loc 1 45 16 is_stmt 0
 208 00d8 131A3A00 		slli	s4,s4,3
 209              		.loc 1 45 25
 210 00dc 338A4701 		add	s4,a5,s4
 211              	.LVL21:
 212              	.LBB104:
 213              	.LBB105:
  26:src/../h/_PMT.h ****     void clearV() { val &= ~(uint64)1; }
 214              		.loc 2 26 22 is_stmt 1
  26:src/../h/_PMT.h ****     void clearV() { val &= ~(uint64)1; }
 215              		.loc 2 26 29 is_stmt 0
 216 00e0 83370A00 		ld	a5,0(s4)
 217              	.LVL22:
  26:src/../h/_PMT.h ****     void clearV() { val &= ~(uint64)1; }
 218              		.loc 2 26 33
 219 00e4 13F71700 		andi	a4,a5,1
 220              	.LVL23:
 221              	.LBE105:
 222              	.LBE104:
 223              		.loc 1 45 5
 224 00e8 63040712 		beqz	a4,.L14
  46:src/_PMT.cpp  ****     if (pmt2[j].isLeaf()) {
 225              		.loc 1 46 5 is_stmt 1
 226              	.LVL24:
 227              	.LBB106:
 228              	.LBB107:
 229              	.LBB108:
  29:src/../h/_PMT.h ****     void setAD() { val |= 192; }
 230              		.loc 2 29 21
GAS LISTING /tmp/ccAbe50I.s 			page 7


  29:src/../h/_PMT.h ****     void setAD() { val |= 192; }
 231              		.loc 2 29 33 is_stmt 0
 232 00ec 93D71700 		srli	a5,a5,1
  29:src/../h/_PMT.h ****     void setAD() { val |= 192; }
 233              		.loc 2 29 39
 234 00f0 93F77700 		andi	a5,a5,7
 235              	.LVL25:
 236              	.LBE108:
 237              	.LBE107:
 238              		.loc 1 46 5
 239 00f4 639C070A 		bnez	a5,.L18
 240              	.LVL26:
 241              	.L11:
 242              	.LBE106:
  47:src/_PMT.cpp  ****         _PMTE *pmt3 = (_PMTE *) buddyAlloc(0);
  48:src/_PMT.cpp  ****         uint64 supFrame = pmt2[j].getFrame();
  49:src/_PMT.cpp  ****         pmt2[j].setDefaultNode();
  50:src/_PMT.cpp  ****         pmt2[j].setFrame((uint64) pmt3 >> 12);
  51:src/_PMT.cpp  ****         for (int t = 0; t < 512; t++) {
  52:src/_PMT.cpp  ****             pmt3[t].setDefaultLeaf();
  53:src/_PMT.cpp  ****             pmt3[t].setFrame(supFrame | (uint64)t);
  54:src/_PMT.cpp  ****         }
  55:src/_PMT.cpp  ****     }
  56:src/_PMT.cpp  ****     uint64 pmt3frame = pmt2[j].getFrame();
 243              		.loc 1 56 5 is_stmt 1
 244              	.LBB120:
 245              	.LBB121:
  36:src/../h/_PMT.h ****     }
 246              		.loc 2 36 9
  36:src/../h/_PMT.h ****     }
 247              		.loc 2 36 17 is_stmt 0
 248 00f8 03350A00 		ld	a0,0(s4)
  36:src/../h/_PMT.h ****     }
 249              		.loc 2 36 21
 250 00fc 1355A500 		srli	a0,a0,10
 251              	.LVL27:
 252              	.LBE121:
 253              	.LBE120:
  57:src/_PMT.cpp  ****     _PMTE* pmt3 = (_PMTE*) (pmt3frame << 12);
 254              		.loc 1 57 5 is_stmt 1
 255              		.loc 1 57 39 is_stmt 0
 256 0100 1315C500 		slli	a0,a0,12
 257              	.LVL28:
 258 0104 B707F0FF 		li	a5,-1048576
 259 0108 93D78700 		srli	a5,a5,8
 260 010c 3375F500 		and	a0,a0,a5
 261              	.LVL29:
  58:src/_PMT.cpp  ****     if (!pmt3[k].isValid()) return nullptr;
 262              		.loc 1 58 5 is_stmt 1
 263              		.loc 1 58 16 is_stmt 0
 264 0110 93943400 		slli	s1,s1,3
 265              	.LVL30:
 266              		.loc 1 58 25
 267 0114 33059500 		add	a0,a0,s1
 268              	.LVL31:
 269              	.LBB122:
 270              	.LBB123:
GAS LISTING /tmp/ccAbe50I.s 			page 8


  26:src/../h/_PMT.h ****     void clearV() { val &= ~(uint64)1; }
 271              		.loc 2 26 22 is_stmt 1
  26:src/../h/_PMT.h ****     void clearV() { val &= ~(uint64)1; }
 272              		.loc 2 26 29 is_stmt 0
 273 0118 83370500 		ld	a5,0(a0)
 274              	.LVL32:
  26:src/../h/_PMT.h ****     void clearV() { val &= ~(uint64)1; }
 275              		.loc 2 26 33
 276 011c 93F71700 		andi	a5,a5,1
 277              	.LVL33:
 278              	.LBE123:
 279              	.LBE122:
 280              		.loc 1 58 5
 281 0120 638C070E 		beqz	a5,.L19
 282              	.LVL34:
 283              	.L7:
  59:src/_PMT.cpp  ****     return pmt3 + k;
  60:src/_PMT.cpp  **** }
 284              		.loc 1 60 1
 285 0124 83308102 		ld	ra,40(sp)
 286              		.cfi_remember_state
 287              		.cfi_restore 1
 288 0128 03340102 		ld	s0,32(sp)
 289              		.cfi_restore 8
 290              		.cfi_def_cfa 2, 48
 291 012c 83348101 		ld	s1,24(sp)
 292              		.cfi_restore 9
 293 0130 03390101 		ld	s2,16(sp)
 294              		.cfi_restore 18
 295 0134 83398100 		ld	s3,8(sp)
 296              		.cfi_restore 19
 297 0138 033A0100 		ld	s4,0(sp)
 298              		.cfi_restore 20
 299 013c 13010103 		addi	sp,sp,48
 300              		.cfi_def_cfa_offset 0
 301 0140 67800000 		jr	ra
 302              	.LVL35:
 303              	.L17:
 304              		.cfi_restore_state
 305              	.LBB124:
 306              	.LBB91:
  34:src/_PMT.cpp  ****         uint64 supFrame = entries[i].getFrame();
 307              		.loc 1 34 9 is_stmt 1
  34:src/_PMT.cpp  ****         uint64 supFrame = entries[i].getFrame();
 308              		.loc 1 34 43 is_stmt 0
 309 0144 13050000 		li	a0,0
 310              	.LVL36:
 311 0148 97000000 		call	_Z10buddyAlloci@plt
 311      E7800000 
 312              	.LVL37:
  35:src/_PMT.cpp  ****         entries[i].setDefaultNode();
 313              		.loc 1 35 9 is_stmt 1
 314              	.LBB92:
 315              	.LBB93:
  36:src/../h/_PMT.h ****     }
 316              		.loc 2 36 9
  36:src/../h/_PMT.h ****     }
GAS LISTING /tmp/ccAbe50I.s 			page 9


 317              		.loc 2 36 17 is_stmt 0
 318 0150 13173900 		slli	a4,s2,3
 319 0154 3387E900 		add	a4,s3,a4
 320 0158 03360700 		ld	a2,0(a4)
  36:src/../h/_PMT.h ****     }
 321              		.loc 2 36 21
 322 015c 1356A600 		srli	a2,a2,10
  36:src/../h/_PMT.h ****     }
 323              		.loc 2 36 30
 324 0160 9307F0FF 		li	a5,-1
 325 0164 93D74701 		srli	a5,a5,20
 326 0168 3376F600 		and	a2,a2,a5
 327              	.LVL38:
 328              	.LBE93:
 329              	.LBE92:
  36:src/_PMT.cpp  ****         entries[i].setFrame((uint64) pmt2 >> 12);
 330              		.loc 1 36 9 is_stmt 1
 331              	.LBE91:
 332              	.LBE124:
  44:src/../h/_PMT.h ****         setV();
 333              		.loc 2 44 9
  45:src/../h/_PMT.h ****     }
 334              		.loc 2 45 9
  25:src/../h/_PMT.h ****     bool isValid() { return val & 1;}
 335              		.loc 2 25 19
 336              	.LBB125:
 337              	.LBB100:
  37:src/_PMT.cpp  ****         for (int t = 0; t < 512; t++) {
 338              		.loc 1 37 9
  37:src/_PMT.cpp  ****         for (int t = 0; t < 512; t++) {
 339              		.loc 1 37 28 is_stmt 0
 340 016c 9357C500 		srli	a5,a0,12
 341              	.LVL39:
 342              	.LBB94:
 343              	.LBB95:
  32:src/../h/_PMT.h ****         val |= frame << 10;
 344              		.loc 2 32 9 is_stmt 1
  33:src/../h/_PMT.h ****     }
 345              		.loc 2 33 9
  33:src/../h/_PMT.h ****     }
 346              		.loc 2 33 22 is_stmt 0
 347 0170 9397A700 		slli	a5,a5,10
 348              	.LVL40:
  33:src/../h/_PMT.h ****     }
 349              		.loc 2 33 13
 350 0174 93E71700 		ori	a5,a5,1
 351 0178 2330F700 		sd	a5,0(a4)
 352              	.LVL41:
 353              	.LBE95:
 354              	.LBE94:
  38:src/_PMT.cpp  ****             pmt2[t].setDefaultLeaf();
 355              		.loc 1 38 9 is_stmt 1
 356              	.LBB96:
  38:src/_PMT.cpp  ****             pmt2[t].setDefaultLeaf();
 357              		.loc 1 38 18 is_stmt 0
 358 017c 13070000 		li	a4,0
 359              	.LVL42:
GAS LISTING /tmp/ccAbe50I.s 			page 10


 360              	.L10:
  38:src/_PMT.cpp  ****             pmt2[t].setDefaultLeaf();
 361              		.loc 1 38 27 is_stmt 1 discriminator 3
 362 0180 9307F01F 		li	a5,511
 363 0184 E3CAE7F2 		bgt	a4,a5,.L9
  39:src/_PMT.cpp  ****             pmt2[t].setFrame(supFrame | ((uint64) t) << 9);
 364              		.loc 1 39 13 discriminator 2
  39:src/_PMT.cpp  ****             pmt2[t].setFrame(supFrame | ((uint64) t) << 9);
 365              		.loc 1 39 19 is_stmt 0 discriminator 2
 366 0188 93163700 		slli	a3,a4,3
  39:src/_PMT.cpp  ****             pmt2[t].setFrame(supFrame | ((uint64) t) << 9);
 367              		.loc 1 39 35 discriminator 2
 368 018c B306D500 		add	a3,a0,a3
 369              	.LVL43:
 370              	.LBE96:
 371              	.LBE100:
 372              	.LBE125:
  40:src/../h/_PMT.h ****         setV(); setRWX(); setAD(); setG(); setU();
 373              		.loc 2 40 9 is_stmt 1 discriminator 2
  41:src/../h/_PMT.h ****     }
 374              		.loc 2 41 9 discriminator 2
  25:src/../h/_PMT.h ****     bool isValid() { return val & 1;}
 375              		.loc 2 25 19 discriminator 2
  41:src/../h/_PMT.h ****     }
 376              		.loc 2 41 17 discriminator 2
  28:src/../h/_PMT.h ****     bool isLeaf() { return (val >> 1) & 7ull; }
 377              		.loc 2 28 22 discriminator 2
  41:src/../h/_PMT.h ****     }
 378              		.loc 2 41 27 discriminator 2
  30:src/../h/_PMT.h ****     void setFrame(uint64 frame) {
 379              		.loc 2 30 20 discriminator 2
  41:src/../h/_PMT.h ****     }
 380              		.loc 2 41 36 discriminator 2
  38:src/../h/_PMT.h ****     void setDefaultLeaf() {
 381              		.loc 2 38 19 discriminator 2
  41:src/../h/_PMT.h ****     }
 382              		.loc 2 41 44 discriminator 2
 383              		.loc 2 47 19 discriminator 2
 384              	.LBB126:
 385              	.LBB101:
 386              	.LBB99:
  40:src/_PMT.cpp  ****         }
 387              		.loc 1 40 13 discriminator 2
  40:src/_PMT.cpp  ****         }
 388              		.loc 1 40 54 is_stmt 0 discriminator 2
 389 0190 93179700 		slli	a5,a4,9
  40:src/_PMT.cpp  ****         }
 390              		.loc 1 40 29 discriminator 2
 391 0194 B3E7C700 		or	a5,a5,a2
 392              	.LVL44:
 393              	.LBB97:
 394              	.LBB98:
  32:src/../h/_PMT.h ****         val |= frame << 10;
 395              		.loc 2 32 9 is_stmt 1 discriminator 2
  33:src/../h/_PMT.h ****     }
 396              		.loc 2 33 9 discriminator 2
  33:src/../h/_PMT.h ****     }
GAS LISTING /tmp/ccAbe50I.s 			page 11


 397              		.loc 2 33 22 is_stmt 0 discriminator 2
 398 0198 9397A700 		slli	a5,a5,10
 399              	.LVL45:
  33:src/../h/_PMT.h ****     }
 400              		.loc 2 33 13 discriminator 2
 401 019c 93E7F70F 		ori	a5,a5,255
 402 01a0 23B0F600 		sd	a5,0(a3)
 403              	.LVL46:
 404              	.LBE98:
 405              	.LBE97:
  38:src/_PMT.cpp  ****             pmt2[t].setDefaultLeaf();
 406              		.loc 1 38 9 is_stmt 1 discriminator 2
 407 01a4 1B071700 		addiw	a4,a4,1
 408              	.LVL47:
 409 01a8 6FF09FFD 		j	.L10
 410              	.LVL48:
 411              	.L18:
 412              	.LBE99:
 413              	.LBE101:
 414              	.LBE126:
 415              	.LBB127:
 416              	.LBB109:
  47:src/_PMT.cpp  ****         uint64 supFrame = pmt2[j].getFrame();
 417              		.loc 1 47 9
  47:src/_PMT.cpp  ****         uint64 supFrame = pmt2[j].getFrame();
 418              		.loc 1 47 43 is_stmt 0
 419 01ac 13050000 		li	a0,0
 420 01b0 97000000 		call	_Z10buddyAlloci@plt
 420      E7800000 
 421              	.LVL49:
  48:src/_PMT.cpp  ****         pmt2[j].setDefaultNode();
 422              		.loc 1 48 9 is_stmt 1
 423              	.LBB110:
 424              	.LBB111:
  36:src/../h/_PMT.h ****     }
 425              		.loc 2 36 9
  36:src/../h/_PMT.h ****     }
 426              		.loc 2 36 17 is_stmt 0
 427 01b8 03360A00 		ld	a2,0(s4)
  36:src/../h/_PMT.h ****     }
 428              		.loc 2 36 21
 429 01bc 1356A600 		srli	a2,a2,10
  36:src/../h/_PMT.h ****     }
 430              		.loc 2 36 30
 431 01c0 9307F0FF 		li	a5,-1
 432 01c4 93D74701 		srli	a5,a5,20
 433 01c8 3376F600 		and	a2,a2,a5
 434              	.LVL50:
 435              	.LBE111:
 436              	.LBE110:
  49:src/_PMT.cpp  ****         pmt2[j].setFrame((uint64) pmt3 >> 12);
 437              		.loc 1 49 9 is_stmt 1
 438              	.LBE109:
 439              	.LBE127:
  44:src/../h/_PMT.h ****         setV();
 440              		.loc 2 44 9
  45:src/../h/_PMT.h ****     }
GAS LISTING /tmp/ccAbe50I.s 			page 12


 441              		.loc 2 45 9
  25:src/../h/_PMT.h ****     bool isValid() { return val & 1;}
 442              		.loc 2 25 19
 443              	.LBB128:
 444              	.LBB118:
  50:src/_PMT.cpp  ****         for (int t = 0; t < 512; t++) {
 445              		.loc 1 50 9
  50:src/_PMT.cpp  ****         for (int t = 0; t < 512; t++) {
 446              		.loc 1 50 25 is_stmt 0
 447 01cc 9357C500 		srli	a5,a0,12
 448              	.LVL51:
 449              	.LBB112:
 450              	.LBB113:
  32:src/../h/_PMT.h ****         val |= frame << 10;
 451              		.loc 2 32 9 is_stmt 1
  33:src/../h/_PMT.h ****     }
 452              		.loc 2 33 9
  33:src/../h/_PMT.h ****     }
 453              		.loc 2 33 22 is_stmt 0
 454 01d0 9397A700 		slli	a5,a5,10
 455              	.LVL52:
  33:src/../h/_PMT.h ****     }
 456              		.loc 2 33 13
 457 01d4 93E71700 		ori	a5,a5,1
 458 01d8 2330FA00 		sd	a5,0(s4)
 459              	.LVL53:
 460              	.LBE113:
 461              	.LBE112:
  51:src/_PMT.cpp  ****             pmt3[t].setDefaultLeaf();
 462              		.loc 1 51 9 is_stmt 1
 463              	.LBB114:
  51:src/_PMT.cpp  ****             pmt3[t].setDefaultLeaf();
 464              		.loc 1 51 18 is_stmt 0
 465 01dc 13070000 		li	a4,0
 466              	.LVL54:
 467              	.L12:
  51:src/_PMT.cpp  ****             pmt3[t].setDefaultLeaf();
 468              		.loc 1 51 27 is_stmt 1 discriminator 3
 469 01e0 9307F01F 		li	a5,511
 470 01e4 E3CAE7F0 		bgt	a4,a5,.L11
  52:src/_PMT.cpp  ****             pmt3[t].setFrame(supFrame | (uint64)t);
 471              		.loc 1 52 13 discriminator 2
  52:src/_PMT.cpp  ****             pmt3[t].setFrame(supFrame | (uint64)t);
 472              		.loc 1 52 19 is_stmt 0 discriminator 2
 473 01e8 93163700 		slli	a3,a4,3
  52:src/_PMT.cpp  ****             pmt3[t].setFrame(supFrame | (uint64)t);
 474              		.loc 1 52 35 discriminator 2
 475 01ec B306D500 		add	a3,a0,a3
 476              	.LVL55:
 477              	.LBE114:
 478              	.LBE118:
 479              	.LBE128:
  40:src/../h/_PMT.h ****         setV(); setRWX(); setAD(); setG(); setU();
 480              		.loc 2 40 9 is_stmt 1 discriminator 2
  41:src/../h/_PMT.h ****     }
 481              		.loc 2 41 9 discriminator 2
  25:src/../h/_PMT.h ****     bool isValid() { return val & 1;}
GAS LISTING /tmp/ccAbe50I.s 			page 13


 482              		.loc 2 25 19 discriminator 2
  41:src/../h/_PMT.h ****     }
 483              		.loc 2 41 17 discriminator 2
  28:src/../h/_PMT.h ****     bool isLeaf() { return (val >> 1) & 7ull; }
 484              		.loc 2 28 22 discriminator 2
  41:src/../h/_PMT.h ****     }
 485              		.loc 2 41 27 discriminator 2
  30:src/../h/_PMT.h ****     void setFrame(uint64 frame) {
 486              		.loc 2 30 20 discriminator 2
  41:src/../h/_PMT.h ****     }
 487              		.loc 2 41 36 discriminator 2
  38:src/../h/_PMT.h ****     void setDefaultLeaf() {
 488              		.loc 2 38 19 discriminator 2
  41:src/../h/_PMT.h ****     }
 489              		.loc 2 41 44 discriminator 2
 490              		.loc 2 47 19 discriminator 2
 491              	.LBB129:
 492              	.LBB119:
 493              	.LBB117:
  53:src/_PMT.cpp  ****         }
 494              		.loc 1 53 13 discriminator 2
  53:src/_PMT.cpp  ****         }
 495              		.loc 1 53 29 is_stmt 0 discriminator 2
 496 01f0 B367C700 		or	a5,a4,a2
 497              	.LVL56:
 498              	.LBB115:
 499              	.LBB116:
  32:src/../h/_PMT.h ****         val |= frame << 10;
 500              		.loc 2 32 9 is_stmt 1 discriminator 2
  33:src/../h/_PMT.h ****     }
 501              		.loc 2 33 9 discriminator 2
  33:src/../h/_PMT.h ****     }
 502              		.loc 2 33 22 is_stmt 0 discriminator 2
 503 01f4 9397A700 		slli	a5,a5,10
 504              	.LVL57:
  33:src/../h/_PMT.h ****     }
 505              		.loc 2 33 13 discriminator 2
 506 01f8 93E7F70F 		ori	a5,a5,255
 507 01fc 23B0F600 		sd	a5,0(a3)
 508              	.LVL58:
 509              	.LBE116:
 510              	.LBE115:
  51:src/_PMT.cpp  ****             pmt3[t].setDefaultLeaf();
 511              		.loc 1 51 9 is_stmt 1 discriminator 2
 512 0200 1B071700 		addiw	a4,a4,1
 513              	.LVL59:
 514 0204 6FF0DFFD 		j	.L12
 515              	.LVL60:
 516              	.L13:
 517              	.LBE117:
 518              	.LBE119:
 519              	.LBE129:
  32:src/_PMT.cpp  ****     if (entries[i].isLeaf()) {
 520              		.loc 1 32 39 is_stmt 0
 521 0208 13050000 		li	a0,0
 522              	.LVL61:
 523 020c 6FF09FF1 		j	.L7
GAS LISTING /tmp/ccAbe50I.s 			page 14


 524              	.LVL62:
 525              	.L14:
  45:src/_PMT.cpp  ****     if (pmt2[j].isLeaf()) {
 526              		.loc 1 45 36
 527 0210 13050000 		li	a0,0
 528 0214 6FF01FF1 		j	.L7
 529              	.LVL63:
 530              	.L19:
  58:src/_PMT.cpp  ****     return pmt3 + k;
 531              		.loc 1 58 36
 532 0218 13050000 		li	a0,0
 533 021c 6FF09FF0 		j	.L7
 534              		.cfi_endproc
 535              	.LFE48:
 537              		.align	2
 538              		.globl	_ZN4_PMT6clearUEm
 540              	_ZN4_PMT6clearUEm:
 541              	.LFB49:
  61:src/_PMT.cpp  **** 
  62:src/_PMT.cpp  **** void _PMT::clearU(uint64 page) {
 542              		.loc 1 62 32 is_stmt 1
 543              		.cfi_startproc
 544              	.LVL64:
 545 0220 130101FF 		addi	sp,sp,-16
 546              		.cfi_def_cfa_offset 16
 547 0224 23341100 		sd	ra,8(sp)
 548 0228 23308100 		sd	s0,0(sp)
 549              		.cfi_offset 1, -8
 550              		.cfi_offset 8, -16
 551 022c 13040101 		addi	s0,sp,16
 552              		.cfi_def_cfa 8, 0
  63:src/_PMT.cpp  ****     _PMTE* entry = getEntry(page);
 553              		.loc 1 63 5
 554              		.loc 1 63 28 is_stmt 0
 555 0230 97000000 		call	_ZN4_PMT8getEntryEm
 555      E7800000 
 556              	.LVL65:
  64:src/_PMT.cpp  ****     if (!entry) return;
 557              		.loc 1 64 5 is_stmt 1
 558 0238 63080500 		beqz	a0,.L20
  65:src/_PMT.cpp  ****     entry->clearU();
 559              		.loc 1 65 5
 560              	.LVL66:
 561              	.LBB130:
 562              	.LBB131:
  48:src/../h/_PMT.h ****     void clearU() { val &= ~(uint64)16; }
 563              		.loc 2 48 21
 564              		.loc 2 48 25 is_stmt 0
 565 023c 83370500 		ld	a5,0(a0)
 566 0240 93F7F7FE 		andi	a5,a5,-17
 567 0244 2330F500 		sd	a5,0(a0)
 568              	.LVL67:
 569              	.L20:
 570              	.LBE131:
 571              	.LBE130:
  66:src/_PMT.cpp  **** }
 572              		.loc 1 66 1
GAS LISTING /tmp/ccAbe50I.s 			page 15


 573 0248 83308100 		ld	ra,8(sp)
 574              		.cfi_restore 1
 575 024c 03340100 		ld	s0,0(sp)
 576              		.cfi_restore 8
 577              		.cfi_def_cfa 2, 16
 578 0250 13010101 		addi	sp,sp,16
 579              		.cfi_def_cfa_offset 0
 580 0254 67800000 		jr	ra
 581              		.cfi_endproc
 582              	.LFE49:
 584              		.align	2
 585              		.globl	_ZN4_PMT6clearUEmm
 587              	_ZN4_PMT6clearUEmm:
 588              	.LFB50:
  67:src/_PMT.cpp  **** void _PMT::clearU(uint64 start, uint64 end) {
 589              		.loc 1 67 45 is_stmt 1
 590              		.cfi_startproc
 591              	.LVL68:
 592 0258 130101FD 		addi	sp,sp,-48
 593              		.cfi_def_cfa_offset 48
 594 025c 23341102 		sd	ra,40(sp)
 595 0260 23308102 		sd	s0,32(sp)
 596 0264 233C9100 		sd	s1,24(sp)
 597 0268 23382101 		sd	s2,16(sp)
 598 026c 23343101 		sd	s3,8(sp)
 599              		.cfi_offset 1, -8
 600              		.cfi_offset 8, -16
 601              		.cfi_offset 9, -24
 602              		.cfi_offset 18, -32
 603              		.cfi_offset 19, -40
 604 0270 13040103 		addi	s0,sp,48
 605              		.cfi_def_cfa 8, 0
 606 0274 93090500 		mv	s3,a0
 607 0278 93840500 		mv	s1,a1
 608 027c 13090600 		mv	s2,a2
  68:src/_PMT.cpp  ****     for (uint64 cur = start; cur <= end; cur++) clearU(cur);
 609              		.loc 1 68 5
 610              	.LVL69:
 611              	.L25:
 612              	.LBB132:
 613              		.loc 1 68 34 discriminator 3
 614 0280 636E9900 		bgtu	s1,s2,.L23
 615              		.loc 1 68 49 discriminator 2
 616              		.loc 1 68 55 is_stmt 0 discriminator 2
 617 0284 93850400 		mv	a1,s1
 618 0288 13850900 		mv	a0,s3
 619 028c 97000000 		call	_ZN4_PMT6clearUEm
 619      E7800000 
 620              	.LVL70:
 621              		.loc 1 68 5 is_stmt 1 discriminator 2
 622 0294 93841400 		addi	s1,s1,1
 623              	.LVL71:
 624 0298 6FF09FFE 		j	.L25
 625              	.L23:
 626              	.LBE132:
  69:src/_PMT.cpp  **** }
 627              		.loc 1 69 1 is_stmt 0
GAS LISTING /tmp/ccAbe50I.s 			page 16


 628 029c 83308102 		ld	ra,40(sp)
 629              		.cfi_restore 1
 630 02a0 03340102 		ld	s0,32(sp)
 631              		.cfi_restore 8
 632              		.cfi_def_cfa 2, 48
 633 02a4 83348101 		ld	s1,24(sp)
 634              		.cfi_restore 9
 635              	.LVL72:
 636 02a8 03390101 		ld	s2,16(sp)
 637              		.cfi_restore 18
 638              	.LVL73:
 639 02ac 83398100 		ld	s3,8(sp)
 640              		.cfi_restore 19
 641              	.LVL74:
 642 02b0 13010103 		addi	sp,sp,48
 643              		.cfi_def_cfa_offset 0
 644 02b4 67800000 		jr	ra
 645              		.cfi_endproc
 646              	.LFE50:
 648              	.Letext0:
 649              		.file 3 "src/../lib/hw.h"
 650              		.file 4 "src/../h/_slab.h"
GAS LISTING /tmp/ccAbe50I.s 			page 17


DEFINED SYMBOLS
                            *ABS*:0000000000000000 _PMT.cpp
     /tmp/ccAbe50I.s:9      .text:0000000000000000 _ZN4_PMTC2Eb
     /tmp/ccAbe50I.s:13     .text:0000000000000000 .L0 
     /tmp/ccAbe50I.s:15     .text:0000000000000000 .L0 
     /tmp/ccAbe50I.s:16     .text:0000000000000004 .L0 
     /tmp/ccAbe50I.s:18     .text:0000000000000008 .L0 
     /tmp/ccAbe50I.s:20     .text:000000000000000c .L0 
     /tmp/ccAbe50I.s:23     .text:000000000000000c .L0 
     /tmp/ccAbe50I.s:27     .text:0000000000000014 .L0 
     /tmp/ccAbe50I.s:33     .text:0000000000000018 .L0 
     /tmp/ccAbe50I.s:34     .text:0000000000000018 .L0 
     /tmp/ccAbe50I.s:39     .text:000000000000001c .L0 
     /tmp/ccAbe50I.s:41     .text:0000000000000020 .L0 
     /tmp/ccAbe50I.s:46     .text:0000000000000028 .L0 
     /tmp/ccAbe50I.s:49     .text:000000000000002c .L0 
     /tmp/ccAbe50I.s:53     .text:0000000000000030 .L0 
     /tmp/ccAbe50I.s:60     .text:0000000000000038 .L0 
     /tmp/ccAbe50I.s:61     .text:0000000000000038 .L0 
     /tmp/ccAbe50I.s:62     .text:0000000000000038 .L0 
     /tmp/ccAbe50I.s:63     .text:0000000000000038 .L0 
     /tmp/ccAbe50I.s:64     .text:0000000000000038 .L0 
     /tmp/ccAbe50I.s:65     .text:0000000000000038 .L0 
     /tmp/ccAbe50I.s:66     .text:0000000000000038 .L0 
     /tmp/ccAbe50I.s:67     .text:0000000000000038 .L0 
     /tmp/ccAbe50I.s:68     .text:0000000000000038 .L0 
     /tmp/ccAbe50I.s:69     .text:0000000000000038 .L0 
     /tmp/ccAbe50I.s:70     .text:0000000000000038 .L0 
     /tmp/ccAbe50I.s:74     .text:0000000000000038 .L0 
     /tmp/ccAbe50I.s:77     .text:0000000000000038 .L0 
     /tmp/ccAbe50I.s:78     .text:0000000000000038 .L0 
     /tmp/ccAbe50I.s:79     .text:0000000000000038 .L0 
     /tmp/ccAbe50I.s:80     .text:0000000000000038 .L0 
     /tmp/ccAbe50I.s:82     .text:000000000000003c .L0 
     /tmp/ccAbe50I.s:90     .text:000000000000004c .L0 
     /tmp/ccAbe50I.s:98     .text:0000000000000054 .L0 
     /tmp/ccAbe50I.s:99     .text:0000000000000058 .L0 
     /tmp/ccAbe50I.s:100    .text:0000000000000058 .L0 
     /tmp/ccAbe50I.s:102    .text:000000000000005c .L0 
     /tmp/ccAbe50I.s:104    .text:0000000000000060 .L0 
     /tmp/ccAbe50I.s:9      .text:0000000000000000 _ZN4_PMTC1Eb
     /tmp/ccAbe50I.s:112    .text:0000000000000060 _ZN4_PMT8getEntryEm
     /tmp/ccAbe50I.s:115    .text:0000000000000060 .L0 
     /tmp/ccAbe50I.s:117    .text:0000000000000060 .L0 
     /tmp/ccAbe50I.s:118    .text:0000000000000064 .L0 
     /tmp/ccAbe50I.s:125    .text:000000000000007c .L0 
     /tmp/ccAbe50I.s:126    .text:000000000000007c .L0 
     /tmp/ccAbe50I.s:127    .text:000000000000007c .L0 
     /tmp/ccAbe50I.s:128    .text:000000000000007c .L0 
     /tmp/ccAbe50I.s:129    .text:000000000000007c .L0 
     /tmp/ccAbe50I.s:130    .text:000000000000007c .L0 
     /tmp/ccAbe50I.s:132    .text:0000000000000080 .L0 
     /tmp/ccAbe50I.s:134    .text:0000000000000080 .L0 
     /tmp/ccAbe50I.s:135    .text:0000000000000080 .L0 
     /tmp/ccAbe50I.s:138    .text:0000000000000084 .L0 
     /tmp/ccAbe50I.s:139    .text:0000000000000084 .L0 
     /tmp/ccAbe50I.s:142    .text:0000000000000088 .L0 
GAS LISTING /tmp/ccAbe50I.s 			page 18


     /tmp/ccAbe50I.s:143    .text:0000000000000088 .L0 
     /tmp/ccAbe50I.s:146    .text:000000000000008c .L0 
     /tmp/ccAbe50I.s:151    .text:0000000000000090 .L0 
     /tmp/ccAbe50I.s:152    .text:0000000000000090 .L0 
     /tmp/ccAbe50I.s:153    .text:0000000000000090 .L0 
     /tmp/ccAbe50I.s:157    .text:000000000000009c .L0 
     /tmp/ccAbe50I.s:162    .text:00000000000000a0 .L0 
     /tmp/ccAbe50I.s:170    .text:00000000000000ac .L0 
     /tmp/ccAbe50I.s:171    .text:00000000000000ac .L0 
     /tmp/ccAbe50I.s:172    .text:00000000000000ac .L0 
     /tmp/ccAbe50I.s:174    .text:00000000000000b0 .L0 
     /tmp/ccAbe50I.s:179    .text:00000000000000b4 .L0 
     /tmp/ccAbe50I.s:186    .text:00000000000000b8 .L0 
     /tmp/ccAbe50I.s:187    .text:00000000000000b8 .L0 
     /tmp/ccAbe50I.s:188    .text:00000000000000b8 .L0 
     /tmp/ccAbe50I.s:194    .text:00000000000000c4 .L0 
     /tmp/ccAbe50I.s:199    .text:00000000000000c8 .L0 
     /tmp/ccAbe50I.s:200    .text:00000000000000c8 .L0 
     /tmp/ccAbe50I.s:207    .text:00000000000000d8 .L0 
     /tmp/ccAbe50I.s:208    .text:00000000000000d8 .L0 
     /tmp/ccAbe50I.s:210    .text:00000000000000dc .L0 
     /tmp/ccAbe50I.s:215    .text:00000000000000e0 .L0 
     /tmp/ccAbe50I.s:216    .text:00000000000000e0 .L0 
     /tmp/ccAbe50I.s:219    .text:00000000000000e4 .L0 
     /tmp/ccAbe50I.s:224    .text:00000000000000e8 .L0 
     /tmp/ccAbe50I.s:230    .text:00000000000000ec .L0 
     /tmp/ccAbe50I.s:231    .text:00000000000000ec .L0 
     /tmp/ccAbe50I.s:232    .text:00000000000000ec .L0 
     /tmp/ccAbe50I.s:234    .text:00000000000000f0 .L0 
     /tmp/ccAbe50I.s:239    .text:00000000000000f4 .L0 
     /tmp/ccAbe50I.s:246    .text:00000000000000f8 .L0 
     /tmp/ccAbe50I.s:247    .text:00000000000000f8 .L0 
     /tmp/ccAbe50I.s:248    .text:00000000000000f8 .L0 
     /tmp/ccAbe50I.s:250    .text:00000000000000fc .L0 
     /tmp/ccAbe50I.s:255    .text:0000000000000100 .L0 
     /tmp/ccAbe50I.s:256    .text:0000000000000100 .L0 
     /tmp/ccAbe50I.s:263    .text:0000000000000110 .L0 
     /tmp/ccAbe50I.s:264    .text:0000000000000110 .L0 
     /tmp/ccAbe50I.s:267    .text:0000000000000114 .L0 
     /tmp/ccAbe50I.s:272    .text:0000000000000118 .L0 
     /tmp/ccAbe50I.s:273    .text:0000000000000118 .L0 
     /tmp/ccAbe50I.s:276    .text:000000000000011c .L0 
     /tmp/ccAbe50I.s:281    .text:0000000000000120 .L0 
     /tmp/ccAbe50I.s:285    .text:0000000000000124 .L0 
     /tmp/ccAbe50I.s:286    .text:0000000000000128 .L0 
     /tmp/ccAbe50I.s:287    .text:0000000000000128 .L0 
     /tmp/ccAbe50I.s:289    .text:000000000000012c .L0 
     /tmp/ccAbe50I.s:290    .text:000000000000012c .L0 
     /tmp/ccAbe50I.s:292    .text:0000000000000130 .L0 
     /tmp/ccAbe50I.s:294    .text:0000000000000134 .L0 
     /tmp/ccAbe50I.s:296    .text:0000000000000138 .L0 
     /tmp/ccAbe50I.s:298    .text:000000000000013c .L0 
     /tmp/ccAbe50I.s:300    .text:0000000000000140 .L0 
     /tmp/ccAbe50I.s:304    .text:0000000000000144 .L0 
     /tmp/ccAbe50I.s:308    .text:0000000000000144 .L0 
     /tmp/ccAbe50I.s:309    .text:0000000000000144 .L0 
     /tmp/ccAbe50I.s:316    .text:0000000000000150 .L0 
GAS LISTING /tmp/ccAbe50I.s 			page 19


     /tmp/ccAbe50I.s:317    .text:0000000000000150 .L0 
     /tmp/ccAbe50I.s:318    .text:0000000000000150 .L0 
     /tmp/ccAbe50I.s:322    .text:000000000000015c .L0 
     /tmp/ccAbe50I.s:324    .text:0000000000000160 .L0 
     /tmp/ccAbe50I.s:333    .text:000000000000016c .L0 
     /tmp/ccAbe50I.s:334    .text:000000000000016c .L0 
     /tmp/ccAbe50I.s:335    .text:000000000000016c .L0 
     /tmp/ccAbe50I.s:338    .text:000000000000016c .L0 
     /tmp/ccAbe50I.s:339    .text:000000000000016c .L0 
     /tmp/ccAbe50I.s:340    .text:000000000000016c .L0 
     /tmp/ccAbe50I.s:345    .text:0000000000000170 .L0 
     /tmp/ccAbe50I.s:346    .text:0000000000000170 .L0 
     /tmp/ccAbe50I.s:347    .text:0000000000000170 .L0 
     /tmp/ccAbe50I.s:350    .text:0000000000000174 .L0 
     /tmp/ccAbe50I.s:357    .text:000000000000017c .L0 
     /tmp/ccAbe50I.s:358    .text:000000000000017c .L0 
     /tmp/ccAbe50I.s:362    .text:0000000000000180 .L0 
     /tmp/ccAbe50I.s:365    .text:0000000000000188 .L0 
     /tmp/ccAbe50I.s:366    .text:0000000000000188 .L0 
     /tmp/ccAbe50I.s:368    .text:000000000000018c .L0 
     /tmp/ccAbe50I.s:374    .text:0000000000000190 .L0 
     /tmp/ccAbe50I.s:375    .text:0000000000000190 .L0 
     /tmp/ccAbe50I.s:376    .text:0000000000000190 .L0 
     /tmp/ccAbe50I.s:377    .text:0000000000000190 .L0 
     /tmp/ccAbe50I.s:378    .text:0000000000000190 .L0 
     /tmp/ccAbe50I.s:379    .text:0000000000000190 .L0 
     /tmp/ccAbe50I.s:380    .text:0000000000000190 .L0 
     /tmp/ccAbe50I.s:381    .text:0000000000000190 .L0 
     /tmp/ccAbe50I.s:382    .text:0000000000000190 .L0 
     /tmp/ccAbe50I.s:383    .text:0000000000000190 .L0 
     /tmp/ccAbe50I.s:387    .text:0000000000000190 .L0 
     /tmp/ccAbe50I.s:388    .text:0000000000000190 .L0 
     /tmp/ccAbe50I.s:389    .text:0000000000000190 .L0 
     /tmp/ccAbe50I.s:391    .text:0000000000000194 .L0 
     /tmp/ccAbe50I.s:396    .text:0000000000000198 .L0 
     /tmp/ccAbe50I.s:397    .text:0000000000000198 .L0 
     /tmp/ccAbe50I.s:398    .text:0000000000000198 .L0 
     /tmp/ccAbe50I.s:401    .text:000000000000019c .L0 
     /tmp/ccAbe50I.s:407    .text:00000000000001a4 .L0 
     /tmp/ccAbe50I.s:418    .text:00000000000001ac .L0 
     /tmp/ccAbe50I.s:419    .text:00000000000001ac .L0 
     /tmp/ccAbe50I.s:425    .text:00000000000001b8 .L0 
     /tmp/ccAbe50I.s:426    .text:00000000000001b8 .L0 
     /tmp/ccAbe50I.s:427    .text:00000000000001b8 .L0 
     /tmp/ccAbe50I.s:429    .text:00000000000001bc .L0 
     /tmp/ccAbe50I.s:431    .text:00000000000001c0 .L0 
     /tmp/ccAbe50I.s:440    .text:00000000000001cc .L0 
     /tmp/ccAbe50I.s:441    .text:00000000000001cc .L0 
     /tmp/ccAbe50I.s:442    .text:00000000000001cc .L0 
     /tmp/ccAbe50I.s:445    .text:00000000000001cc .L0 
     /tmp/ccAbe50I.s:446    .text:00000000000001cc .L0 
     /tmp/ccAbe50I.s:447    .text:00000000000001cc .L0 
     /tmp/ccAbe50I.s:452    .text:00000000000001d0 .L0 
     /tmp/ccAbe50I.s:453    .text:00000000000001d0 .L0 
     /tmp/ccAbe50I.s:454    .text:00000000000001d0 .L0 
     /tmp/ccAbe50I.s:457    .text:00000000000001d4 .L0 
     /tmp/ccAbe50I.s:464    .text:00000000000001dc .L0 
GAS LISTING /tmp/ccAbe50I.s 			page 20


     /tmp/ccAbe50I.s:465    .text:00000000000001dc .L0 
     /tmp/ccAbe50I.s:469    .text:00000000000001e0 .L0 
     /tmp/ccAbe50I.s:472    .text:00000000000001e8 .L0 
     /tmp/ccAbe50I.s:473    .text:00000000000001e8 .L0 
     /tmp/ccAbe50I.s:475    .text:00000000000001ec .L0 
     /tmp/ccAbe50I.s:481    .text:00000000000001f0 .L0 
     /tmp/ccAbe50I.s:482    .text:00000000000001f0 .L0 
     /tmp/ccAbe50I.s:483    .text:00000000000001f0 .L0 
     /tmp/ccAbe50I.s:484    .text:00000000000001f0 .L0 
     /tmp/ccAbe50I.s:485    .text:00000000000001f0 .L0 
     /tmp/ccAbe50I.s:486    .text:00000000000001f0 .L0 
     /tmp/ccAbe50I.s:487    .text:00000000000001f0 .L0 
     /tmp/ccAbe50I.s:488    .text:00000000000001f0 .L0 
     /tmp/ccAbe50I.s:489    .text:00000000000001f0 .L0 
     /tmp/ccAbe50I.s:490    .text:00000000000001f0 .L0 
     /tmp/ccAbe50I.s:494    .text:00000000000001f0 .L0 
     /tmp/ccAbe50I.s:495    .text:00000000000001f0 .L0 
     /tmp/ccAbe50I.s:496    .text:00000000000001f0 .L0 
     /tmp/ccAbe50I.s:501    .text:00000000000001f4 .L0 
     /tmp/ccAbe50I.s:502    .text:00000000000001f4 .L0 
     /tmp/ccAbe50I.s:503    .text:00000000000001f4 .L0 
     /tmp/ccAbe50I.s:506    .text:00000000000001f8 .L0 
     /tmp/ccAbe50I.s:512    .text:0000000000000200 .L0 
     /tmp/ccAbe50I.s:521    .text:0000000000000208 .L0 
     /tmp/ccAbe50I.s:527    .text:0000000000000210 .L0 
     /tmp/ccAbe50I.s:532    .text:0000000000000218 .L0 
     /tmp/ccAbe50I.s:534    .text:0000000000000220 .L0 
     /tmp/ccAbe50I.s:540    .text:0000000000000220 _ZN4_PMT6clearUEm
     /tmp/ccAbe50I.s:543    .text:0000000000000220 .L0 
     /tmp/ccAbe50I.s:545    .text:0000000000000220 .L0 
     /tmp/ccAbe50I.s:546    .text:0000000000000224 .L0 
     /tmp/ccAbe50I.s:549    .text:000000000000022c .L0 
     /tmp/ccAbe50I.s:550    .text:000000000000022c .L0 
     /tmp/ccAbe50I.s:552    .text:0000000000000230 .L0 
     /tmp/ccAbe50I.s:554    .text:0000000000000230 .L0 
     /tmp/ccAbe50I.s:555    .text:0000000000000230 .L0 
     /tmp/ccAbe50I.s:558    .text:0000000000000238 .L0 
     /tmp/ccAbe50I.s:563    .text:000000000000023c .L0 
     /tmp/ccAbe50I.s:564    .text:000000000000023c .L0 
     /tmp/ccAbe50I.s:565    .text:000000000000023c .L0 
     /tmp/ccAbe50I.s:573    .text:0000000000000248 .L0 
     /tmp/ccAbe50I.s:574    .text:000000000000024c .L0 
     /tmp/ccAbe50I.s:576    .text:0000000000000250 .L0 
     /tmp/ccAbe50I.s:577    .text:0000000000000250 .L0 
     /tmp/ccAbe50I.s:579    .text:0000000000000254 .L0 
     /tmp/ccAbe50I.s:581    .text:0000000000000258 .L0 
     /tmp/ccAbe50I.s:587    .text:0000000000000258 _ZN4_PMT6clearUEmm
     /tmp/ccAbe50I.s:590    .text:0000000000000258 .L0 
     /tmp/ccAbe50I.s:592    .text:0000000000000258 .L0 
     /tmp/ccAbe50I.s:593    .text:000000000000025c .L0 
     /tmp/ccAbe50I.s:599    .text:0000000000000270 .L0 
     /tmp/ccAbe50I.s:600    .text:0000000000000270 .L0 
     /tmp/ccAbe50I.s:601    .text:0000000000000270 .L0 
     /tmp/ccAbe50I.s:602    .text:0000000000000270 .L0 
     /tmp/ccAbe50I.s:603    .text:0000000000000270 .L0 
     /tmp/ccAbe50I.s:605    .text:0000000000000274 .L0 
     /tmp/ccAbe50I.s:613    .text:0000000000000280 .L0 
GAS LISTING /tmp/ccAbe50I.s 			page 21


     /tmp/ccAbe50I.s:614    .text:0000000000000280 .L0 
     /tmp/ccAbe50I.s:616    .text:0000000000000284 .L0 
     /tmp/ccAbe50I.s:617    .text:0000000000000284 .L0 
     /tmp/ccAbe50I.s:622    .text:0000000000000294 .L0 
     /tmp/ccAbe50I.s:628    .text:000000000000029c .L0 
     /tmp/ccAbe50I.s:629    .text:00000000000002a0 .L0 
     /tmp/ccAbe50I.s:631    .text:00000000000002a4 .L0 
     /tmp/ccAbe50I.s:632    .text:00000000000002a4 .L0 
     /tmp/ccAbe50I.s:634    .text:00000000000002a8 .L0 
     /tmp/ccAbe50I.s:637    .text:00000000000002ac .L0 
     /tmp/ccAbe50I.s:640    .text:00000000000002b0 .L0 
     /tmp/ccAbe50I.s:643    .text:00000000000002b4 .L0 
     /tmp/ccAbe50I.s:645    .text:00000000000002b8 .L0 
     /tmp/ccAbe50I.s:651    .text:00000000000002b8 .L0 
     /tmp/ccAbe50I.s:43     .text:0000000000000028 .L2
     /tmp/ccAbe50I.s:25     .text:0000000000000014 .L3
     /tmp/ccAbe50I.s:93     .text:0000000000000054 .L1
     /tmp/ccAbe50I.s:50     .text:0000000000000030 .L5
     /tmp/ccAbe50I.s:516    .text:0000000000000208 .L13
     /tmp/ccAbe50I.s:303    .text:0000000000000144 .L17
     /tmp/ccAbe50I.s:525    .text:0000000000000210 .L14
     /tmp/ccAbe50I.s:411    .text:00000000000001ac .L18
     /tmp/ccAbe50I.s:530    .text:0000000000000218 .L19
     /tmp/ccAbe50I.s:181    .text:00000000000000b8 .L9
     /tmp/ccAbe50I.s:360    .text:0000000000000180 .L10
     /tmp/ccAbe50I.s:241    .text:00000000000000f8 .L11
     /tmp/ccAbe50I.s:467    .text:00000000000001e0 .L12
     /tmp/ccAbe50I.s:283    .text:0000000000000124 .L7
     /tmp/ccAbe50I.s:569    .text:0000000000000248 .L20
     /tmp/ccAbe50I.s:625    .text:000000000000029c .L23
     /tmp/ccAbe50I.s:611    .text:0000000000000280 .L25
     /tmp/ccAbe50I.s:1737   .debug_abbrev:0000000000000000 .Ldebug_abbrev0
     /tmp/ccAbe50I.s:3339   .debug_str:0000000000000072 .LASF67
     /tmp/ccAbe50I.s:3385   .debug_str:0000000000000278 .LASF68
     /tmp/ccAbe50I.s:3367   .debug_str:00000000000001df .LASF69
     /tmp/ccAbe50I.s:5      .text:0000000000000000 .Ltext0
     /tmp/ccAbe50I.s:648    .text:00000000000002b8 .Letext0
     /tmp/ccAbe50I.s:3319   .debug_line:0000000000000000 .Ldebug_line0
     /tmp/ccAbe50I.s:3401   .debug_str:00000000000002d0 .LASF0
     /tmp/ccAbe50I.s:3415   .debug_str:0000000000000312 .LASF1
     /tmp/ccAbe50I.s:3393   .debug_str:00000000000002a4 .LASF2
     /tmp/ccAbe50I.s:3371   .debug_str:0000000000000211 .LASF4
     /tmp/ccAbe50I.s:3443   .debug_str:00000000000003e5 .LASF3
     /tmp/ccAbe50I.s:3331   .debug_str:000000000000003b .LASF5
     /tmp/ccAbe50I.s:3419   .debug_str:0000000000000339 .LASF6
     /tmp/ccAbe50I.s:3399   .debug_str:00000000000002bd .LASF7
     /tmp/ccAbe50I.s:3457   .debug_str:000000000000044c .LASF8
     /tmp/ccAbe50I.s:3363   .debug_str:00000000000001c6 .LASF9
     /tmp/ccAbe50I.s:3425   .debug_str:000000000000036e .LASF10
     /tmp/ccAbe50I.s:3453   .debug_str:000000000000042a .LASF11
     /tmp/ccAbe50I.s:3333   .debug_str:0000000000000042 .LASF12
     /tmp/ccAbe50I.s:3321   .debug_str:0000000000000000 .LASF13
     /tmp/ccAbe50I.s:3337   .debug_str:0000000000000066 .LASF14
     /tmp/ccAbe50I.s:3435   .debug_str:00000000000003ba .LASF15
     /tmp/ccAbe50I.s:3345   .debug_str:0000000000000156 .LASF16
     /tmp/ccAbe50I.s:3413   .debug_str:0000000000000306 .LASF17
     /tmp/ccAbe50I.s:3405   .debug_str:00000000000002e6 .LASF18
GAS LISTING /tmp/ccAbe50I.s 			page 22


     /tmp/ccAbe50I.s:3359   .debug_str:00000000000001a5 .LASF19
     /tmp/ccAbe50I.s:3451   .debug_str:0000000000000424 .LASF20
     /tmp/ccAbe50I.s:3369   .debug_str:0000000000000203 .LASF22
     /tmp/ccAbe50I.s:3409   .debug_str:00000000000002f3 .LASF21
     /tmp/ccAbe50I.s:3375   .debug_str:0000000000000225 .LASF23
     /tmp/ccAbe50I.s:3377   .debug_str:0000000000000236 .LASF28
     /tmp/ccAbe50I.s:3417   .debug_str:0000000000000325 .LASF30
     /tmp/ccAbe50I.s:3439   .debug_str:00000000000003d7 .LASF24
     /tmp/ccAbe50I.s:3423   .debug_str:000000000000035b .LASF25
     /tmp/ccAbe50I.s:3329   .debug_str:0000000000000034 .LASF26
     /tmp/ccAbe50I.s:3357   .debug_str:0000000000000192 .LASF27
     /tmp/ccAbe50I.s:3441   .debug_str:00000000000003de .LASF29
     /tmp/ccAbe50I.s:3455   .debug_str:0000000000000439 .LASF31
     /tmp/ccAbe50I.s:3351   .debug_str:0000000000000176 .LASF32
     /tmp/ccAbe50I.s:3459   .debug_str:000000000000045c .LASF33
     /tmp/ccAbe50I.s:3403   .debug_str:00000000000002dd .LASF34
     /tmp/ccAbe50I.s:3383   .debug_str:0000000000000263 .LASF35
     /tmp/ccAbe50I.s:3381   .debug_str:000000000000025a .LASF36
     /tmp/ccAbe50I.s:3433   .debug_str:00000000000003a5 .LASF37
     /tmp/ccAbe50I.s:3397   .debug_str:00000000000002b8 .LASF38
     /tmp/ccAbe50I.s:3467   .debug_str:000000000000047e .LASF39
     /tmp/ccAbe50I.s:3391   .debug_str:0000000000000295 .LASF40
     /tmp/ccAbe50I.s:3379   .debug_str:000000000000023e .LASF41
     /tmp/ccAbe50I.s:3421   .debug_str:000000000000034c .LASF42
     /tmp/ccAbe50I.s:3361   .debug_str:00000000000001aa .LASF43
     /tmp/ccAbe50I.s:3407   .debug_str:00000000000002ee .LASF44
     /tmp/ccAbe50I.s:3449   .debug_str:0000000000000413 .LASF45
     /tmp/ccAbe50I.s:3437   .debug_str:00000000000003d0 .LASF52
     /tmp/ccAbe50I.s:3447   .debug_str:0000000000000400 .LASF54
     /tmp/ccAbe50I.s:3461   .debug_str:000000000000046e .LASF46
     /tmp/ccAbe50I.s:3323   .debug_str:0000000000000010 .LASF47
     /tmp/ccAbe50I.s:3353   .debug_str:000000000000017c .LASF48
     /tmp/ccAbe50I.s:3341   .debug_str:0000000000000142 .LASF49
     /tmp/ccAbe50I.s:3355   .debug_str:0000000000000189 .LASF50
     /tmp/ccAbe50I.s:3335   .debug_str:0000000000000052 .LASF51
     /tmp/ccAbe50I.s:3325   .debug_str:0000000000000018 .LASF53
     /tmp/ccAbe50I.s:3431   .debug_str:0000000000000392 .LASF55
     /tmp/ccAbe50I.s:588    .text:0000000000000258 .LFB50
     /tmp/ccAbe50I.s:646    .text:00000000000002b8 .LFE50
     /tmp/ccAbe50I.s:3427   .debug_str:000000000000037d .LASF57
     /tmp/ccAbe50I.s:2433   .debug_loc:0000000000000000 .LLST39
     /tmp/ccAbe50I.s:3389   .debug_str:000000000000028f .LASF56
     /tmp/ccAbe50I.s:2451   .debug_loc:000000000000004c .LLST40
     /tmp/ccAbe50I.s:2465   .debug_loc:0000000000000085 .LLST41
     /tmp/ccAbe50I.s:612    .text:0000000000000280 .LBB132
     /tmp/ccAbe50I.s:626    .text:000000000000029c .LBE132
     /tmp/ccAbe50I.s:2483   .debug_loc:00000000000000d1 .LLST42
     /tmp/ccAbe50I.s:620    .text:0000000000000294 .LVL70
     /tmp/ccAbe50I.s:541    .text:0000000000000220 .LFB49
     /tmp/ccAbe50I.s:582    .text:0000000000000258 .LFE49
     /tmp/ccAbe50I.s:2490   .debug_loc:00000000000000f4 .LLST36
     /tmp/ccAbe50I.s:3463   .debug_str:0000000000000473 .LASF58
     /tmp/ccAbe50I.s:2504   .debug_loc:000000000000012d .LLST37
     /tmp/ccAbe50I.s:3395   .debug_str:00000000000002b2 .LASF59
     /tmp/ccAbe50I.s:561    .text:000000000000023c .LBB130
     /tmp/ccAbe50I.s:571    .text:0000000000000248 .LBE130
     /tmp/ccAbe50I.s:2518   .debug_loc:0000000000000166 .LLST38
GAS LISTING /tmp/ccAbe50I.s 			page 23


     /tmp/ccAbe50I.s:556    .text:0000000000000238 .LVL65
     /tmp/ccAbe50I.s:113    .text:0000000000000060 .LFB48
     /tmp/ccAbe50I.s:535    .text:0000000000000220 .LFE48
     /tmp/ccAbe50I.s:2525   .debug_loc:0000000000000189 .LLST4
     /tmp/ccAbe50I.s:2569   .debug_loc:000000000000023a .LLST5
     /tmp/ccAbe50I.s:2583   .debug_loc:0000000000000273 .LLST6
     /tmp/ccAbe50I.s:2614   .debug_loc:00000000000002dd .LLST7
     /tmp/ccAbe50I.s:2659   .debug_loc:0000000000000357 .LLST8
     /tmp/ccAbe50I.s:3327   .debug_str:000000000000002a .LASF60
     /tmp/ccAbe50I.s:2710   .debug_loc:00000000000003f4 .LLST9
     /tmp/ccAbe50I.s:3347   .debug_str:000000000000016c .LASF61
     /tmp/ccAbe50I.s:2758   .debug_loc:0000000000000485 .LLST10
     /tmp/ccAbe50I.s:3387   .debug_str:0000000000000285 .LASF62
     /tmp/ccAbe50I.s:2821   .debug_loc:0000000000000531 .LLST11
     /tmp/ccAbe50I.s:3349   .debug_str:0000000000000171 .LASF63
     /tmp/ccAbe50I.s:2857   .debug_loc:00000000000005a1 .LLST12
     /tmp/ccAbe50I.s:3283   .debug_ranges:0000000000000000 .Ldebug_ranges0
     /tmp/ccAbe50I.s:2906   .debug_loc:0000000000000629 .LLST15
     /tmp/ccAbe50I.s:3445   .debug_str:00000000000003f7 .LASF64
     /tmp/ccAbe50I.s:2913   .debug_loc:000000000000064c .LLST16
     /tmp/ccAbe50I.s:2920   .debug_loc:000000000000066f .LLST20
     /tmp/ccAbe50I.s:393    .text:0000000000000198 .LBB97
     /tmp/ccAbe50I.s:405    .text:00000000000001a4 .LBE97
     /tmp/ccAbe50I.s:2932   .debug_loc:00000000000006a6 .LLST21
     /tmp/ccAbe50I.s:2950   .debug_loc:00000000000006e3 .LLST22
     /tmp/ccAbe50I.s:314    .text:0000000000000150 .LBB92
     /tmp/ccAbe50I.s:329    .text:000000000000016c .LBE92
     /tmp/ccAbe50I.s:2957   .debug_loc:0000000000000706 .LLST17
     /tmp/ccAbe50I.s:342    .text:0000000000000170 .LBB94
     /tmp/ccAbe50I.s:354    .text:000000000000017c .LBE94
     /tmp/ccAbe50I.s:2977   .debug_loc:0000000000000736 .LLST18
     /tmp/ccAbe50I.s:2992   .debug_loc:0000000000000770 .LLST19
     /tmp/ccAbe50I.s:312    .text:0000000000000150 .LVL37
     /tmp/ccAbe50I.s:3012   .debug_loc:00000000000007a0 .LLST26
     /tmp/ccAbe50I.s:3019   .debug_loc:00000000000007c3 .LLST27
     /tmp/ccAbe50I.s:3026   .debug_loc:00000000000007e6 .LLST31
     /tmp/ccAbe50I.s:498    .text:00000000000001f4 .LBB115
     /tmp/ccAbe50I.s:510    .text:0000000000000200 .LBE115
     /tmp/ccAbe50I.s:3038   .debug_loc:000000000000081d .LLST32
     /tmp/ccAbe50I.s:3054   .debug_loc:0000000000000858 .LLST33
     /tmp/ccAbe50I.s:423    .text:00000000000001b8 .LBB110
     /tmp/ccAbe50I.s:436    .text:00000000000001cc .LBE110
     /tmp/ccAbe50I.s:3061   .debug_loc:000000000000087b .LLST28
     /tmp/ccAbe50I.s:449    .text:00000000000001d0 .LBB112
     /tmp/ccAbe50I.s:461    .text:00000000000001dc .LBE112
     /tmp/ccAbe50I.s:3068   .debug_loc:000000000000089e .LLST29
     /tmp/ccAbe50I.s:3083   .debug_loc:00000000000008d8 .LLST30
     /tmp/ccAbe50I.s:421    .text:00000000000001b8 .LVL49
     /tmp/ccAbe50I.s:149    .text:0000000000000090 .LBB86
     /tmp/ccAbe50I.s:160    .text:00000000000000a0 .LBE86
     /tmp/ccAbe50I.s:3090   .debug_loc:00000000000008fb .LLST13
     /tmp/ccAbe50I.s:168    .text:00000000000000ac .LBB89
     /tmp/ccAbe50I.s:177    .text:00000000000000b4 .LBE89
     /tmp/ccAbe50I.s:3110   .debug_loc:000000000000092b .LLST14
     /tmp/ccAbe50I.s:184    .text:00000000000000b8 .LBB102
     /tmp/ccAbe50I.s:197    .text:00000000000000c8 .LBE102
     /tmp/ccAbe50I.s:3130   .debug_loc:000000000000095b .LLST23
GAS LISTING /tmp/ccAbe50I.s 			page 24


     /tmp/ccAbe50I.s:212    .text:00000000000000e0 .LBB104
     /tmp/ccAbe50I.s:222    .text:00000000000000e8 .LBE104
     /tmp/ccAbe50I.s:3197   .debug_loc:00000000000009da .LLST24
     /tmp/ccAbe50I.s:228    .text:00000000000000ec .LBB107
     /tmp/ccAbe50I.s:237    .text:00000000000000f4 .LBE107
     /tmp/ccAbe50I.s:3204   .debug_loc:00000000000009fd .LLST25
     /tmp/ccAbe50I.s:244    .text:00000000000000f8 .LBB120
     /tmp/ccAbe50I.s:253    .text:0000000000000100 .LBE120
     /tmp/ccAbe50I.s:3211   .debug_loc:0000000000000a20 .LLST34
     /tmp/ccAbe50I.s:269    .text:0000000000000118 .LBB122
     /tmp/ccAbe50I.s:279    .text:0000000000000120 .LBE122
     /tmp/ccAbe50I.s:3218   .debug_loc:0000000000000a43 .LLST35
     /tmp/ccAbe50I.s:3343   .debug_str:000000000000014f .LASF65
     /tmp/ccAbe50I.s:3373   .debug_str:0000000000000218 .LASF70
     /tmp/ccAbe50I.s:10     .text:0000000000000000 .LFB46
     /tmp/ccAbe50I.s:105    .text:0000000000000060 .LFE46
     /tmp/ccAbe50I.s:29     .text:0000000000000018 .LBB77
     /tmp/ccAbe50I.s:37     .text:000000000000001c .LBE77
     /tmp/ccAbe50I.s:3225   .debug_loc:0000000000000a66 .LLST0
     /tmp/ccAbe50I.s:3232   .debug_loc:0000000000000a89 .LLST1
     /tmp/ccAbe50I.s:75     .text:0000000000000038 .LBB81
     /tmp/ccAbe50I.s:88     .text:000000000000004c .LBE81
     /tmp/ccAbe50I.s:3239   .debug_loc:0000000000000aac .LLST2
     /tmp/ccAbe50I.s:3250   .debug_loc:0000000000000ad3 .LLST3
     /tmp/ccAbe50I.s:3465   .debug_str:0000000000000478 .LASF66
     /tmp/ccAbe50I.s:3411   .debug_str:00000000000002f8 .LASF71
     /tmp/ccAbe50I.s:3429   .debug_str:0000000000000382 .LASF72
     /tmp/ccAbe50I.s:3365   .debug_str:00000000000001d4 .LASF73
     /tmp/ccAbe50I.s:591    .text:0000000000000258 .LVL68
     /tmp/ccAbe50I.s:610    .text:0000000000000280 .LVL69
     /tmp/ccAbe50I.s:641    .text:00000000000002b0 .LVL74
     /tmp/ccAbe50I.s:638    .text:00000000000002ac .LVL73
     /tmp/ccAbe50I.s:635    .text:00000000000002a8 .LVL72
     /tmp/ccAbe50I.s:544    .text:0000000000000220 .LVL64
     /tmp/ccAbe50I.s:560    .text:000000000000023c .LVL66
     /tmp/ccAbe50I.s:568    .text:0000000000000248 .LVL67
     /tmp/ccAbe50I.s:116    .text:0000000000000060 .LVL7
     /tmp/ccAbe50I.s:180    .text:00000000000000b8 .LVL15
     /tmp/ccAbe50I.s:191    .text:00000000000000c0 .LVL17
     /tmp/ccAbe50I.s:302    .text:0000000000000144 .LVL35
     /tmp/ccAbe50I.s:310    .text:0000000000000148 .LVL36
     /tmp/ccAbe50I.s:410    .text:00000000000001ac .LVL48
     /tmp/ccAbe50I.s:515    .text:0000000000000208 .LVL60
     /tmp/ccAbe50I.s:522    .text:000000000000020c .LVL61
     /tmp/ccAbe50I.s:144    .text:000000000000008c .LVL10
     /tmp/ccAbe50I.s:136    .text:0000000000000084 .LVL8
     /tmp/ccAbe50I.s:265    .text:0000000000000114 .LVL30
     /tmp/ccAbe50I.s:529    .text:0000000000000218 .LVL63
     /tmp/ccAbe50I.s:140    .text:0000000000000088 .LVL9
     /tmp/ccAbe50I.s:165    .text:00000000000000ac .LVL13
     /tmp/ccAbe50I.s:524    .text:0000000000000210 .LVL62
     /tmp/ccAbe50I.s:147    .text:0000000000000090 .LVL11
     /tmp/ccAbe50I.s:189    .text:00000000000000bc .LVL16
     /tmp/ccAbe50I.s:195    .text:00000000000000c8 .LVL18
     /tmp/ccAbe50I.s:201    .text:00000000000000cc .LVL19
     /tmp/ccAbe50I.s:240    .text:00000000000000f8 .LVL26
     /tmp/ccAbe50I.s:205    .text:00000000000000d8 .LVL20
GAS LISTING /tmp/ccAbe50I.s 			page 25


     /tmp/ccAbe50I.s:217    .text:00000000000000e4 .LVL22
     /tmp/ccAbe50I.s:220    .text:00000000000000e8 .LVL23
     /tmp/ccAbe50I.s:251    .text:0000000000000100 .LVL27
     /tmp/ccAbe50I.s:257    .text:0000000000000104 .LVL28
     /tmp/ccAbe50I.s:282    .text:0000000000000124 .LVL34
     /tmp/ccAbe50I.s:261    .text:0000000000000110 .LVL29
     /tmp/ccAbe50I.s:268    .text:0000000000000118 .LVL31
     /tmp/ccAbe50I.s:274    .text:000000000000011c .LVL32
     /tmp/ccAbe50I.s:327    .text:000000000000016c .LVL38
     /tmp/ccAbe50I.s:352    .text:000000000000017c .LVL41
     /tmp/ccAbe50I.s:359    .text:0000000000000180 .LVL42
     /tmp/ccAbe50I.s:408    .text:00000000000001a8 .LVL47
     /tmp/ccAbe50I.s:392    .text:0000000000000198 .LVL44
     /tmp/ccAbe50I.s:399    .text:000000000000019c .LVL45
     /tmp/ccAbe50I.s:403    .text:00000000000001a4 .LVL46
     /tmp/ccAbe50I.s:341    .text:0000000000000170 .LVL39
     /tmp/ccAbe50I.s:348    .text:0000000000000174 .LVL40
     /tmp/ccAbe50I.s:434    .text:00000000000001cc .LVL50
     /tmp/ccAbe50I.s:459    .text:00000000000001dc .LVL53
     /tmp/ccAbe50I.s:466    .text:00000000000001e0 .LVL54
     /tmp/ccAbe50I.s:513    .text:0000000000000204 .LVL59
     /tmp/ccAbe50I.s:497    .text:00000000000001f4 .LVL56
     /tmp/ccAbe50I.s:504    .text:00000000000001f8 .LVL57
     /tmp/ccAbe50I.s:508    .text:0000000000000200 .LVL58
     /tmp/ccAbe50I.s:448    .text:00000000000001d0 .LVL51
     /tmp/ccAbe50I.s:455    .text:00000000000001d4 .LVL52
     /tmp/ccAbe50I.s:158    .text:00000000000000a0 .LVL12
     /tmp/ccAbe50I.s:175    .text:00000000000000b4 .LVL14
     /tmp/ccAbe50I.s:211    .text:00000000000000e0 .LVL21
     /tmp/ccAbe50I.s:226    .text:00000000000000ec .LVL24
     /tmp/ccAbe50I.s:235    .text:00000000000000f4 .LVL25
     /tmp/ccAbe50I.s:277    .text:0000000000000120 .LVL33
     /tmp/ccAbe50I.s:28     .text:0000000000000018 .LVL1
     /tmp/ccAbe50I.s:35     .text:000000000000001c .LVL2
     /tmp/ccAbe50I.s:51     .text:0000000000000030 .LVL3
     /tmp/ccAbe50I.s:91     .text:0000000000000050 .LVL6
     /tmp/ccAbe50I.s:56     .text:0000000000000038 .LVL4
     /tmp/ccAbe50I.s:86     .text:000000000000004c .LVL5
     /tmp/ccAbe50I.s:652    .debug_info:0000000000000000 .Ldebug_info0
     /tmp/ccAbe50I.s:47     .text:000000000000002c .LBB80
     /tmp/ccAbe50I.s:57     .text:0000000000000038 .LBE80
     /tmp/ccAbe50I.s:73     .text:0000000000000038 .LBB83
     /tmp/ccAbe50I.s:94     .text:0000000000000054 .LBE83
     /tmp/ccAbe50I.s:306    .text:0000000000000144 .LBB91
     /tmp/ccAbe50I.s:331    .text:000000000000016c .LBE91
     /tmp/ccAbe50I.s:337    .text:000000000000016c .LBB100
     /tmp/ccAbe50I.s:371    .text:0000000000000190 .LBE100
     /tmp/ccAbe50I.s:385    .text:0000000000000190 .LBB101
     /tmp/ccAbe50I.s:413    .text:00000000000001ac .LBE101
     /tmp/ccAbe50I.s:356    .text:000000000000017c .LBB96
     /tmp/ccAbe50I.s:370    .text:0000000000000190 .LBE96
     /tmp/ccAbe50I.s:386    .text:0000000000000190 .LBB99
     /tmp/ccAbe50I.s:412    .text:00000000000001ac .LBE99
     /tmp/ccAbe50I.s:416    .text:00000000000001ac .LBB109
     /tmp/ccAbe50I.s:438    .text:00000000000001cc .LBE109
     /tmp/ccAbe50I.s:444    .text:00000000000001cc .LBB118
     /tmp/ccAbe50I.s:478    .text:00000000000001f0 .LBE118
GAS LISTING /tmp/ccAbe50I.s 			page 26


     /tmp/ccAbe50I.s:492    .text:00000000000001f0 .LBB119
     /tmp/ccAbe50I.s:518    .text:0000000000000208 .LBE119
     /tmp/ccAbe50I.s:463    .text:00000000000001dc .LBB114
     /tmp/ccAbe50I.s:477    .text:00000000000001f0 .LBE114
     /tmp/ccAbe50I.s:493    .text:00000000000001f0 .LBB117
     /tmp/ccAbe50I.s:517    .text:0000000000000208 .LBE117

UNDEFINED SYMBOLS
_Z10buddyAlloci
