GAS LISTING /tmp/ccm5U0qm.s 			page 1


   1              		.file	"_Scheduler.cpp"
   2              		.option pic
   3              		.option norelax
   4              		.text
   5              	.Ltext0:
   6              		.align	2
   8              	_Z41__static_initialization_and_destruction_0ii:
   9              	.LFB11:
  10              		.file 1 "src/_Scheduler.cpp"
   1:src/_Scheduler.cpp **** //
   2:src/_Scheduler.cpp **** // Created by os on 5/3/22.
   3:src/_Scheduler.cpp **** //
   4:src/_Scheduler.cpp **** 
   5:src/_Scheduler.cpp **** #include "../h/_Scheduler.h"
   6:src/_Scheduler.cpp **** #include "../h/_Thread.h"
   7:src/_Scheduler.cpp **** 
   8:src/_Scheduler.cpp **** _ThreadPriorityQueue _Scheduler::ready = _ThreadPriorityQueue();
   9:src/_Scheduler.cpp **** 
  10:src/_Scheduler.cpp **** int _Scheduler::put(thread_t thread) {
  11:src/_Scheduler.cpp ****     return ready.add(thread);
  12:src/_Scheduler.cpp **** }
  13:src/_Scheduler.cpp **** int _Scheduler::get() {
  14:src/_Scheduler.cpp ****     _Thread::running = ready.remove();
  15:src/_Scheduler.cpp ****     return 0;
  16:src/_Scheduler.cpp **** }
  17:src/_Scheduler.cpp **** int _Scheduler::empty() {
  18:src/_Scheduler.cpp ****     return ready.empty();
  19:src/_Scheduler.cpp **** }...
  11              		.loc 1 19 1
  12              		.cfi_startproc
  13              	.LVL0:
  14 0000 130101FF 		addi	sp,sp,-16
  15              		.cfi_def_cfa_offset 16
  16 0004 23348100 		sd	s0,8(sp)
  17              		.cfi_offset 8, -8
  18 0008 13040101 		addi	s0,sp,16
  19              		.cfi_def_cfa 8, 0
  20              		.loc 1 19 1 is_stmt 0
  21 000c 93071000 		li	a5,1
  22 0010 6308F500 		beq	a0,a5,.L4
  23              	.L1:
  24 0014 03348100 		ld	s0,8(sp)
  25              		.cfi_remember_state
  26              		.cfi_restore 8
  27              		.cfi_def_cfa 2, 16
  28 0018 13010101 		addi	sp,sp,16
  29              		.cfi_def_cfa_offset 0
  30 001c 67800000 		jr	ra
  31              	.L4:
  32              		.cfi_restore_state
  33              		.loc 1 19 1 discriminator 1
  34 0020 B7070100 		li	a5,65536
  35 0024 9387F7FF 		addi	a5,a5,-1
  36 0028 E396F5FE 		bne	a1,a5,.L1
  37              	.LVL1:
  38              	.LBB5:
  39              	.LBB6:
GAS LISTING /tmp/ccm5U0qm.s 			page 2


  40              	.LBB7:
  41              		.file 2 "src/../h/_ThreadPriorityQueue.h"
   1:src/../h/_ThreadPriorityQueue.h **** //
   2:src/../h/_ThreadPriorityQueue.h **** // Created by os on 5/30/22.
   3:src/../h/_ThreadPriorityQueue.h **** //
   4:src/../h/_ThreadPriorityQueue.h **** 
   5:src/../h/_ThreadPriorityQueue.h **** #ifndef PROJECT_BASE__THREAD_PRIORITY_QUEUE_H
   6:src/../h/_ThreadPriorityQueue.h **** #define PROJECT_BASE__THREAD_PRIORITY_QUEUE_H
   7:src/../h/_ThreadPriorityQueue.h **** #include "types.h"
   8:src/../h/_ThreadPriorityQueue.h **** #include "_slab.h"
   9:src/../h/_ThreadPriorityQueue.h **** class _ThreadPriorityQueue {
  10:src/../h/_ThreadPriorityQueue.h ****     struct Node {
  11:src/../h/_ThreadPriorityQueue.h ****         thread_t thread;
  12:src/../h/_ThreadPriorityQueue.h ****         Node* next;
  13:src/../h/_ThreadPriorityQueue.h ****         Node* prev;
  14:src/../h/_ThreadPriorityQueue.h ****         Node(thread_t thread) : thread(thread), next(0), prev(0) {}
  15:src/../h/_ThreadPriorityQueue.h ****         static kmem_cache_t* cache;
  16:src/../h/_ThreadPriorityQueue.h ****         void* operator new(size_t);
  17:src/../h/_ThreadPriorityQueue.h ****         void operator delete(void*);
  18:src/../h/_ThreadPriorityQueue.h ****     };
  19:src/../h/_ThreadPriorityQueue.h ****     Node* first, *last;
  20:src/../h/_ThreadPriorityQueue.h **** public:
  21:src/../h/_ThreadPriorityQueue.h ****     _ThreadPriorityQueue() : first(nullptr), last(nullptr) {}
  42              		.loc 2 21 58
  43 002c 97070000 		lla	a5,.LANCHOR0
  43      93870700 
  44 0034 23B00700 		sd	zero,0(a5)
  45 0038 23B40700 		sd	zero,8(a5)
  46              	.LVL2:
  47              	.LBE7:
  48              	.LBE6:
  49              	.LBE5:
  50              		.loc 1 19 1
  51 003c 6FF09FFD 		j	.L1
  52              		.cfi_endproc
  53              	.LFE11:
  55              		.align	2
  56              		.globl	_ZN10_Scheduler3putEP7_Thread
  58              	_ZN10_Scheduler3putEP7_Thread:
  59              	.LFB8:
  10:src/_Scheduler.cpp **** int _Scheduler::put(thread_t thread) {
  60              		.loc 1 10 38 is_stmt 1
  61              		.cfi_startproc
  62              	.LVL3:
  63 0040 130101FF 		addi	sp,sp,-16
  64              		.cfi_def_cfa_offset 16
  65 0044 23341100 		sd	ra,8(sp)
  66 0048 23308100 		sd	s0,0(sp)
  67              		.cfi_offset 1, -8
  68              		.cfi_offset 8, -16
  69 004c 13040101 		addi	s0,sp,16
  70              		.cfi_def_cfa 8, 0
  71 0050 93050500 		mv	a1,a0
  11:src/_Scheduler.cpp ****     return ready.add(thread);
  72              		.loc 1 11 5
  11:src/_Scheduler.cpp ****     return ready.add(thread);
  73              		.loc 1 11 21 is_stmt 0
GAS LISTING /tmp/ccm5U0qm.s 			page 3


  74 0054 17050000 		lla	a0,.LANCHOR0
  74      13050500 
  75              	.LVL4:
  76 005c 97000000 		call	_ZN20_ThreadPriorityQueue3addEP7_Thread@plt
  76      E7800000 
  77              	.LVL5:
  12:src/_Scheduler.cpp **** }
  78              		.loc 1 12 1
  79 0064 83308100 		ld	ra,8(sp)
  80              		.cfi_restore 1
  81 0068 03340100 		ld	s0,0(sp)
  82              		.cfi_restore 8
  83              		.cfi_def_cfa 2, 16
  84 006c 13010101 		addi	sp,sp,16
  85              		.cfi_def_cfa_offset 0
  86 0070 67800000 		jr	ra
  87              		.cfi_endproc
  88              	.LFE8:
  90              		.align	2
  91              		.globl	_ZN10_Scheduler3getEv
  93              	_ZN10_Scheduler3getEv:
  94              	.LFB9:
  13:src/_Scheduler.cpp **** int _Scheduler::get() {
  95              		.loc 1 13 23 is_stmt 1
  96              		.cfi_startproc
  97 0074 130101FF 		addi	sp,sp,-16
  98              		.cfi_def_cfa_offset 16
  99 0078 23341100 		sd	ra,8(sp)
 100 007c 23308100 		sd	s0,0(sp)
 101              		.cfi_offset 1, -8
 102              		.cfi_offset 8, -16
 103 0080 13040101 		addi	s0,sp,16
 104              		.cfi_def_cfa 8, 0
  14:src/_Scheduler.cpp ****     _Thread::running = ready.remove();
 105              		.loc 1 14 5
  14:src/_Scheduler.cpp ****     _Thread::running = ready.remove();
 106              		.loc 1 14 36 is_stmt 0
 107 0084 17050000 		lla	a0,.LANCHOR0
 107      13050500 
 108 008c 97000000 		call	_ZN20_ThreadPriorityQueue6removeEv@plt
 108      E7800000 
 109              	.LVL6:
  14:src/_Scheduler.cpp ****     _Thread::running = ready.remove();
 110              		.loc 1 14 22
 111 0094 97070000 		la	a5,_ZN7_Thread7runningE
 111      83B70700 
 112 009c 23B0A700 		sd	a0,0(a5)
  15:src/_Scheduler.cpp ****     return 0;
 113              		.loc 1 15 5 is_stmt 1
  16:src/_Scheduler.cpp **** }
 114              		.loc 1 16 1 is_stmt 0
 115 00a0 13050000 		li	a0,0
 116 00a4 83308100 		ld	ra,8(sp)
 117              		.cfi_restore 1
 118 00a8 03340100 		ld	s0,0(sp)
 119              		.cfi_restore 8
 120              		.cfi_def_cfa 2, 16
GAS LISTING /tmp/ccm5U0qm.s 			page 4


 121 00ac 13010101 		addi	sp,sp,16
 122              		.cfi_def_cfa_offset 0
 123 00b0 67800000 		jr	ra
 124              		.cfi_endproc
 125              	.LFE9:
 127              		.align	2
 128              		.globl	_ZN10_Scheduler5emptyEv
 130              	_ZN10_Scheduler5emptyEv:
 131              	.LFB10:
  17:src/_Scheduler.cpp **** int _Scheduler::empty() {
 132              		.loc 1 17 25 is_stmt 1
 133              		.cfi_startproc
 134 00b4 130101FF 		addi	sp,sp,-16
 135              		.cfi_def_cfa_offset 16
 136 00b8 23341100 		sd	ra,8(sp)
 137 00bc 23308100 		sd	s0,0(sp)
 138              		.cfi_offset 1, -8
 139              		.cfi_offset 8, -16
 140 00c0 13040101 		addi	s0,sp,16
 141              		.cfi_def_cfa 8, 0
  18:src/_Scheduler.cpp ****     return ready.empty();
 142              		.loc 1 18 5
  18:src/_Scheduler.cpp ****     return ready.empty();
 143              		.loc 1 18 23 is_stmt 0
 144 00c4 17050000 		lla	a0,.LANCHOR0
 144      13050500 
 145 00cc 97000000 		call	_ZN20_ThreadPriorityQueue5emptyEv@plt
 145      E7800000 
 146              	.LVL7:
 147              		.loc 1 19 1
 148 00d4 83308100 		ld	ra,8(sp)
 149              		.cfi_restore 1
 150 00d8 03340100 		ld	s0,0(sp)
 151              		.cfi_restore 8
 152              		.cfi_def_cfa 2, 16
 153 00dc 13010101 		addi	sp,sp,16
 154              		.cfi_def_cfa_offset 0
 155 00e0 67800000 		jr	ra
 156              		.cfi_endproc
 157              	.LFE10:
 159              		.align	2
 161              	_GLOBAL__sub_I__ZN10_Scheduler5readyE:
 162              	.LFB12:
 163              		.loc 1 19 1 is_stmt 1
 164              		.cfi_startproc
 165 00e4 130101FF 		addi	sp,sp,-16
 166              		.cfi_def_cfa_offset 16
 167 00e8 23341100 		sd	ra,8(sp)
 168 00ec 23308100 		sd	s0,0(sp)
 169              		.cfi_offset 1, -8
 170              		.cfi_offset 8, -16
 171 00f0 13040101 		addi	s0,sp,16
 172              		.cfi_def_cfa 8, 0
 173              		.loc 1 19 1 is_stmt 0
 174 00f4 B7050100 		li	a1,65536
 175 00f8 9385F5FF 		addi	a1,a1,-1
 176 00fc 13051000 		li	a0,1
GAS LISTING /tmp/ccm5U0qm.s 			page 5


 177 0100 97000000 		call	_Z41__static_initialization_and_destruction_0ii
 177      E7800000 
 178              	.LVL8:
 179 0108 83308100 		ld	ra,8(sp)
 180              		.cfi_restore 1
 181 010c 03340100 		ld	s0,0(sp)
 182              		.cfi_restore 8
 183              		.cfi_def_cfa 2, 16
 184 0110 13010101 		addi	sp,sp,16
 185              		.cfi_def_cfa_offset 0
 186 0114 67800000 		jr	ra
 187              		.cfi_endproc
 188              	.LFE12:
 190              		.section	.init_array,"aw"
 191              		.align	3
 192 0000 00000000 		.dword	_GLOBAL__sub_I__ZN10_Scheduler5readyE
 192      00000000 
 193              		.globl	_ZN10_Scheduler5readyE
 194              		.bss
 195              		.align	3
 196              		.set	.LANCHOR0,. + 0
 199              	_ZN10_Scheduler5readyE:
 200 0000 00000000 		.zero	16
 200      00000000 
 200      00000000 
 200      00000000 
 201              		.text
 202              	.Letext0:
 203              		.file 3 "src/../h/../lib/hw.h"
 204              		.file 4 "src/../h/types.h"
 205              		.file 5 "src/../h/_Thread.h"
 206              		.file 6 "src/../h/_slab.h"
 207              		.file 7 "src/../h/_Scheduler.h"
GAS LISTING /tmp/ccm5U0qm.s 			page 6

