GAS LISTING /tmp/ccwACtCP.s 			page 1


   1              		.file	"_Sem.cpp"
   2              		.option pic
   3              		.option norelax
   4              		.text
   5              	.Ltext0:
   6              		.section	.rodata.str1.8,"aMS",@progbits,1
   7              		.align	3
   8              	.LC0:
   9 0000 53656D20 		.string	"Sem Cache"
   9      43616368 
   9      6500
  10              		.text
  11              		.align	2
  12              		.globl	_ZN4_SemnwEm
  14              	_ZN4_SemnwEm:
  15              	.LFB33:
  16              		.file 1 "src/_Sem.cpp"
   1:src/_Sem.cpp  **** //
   2:src/_Sem.cpp  **** // Created by os on 5/3/22.
   3:src/_Sem.cpp  **** //
   4:src/_Sem.cpp  **** 
   5:src/_Sem.cpp  **** #include "../h/_Sem.h"
   6:src/_Sem.cpp  **** #include "../h/_Thread.h"
   7:src/_Sem.cpp  **** #include "../h/_ThreadList.h"
   8:src/_Sem.cpp  **** #include "../h/_Mem.h"
   9:src/_Sem.cpp  **** #include "../h/_Scheduler.h"
  10:src/_Sem.cpp  **** #include "../h/_Sleep.h"
  11:src/_Sem.cpp  **** #include "../h/_WaitManager.h"
  12:src/_Sem.cpp  **** 
  13:src/_Sem.cpp  **** kmem_cache_t* _Sem::cache = nullptr;
  14:src/_Sem.cpp  **** 
  15:src/_Sem.cpp  **** void* _Sem::operator new(size_t) {
  17              		.loc 1 15 34
  18              		.cfi_startproc
  19 0000 130101FF 		addi	sp,sp,-16
  20              		.cfi_def_cfa_offset 16
  21 0004 23341100 		sd	ra,8(sp)
  22 0008 23308100 		sd	s0,0(sp)
  23              		.cfi_offset 1, -8
  24              		.cfi_offset 8, -16
  25 000c 13040101 		addi	s0,sp,16
  26              		.cfi_def_cfa 8, 0
  16:src/_Sem.cpp  ****     if (!cache) cache = kmem_cache_create("Sem Cache", sizeof(_Sem), nullptr, nullptr);
  27              		.loc 1 16 5
  28              		.loc 1 16 9 is_stmt 0
  29 0010 97070000 		ld	a5,.LANCHOR0
  29      83B70700 
  30              		.loc 1 16 5
  31 0018 63820702 		beqz	a5,.L4
  32              	.L2:
  17:src/_Sem.cpp  ****     return kmem_cache_alloc(cache);
  33              		.loc 1 17 5 is_stmt 1
  34              		.loc 1 17 28 is_stmt 0
  35 001c 17050000 		ld	a0,.LANCHOR0
  35      03350500 
  36 0024 97000000 		call	_Z16kmem_cache_allocP12kmem_cache_t@plt
  36      E7800000 
GAS LISTING /tmp/ccwACtCP.s 			page 2


  37              	.LVL0:
  18:src/_Sem.cpp  **** }
  38              		.loc 1 18 1
  39 002c 83308100 		ld	ra,8(sp)
  40              		.cfi_remember_state
  41              		.cfi_restore 1
  42 0030 03340100 		ld	s0,0(sp)
  43              		.cfi_restore 8
  44              		.cfi_def_cfa 2, 16
  45 0034 13010101 		addi	sp,sp,16
  46              		.cfi_def_cfa_offset 0
  47 0038 67800000 		jr	ra
  48              	.L4:
  49              		.cfi_restore_state
  16:src/_Sem.cpp  ****     if (!cache) cache = kmem_cache_create("Sem Cache", sizeof(_Sem), nullptr, nullptr);
  50              		.loc 1 16 17 is_stmt 1 discriminator 1
  16:src/_Sem.cpp  ****     if (!cache) cache = kmem_cache_create("Sem Cache", sizeof(_Sem), nullptr, nullptr);
  51              		.loc 1 16 42 is_stmt 0 discriminator 1
  52 003c 93060000 		li	a3,0
  53 0040 13060000 		li	a2,0
  54 0044 93058001 		li	a1,24
  55 0048 17050000 		lla	a0,.LC0
  55      13050500 
  56 0050 97000000 		call	_Z17kmem_cache_createPKcmPFvPvES3_@plt
  56      E7800000 
  57              	.LVL1:
  16:src/_Sem.cpp  ****     if (!cache) cache = kmem_cache_create("Sem Cache", sizeof(_Sem), nullptr, nullptr);
  58              		.loc 1 16 23 discriminator 1
  59 0058 97070000 		sd	a0,.LANCHOR0,a5
  59      23B0A700 
  60 0060 6FF0DFFB 		j	.L2
  61              		.cfi_endproc
  62              	.LFE33:
  64              		.align	2
  65              		.globl	_ZN4_SemdlEPv
  67              	_ZN4_SemdlEPv:
  68              	.LFB34:
  19:src/_Sem.cpp  **** void _Sem::operator delete(void* addr) {
  69              		.loc 1 19 40 is_stmt 1
  70              		.cfi_startproc
  71              	.LVL2:
  72 0064 130101FF 		addi	sp,sp,-16
  73              		.cfi_def_cfa_offset 16
  74 0068 23341100 		sd	ra,8(sp)
  75 006c 23308100 		sd	s0,0(sp)
  76              		.cfi_offset 1, -8
  77              		.cfi_offset 8, -16
  78 0070 13040101 		addi	s0,sp,16
  79              		.cfi_def_cfa 8, 0
  80 0074 93050500 		mv	a1,a0
  20:src/_Sem.cpp  ****     kmem_cache_free(cache, addr);
  81              		.loc 1 20 5
  82              		.loc 1 20 20 is_stmt 0
  83 0078 17050000 		ld	a0,.LANCHOR0
  83      03350500 
  84              	.LVL3:
  85 0080 97000000 		call	_Z15kmem_cache_freeP12kmem_cache_tPv@plt
GAS LISTING /tmp/ccwACtCP.s 			page 3


  85      E7800000 
  86              	.LVL4:
  21:src/_Sem.cpp  **** }
  87              		.loc 1 21 1
  88 0088 83308100 		ld	ra,8(sp)
  89              		.cfi_restore 1
  90 008c 03340100 		ld	s0,0(sp)
  91              		.cfi_restore 8
  92              		.cfi_def_cfa 2, 16
  93 0090 13010101 		addi	sp,sp,16
  94              		.cfi_def_cfa_offset 0
  95 0094 67800000 		jr	ra
  96              		.cfi_endproc
  97              	.LFE34:
  99              		.align	2
 100              		.globl	_ZN4_SemC2Ej
 102              	_ZN4_SemC2Ej:
 103              	.LFB39:
  22:src/_Sem.cpp  **** _Sem::_Sem(unsigned v) {
 104              		.loc 1 22 1 is_stmt 1
 105              		.cfi_startproc
 106              	.LVL5:
 107 0098 130101FF 		addi	sp,sp,-16
 108              		.cfi_def_cfa_offset 16
 109 009c 23348100 		sd	s0,8(sp)
 110              		.cfi_offset 8, -8
 111 00a0 13040101 		addi	s0,sp,16
 112              		.cfi_def_cfa 8, 0
 113              	.LVL6:
 114              	.LBB18:
 115              	.LBB19:
 116              	.LBB20:
 117              		.file 2 "src/../h/_ThreadList.h"
   1:src/../h/_ThreadList.h **** //
   2:src/../h/_ThreadList.h **** // Created by os on 5/3/22.
   3:src/../h/_ThreadList.h **** //
   4:src/../h/_ThreadList.h **** 
   5:src/../h/_ThreadList.h **** #ifndef PROJECT_BASE__THREAD_LIST_H
   6:src/../h/_ThreadList.h **** #define PROJECT_BASE__THREAD_LIST_H
   7:src/../h/_ThreadList.h **** #include "types.h"
   8:src/../h/_ThreadList.h **** #include "_slab.h"
   9:src/../h/_ThreadList.h **** class _ThreadList {
 118              		.loc 2 9 7 is_stmt 0
 119 00a4 23300500 		sd	zero,0(a0)
 120 00a8 23340500 		sd	zero,8(a0)
 121              	.LVL7:
 122              	.LBE20:
 123              	.LBE19:
  23:src/_Sem.cpp  ****     val = v;
 124              		.loc 1 23 5 is_stmt 1
 125              		.loc 1 23 9 is_stmt 0
 126 00ac 2328B500 		sw	a1,16(a0)
 127              	.LBE18:
  24:src/_Sem.cpp  **** }
 128              		.loc 1 24 1
 129 00b0 03348100 		ld	s0,8(sp)
 130              		.cfi_restore 8
GAS LISTING /tmp/ccwACtCP.s 			page 4


 131              		.cfi_def_cfa 2, 16
 132 00b4 13010101 		addi	sp,sp,16
 133              		.cfi_def_cfa_offset 0
 134 00b8 67800000 		jr	ra
 135              		.cfi_endproc
 136              	.LFE39:
 138              		.globl	_ZN4_SemC1Ej
 139              		.set	_ZN4_SemC1Ej,_ZN4_SemC2Ej
 140              		.align	2
 141              		.globl	_ZN4_Sem4openEPPS_j
 143              	_ZN4_Sem4openEPPS_j:
 144              	.LFB41:
  25:src/_Sem.cpp  **** 
  26:src/_Sem.cpp  **** int _Sem::open(sem_t* handle, unsigned init) {
 145              		.loc 1 26 46 is_stmt 1
 146              		.cfi_startproc
 147              	.LVL8:
  27:src/_Sem.cpp  ****     if (!handle) return -3; //mora negde da se zapamti semafor. To je odgovornost pozivaoca.
 148              		.loc 1 27 5
 149 00bc 63080506 		beqz	a0,.L12
  26:src/_Sem.cpp  ****     if (!handle) return -3; //mora negde da se zapamti semafor. To je odgovornost pozivaoca.
 150              		.loc 1 26 46 is_stmt 0
 151 00c0 130101FD 		addi	sp,sp,-48
 152              		.cfi_def_cfa_offset 48
 153 00c4 23341102 		sd	ra,40(sp)
 154 00c8 23308102 		sd	s0,32(sp)
 155 00cc 233C9100 		sd	s1,24(sp)
 156 00d0 23382101 		sd	s2,16(sp)
 157 00d4 23343101 		sd	s3,8(sp)
 158              		.cfi_offset 1, -8
 159              		.cfi_offset 8, -16
 160              		.cfi_offset 9, -24
 161              		.cfi_offset 18, -32
 162              		.cfi_offset 19, -40
 163 00d8 13040103 		addi	s0,sp,48
 164              		.cfi_def_cfa 8, 0
 165 00dc 13090500 		mv	s2,a0
 166 00e0 93890500 		mv	s3,a1
  28:src/_Sem.cpp  ****     sem_t sem = new _Sem(init);
 167              		.loc 1 28 5 is_stmt 1
 168              		.loc 1 28 30 is_stmt 0
 169 00e4 13058001 		li	a0,24
 170              	.LVL9:
 171 00e8 97000000 		call	_ZN4_SemnwEm
 171      E7800000 
 172              	.LVL10:
 173 00f0 93040500 		mv	s1,a0
 174 00f4 63080500 		beqz	a0,.L11
 175              		.loc 1 28 30 discriminator 1
 176 00f8 93850900 		mv	a1,s3
 177 00fc 97000000 		call	_ZN4_SemC1Ej
 177      E7800000 
 178              	.LVL11:
 179              	.L11:
  29:src/_Sem.cpp  ****     if (!sem) return -1; //greska u alokaciji
 180              		.loc 1 29 5 is_stmt 1 discriminator 4
 181 0104 63880402 		beqz	s1,.L13
GAS LISTING /tmp/ccwACtCP.s 			page 5


  30:src/_Sem.cpp  ****     *handle = sem;
 182              		.loc 1 30 5
 183              		.loc 1 30 13 is_stmt 0
 184 0108 23309900 		sd	s1,0(s2)
  31:src/_Sem.cpp  ****     return 0;
 185              		.loc 1 31 5 is_stmt 1
 186              		.loc 1 31 12 is_stmt 0
 187 010c 13050000 		li	a0,0
 188              	.L10:
  32:src/_Sem.cpp  **** }
 189              		.loc 1 32 1
 190 0110 83308102 		ld	ra,40(sp)
 191              		.cfi_restore 1
 192 0114 03340102 		ld	s0,32(sp)
 193              		.cfi_restore 8
 194              		.cfi_def_cfa 2, 48
 195 0118 83348101 		ld	s1,24(sp)
 196              		.cfi_restore 9
 197              	.LVL12:
 198 011c 03390101 		ld	s2,16(sp)
 199              		.cfi_restore 18
 200              	.LVL13:
 201 0120 83398100 		ld	s3,8(sp)
 202              		.cfi_restore 19
 203 0124 13010103 		addi	sp,sp,48
 204              		.cfi_def_cfa_offset 0
 205 0128 67800000 		jr	ra
 206              	.LVL14:
 207              	.L12:
  27:src/_Sem.cpp  ****     sem_t sem = new _Sem(init);
 208              		.loc 1 27 26
 209 012c 1305D0FF 		li	a0,-3
 210              	.LVL15:
 211              		.loc 1 32 1
 212 0130 67800000 		ret
 213              	.LVL16:
 214              	.L13:
 215              		.cfi_def_cfa_register 8
 216              		.cfi_offset 1, -8
 217              		.cfi_offset 8, -16
 218              		.cfi_offset 9, -24
 219              		.cfi_offset 18, -32
 220              		.cfi_offset 19, -40
  29:src/_Sem.cpp  ****     *handle = sem;
 221              		.loc 1 29 23
 222 0134 1305F0FF 		li	a0,-1
 223 0138 6FF09FFD 		j	.L10
 224              		.cfi_endproc
 225              	.LFE41:
 227              		.align	2
 228              		.globl	_ZN4_Sem5closeEPS_
 230              	_ZN4_Sem5closeEPS_:
 231              	.LFB42:
  33:src/_Sem.cpp  **** int _Sem::close(sem_t handle) {
 232              		.loc 1 33 31 is_stmt 1
 233              		.cfi_startproc
 234              	.LVL17:
GAS LISTING /tmp/ccwACtCP.s 			page 6


 235 013c 130101FE 		addi	sp,sp,-32
 236              		.cfi_def_cfa_offset 32
 237 0140 233C1100 		sd	ra,24(sp)
 238 0144 23388100 		sd	s0,16(sp)
 239 0148 23349100 		sd	s1,8(sp)
 240              		.cfi_offset 1, -8
 241              		.cfi_offset 8, -16
 242              		.cfi_offset 9, -24
 243 014c 13040102 		addi	s0,sp,32
 244              		.cfi_def_cfa 8, 0
 245 0150 93040500 		mv	s1,a0
 246              	.LVL18:
 247              	.L20:
  34:src/_Sem.cpp  ****     thread_t thread;
 248              		.loc 1 34 5
  35:src/_Sem.cpp  ****     while (!handle->list.empty()) {
 249              		.loc 1 35 5
 250              		.loc 1 35 12
 251              		.loc 1 35 31 is_stmt 0
 252 0154 13850400 		mv	a0,s1
 253 0158 97000000 		call	_ZN11_ThreadList5emptyEv@plt
 253      E7800000 
 254              	.LVL19:
 255              		.loc 1 35 12
 256 0160 63100502 		bnez	a0,.L19
  36:src/_Sem.cpp  ****         thread = handle->list.remove();
 257              		.loc 1 36 9 is_stmt 1
 258              		.loc 1 36 37 is_stmt 0
 259 0164 13850400 		mv	a0,s1
 260 0168 97000000 		call	_ZN11_ThreadList6removeEv@plt
 260      E7800000 
 261              	.LVL20:
  37:src/_Sem.cpp  ****         thread->sem_kick(handle);
 262              		.loc 1 37 9 is_stmt 1
 263              		.loc 1 37 25 is_stmt 0
 264 0170 93850400 		mv	a1,s1
 265 0174 97000000 		call	_ZN7_Thread8sem_kickEP4_Sem@plt
 265      E7800000 
 266              	.LVL21:
  35:src/_Sem.cpp  ****     while (!handle->list.empty()) {
 267              		.loc 1 35 5
 268 017c 6FF09FFD 		j	.L20
 269              	.L19:
  38:src/_Sem.cpp  ****     }
  39:src/_Sem.cpp  ****     delete handle;
 270              		.loc 1 39 5 is_stmt 1
 271              		.loc 1 39 18 is_stmt 0
 272 0180 63880400 		beqz	s1,.L21
 273              		.loc 1 39 12 discriminator 1
 274 0184 13850400 		mv	a0,s1
 275 0188 97000000 		call	_ZN4_SemdlEPv
 275      E7800000 
 276              	.LVL22:
 277              	.L21:
  40:src/_Sem.cpp  ****     return 0;
 278              		.loc 1 40 5 is_stmt 1
  41:src/_Sem.cpp  **** }
GAS LISTING /tmp/ccwACtCP.s 			page 7


 279              		.loc 1 41 1 is_stmt 0
 280 0190 13050000 		li	a0,0
 281 0194 83308101 		ld	ra,24(sp)
 282              		.cfi_restore 1
 283 0198 03340101 		ld	s0,16(sp)
 284              		.cfi_restore 8
 285              		.cfi_def_cfa 2, 32
 286 019c 83348100 		ld	s1,8(sp)
 287              		.cfi_restore 9
 288              	.LVL23:
 289 01a0 13010102 		addi	sp,sp,32
 290              		.cfi_def_cfa_offset 0
 291 01a4 67800000 		jr	ra
 292              		.cfi_endproc
 293              	.LFE42:
 295              		.section	.rodata.str1.8
 296 000a 00000000 		.align	3
 296      0000
 297              	.LC1:
 298 0010 53656D5F 		.string	"Sem_manager Cache"
 298      6D616E61 
 298      67657220 
 298      43616368 
 298      6500
 299              		.text
 300              		.align	2
 301              		.globl	_ZN4_Sem4waitEv
 303              	_ZN4_Sem4waitEv:
 304              	.LFB43:
  42:src/_Sem.cpp  **** 
  43:src/_Sem.cpp  **** int _Sem::wait() {
 305              		.loc 1 43 18 is_stmt 1
 306              		.cfi_startproc
 307              		.cfi_personality 0x9b,DW.ref.__gxx_personality_v0
 308              		.cfi_lsda 0x1b,.LLSDA43
 309              	.LVL24:
 310 01a8 130101FD 		addi	sp,sp,-48
 311              		.cfi_def_cfa_offset 48
 312 01ac 23341102 		sd	ra,40(sp)
 313 01b0 23308102 		sd	s0,32(sp)
 314 01b4 233C9100 		sd	s1,24(sp)
 315 01b8 23382101 		sd	s2,16(sp)
 316 01bc 23343101 		sd	s3,8(sp)
 317              		.cfi_offset 1, -8
 318              		.cfi_offset 8, -16
 319              		.cfi_offset 9, -24
 320              		.cfi_offset 18, -32
 321              		.cfi_offset 19, -40
 322 01c0 13040103 		addi	s0,sp,48
 323              		.cfi_def_cfa 8, 0
 324 01c4 13090500 		mv	s2,a0
  44:src/_Sem.cpp  ****     if (_Thread::running->isInterrupted()) return 0; //prekinuta nit se automatski izbacuje
 325              		.loc 1 44 5
 326              		.loc 1 44 40 is_stmt 0
 327 01c8 97070000 		la	a5,_ZN7_Thread7runningE
 327      83B70700 
 328 01d0 03B50700 		ld	a0,0(a5)
GAS LISTING /tmp/ccwACtCP.s 			page 8


 329              	.LVL25:
 330              	.LEHB0:
 331 01d4 97000000 		call	_ZN7_Thread13isInterruptedEv@plt
 331      E7800000 
 332              	.LVL26:
 333              		.loc 1 44 5
 334 01dc 63100510 		bnez	a0,.L30
 335 01e0 93040500 		mv	s1,a0
  45:src/_Sem.cpp  ****     if (val > 0) {
 336              		.loc 1 45 5 is_stmt 1
 337              		.loc 1 45 9 is_stmt 0
 338 01e4 83270901 		lw	a5,16(s2)
 339              		.loc 1 45 5
 340 01e8 63880700 		beqz	a5,.L25
  46:src/_Sem.cpp  ****         val--;
 341              		.loc 1 46 9 is_stmt 1
 342              		.loc 1 46 12 is_stmt 0
 343 01ec 9B87F7FF 		addiw	a5,a5,-1
 344 01f0 2328F900 		sw	a5,16(s2)
  47:src/_Sem.cpp  ****         return 0;
 345              		.loc 1 47 9 is_stmt 1
 346              		.loc 1 47 16 is_stmt 0
 347 01f4 6F00C00E 		j	.L34
 348              	.L25:
  48:src/_Sem.cpp  ****     }
  49:src/_Sem.cpp  ****     _WaitManager* manager = new _SemManager(_Thread::running, this);
 349              		.loc 1 49 5 is_stmt 1
 350              	.LVL27:
 351              	.LBB25:
 352              	.LBB26:
 353              		.file 3 "src/../h/_WaitManager.h"
   1:src/../h/_WaitManager.h **** //
   2:src/../h/_WaitManager.h **** // Created by os on 6/1/22.
   3:src/../h/_WaitManager.h **** //
   4:src/../h/_WaitManager.h **** 
   5:src/../h/_WaitManager.h **** #ifndef PROJECT_BASE__WAIT_MANAGER_H
   6:src/../h/_WaitManager.h **** #define PROJECT_BASE__WAIT_MANAGER_H
   7:src/../h/_WaitManager.h **** 
   8:src/../h/_WaitManager.h **** #include "types.h"
   9:src/../h/_WaitManager.h **** #include "_Mem.h"
  10:src/../h/_WaitManager.h **** #include "_slab.h"
  11:src/../h/_WaitManager.h **** 
  12:src/../h/_WaitManager.h **** class _WaitManager {
  13:src/../h/_WaitManager.h **** public:
  14:src/../h/_WaitManager.h ****     _WaitManager(thread_t my_thread);
  15:src/../h/_WaitManager.h ****     virtual int sem_pass(sem_t);
  16:src/../h/_WaitManager.h ****     virtual int sleep_pass();
  17:src/../h/_WaitManager.h ****     virtual int join_pass();
  18:src/../h/_WaitManager.h ****     virtual int interrupt();
  19:src/../h/_WaitManager.h ****     virtual ~_WaitManager();// = 0;
  20:src/../h/_WaitManager.h **** 
  21:src/../h/_WaitManager.h **** protected:
  22:src/../h/_WaitManager.h ****     thread_t myThread;
  23:src/../h/_WaitManager.h **** };
  24:src/../h/_WaitManager.h **** 
  25:src/../h/_WaitManager.h **** class _SemManager : public _WaitManager {
  26:src/../h/_WaitManager.h **** public:
GAS LISTING /tmp/ccwACtCP.s 			page 9


  27:src/../h/_WaitManager.h ****     _SemManager(thread_t my_thread, sem_t sem);
  28:src/../h/_WaitManager.h ****     static kmem_cache_t* cache;
  29:src/../h/_WaitManager.h ****     void*  operator new(size_t size) {
  30:src/../h/_WaitManager.h ****         if (!cache) cache = kmem_cache_create("Sem_manager Cache", sizeof(_SemManager), nullptr, nu
 354              		.loc 3 30 9
 355              		.loc 3 30 13 is_stmt 0
 356 01f8 97070000 		la	a5,_ZN11_SemManager5cacheE
 356      83B70700 
 357 0200 83B70700 		ld	a5,0(a5)
 358              		.loc 3 30 9
 359 0204 638E0702 		beqz	a5,.L36
 360              	.L26:
  31:src/../h/_WaitManager.h ****         return kmem_cache_alloc(cache);
 361              		.loc 3 31 9 is_stmt 1
 362              		.loc 3 31 32 is_stmt 0
 363 0208 97070000 		la	a5,_ZN11_SemManager5cacheE
 363      83B70700 
 364 0210 03B50700 		ld	a0,0(a5)
 365 0214 97000000 		call	_Z16kmem_cache_allocP12kmem_cache_t@plt
 365      E7800000 
 366              	.LVL28:
 367              	.LEHE0:
 368 021c 93040500 		mv	s1,a0
 369              	.LVL29:
 370              	.LBE26:
 371              	.LBE25:
 372              		.loc 1 49 67
 373 0220 63060504 		beqz	a0,.L27
 374              		.loc 1 49 67 discriminator 1
 375 0224 13060900 		mv	a2,s2
 376 0228 97070000 		la	a5,_ZN7_Thread7runningE
 376      83B70700 
 377 0230 83B50700 		ld	a1,0(a5)
 378              	.LEHB1:
 379 0234 97000000 		call	_ZN11_SemManagerC1EP7_ThreadP4_Sem@plt
 379      E7800000 
 380              	.LVL30:
 381              	.LEHE1:
 382 023c 6F000003 		j	.L27
 383              	.LVL31:
 384              	.L36:
 385              	.LBB28:
 386              	.LBB27:
  30:src/../h/_WaitManager.h ****         return kmem_cache_alloc(cache);
 387              		.loc 3 30 21 is_stmt 1
  30:src/../h/_WaitManager.h ****         return kmem_cache_alloc(cache);
 388              		.loc 3 30 46 is_stmt 0
 389 0240 93060000 		li	a3,0
 390 0244 13060000 		li	a2,0
 391 0248 93058001 		li	a1,24
 392 024c 17050000 		lla	a0,.LC1
 392      13050500 
 393              	.LEHB2:
 394 0254 97000000 		call	_Z17kmem_cache_createPKcmPFvPvES3_@plt
 394      E7800000 
 395              	.LVL32:
  30:src/../h/_WaitManager.h ****         return kmem_cache_alloc(cache);
GAS LISTING /tmp/ccwACtCP.s 			page 10


 396              		.loc 3 30 27
 397 025c 97070000 		la	a5,_ZN11_SemManager5cacheE
 397      83B70700 
 398 0264 23B0A700 		sd	a0,0(a5)
 399 0268 6FF01FFA 		j	.L26
 400              	.LVL33:
 401              	.L27:
 402              	.LBE27:
 403              	.LBE28:
  50:src/_Sem.cpp  ****     if (!manager) return -1;
 404              		.loc 1 50 5 is_stmt 1 discriminator 6
 405 026c 638A0408 		beqz	s1,.L31
  51:src/_Sem.cpp  ****     _Thread::running->setManager(manager);
 406              		.loc 1 51 5
 407              		.loc 1 51 33 is_stmt 0
 408 0270 97090000 		la	s3,_ZN7_Thread7runningE
 408      83B90900 
 409 0278 93850400 		mv	a1,s1
 410 027c 03B50900 		ld	a0,0(s3)
 411 0280 97000000 		call	_ZN7_Thread10setManagerEP12_WaitManager@plt
 411      E7800000 
 412              	.LVL34:
  52:src/_Sem.cpp  ****     int ret = list.add(_Thread::running);
 413              		.loc 1 52 5 is_stmt 1
 414              		.loc 1 52 23 is_stmt 0
 415 0288 83B50900 		ld	a1,0(s3)
 416 028c 13050900 		mv	a0,s2
 417 0290 97000000 		call	_ZN11_ThreadList3addEP7_Thread@plt
 417      E7800000 
 418              	.LVL35:
 419 0298 93040500 		mv	s1,a0
 420              	.LVL36:
  53:src/_Sem.cpp  ****     if (ret) { _Thread::running->removeManager(); return ret; }
 421              		.loc 1 53 5 is_stmt 1
 422 029c 63180502 		bnez	a0,.L37
  54:src/_Sem.cpp  ****     _Thread::safeDispatch();
 423              		.loc 1 54 5
 424              		.loc 1 54 26 is_stmt 0
 425 02a0 97000000 		call	_ZN7_Thread12safeDispatchEv@plt
 425      E7800000 
 426              	.LVL37:
  55:src/_Sem.cpp  ****     if (_Thread::running->kicked()) return 3;
 427              		.loc 1 55 5 is_stmt 1
 428              		.loc 1 55 33 is_stmt 0
 429 02a8 97070000 		la	a5,_ZN7_Thread7runningE
 429      83B70700 
 430 02b0 03B50700 		ld	a0,0(a5)
 431 02b4 97000000 		call	_ZN7_Thread6kickedEv@plt
 431      E7800000 
 432              	.LVL38:
 433 02bc 93040500 		mv	s1,a0
 434              		.loc 1 55 5
 435 02c0 63000502 		beqz	a0,.L34
 436              		.loc 1 55 44
 437 02c4 93043000 		li	s1,3
 438 02c8 6F008001 		j	.L34
 439              	.LVL39:
GAS LISTING /tmp/ccwACtCP.s 			page 11


 440              	.L37:
  53:src/_Sem.cpp  ****     if (ret) { _Thread::running->removeManager(); return ret; }
 441              		.loc 1 53 16 is_stmt 1 discriminator 1
  53:src/_Sem.cpp  ****     if (ret) { _Thread::running->removeManager(); return ret; }
 442              		.loc 1 53 47 is_stmt 0 discriminator 1
 443 02cc 03B50900 		ld	a0,0(s3)
 444              	.LVL40:
 445 02d0 97000000 		call	_ZN7_Thread13removeManagerEv@plt
 445      E7800000 
 446              	.LVL41:
 447              	.LEHE2:
  53:src/_Sem.cpp  ****     if (ret) { _Thread::running->removeManager(); return ret; }
 448              		.loc 1 53 51 is_stmt 1 discriminator 1
  53:src/_Sem.cpp  ****     if (ret) { _Thread::running->removeManager(); return ret; }
 449              		.loc 1 53 58 is_stmt 0 discriminator 1
 450 02d8 6F008000 		j	.L34
 451              	.L30:
  44:src/_Sem.cpp  ****     if (val > 0) {
 452              		.loc 1 44 51
 453 02dc 93040000 		li	s1,0
 454              	.L34:
  56:src/_Sem.cpp  ****     return 0;
  57:src/_Sem.cpp  **** }
 455              		.loc 1 57 1
 456 02e0 13850400 		mv	a0,s1
 457 02e4 83308102 		ld	ra,40(sp)
 458              		.cfi_remember_state
 459              		.cfi_restore 1
 460 02e8 03340102 		ld	s0,32(sp)
 461              		.cfi_restore 8
 462              		.cfi_def_cfa 2, 48
 463 02ec 83348101 		ld	s1,24(sp)
 464              		.cfi_restore 9
 465 02f0 03390101 		ld	s2,16(sp)
 466              		.cfi_restore 18
 467              	.LVL42:
 468 02f4 83398100 		ld	s3,8(sp)
 469              		.cfi_restore 19
 470 02f8 13010103 		addi	sp,sp,48
 471              		.cfi_def_cfa_offset 0
 472 02fc 67800000 		jr	ra
 473              	.LVL43:
 474              	.L31:
 475              		.cfi_restore_state
  50:src/_Sem.cpp  ****     _Thread::running->setManager(manager);
 476              		.loc 1 50 27
 477 0300 9304F0FF 		li	s1,-1
 478              	.LVL44:
 479 0304 6FF0DFFD 		j	.L34
 480              	.L33:
 481 0308 13090500 		mv	s2,a0
 482              	.LVL45:
 483              	.LBB29:
 484              	.LBB30:
  32:src/../h/_WaitManager.h ****     }
  33:src/../h/_WaitManager.h ****     void operator delete(void* adr) { kmem_cache_free(cache, adr);}
 485              		.loc 3 33 39 is_stmt 1
GAS LISTING /tmp/ccwACtCP.s 			page 12


 486              		.loc 3 33 54 is_stmt 0
 487 030c 93850400 		mv	a1,s1
 488 0310 97070000 		la	a5,_ZN11_SemManager5cacheE
 488      83B70700 
 489 0318 03B50700 		ld	a0,0(a5)
 490 031c 97000000 		call	_Z15kmem_cache_freeP12kmem_cache_tPv@plt
 490      E7800000 
 491              	.LVL46:
 492 0324 13050900 		mv	a0,s2
 493              	.LEHB3:
 494 0328 97000000 		call	_Unwind_Resume@plt
 494      E7800000 
 495              	.LVL47:
 496              	.LEHE3:
 497              	.LBE30:
 498              	.LBE29:
 499              		.cfi_endproc
 500              	.LFE43:
 501              		.globl	__gxx_personality_v0
 502              		.section	.gcc_except_table,"a",@progbits
 503              	.LLSDA43:
 504 0000 FF       		.byte	0xff
 505 0001 FF       		.byte	0xff
 506 0002 03       		.byte	0x3
 507 0003 34       		.byte	0x34
 508 0004 00000000 		.4byte	.LEHB0-.LFB43
 509 0008 00000000 		.4byte	.LEHE0-.LEHB0
 510 000c 00000000 		.4byte	0
 511 0010 00       		.byte	0
 512 0011 00000000 		.4byte	.LEHB1-.LFB43
 513 0015 00000000 		.4byte	.LEHE1-.LEHB1
 514 0019 00000000 		.4byte	.L33-.LFB43
 515 001d 00       		.byte	0
 516 001e 00000000 		.4byte	.LEHB2-.LFB43
 517 0022 00000000 		.4byte	.LEHE2-.LEHB2
 518 0026 00000000 		.4byte	0
 519 002a 00       		.byte	0
 520 002b 00000000 		.4byte	.LEHB3-.LFB43
 521 002f 00000000 		.4byte	.LEHE3-.LEHB3
 522 0033 00000000 		.4byte	0
 523 0037 00       		.byte	0
 524              		.text
 526              		.align	2
 527              		.globl	_ZN4_Sem6signalEv
 529              	_ZN4_Sem6signalEv:
 530              	.LFB44:
  58:src/_Sem.cpp  **** int _Sem::signal() {
 531              		.loc 1 58 20 is_stmt 1
 532              		.cfi_startproc
 533              	.LVL48:
 534 0330 130101FE 		addi	sp,sp,-32
 535              		.cfi_def_cfa_offset 32
 536 0334 233C1100 		sd	ra,24(sp)
 537 0338 23388100 		sd	s0,16(sp)
 538 033c 23349100 		sd	s1,8(sp)
 539              		.cfi_offset 1, -8
 540              		.cfi_offset 8, -16
GAS LISTING /tmp/ccwACtCP.s 			page 13


 541              		.cfi_offset 9, -24
 542 0340 13040102 		addi	s0,sp,32
 543              		.cfi_def_cfa 8, 0
 544 0344 93040500 		mv	s1,a0
  59:src/_Sem.cpp  ****     if (!list.empty()) {
 545              		.loc 1 59 5
 546              	.LBB31:
 547              		.loc 1 59 20 is_stmt 0
 548 0348 97000000 		call	_ZN11_ThreadList5emptyEv@plt
 548      E7800000 
 549              	.LVL49:
 550              		.loc 1 59 5
 551 0350 63040502 		beqz	a0,.L42
  60:src/_Sem.cpp  ****         thread_t thread = list.remove();
  61:src/_Sem.cpp  ****         return thread->sem_pass(this);
  62:src/_Sem.cpp  ****     }
  63:src/_Sem.cpp  ****     else {
  64:src/_Sem.cpp  ****         val++;
 552              		.loc 1 64 9 is_stmt 1
 553 0354 83A70401 		lw	a5,16(s1)
 554              		.loc 1 64 12 is_stmt 0
 555 0358 9B871700 		addiw	a5,a5,1
 556 035c 23A8F400 		sw	a5,16(s1)
  65:src/_Sem.cpp  ****         return 0;
 557              		.loc 1 65 9 is_stmt 1
 558              		.loc 1 65 16 is_stmt 0
 559 0360 13050000 		li	a0,0
 560              	.L40:
 561              	.LBE31:
  66:src/_Sem.cpp  ****     }
  67:src/_Sem.cpp  **** }
 562              		.loc 1 67 1
 563 0364 83308101 		ld	ra,24(sp)
 564              		.cfi_remember_state
 565              		.cfi_restore 1
 566 0368 03340101 		ld	s0,16(sp)
 567              		.cfi_restore 8
 568              		.cfi_def_cfa 2, 32
 569 036c 83348100 		ld	s1,8(sp)
 570              		.cfi_restore 9
 571              	.LVL50:
 572 0370 13010102 		addi	sp,sp,32
 573              		.cfi_def_cfa_offset 0
 574 0374 67800000 		jr	ra
 575              	.LVL51:
 576              	.L42:
 577              		.cfi_restore_state
 578              	.LBB33:
 579              	.LBB32:
  60:src/_Sem.cpp  ****         return thread->sem_pass(this);
 580              		.loc 1 60 9 is_stmt 1
  60:src/_Sem.cpp  ****         return thread->sem_pass(this);
 581              		.loc 1 60 38 is_stmt 0
 582 0378 13850400 		mv	a0,s1
 583 037c 97000000 		call	_ZN11_ThreadList6removeEv@plt
 583      E7800000 
 584              	.LVL52:
GAS LISTING /tmp/ccwACtCP.s 			page 14


  61:src/_Sem.cpp  ****     }
 585              		.loc 1 61 9 is_stmt 1
  61:src/_Sem.cpp  ****     }
 586              		.loc 1 61 32 is_stmt 0
 587 0384 93850400 		mv	a1,s1
 588 0388 97000000 		call	_ZN7_Thread8sem_passEP4_Sem@plt
 588      E7800000 
 589              	.LVL53:
  61:src/_Sem.cpp  ****     }
 590              		.loc 1 61 37
 591 0390 6FF05FFD 		j	.L40
 592              	.LBE32:
 593              	.LBE33:
 594              		.cfi_endproc
 595              	.LFE44:
 597              		.align	2
 598              		.globl	_ZN4_Sem11signalEventEv
 600              	_ZN4_Sem11signalEventEv:
 601              	.LFB45:
  68:src/_Sem.cpp  **** int _Sem::signalEvent() {
 602              		.loc 1 68 25 is_stmt 1
 603              		.cfi_startproc
 604              	.LVL54:
  69:src/_Sem.cpp  ****     if (val >= 1) return 0;
 605              		.loc 1 69 5
 606              		.loc 1 69 9 is_stmt 0
 607 0394 83270501 		lw	a5,16(a0)
 608              		.loc 1 69 5
 609 0398 63860700 		beqz	a5,.L50
 610              		.loc 1 69 26
 611 039c 13050000 		li	a0,0
 612              	.LVL55:
  70:src/_Sem.cpp  ****     return signal();
  71:src/_Sem.cpp  **** }
 613              		.loc 1 71 1
 614 03a0 67800000 		ret
 615              	.LVL56:
 616              	.L50:
  68:src/_Sem.cpp  ****     if (val >= 1) return 0;
 617              		.loc 1 68 25
 618 03a4 130101FF 		addi	sp,sp,-16
 619              		.cfi_def_cfa_offset 16
 620 03a8 23341100 		sd	ra,8(sp)
 621 03ac 23308100 		sd	s0,0(sp)
 622              		.cfi_offset 1, -8
 623              		.cfi_offset 8, -16
 624 03b0 13040101 		addi	s0,sp,16
 625              		.cfi_def_cfa 8, 0
  70:src/_Sem.cpp  ****     return signal();
 626              		.loc 1 70 5 is_stmt 1
  70:src/_Sem.cpp  ****     return signal();
 627              		.loc 1 70 18 is_stmt 0
 628 03b4 97000000 		call	_ZN4_Sem6signalEv
 628      E7800000 
 629              	.LVL57:
 630              		.loc 1 71 1
 631 03bc 83308100 		ld	ra,8(sp)
GAS LISTING /tmp/ccwACtCP.s 			page 15


 632              		.cfi_restore 1
 633 03c0 03340100 		ld	s0,0(sp)
 634              		.cfi_restore 8
 635              		.cfi_def_cfa 2, 16
 636 03c4 13010101 		addi	sp,sp,16
 637              		.cfi_def_cfa_offset 0
 638 03c8 67800000 		jr	ra
 639              		.cfi_endproc
 640              	.LFE45:
 642              		.align	2
 643              		.globl	_ZN4_Sem9signalAllEv
 645              	_ZN4_Sem9signalAllEv:
 646              	.LFB46:
  72:src/_Sem.cpp  **** int _Sem::signalAll() {
 647              		.loc 1 72 23 is_stmt 1
 648              		.cfi_startproc
 649              	.LVL58:
 650 03cc 130101FE 		addi	sp,sp,-32
 651              		.cfi_def_cfa_offset 32
 652 03d0 233C1100 		sd	ra,24(sp)
 653 03d4 23388100 		sd	s0,16(sp)
 654 03d8 23349100 		sd	s1,8(sp)
 655              		.cfi_offset 1, -8
 656              		.cfi_offset 8, -16
 657              		.cfi_offset 9, -24
 658 03dc 13040102 		addi	s0,sp,32
 659              		.cfi_def_cfa 8, 0
 660 03e0 93040500 		mv	s1,a0
 661              	.LVL59:
 662              	.L53:
  73:src/_Sem.cpp  ****     while (!list.empty()) {
 663              		.loc 1 73 5
 664              		.loc 1 73 12
 665              		.loc 1 73 23 is_stmt 0
 666 03e4 13850400 		mv	a0,s1
 667 03e8 97000000 		call	_ZN11_ThreadList5emptyEv@plt
 667      E7800000 
 668              	.LVL60:
 669              		.loc 1 73 12
 670 03f0 631C0500 		bnez	a0,.L54
 671              	.LBB34:
  74:src/_Sem.cpp  ****         int ret = signal();
 672              		.loc 1 74 9 is_stmt 1
 673              		.loc 1 74 25 is_stmt 0
 674 03f4 13850400 		mv	a0,s1
 675 03f8 97000000 		call	_ZN4_Sem6signalEv
 675      E7800000 
 676              	.LVL61:
  75:src/_Sem.cpp  ****         if (ret < 0) return ret;
 677              		.loc 1 75 9 is_stmt 1
 678 0400 E35205FE 		bgez	a0,.L53
 679 0404 6F008000 		j	.L52
 680              	.LVL62:
 681              	.L54:
 682              	.LBE34:
  76:src/_Sem.cpp  ****     }
  77:src/_Sem.cpp  ****     return 0;
GAS LISTING /tmp/ccwACtCP.s 			page 16


 683              		.loc 1 77 12 is_stmt 0
 684 0408 13050000 		li	a0,0
 685              	.L52:
  78:src/_Sem.cpp  **** }
 686              		.loc 1 78 1
 687 040c 83308101 		ld	ra,24(sp)
 688              		.cfi_restore 1
 689 0410 03340101 		ld	s0,16(sp)
 690              		.cfi_restore 8
 691              		.cfi_def_cfa 2, 32
 692 0414 83348100 		ld	s1,8(sp)
 693              		.cfi_restore 9
 694              	.LVL63:
 695 0418 13010102 		addi	sp,sp,32
 696              		.cfi_def_cfa_offset 0
 697 041c 67800000 		jr	ra
 698              		.cfi_endproc
 699              	.LFE46:
 701              		.align	2
 702              		.globl	_ZN4_Sem6removeEP7_Thread
 704              	_ZN4_Sem6removeEP7_Thread:
 705              	.LFB47:
  79:src/_Sem.cpp  **** 
  80:src/_Sem.cpp  **** int _Sem::remove(thread_t thread) {
 706              		.loc 1 80 35 is_stmt 1
 707              		.cfi_startproc
 708              	.LVL64:
 709 0420 130101FF 		addi	sp,sp,-16
 710              		.cfi_def_cfa_offset 16
 711 0424 23341100 		sd	ra,8(sp)
 712 0428 23308100 		sd	s0,0(sp)
 713              		.cfi_offset 1, -8
 714              		.cfi_offset 8, -16
 715 042c 13040101 		addi	s0,sp,16
 716              		.cfi_def_cfa 8, 0
  81:src/_Sem.cpp  ****     return list.remove(thread);
 717              		.loc 1 81 5
 718              		.loc 1 81 23 is_stmt 0
 719 0430 97000000 		call	_ZN11_ThreadList6removeEP7_Thread@plt
 719      E7800000 
 720              	.LVL65:
  82:src/_Sem.cpp  **** }
 721              		.loc 1 82 1
 722 0438 83308100 		ld	ra,8(sp)
 723              		.cfi_restore 1
 724 043c 03340100 		ld	s0,0(sp)
 725              		.cfi_restore 8
 726              		.cfi_def_cfa 2, 16
 727 0440 13010101 		addi	sp,sp,16
 728              		.cfi_def_cfa_offset 0
 729 0444 67800000 		jr	ra
 730              		.cfi_endproc
 731              	.LFE47:
 733              		.section	.rodata.str1.8
 734 0022 00000000 		.align	3
 734      0000
 735              	.LC2:
GAS LISTING /tmp/ccwACtCP.s 			page 17


 736 0028 53656D53 		.string	"SemSleep_manager Cache"
 736      6C656570 
 736      5F6D616E 
 736      61676572 
 736      20436163 
 737              		.text
 738              		.align	2
 739              		.globl	_ZN4_Sem4waitEm
 741              	_ZN4_Sem4waitEm:
 742              	.LFB48:
  83:src/_Sem.cpp  **** int _Sem::wait(time_t limit) {
 743              		.loc 1 83 30 is_stmt 1
 744              		.cfi_startproc
 745              		.cfi_personality 0x9b,DW.ref.__gxx_personality_v0
 746              		.cfi_lsda 0x1b,.LLSDA48
 747              	.LVL66:
 748 0448 130101FD 		addi	sp,sp,-48
 749              		.cfi_def_cfa_offset 48
 750 044c 23341102 		sd	ra,40(sp)
 751 0450 23308102 		sd	s0,32(sp)
 752 0454 233C9100 		sd	s1,24(sp)
 753 0458 23382101 		sd	s2,16(sp)
 754 045c 23343101 		sd	s3,8(sp)
 755              		.cfi_offset 1, -8
 756              		.cfi_offset 8, -16
 757              		.cfi_offset 9, -24
 758              		.cfi_offset 18, -32
 759              		.cfi_offset 19, -40
 760 0460 13040103 		addi	s0,sp,48
 761              		.cfi_def_cfa 8, 0
 762 0464 13090500 		mv	s2,a0
 763 0468 93890500 		mv	s3,a1
  84:src/_Sem.cpp  ****     if (_Thread::running->isInterrupted()) return 0; //prekinuta nit se automatski izbacuje
 764              		.loc 1 84 5
 765              		.loc 1 84 40 is_stmt 0
 766 046c 97070000 		la	a5,_ZN7_Thread7runningE
 766      83B70700 
 767 0474 03B50700 		ld	a0,0(a5)
 768              	.LVL67:
 769              	.LEHB4:
 770 0478 97000000 		call	_ZN7_Thread13isInterruptedEv@plt
 770      E7800000 
 771              	.LVL68:
 772              		.loc 1 84 5
 773 0480 63160516 		bnez	a0,.L66
 774 0484 93040500 		mv	s1,a0
  85:src/_Sem.cpp  ****     if (val > 0) {
 775              		.loc 1 85 5 is_stmt 1
 776              		.loc 1 85 9 is_stmt 0
 777 0488 83270901 		lw	a5,16(s2)
 778              		.loc 1 85 5
 779 048c 63980700 		bnez	a5,.L74
  86:src/_Sem.cpp  ****         val--;
  87:src/_Sem.cpp  ****         return 0;
  88:src/_Sem.cpp  ****     }
  89:src/_Sem.cpp  ****     if (!limit) return 1;
 780              		.loc 1 89 5 is_stmt 1
GAS LISTING /tmp/ccwACtCP.s 			page 18


 781 0490 639C0900 		bnez	s3,.L75
 782              		.loc 1 89 24 is_stmt 0
 783 0494 93041000 		li	s1,1
 784 0498 6F008015 		j	.L72
 785              	.L74:
  86:src/_Sem.cpp  ****         val--;
 786              		.loc 1 86 9 is_stmt 1
  86:src/_Sem.cpp  ****         val--;
 787              		.loc 1 86 12 is_stmt 0
 788 049c 9B87F7FF 		addiw	a5,a5,-1
 789 04a0 2328F900 		sw	a5,16(s2)
  87:src/_Sem.cpp  ****     }
 790              		.loc 1 87 9 is_stmt 1
  87:src/_Sem.cpp  ****     }
 791              		.loc 1 87 16 is_stmt 0
 792 04a4 6F00C014 		j	.L72
 793              	.L75:
  90:src/_Sem.cpp  ****     _WaitManager* manager = new _SemSleepManager(_Thread::running, this);
 794              		.loc 1 90 5 is_stmt 1
 795              	.LVL69:
 796              	.LBB39:
 797              	.LBB40:
  34:src/../h/_WaitManager.h ****     int sem_pass(sem_t sem) override;
  35:src/../h/_WaitManager.h ****     virtual int interrupt() override;
  36:src/../h/_WaitManager.h **** 
  37:src/../h/_WaitManager.h **** private:
  38:src/../h/_WaitManager.h ****     sem_t sem;
  39:src/../h/_WaitManager.h **** };
  40:src/../h/_WaitManager.h **** 
  41:src/../h/_WaitManager.h **** class _SleepManager : public _WaitManager {
  42:src/../h/_WaitManager.h **** public:
  43:src/../h/_WaitManager.h ****     _SleepManager(thread_t my_thread);
  44:src/../h/_WaitManager.h ****     static kmem_cache_t* cache;
  45:src/../h/_WaitManager.h ****     void*  operator new(size_t size) {
  46:src/../h/_WaitManager.h ****         if (!cache) cache = kmem_cache_create("Sleep_manager Cache", sizeof(_SleepManager), nullptr
  47:src/../h/_WaitManager.h ****         return kmem_cache_alloc(cache);
  48:src/../h/_WaitManager.h ****     }
  49:src/../h/_WaitManager.h ****     void operator delete(void* adr) { kmem_cache_free(cache, adr);}
  50:src/../h/_WaitManager.h ****     int sleep_pass() override;
  51:src/../h/_WaitManager.h ****     virtual int interrupt() override;
  52:src/../h/_WaitManager.h **** };
  53:src/../h/_WaitManager.h **** 
  54:src/../h/_WaitManager.h **** class _JoinManager : public _WaitManager {
  55:src/../h/_WaitManager.h **** public:
  56:src/../h/_WaitManager.h ****     _JoinManager(thread_t my_thread, thread_t join_thread);
  57:src/../h/_WaitManager.h ****     static kmem_cache_t* cache;
  58:src/../h/_WaitManager.h ****     void*  operator new(size_t size) {
  59:src/../h/_WaitManager.h ****         if (!cache) cache = kmem_cache_create("Join_manager Cache", sizeof(_JoinManager), nullptr, 
  60:src/../h/_WaitManager.h ****         return kmem_cache_alloc(cache);
  61:src/../h/_WaitManager.h ****     }
  62:src/../h/_WaitManager.h ****     void operator delete(void* adr) { kmem_cache_free(cache, adr);}
  63:src/../h/_WaitManager.h **** 
  64:src/../h/_WaitManager.h ****     int join_pass() override;
  65:src/../h/_WaitManager.h ****     virtual int interrupt() override;
  66:src/../h/_WaitManager.h **** 
  67:src/../h/_WaitManager.h **** private:
  68:src/../h/_WaitManager.h ****     thread_t join_thread;
GAS LISTING /tmp/ccwACtCP.s 			page 19


  69:src/../h/_WaitManager.h **** };
  70:src/../h/_WaitManager.h **** 
  71:src/../h/_WaitManager.h **** class _SemORManager : public _WaitManager {
  72:src/../h/_WaitManager.h **** public:
  73:src/../h/_WaitManager.h ****     _SemORManager(thread_t my_thread, sem_t sem1, sem_t sem2);
  74:src/../h/_WaitManager.h ****     static kmem_cache_t* cache;
  75:src/../h/_WaitManager.h ****     void*  operator new(size_t size) {
  76:src/../h/_WaitManager.h ****         if (!cache) cache = kmem_cache_create("SemOR_manager Cache", sizeof(_SemORManager), nullptr
  77:src/../h/_WaitManager.h ****         return kmem_cache_alloc(cache);
  78:src/../h/_WaitManager.h ****     }
  79:src/../h/_WaitManager.h ****     void operator delete(void* adr) { kmem_cache_free(cache, adr);}
  80:src/../h/_WaitManager.h **** 
  81:src/../h/_WaitManager.h ****     int sem_pass(sem_t sem) override;
  82:src/../h/_WaitManager.h ****     virtual int interrupt() override;
  83:src/../h/_WaitManager.h **** 
  84:src/../h/_WaitManager.h **** private:
  85:src/../h/_WaitManager.h ****     sem_t sem1, sem2;
  86:src/../h/_WaitManager.h **** };
  87:src/../h/_WaitManager.h **** 
  88:src/../h/_WaitManager.h **** class _SemANDManager : public _WaitManager {
  89:src/../h/_WaitManager.h **** public:
  90:src/../h/_WaitManager.h ****     _SemANDManager(thread_t my_thread, sem_t sem1, sem_t sem2);
  91:src/../h/_WaitManager.h ****     static kmem_cache_t* cache;
  92:src/../h/_WaitManager.h ****     void*  operator new(size_t size) {
  93:src/../h/_WaitManager.h ****         if (!cache) cache = kmem_cache_create("SemAND_manager Cache", sizeof(_SemANDManager), nullp
  94:src/../h/_WaitManager.h ****         return kmem_cache_alloc(cache);
  95:src/../h/_WaitManager.h ****     }
  96:src/../h/_WaitManager.h ****     void operator delete(void* adr) { kmem_cache_free(cache, adr);}
  97:src/../h/_WaitManager.h **** 
  98:src/../h/_WaitManager.h ****     int sem_pass(sem_t sem) override;
  99:src/../h/_WaitManager.h ****     virtual int interrupt() override;
 100:src/../h/_WaitManager.h **** 
 101:src/../h/_WaitManager.h **** private:
 102:src/../h/_WaitManager.h ****     sem_t sem1, sem2;
 103:src/../h/_WaitManager.h **** };
 104:src/../h/_WaitManager.h **** 
 105:src/../h/_WaitManager.h **** class _SemSleepManager : public _WaitManager {
 106:src/../h/_WaitManager.h **** public:
 107:src/../h/_WaitManager.h ****     _SemSleepManager(thread_t my_thread, sem_t sem);
 108:src/../h/_WaitManager.h ****     static kmem_cache_t* cache;
 109:src/../h/_WaitManager.h ****     void*  operator new(size_t size) {
 110:src/../h/_WaitManager.h ****         if (!cache) cache = kmem_cache_create("SemSleep_manager Cache", sizeof(_SemSleepManager), n
 798              		.loc 3 110 9
 799              		.loc 3 110 13 is_stmt 0
 800 04a8 97070000 		la	a5,_ZN16_SemSleepManager5cacheE
 800      83B70700 
 801 04b0 83B70700 		ld	a5,0(a5)
 802              		.loc 3 110 9
 803 04b4 638E0702 		beqz	a5,.L76
 804              	.L61:
 111:src/../h/_WaitManager.h ****         return kmem_cache_alloc(cache);
 805              		.loc 3 111 9 is_stmt 1
 806              		.loc 3 111 32 is_stmt 0
 807 04b8 97070000 		la	a5,_ZN16_SemSleepManager5cacheE
 807      83B70700 
 808 04c0 03B50700 		ld	a0,0(a5)
 809 04c4 97000000 		call	_Z16kmem_cache_allocP12kmem_cache_t@plt
GAS LISTING /tmp/ccwACtCP.s 			page 20


 809      E7800000 
 810              	.LVL70:
 811              	.LEHE4:
 812 04cc 93040500 		mv	s1,a0
 813              	.LVL71:
 814              	.LBE40:
 815              	.LBE39:
 816              		.loc 1 90 72
 817 04d0 63060504 		beqz	a0,.L62
 818              		.loc 1 90 72 discriminator 1
 819 04d4 13060900 		mv	a2,s2
 820 04d8 97070000 		la	a5,_ZN7_Thread7runningE
 820      83B70700 
 821 04e0 83B50700 		ld	a1,0(a5)
 822              	.LEHB5:
 823 04e4 97000000 		call	_ZN16_SemSleepManagerC1EP7_ThreadP4_Sem@plt
 823      E7800000 
 824              	.LVL72:
 825              	.LEHE5:
 826 04ec 6F000003 		j	.L62
 827              	.LVL73:
 828              	.L76:
 829              	.LBB42:
 830              	.LBB41:
 110:src/../h/_WaitManager.h ****         return kmem_cache_alloc(cache);
 831              		.loc 3 110 21 is_stmt 1
 110:src/../h/_WaitManager.h ****         return kmem_cache_alloc(cache);
 832              		.loc 3 110 46 is_stmt 0
 833 04f0 93060000 		li	a3,0
 834 04f4 13060000 		li	a2,0
 835 04f8 93058001 		li	a1,24
 836 04fc 17050000 		lla	a0,.LC2
 836      13050500 
 837              	.LEHB6:
 838 0504 97000000 		call	_Z17kmem_cache_createPKcmPFvPvES3_@plt
 838      E7800000 
 839              	.LVL74:
 110:src/../h/_WaitManager.h ****         return kmem_cache_alloc(cache);
 840              		.loc 3 110 27
 841 050c 97070000 		la	a5,_ZN16_SemSleepManager5cacheE
 841      83B70700 
 842 0514 23B0A700 		sd	a0,0(a5)
 843 0518 6FF01FFA 		j	.L61
 844              	.LVL75:
 845              	.L62:
 846              	.LBE41:
 847              	.LBE42:
  91:src/_Sem.cpp  ****     if (!manager) return -1;
 848              		.loc 1 91 5 is_stmt 1 discriminator 6
 849 051c 638A040E 		beqz	s1,.L68
  92:src/_Sem.cpp  ****     int ret = list.add(_Thread::running);
 850              		.loc 1 92 5
 851              		.loc 1 92 23 is_stmt 0
 852 0520 97070000 		la	a5,_ZN7_Thread7runningE
 852      83B70700 
 853 0528 83B50700 		ld	a1,0(a5)
 854 052c 13050900 		mv	a0,s2
GAS LISTING /tmp/ccwACtCP.s 			page 21


 855 0530 97000000 		call	_ZN11_ThreadList3addEP7_Thread@plt
 855      E7800000 
 856              	.LVL76:
 857 0538 93040500 		mv	s1,a0
 858              	.LVL77:
  93:src/_Sem.cpp  ****     if (ret) { _Thread::running->removeManager(); return ret; }
 859              		.loc 1 93 5 is_stmt 1
 860 053c 63160504 		bnez	a0,.L77
  94:src/_Sem.cpp  ****     ret = _Sleep::put(_Thread::running, limit);
 861              		.loc 1 94 5
 862              		.loc 1 94 22 is_stmt 0
 863 0540 93850900 		mv	a1,s3
 864 0544 97070000 		la	a5,_ZN7_Thread7runningE
 864      83B70700 
 865 054c 03B50700 		ld	a0,0(a5)
 866              	.LVL78:
 867 0550 97000000 		call	_ZN6_Sleep3putEP7_Threadm@plt
 867      E7800000 
 868              	.LVL79:
 869 0558 93040500 		mv	s1,a0
 870              	.LVL80:
  95:src/_Sem.cpp  ****     if (ret) { remove(_Thread::running);
 871              		.loc 1 95 5 is_stmt 1
 872 055c 63120504 		bnez	a0,.L78
  96:src/_Sem.cpp  ****         _Thread::running->removeManager(); return ret; }
  97:src/_Sem.cpp  ****     _Thread::safeDispatch();
 873              		.loc 1 97 5
 874              		.loc 1 97 26 is_stmt 0
 875 0560 97000000 		call	_ZN7_Thread12safeDispatchEv@plt
 875      E7800000 
 876              	.LVL81:
  98:src/_Sem.cpp  ****     if (_Thread::running->limitReached()) return 1;
 877              		.loc 1 98 5 is_stmt 1
 878              		.loc 1 98 39 is_stmt 0
 879 0568 97070000 		la	a5,_ZN7_Thread7runningE
 879      83B70700 
 880 0570 03B50700 		ld	a0,0(a5)
 881 0574 97000000 		call	_ZN7_Thread12limitReachedEv@plt
 881      E7800000 
 882              	.LVL82:
 883              		.loc 1 98 5
 884 057c 63060504 		beqz	a0,.L79
 885              		.loc 1 98 50
 886 0580 93041000 		li	s1,1
 887 0584 6F00C006 		j	.L72
 888              	.LVL83:
 889              	.L77:
  93:src/_Sem.cpp  ****     ret = _Sleep::put(_Thread::running, limit);
 890              		.loc 1 93 16 is_stmt 1 discriminator 1
  93:src/_Sem.cpp  ****     ret = _Sleep::put(_Thread::running, limit);
 891              		.loc 1 93 47 is_stmt 0 discriminator 1
 892 0588 97070000 		la	a5,_ZN7_Thread7runningE
 892      83B70700 
 893 0590 03B50700 		ld	a0,0(a5)
 894              	.LVL84:
 895 0594 97000000 		call	_ZN7_Thread13removeManagerEv@plt
 895      E7800000 
GAS LISTING /tmp/ccwACtCP.s 			page 22


 896              	.LVL85:
  93:src/_Sem.cpp  ****     ret = _Sleep::put(_Thread::running, limit);
 897              		.loc 1 93 51 is_stmt 1 discriminator 1
  93:src/_Sem.cpp  ****     ret = _Sleep::put(_Thread::running, limit);
 898              		.loc 1 93 58 is_stmt 0 discriminator 1
 899 059c 6F004005 		j	.L72
 900              	.LVL86:
 901              	.L78:
  95:src/_Sem.cpp  ****         _Thread::running->removeManager(); return ret; }
 902              		.loc 1 95 16 is_stmt 1 discriminator 1
  95:src/_Sem.cpp  ****         _Thread::running->removeManager(); return ret; }
 903              		.loc 1 95 22 is_stmt 0 discriminator 1
 904 05a0 97090000 		la	s3,_ZN7_Thread7runningE
 904      83B90900 
 905              	.LVL87:
 906 05a8 83B50900 		ld	a1,0(s3)
 907 05ac 13050900 		mv	a0,s2
 908              	.LVL88:
 909 05b0 97000000 		call	_ZN4_Sem6removeEP7_Thread
 909      E7800000 
 910              	.LVL89:
  96:src/_Sem.cpp  ****     _Thread::safeDispatch();
 911              		.loc 1 96 9 is_stmt 1 discriminator 1
  96:src/_Sem.cpp  ****     _Thread::safeDispatch();
 912              		.loc 1 96 40 is_stmt 0 discriminator 1
 913 05b8 03B50900 		ld	a0,0(s3)
 914 05bc 97000000 		call	_ZN7_Thread13removeManagerEv@plt
 914      E7800000 
 915              	.LVL90:
  96:src/_Sem.cpp  ****     _Thread::safeDispatch();
 916              		.loc 1 96 44 is_stmt 1 discriminator 1
  96:src/_Sem.cpp  ****     _Thread::safeDispatch();
 917              		.loc 1 96 51 is_stmt 0 discriminator 1
 918 05c4 6F00C002 		j	.L72
 919              	.LVL91:
 920              	.L79:
  99:src/_Sem.cpp  ****     if (_Thread::running->kicked()) return 3;
 921              		.loc 1 99 5 is_stmt 1
 922              		.loc 1 99 33 is_stmt 0
 923 05c8 97070000 		la	a5,_ZN7_Thread7runningE
 923      83B70700 
 924 05d0 03B50700 		ld	a0,0(a5)
 925 05d4 97000000 		call	_ZN7_Thread6kickedEv@plt
 925      E7800000 
 926              	.LVL92:
 927              	.LEHE6:
 928 05dc 93040500 		mv	s1,a0
 929              		.loc 1 99 5
 930 05e0 63080500 		beqz	a0,.L72
 931              		.loc 1 99 44
 932 05e4 93043000 		li	s1,3
 933 05e8 6F008000 		j	.L72
 934              	.L66:
  84:src/_Sem.cpp  ****     if (val > 0) {
 935              		.loc 1 84 51
 936 05ec 93040000 		li	s1,0
 937              	.LVL93:
GAS LISTING /tmp/ccwACtCP.s 			page 23


 938              	.L72:
 100:src/_Sem.cpp  ****     return 0;
 101:src/_Sem.cpp  **** }
 939              		.loc 1 101 1
 940 05f0 13850400 		mv	a0,s1
 941 05f4 83308102 		ld	ra,40(sp)
 942              		.cfi_remember_state
 943              		.cfi_restore 1
 944 05f8 03340102 		ld	s0,32(sp)
 945              		.cfi_restore 8
 946              		.cfi_def_cfa 2, 48
 947 05fc 83348101 		ld	s1,24(sp)
 948              		.cfi_restore 9
 949 0600 03390101 		ld	s2,16(sp)
 950              		.cfi_restore 18
 951              	.LVL94:
 952 0604 83398100 		ld	s3,8(sp)
 953              		.cfi_restore 19
 954 0608 13010103 		addi	sp,sp,48
 955              		.cfi_def_cfa_offset 0
 956 060c 67800000 		jr	ra
 957              	.LVL95:
 958              	.L68:
 959              		.cfi_restore_state
  91:src/_Sem.cpp  ****     int ret = list.add(_Thread::running);
 960              		.loc 1 91 27
 961 0610 9304F0FF 		li	s1,-1
 962              	.LVL96:
 963 0614 6FF0DFFD 		j	.L72
 964              	.L71:
 965 0618 13090500 		mv	s2,a0
 966              	.LVL97:
 967              	.LBB43:
 968              	.LBB44:
 112:src/../h/_WaitManager.h ****     }
 113:src/../h/_WaitManager.h ****     void operator delete(void* adr) { kmem_cache_free(cache, adr);}
 969              		.loc 3 113 39 is_stmt 1
 970              		.loc 3 113 54 is_stmt 0
 971 061c 93850400 		mv	a1,s1
 972 0620 97070000 		la	a5,_ZN16_SemSleepManager5cacheE
 972      83B70700 
 973 0628 03B50700 		ld	a0,0(a5)
 974 062c 97000000 		call	_Z15kmem_cache_freeP12kmem_cache_tPv@plt
 974      E7800000 
 975              	.LVL98:
 976 0634 13050900 		mv	a0,s2
 977              	.LEHB7:
 978 0638 97000000 		call	_Unwind_Resume@plt
 978      E7800000 
 979              	.LVL99:
 980              	.LEHE7:
 981              	.LBE44:
 982              	.LBE43:
 983              		.cfi_endproc
 984              	.LFE48:
 985              		.section	.gcc_except_table
 986              	.LLSDA48:
GAS LISTING /tmp/ccwACtCP.s 			page 24


 987 0038 FF       		.byte	0xff
 988 0039 FF       		.byte	0xff
 989 003a 03       		.byte	0x3
 990 003b 34       		.byte	0x34
 991 003c 00000000 		.4byte	.LEHB4-.LFB48
 992 0040 00000000 		.4byte	.LEHE4-.LEHB4
 993 0044 00000000 		.4byte	0
 994 0048 00       		.byte	0
 995 0049 00000000 		.4byte	.LEHB5-.LFB48
 996 004d 00000000 		.4byte	.LEHE5-.LEHB5
 997 0051 00000000 		.4byte	.L71-.LFB48
 998 0055 00       		.byte	0
 999 0056 00000000 		.4byte	.LEHB6-.LFB48
 1000 005a 00000000 		.4byte	.LEHE6-.LEHB6
 1001 005e 00000000 		.4byte	0
 1002 0062 00       		.byte	0
 1003 0063 00000000 		.4byte	.LEHB7-.LFB48
 1004 0067 00000000 		.4byte	.LEHE7-.LEHB7
 1005 006b 00000000 		.4byte	0
 1006 006f 00       		.byte	0
 1007              		.text
 1009              		.section	.rodata.str1.8
 1010 003f 00       		.align	3
 1011              	.LC3:
 1012 0040 53656D4F 		.string	"SemOR_manager Cache"
 1012      525F6D61 
 1012      6E616765 
 1012      72204361 
 1012      63686500 
 1013              		.text
 1014              		.align	2
 1015              		.globl	_ZN4_Sem6waitOREPS_S0_
 1017              	_ZN4_Sem6waitOREPS_S0_:
 1018              	.LFB49:
 102:src/_Sem.cpp  **** //dodatne funkcije
 103:src/_Sem.cpp  **** int _Sem::waitOR(sem_t sem1, sem_t sem2) {
 1019              		.loc 1 103 42 is_stmt 1
 1020              		.cfi_startproc
 1021              		.cfi_personality 0x9b,DW.ref.__gxx_personality_v0
 1022              		.cfi_lsda 0x1b,.LLSDA49
 1023              	.LVL100:
 1024 0640 130101FD 		addi	sp,sp,-48
 1025              		.cfi_def_cfa_offset 48
 1026 0644 23341102 		sd	ra,40(sp)
 1027 0648 23308102 		sd	s0,32(sp)
 1028 064c 233C9100 		sd	s1,24(sp)
 1029 0650 23382101 		sd	s2,16(sp)
 1030 0654 23343101 		sd	s3,8(sp)
 1031              		.cfi_offset 1, -8
 1032              		.cfi_offset 8, -16
 1033              		.cfi_offset 9, -24
 1034              		.cfi_offset 18, -32
 1035              		.cfi_offset 19, -40
 1036 0658 13040103 		addi	s0,sp,48
 1037              		.cfi_def_cfa 8, 0
 1038 065c 13090500 		mv	s2,a0
 1039 0660 93890500 		mv	s3,a1
GAS LISTING /tmp/ccwACtCP.s 			page 25


 104:src/_Sem.cpp  ****     if (_Thread::running->isInterrupted()) return 0; //prekinuta nit se automatski izbacuje
 1040              		.loc 1 104 5
 1041              		.loc 1 104 40 is_stmt 0
 1042 0664 97070000 		la	a5,_ZN7_Thread7runningE
 1042      83B70700 
 1043 066c 03B50700 		ld	a0,0(a5)
 1044              	.LVL101:
 1045              	.LEHB8:
 1046 0670 97000000 		call	_ZN7_Thread13isInterruptedEv@plt
 1046      E7800000 
 1047              	.LVL102:
 1048              		.loc 1 104 5
 1049 0678 631C0514 		bnez	a0,.L89
 1050 067c 93040500 		mv	s1,a0
 105:src/_Sem.cpp  ****     if (sem1->val > 0) { sem1->val--; return 0; }
 1051              		.loc 1 105 5 is_stmt 1
 1052              		.loc 1 105 15 is_stmt 0
 1053 0680 83270901 		lw	a5,16(s2)
 1054              		.loc 1 105 5
 1055 0684 639C0700 		bnez	a5,.L95
 106:src/_Sem.cpp  ****     else if (sem2->val > 0) { sem2->val--; return 0; }
 1056              		.loc 1 106 10 is_stmt 1
 1057              		.loc 1 106 20 is_stmt 0
 1058 0688 83A70901 		lw	a5,16(s3)
 1059              		.loc 1 106 10
 1060 068c 638E0700 		beqz	a5,.L83
 1061              		.loc 1 106 31 is_stmt 1 discriminator 1
 1062              		.loc 1 106 40 is_stmt 0 discriminator 1
 1063 0690 9B87F7FF 		addiw	a5,a5,-1
 1064 0694 23A8F900 		sw	a5,16(s3)
 1065              		.loc 1 106 44 is_stmt 1 discriminator 1
 1066              		.loc 1 106 51 is_stmt 0 discriminator 1
 1067 0698 6F00C013 		j	.L93
 1068              	.L95:
 105:src/_Sem.cpp  ****     if (sem1->val > 0) { sem1->val--; return 0; }
 1069              		.loc 1 105 26 is_stmt 1 discriminator 1
 105:src/_Sem.cpp  ****     if (sem1->val > 0) { sem1->val--; return 0; }
 1070              		.loc 1 105 35 is_stmt 0 discriminator 1
 1071 069c 9B87F7FF 		addiw	a5,a5,-1
 1072 06a0 2328F900 		sw	a5,16(s2)
 105:src/_Sem.cpp  ****     if (sem1->val > 0) { sem1->val--; return 0; }
 1073              		.loc 1 105 39 is_stmt 1 discriminator 1
 105:src/_Sem.cpp  ****     if (sem1->val > 0) { sem1->val--; return 0; }
 1074              		.loc 1 105 46 is_stmt 0 discriminator 1
 1075 06a4 6F000013 		j	.L93
 1076              	.L83:
 107:src/_Sem.cpp  ****     _WaitManager* manager = new _SemORManager(_Thread::running, sem1, sem2);
 1077              		.loc 1 107 5 is_stmt 1
 1078              	.LVL103:
 1079              	.LBB49:
 1080              	.LBB50:
  76:src/../h/_WaitManager.h ****         return kmem_cache_alloc(cache);
 1081              		.loc 3 76 9
  76:src/../h/_WaitManager.h ****         return kmem_cache_alloc(cache);
 1082              		.loc 3 76 13 is_stmt 0
 1083 06a8 97070000 		la	a5,_ZN13_SemORManager5cacheE
 1083      83B70700 
GAS LISTING /tmp/ccwACtCP.s 			page 26


 1084 06b0 83B70700 		ld	a5,0(a5)
  76:src/../h/_WaitManager.h ****         return kmem_cache_alloc(cache);
 1085              		.loc 3 76 9
 1086 06b4 63800704 		beqz	a5,.L96
 1087              	.L84:
  77:src/../h/_WaitManager.h ****     }
 1088              		.loc 3 77 9 is_stmt 1
  77:src/../h/_WaitManager.h ****     }
 1089              		.loc 3 77 32 is_stmt 0
 1090 06b8 97070000 		la	a5,_ZN13_SemORManager5cacheE
 1090      83B70700 
 1091 06c0 03B50700 		ld	a0,0(a5)
 1092 06c4 97000000 		call	_Z16kmem_cache_allocP12kmem_cache_t@plt
 1092      E7800000 
 1093              	.LVL104:
 1094              	.LEHE8:
 1095 06cc 93040500 		mv	s1,a0
 1096              	.LVL105:
 1097              	.LBE50:
 1098              	.LBE49:
 1099              		.loc 1 107 75
 1100 06d0 63080504 		beqz	a0,.L85
 1101              		.loc 1 107 75 discriminator 1
 1102 06d4 93860900 		mv	a3,s3
 1103 06d8 13060900 		mv	a2,s2
 1104 06dc 97070000 		la	a5,_ZN7_Thread7runningE
 1104      83B70700 
 1105 06e4 83B50700 		ld	a1,0(a5)
 1106              	.LEHB9:
 1107 06e8 97000000 		call	_ZN13_SemORManagerC1EP7_ThreadP4_SemS3_@plt
 1107      E7800000 
 1108              	.LVL106:
 1109              	.LEHE9:
 1110 06f0 6F000003 		j	.L85
 1111              	.LVL107:
 1112              	.L96:
 1113              	.LBB52:
 1114              	.LBB51:
  76:src/../h/_WaitManager.h ****         return kmem_cache_alloc(cache);
 1115              		.loc 3 76 21 is_stmt 1
  76:src/../h/_WaitManager.h ****         return kmem_cache_alloc(cache);
 1116              		.loc 3 76 46 is_stmt 0
 1117 06f4 93060000 		li	a3,0
 1118 06f8 13060000 		li	a2,0
 1119 06fc 93050002 		li	a1,32
 1120 0700 17050000 		lla	a0,.LC3
 1120      13050500 
 1121              	.LEHB10:
 1122 0708 97000000 		call	_Z17kmem_cache_createPKcmPFvPvES3_@plt
 1122      E7800000 
 1123              	.LVL108:
  76:src/../h/_WaitManager.h ****         return kmem_cache_alloc(cache);
 1124              		.loc 3 76 27
 1125 0710 97070000 		la	a5,_ZN13_SemORManager5cacheE
 1125      83B70700 
 1126 0718 23B0A700 		sd	a0,0(a5)
 1127 071c 6FF0DFF9 		j	.L84
GAS LISTING /tmp/ccwACtCP.s 			page 27


 1128              	.LVL109:
 1129              	.L85:
 1130              	.LBE51:
 1131              	.LBE52:
 108:src/_Sem.cpp  ****     if (!manager) return -1;
 1132              		.loc 1 108 5 is_stmt 1 discriminator 6
 1133 0720 638A040C 		beqz	s1,.L90
 109:src/_Sem.cpp  ****     int ret = sem1->list.add(_Thread::running);
 1134              		.loc 1 109 5
 1135              		.loc 1 109 29 is_stmt 0
 1136 0724 97070000 		la	a5,_ZN7_Thread7runningE
 1136      83B70700 
 1137 072c 83B50700 		ld	a1,0(a5)
 1138 0730 13050900 		mv	a0,s2
 1139 0734 97000000 		call	_ZN11_ThreadList3addEP7_Thread@plt
 1139      E7800000 
 1140              	.LVL110:
 1141 073c 93040500 		mv	s1,a0
 1142              	.LVL111:
 110:src/_Sem.cpp  ****     if (ret) { _Thread::running->removeManager(); return ret;}
 1143              		.loc 1 110 5 is_stmt 1
 1144 0740 63180504 		bnez	a0,.L97
 111:src/_Sem.cpp  ****     ret = sem2->list.add(_Thread::running);
 1145              		.loc 1 111 5
 1146              		.loc 1 111 25 is_stmt 0
 1147 0744 97070000 		la	a5,_ZN7_Thread7runningE
 1147      83B70700 
 1148 074c 83B50700 		ld	a1,0(a5)
 1149 0750 13850900 		mv	a0,s3
 1150              	.LVL112:
 1151 0754 97000000 		call	_ZN11_ThreadList3addEP7_Thread@plt
 1151      E7800000 
 1152              	.LVL113:
 1153 075c 93040500 		mv	s1,a0
 1154              	.LVL114:
 112:src/_Sem.cpp  ****     if (ret) { sem1->remove(_Thread::running);
 1155              		.loc 1 112 5 is_stmt 1
 1156 0760 63140504 		bnez	a0,.L98
 113:src/_Sem.cpp  ****         _Thread::running->removeManager(); return ret;}
 114:src/_Sem.cpp  ****     _Thread::safeDispatch();
 1157              		.loc 1 114 5
 1158              		.loc 1 114 26 is_stmt 0
 1159 0764 97000000 		call	_ZN7_Thread12safeDispatchEv@plt
 1159      E7800000 
 1160              	.LVL115:
 115:src/_Sem.cpp  ****     if (_Thread::running->kicked()) return 3;
 1161              		.loc 1 115 5 is_stmt 1
 1162              		.loc 1 115 33 is_stmt 0
 1163 076c 97070000 		la	a5,_ZN7_Thread7runningE
 1163      83B70700 
 1164 0774 03B50700 		ld	a0,0(a5)
 1165 0778 97000000 		call	_ZN7_Thread6kickedEv@plt
 1165      E7800000 
 1166              	.LVL116:
 1167 0780 93040500 		mv	s1,a0
 1168              		.loc 1 115 5
 1169 0784 63080504 		beqz	a0,.L93
GAS LISTING /tmp/ccwACtCP.s 			page 28


 1170              		.loc 1 115 44
 1171 0788 93043000 		li	s1,3
 1172 078c 6F008004 		j	.L93
 1173              	.LVL117:
 1174              	.L97:
 110:src/_Sem.cpp  ****     ret = sem2->list.add(_Thread::running);
 1175              		.loc 1 110 16 is_stmt 1 discriminator 1
 110:src/_Sem.cpp  ****     ret = sem2->list.add(_Thread::running);
 1176              		.loc 1 110 47 is_stmt 0 discriminator 1
 1177 0790 97070000 		la	a5,_ZN7_Thread7runningE
 1177      83B70700 
 1178 0798 03B50700 		ld	a0,0(a5)
 1179              	.LVL118:
 1180 079c 97000000 		call	_ZN7_Thread13removeManagerEv@plt
 1180      E7800000 
 1181              	.LVL119:
 110:src/_Sem.cpp  ****     ret = sem2->list.add(_Thread::running);
 1182              		.loc 1 110 51 is_stmt 1 discriminator 1
 110:src/_Sem.cpp  ****     ret = sem2->list.add(_Thread::running);
 1183              		.loc 1 110 58 is_stmt 0 discriminator 1
 1184 07a4 6F000003 		j	.L93
 1185              	.LVL120:
 1186              	.L98:
 112:src/_Sem.cpp  ****         _Thread::running->removeManager(); return ret;}
 1187              		.loc 1 112 16 is_stmt 1 discriminator 1
 112:src/_Sem.cpp  ****         _Thread::running->removeManager(); return ret;}
 1188              		.loc 1 112 28 is_stmt 0 discriminator 1
 1189 07a8 97090000 		la	s3,_ZN7_Thread7runningE
 1189      83B90900 
 1190              	.LVL121:
 1191 07b0 83B50900 		ld	a1,0(s3)
 1192 07b4 13050900 		mv	a0,s2
 1193              	.LVL122:
 1194 07b8 97000000 		call	_ZN4_Sem6removeEP7_Thread
 1194      E7800000 
 1195              	.LVL123:
 113:src/_Sem.cpp  ****     _Thread::safeDispatch();
 1196              		.loc 1 113 9 is_stmt 1 discriminator 1
 113:src/_Sem.cpp  ****     _Thread::safeDispatch();
 1197              		.loc 1 113 40 is_stmt 0 discriminator 1
 1198 07c0 03B50900 		ld	a0,0(s3)
 1199 07c4 97000000 		call	_ZN7_Thread13removeManagerEv@plt
 1199      E7800000 
 1200              	.LVL124:
 1201              	.LEHE10:
 113:src/_Sem.cpp  ****     _Thread::safeDispatch();
 1202              		.loc 1 113 44 is_stmt 1 discriminator 1
 113:src/_Sem.cpp  ****     _Thread::safeDispatch();
 1203              		.loc 1 113 51 is_stmt 0 discriminator 1
 1204 07cc 6F008000 		j	.L93
 1205              	.LVL125:
 1206              	.L89:
 104:src/_Sem.cpp  ****     if (sem1->val > 0) { sem1->val--; return 0; }
 1207              		.loc 1 104 51
 1208 07d0 93040000 		li	s1,0
 1209              	.LVL126:
 1210              	.L93:
GAS LISTING /tmp/ccwACtCP.s 			page 29


 116:src/_Sem.cpp  ****     return 0;
 117:src/_Sem.cpp  **** }
 1211              		.loc 1 117 1
 1212 07d4 13850400 		mv	a0,s1
 1213 07d8 83308102 		ld	ra,40(sp)
 1214              		.cfi_remember_state
 1215              		.cfi_restore 1
 1216 07dc 03340102 		ld	s0,32(sp)
 1217              		.cfi_restore 8
 1218              		.cfi_def_cfa 2, 48
 1219 07e0 83348101 		ld	s1,24(sp)
 1220              		.cfi_restore 9
 1221 07e4 03390101 		ld	s2,16(sp)
 1222              		.cfi_restore 18
 1223              	.LVL127:
 1224 07e8 83398100 		ld	s3,8(sp)
 1225              		.cfi_restore 19
 1226 07ec 13010103 		addi	sp,sp,48
 1227              		.cfi_def_cfa_offset 0
 1228 07f0 67800000 		jr	ra
 1229              	.LVL128:
 1230              	.L90:
 1231              		.cfi_restore_state
 108:src/_Sem.cpp  ****     int ret = sem1->list.add(_Thread::running);
 1232              		.loc 1 108 27
 1233 07f4 9304F0FF 		li	s1,-1
 1234              	.LVL129:
 1235 07f8 6FF0DFFD 		j	.L93
 1236              	.L92:
 1237 07fc 13090500 		mv	s2,a0
 1238              	.LVL130:
 1239              	.LBB53:
 1240              	.LBB54:
  79:src/../h/_WaitManager.h **** 
 1241              		.loc 3 79 39 is_stmt 1
  79:src/../h/_WaitManager.h **** 
 1242              		.loc 3 79 54 is_stmt 0
 1243 0800 93850400 		mv	a1,s1
 1244 0804 97070000 		la	a5,_ZN13_SemORManager5cacheE
 1244      83B70700 
 1245 080c 03B50700 		ld	a0,0(a5)
 1246 0810 97000000 		call	_Z15kmem_cache_freeP12kmem_cache_tPv@plt
 1246      E7800000 
 1247              	.LVL131:
 1248 0818 13050900 		mv	a0,s2
 1249              	.LEHB11:
 1250 081c 97000000 		call	_Unwind_Resume@plt
 1250      E7800000 
 1251              	.LVL132:
 1252              	.LEHE11:
 1253              	.LBE54:
 1254              	.LBE53:
 1255              		.cfi_endproc
 1256              	.LFE49:
 1257              		.section	.gcc_except_table
 1258              	.LLSDA49:
 1259 0070 FF       		.byte	0xff
GAS LISTING /tmp/ccwACtCP.s 			page 30


 1260 0071 FF       		.byte	0xff
 1261 0072 03       		.byte	0x3
 1262 0073 34       		.byte	0x34
 1263 0074 00000000 		.4byte	.LEHB8-.LFB49
 1264 0078 00000000 		.4byte	.LEHE8-.LEHB8
 1265 007c 00000000 		.4byte	0
 1266 0080 00       		.byte	0
 1267 0081 00000000 		.4byte	.LEHB9-.LFB49
 1268 0085 00000000 		.4byte	.LEHE9-.LEHB9
 1269 0089 00000000 		.4byte	.L92-.LFB49
 1270 008d 00       		.byte	0
 1271 008e 00000000 		.4byte	.LEHB10-.LFB49
 1272 0092 00000000 		.4byte	.LEHE10-.LEHB10
 1273 0096 00000000 		.4byte	0
 1274 009a 00       		.byte	0
 1275 009b 00000000 		.4byte	.LEHB11-.LFB49
 1276 009f 00000000 		.4byte	.LEHE11-.LEHB11
 1277 00a3 00000000 		.4byte	0
 1278 00a7 00       		.byte	0
 1279              		.text
 1281              		.section	.rodata.str1.8
 1282 0054 00000000 		.align	3
 1283              	.LC4:
 1284 0058 53656D41 		.string	"SemAND_manager Cache"
 1284      4E445F6D 
 1284      616E6167 
 1284      65722043 
 1284      61636865 
 1285              		.text
 1286              		.align	2
 1287              		.globl	_ZN4_Sem10semWaitANDEPS_S0_
 1289              	_ZN4_Sem10semWaitANDEPS_S0_:
 1290              	.LFB50:
 118:src/_Sem.cpp  **** int _Sem::semWaitAND(sem_t sem1, sem_t sem2) {
 1291              		.loc 1 118 46 is_stmt 1
 1292              		.cfi_startproc
 1293              		.cfi_personality 0x9b,DW.ref.__gxx_personality_v0
 1294              		.cfi_lsda 0x1b,.LLSDA50
 1295              	.LVL133:
 1296 0824 130101FD 		addi	sp,sp,-48
 1297              		.cfi_def_cfa_offset 48
 1298 0828 23341102 		sd	ra,40(sp)
 1299 082c 23308102 		sd	s0,32(sp)
 1300 0830 233C9100 		sd	s1,24(sp)
 1301 0834 23382101 		sd	s2,16(sp)
 1302 0838 23343101 		sd	s3,8(sp)
 1303 083c 23304101 		sd	s4,0(sp)
 1304              		.cfi_offset 1, -8
 1305              		.cfi_offset 8, -16
 1306              		.cfi_offset 9, -24
 1307              		.cfi_offset 18, -32
 1308              		.cfi_offset 19, -40
 1309              		.cfi_offset 20, -48
 1310 0840 13040103 		addi	s0,sp,48
 1311              		.cfi_def_cfa 8, 0
 1312 0844 93090500 		mv	s3,a0
 1313 0848 138A0500 		mv	s4,a1
GAS LISTING /tmp/ccwACtCP.s 			page 31


 119:src/_Sem.cpp  ****     if (_Thread::running->isInterrupted()) return 0; //prekinuta nit se automatski izbacuje
 1314              		.loc 1 119 5
 1315              		.loc 1 119 40 is_stmt 0
 1316 084c 97070000 		la	a5,_ZN7_Thread7runningE
 1316      83B70700 
 1317 0854 03B50700 		ld	a0,0(a5)
 1318              	.LVL134:
 1319              	.LEHB12:
 1320 0858 97000000 		call	_ZN7_Thread13isInterruptedEv@plt
 1320      E7800000 
 1321              	.LVL135:
 1322              		.loc 1 119 5
 1323 0860 63180518 		bnez	a0,.L111
 1324 0864 93040500 		mv	s1,a0
 120:src/_Sem.cpp  ****     if (sem1->val > 0) { sem1->val--; sem1 = nullptr; }
 1325              		.loc 1 120 5 is_stmt 1
 1326              		.loc 1 120 15 is_stmt 0
 1327 0868 83A70901 		lw	a5,16(s3)
 1328              		.loc 1 120 5
 1329 086c 63880700 		beqz	a5,.L101
 1330              		.loc 1 120 26 is_stmt 1 discriminator 1
 1331              		.loc 1 120 35 is_stmt 0 discriminator 1
 1332 0870 9B87F7FF 		addiw	a5,a5,-1
 1333 0874 23A8F900 		sw	a5,16(s3)
 1334              		.loc 1 120 39 is_stmt 1 discriminator 1
 1335              	.LVL136:
 1336              		.loc 1 120 44 is_stmt 0 discriminator 1
 1337 0878 93090000 		li	s3,0
 1338              	.LVL137:
 1339              	.L101:
 121:src/_Sem.cpp  ****     if (sem2->val > 0) { sem2->val--; sem2 = nullptr; }
 1340              		.loc 1 121 5 is_stmt 1
 1341              		.loc 1 121 15 is_stmt 0
 1342 087c 83270A01 		lw	a5,16(s4)
 1343              		.loc 1 121 5
 1344 0880 63880700 		beqz	a5,.L102
 1345              		.loc 1 121 26 is_stmt 1 discriminator 1
 1346              		.loc 1 121 35 is_stmt 0 discriminator 1
 1347 0884 9B87F7FF 		addiw	a5,a5,-1
 1348 0888 2328FA00 		sw	a5,16(s4)
 1349              		.loc 1 121 39 is_stmt 1 discriminator 1
 1350              	.LVL138:
 1351              		.loc 1 121 44 is_stmt 0 discriminator 1
 1352 088c 130A0000 		li	s4,0
 1353              	.LVL139:
 1354              	.L102:
 122:src/_Sem.cpp  ****     if (!sem1 && !sem2) return 0;
 1355              		.loc 1 122 5 is_stmt 1
 1356 0890 63880904 		beqz	s3,.L117
 1357              	.L103:
 123:src/_Sem.cpp  ****     _WaitManager* manager = new _SemANDManager(_Thread::running, sem1, sem2);
 1358              		.loc 1 123 5
 1359              	.LVL140:
 1360              	.LBB59:
 1361              	.LBB60:
  93:src/../h/_WaitManager.h ****         return kmem_cache_alloc(cache);
 1362              		.loc 3 93 9
GAS LISTING /tmp/ccwACtCP.s 			page 32


  93:src/../h/_WaitManager.h ****         return kmem_cache_alloc(cache);
 1363              		.loc 3 93 13 is_stmt 0
 1364 0894 97070000 		la	a5,_ZN14_SemANDManager5cacheE
 1364      83B70700 
 1365 089c 83B70700 		ld	a5,0(a5)
  93:src/../h/_WaitManager.h ****         return kmem_cache_alloc(cache);
 1366              		.loc 3 93 9
 1367 08a0 63840704 		beqz	a5,.L118
 1368              	.L104:
  94:src/../h/_WaitManager.h ****     }
 1369              		.loc 3 94 9 is_stmt 1
  94:src/../h/_WaitManager.h ****     }
 1370              		.loc 3 94 32 is_stmt 0
 1371 08a4 97070000 		la	a5,_ZN14_SemANDManager5cacheE
 1371      83B70700 
 1372 08ac 03B50700 		ld	a0,0(a5)
 1373 08b0 97000000 		call	_Z16kmem_cache_allocP12kmem_cache_t@plt
 1373      E7800000 
 1374              	.LVL141:
 1375              	.LEHE12:
 1376 08b8 13090500 		mv	s2,a0
 1377              	.LVL142:
 1378              	.LBE60:
 1379              	.LBE59:
 1380              		.loc 1 123 76
 1381 08bc 630C0504 		beqz	a0,.L105
 1382              		.loc 1 123 76 discriminator 1
 1383 08c0 93060A00 		mv	a3,s4
 1384 08c4 13860900 		mv	a2,s3
 1385 08c8 97070000 		la	a5,_ZN7_Thread7runningE
 1385      83B70700 
 1386 08d0 83B50700 		ld	a1,0(a5)
 1387              	.LEHB13:
 1388 08d4 97000000 		call	_ZN14_SemANDManagerC1EP7_ThreadP4_SemS3_@plt
 1388      E7800000 
 1389              	.LVL143:
 1390              	.LEHE13:
 1391 08dc 6F008003 		j	.L105
 1392              	.L117:
 122:src/_Sem.cpp  ****     _WaitManager* manager = new _SemANDManager(_Thread::running, sem1, sem2);
 1393              		.loc 1 122 15 discriminator 1
 1394 08e0 E31A0AFA 		bnez	s4,.L103
 1395 08e4 6F000011 		j	.L115
 1396              	.LVL144:
 1397              	.L118:
 1398              	.LBB62:
 1399              	.LBB61:
  93:src/../h/_WaitManager.h ****         return kmem_cache_alloc(cache);
 1400              		.loc 3 93 21 is_stmt 1
  93:src/../h/_WaitManager.h ****         return kmem_cache_alloc(cache);
 1401              		.loc 3 93 46 is_stmt 0
 1402 08e8 93060000 		li	a3,0
 1403 08ec 13060000 		li	a2,0
 1404 08f0 93050002 		li	a1,32
 1405 08f4 17050000 		lla	a0,.LC4
 1405      13050500 
 1406              	.LEHB14:
GAS LISTING /tmp/ccwACtCP.s 			page 33


 1407 08fc 97000000 		call	_Z17kmem_cache_createPKcmPFvPvES3_@plt
 1407      E7800000 
 1408              	.LVL145:
  93:src/../h/_WaitManager.h ****         return kmem_cache_alloc(cache);
 1409              		.loc 3 93 27
 1410 0904 97070000 		la	a5,_ZN14_SemANDManager5cacheE
 1410      83B70700 
 1411 090c 23B0A700 		sd	a0,0(a5)
 1412 0910 6FF05FF9 		j	.L104
 1413              	.LVL146:
 1414              	.L105:
 1415              	.LBE61:
 1416              	.LBE62:
 124:src/_Sem.cpp  ****     if (!manager) return -1;
 1417              		.loc 1 124 5 is_stmt 1 discriminator 6
 1418 0914 63020910 		beqz	s2,.L112
 125:src/_Sem.cpp  ****     _Thread::running->setManager(manager);
 1419              		.loc 1 125 5
 1420              		.loc 1 125 33 is_stmt 0
 1421 0918 93050900 		mv	a1,s2
 1422 091c 97070000 		la	a5,_ZN7_Thread7runningE
 1422      83B70700 
 1423 0924 03B50700 		ld	a0,0(a5)
 1424 0928 97000000 		call	_ZN7_Thread10setManagerEP12_WaitManager@plt
 1424      E7800000 
 1425              	.LVL147:
 126:src/_Sem.cpp  ****     int ret = 0;
 1426              		.loc 1 126 5 is_stmt 1
 127:src/_Sem.cpp  ****     if (sem1) ret = sem1->list.add(_Thread::running);
 1427              		.loc 1 127 5
 1428 0930 63820902 		beqz	s3,.L106
 1429              		.loc 1 127 15 discriminator 1
 1430              		.loc 1 127 35 is_stmt 0 discriminator 1
 1431 0934 97070000 		la	a5,_ZN7_Thread7runningE
 1431      83B70700 
 1432 093c 83B50700 		ld	a1,0(a5)
 1433 0940 13850900 		mv	a0,s3
 1434 0944 97000000 		call	_ZN11_ThreadList3addEP7_Thread@plt
 1434      E7800000 
 1435              	.LVL148:
 1436 094c 93040500 		mv	s1,a0
 1437              	.LVL149:
 128:src/_Sem.cpp  ****     if (ret) { _Thread::running->removeManager(); return ret;}
 1438              		.loc 1 128 5 is_stmt 1 discriminator 1
 1439 0950 631E0504 		bnez	a0,.L119
 1440              	.LVL150:
 1441              	.L106:
 129:src/_Sem.cpp  ****     if (sem2) ret = sem2->list.add(_Thread::running);
 1442              		.loc 1 129 5
 1443 0954 63000A02 		beqz	s4,.L107
 1444              		.loc 1 129 15 discriminator 1
 1445              		.loc 1 129 35 is_stmt 0 discriminator 1
 1446 0958 97070000 		la	a5,_ZN7_Thread7runningE
 1446      83B70700 
 1447 0960 83B50700 		ld	a1,0(a5)
 1448 0964 13050A00 		mv	a0,s4
 1449 0968 97000000 		call	_ZN11_ThreadList3addEP7_Thread@plt
GAS LISTING /tmp/ccwACtCP.s 			page 34


 1449      E7800000 
 1450              	.LVL151:
 1451 0970 93040500 		mv	s1,a0
 1452              	.LVL152:
 1453              	.L107:
 130:src/_Sem.cpp  ****     if (ret) { if (sem1) sem1->remove(_Thread::running);
 1454              		.loc 1 130 5 is_stmt 1
 1455 0974 63880404 		beqz	s1,.L108
 1456              		.loc 1 130 16 discriminator 1
 1457 0978 638E0900 		beqz	s3,.L109
 1458              		.loc 1 130 26 discriminator 2
 1459              		.loc 1 130 38 is_stmt 0 discriminator 2
 1460 097c 97070000 		la	a5,_ZN7_Thread7runningE
 1460      83B70700 
 1461 0984 83B50700 		ld	a1,0(a5)
 1462 0988 13850900 		mv	a0,s3
 1463 098c 97000000 		call	_ZN4_Sem6removeEP7_Thread
 1463      E7800000 
 1464              	.LVL153:
 1465              	.L109:
 131:src/_Sem.cpp  ****         _Thread::running->removeManager(); return ret;}
 1466              		.loc 1 131 9 is_stmt 1
 1467              		.loc 1 131 40 is_stmt 0
 1468 0994 97070000 		la	a5,_ZN7_Thread7runningE
 1468      83B70700 
 1469 099c 03B50700 		ld	a0,0(a5)
 1470 09a0 97000000 		call	_ZN7_Thread13removeManagerEv@plt
 1470      E7800000 
 1471              	.LVL154:
 1472              		.loc 1 131 44 is_stmt 1
 1473              		.loc 1 131 51 is_stmt 0
 1474 09a8 6F00C004 		j	.L115
 1475              	.LVL155:
 1476              	.L119:
 128:src/_Sem.cpp  ****     if (sem2) ret = sem2->list.add(_Thread::running);
 1477              		.loc 1 128 16 is_stmt 1 discriminator 1
 128:src/_Sem.cpp  ****     if (sem2) ret = sem2->list.add(_Thread::running);
 1478              		.loc 1 128 47 is_stmt 0 discriminator 1
 1479 09ac 97070000 		la	a5,_ZN7_Thread7runningE
 1479      83B70700 
 1480 09b4 03B50700 		ld	a0,0(a5)
 1481              	.LVL156:
 1482 09b8 97000000 		call	_ZN7_Thread13removeManagerEv@plt
 1482      E7800000 
 1483              	.LVL157:
 128:src/_Sem.cpp  ****     if (sem2) ret = sem2->list.add(_Thread::running);
 1484              		.loc 1 128 51 is_stmt 1 discriminator 1
 128:src/_Sem.cpp  ****     if (sem2) ret = sem2->list.add(_Thread::running);
 1485              		.loc 1 128 58 is_stmt 0 discriminator 1
 1486 09c0 6F004003 		j	.L115
 1487              	.LVL158:
 1488              	.L108:
 132:src/_Sem.cpp  ****     _Thread::safeDispatch();
 1489              		.loc 1 132 5 is_stmt 1
 1490              		.loc 1 132 26 is_stmt 0
 1491 09c4 97000000 		call	_ZN7_Thread12safeDispatchEv@plt
 1491      E7800000 
GAS LISTING /tmp/ccwACtCP.s 			page 35


 1492              	.LVL159:
 133:src/_Sem.cpp  ****     if (_Thread::running->kicked()) return 3;
 1493              		.loc 1 133 5 is_stmt 1
 1494              		.loc 1 133 33 is_stmt 0
 1495 09cc 97070000 		la	a5,_ZN7_Thread7runningE
 1495      83B70700 
 1496 09d4 03B50700 		ld	a0,0(a5)
 1497 09d8 97000000 		call	_ZN7_Thread6kickedEv@plt
 1497      E7800000 
 1498              	.LVL160:
 1499              	.LEHE14:
 1500 09e0 93040500 		mv	s1,a0
 1501              	.LVL161:
 1502              		.loc 1 133 5
 1503 09e4 63080500 		beqz	a0,.L115
 1504              		.loc 1 133 44
 1505 09e8 93043000 		li	s1,3
 1506 09ec 6F008000 		j	.L115
 1507              	.LVL162:
 1508              	.L111:
 119:src/_Sem.cpp  ****     if (sem1->val > 0) { sem1->val--; sem1 = nullptr; }
 1509              		.loc 1 119 51
 1510 09f0 93040000 		li	s1,0
 1511              	.L115:
 134:src/_Sem.cpp  ****     return 0;
 135:src/_Sem.cpp  **** }
 1512              		.loc 1 135 1
 1513 09f4 13850400 		mv	a0,s1
 1514 09f8 83308102 		ld	ra,40(sp)
 1515              		.cfi_remember_state
 1516              		.cfi_restore 1
 1517 09fc 03340102 		ld	s0,32(sp)
 1518              		.cfi_restore 8
 1519              		.cfi_def_cfa 2, 48
 1520 0a00 83348101 		ld	s1,24(sp)
 1521              		.cfi_restore 9
 1522 0a04 03390101 		ld	s2,16(sp)
 1523              		.cfi_restore 18
 1524 0a08 83398100 		ld	s3,8(sp)
 1525              		.cfi_restore 19
 1526              	.LVL163:
 1527 0a0c 033A0100 		ld	s4,0(sp)
 1528              		.cfi_restore 20
 1529              	.LVL164:
 1530 0a10 13010103 		addi	sp,sp,48
 1531              		.cfi_def_cfa_offset 0
 1532 0a14 67800000 		jr	ra
 1533              	.LVL165:
 1534              	.L112:
 1535              		.cfi_restore_state
 124:src/_Sem.cpp  ****     _Thread::running->setManager(manager);
 1536              		.loc 1 124 27
 1537 0a18 9304F0FF 		li	s1,-1
 1538 0a1c 6FF09FFD 		j	.L115
 1539              	.LVL166:
 1540              	.L114:
 1541 0a20 93040500 		mv	s1,a0
GAS LISTING /tmp/ccwACtCP.s 			page 36


 1542              	.LVL167:
 1543              	.LBB63:
 1544              	.LBB64:
  96:src/../h/_WaitManager.h **** 
 1545              		.loc 3 96 39 is_stmt 1
  96:src/../h/_WaitManager.h **** 
 1546              		.loc 3 96 54 is_stmt 0
 1547 0a24 93050900 		mv	a1,s2
 1548 0a28 97070000 		la	a5,_ZN14_SemANDManager5cacheE
 1548      83B70700 
 1549 0a30 03B50700 		ld	a0,0(a5)
 1550 0a34 97000000 		call	_Z15kmem_cache_freeP12kmem_cache_tPv@plt
 1550      E7800000 
 1551              	.LVL168:
 1552 0a3c 13850400 		mv	a0,s1
 1553              	.LEHB15:
 1554 0a40 97000000 		call	_Unwind_Resume@plt
 1554      E7800000 
 1555              	.LVL169:
 1556              	.LEHE15:
 1557              	.LBE64:
 1558              	.LBE63:
 1559              		.cfi_endproc
 1560              	.LFE50:
 1561              		.section	.gcc_except_table
 1562              	.LLSDA50:
 1563 00a8 FF       		.byte	0xff
 1564 00a9 FF       		.byte	0xff
 1565 00aa 03       		.byte	0x3
 1566 00ab 34       		.byte	0x34
 1567 00ac 00000000 		.4byte	.LEHB12-.LFB50
 1568 00b0 00000000 		.4byte	.LEHE12-.LEHB12
 1569 00b4 00000000 		.4byte	0
 1570 00b8 00       		.byte	0
 1571 00b9 00000000 		.4byte	.LEHB13-.LFB50
 1572 00bd 00000000 		.4byte	.LEHE13-.LEHB13
 1573 00c1 00000000 		.4byte	.L114-.LFB50
 1574 00c5 00       		.byte	0
 1575 00c6 00000000 		.4byte	.LEHB14-.LFB50
 1576 00ca 00000000 		.4byte	.LEHE14-.LEHB14
 1577 00ce 00000000 		.4byte	0
 1578 00d2 00       		.byte	0
 1579 00d3 00000000 		.4byte	.LEHB15-.LFB50
 1580 00d7 00000000 		.4byte	.LEHE15-.LEHB15
 1581 00db 00000000 		.4byte	0
 1582 00df 00       		.byte	0
 1583              		.text
 1585              		.section	.rodata.str1.8
 1586 006d 000000   		.align	3
 1587              	.LC5:
 1588 0070 53656D4F 		.string	"SemORSleep_manager Cache"
 1588      52536C65 
 1588      65705F6D 
 1588      616E6167 
 1588      65722043 
 1589              		.text
 1590              		.align	2
GAS LISTING /tmp/ccwACtCP.s 			page 37


 1591              		.globl	_ZN4_Sem14semWaitORLimitEPS_S0_m
 1593              	_ZN4_Sem14semWaitORLimitEPS_S0_m:
 1594              	.LFB51:
 136:src/_Sem.cpp  **** int _Sem::semWaitORLimit(sem_t sem1, sem_t sem2, time_t limit) {
 1595              		.loc 1 136 64 is_stmt 1
 1596              		.cfi_startproc
 1597              		.cfi_personality 0x9b,DW.ref.__gxx_personality_v0
 1598              		.cfi_lsda 0x1b,.LLSDA51
 1599              	.LVL170:
 1600 0a48 130101FD 		addi	sp,sp,-48
 1601              		.cfi_def_cfa_offset 48
 1602 0a4c 23341102 		sd	ra,40(sp)
 1603 0a50 23308102 		sd	s0,32(sp)
 1604 0a54 233C9100 		sd	s1,24(sp)
 1605 0a58 23382101 		sd	s2,16(sp)
 1606 0a5c 23343101 		sd	s3,8(sp)
 1607 0a60 23304101 		sd	s4,0(sp)
 1608              		.cfi_offset 1, -8
 1609              		.cfi_offset 8, -16
 1610              		.cfi_offset 9, -24
 1611              		.cfi_offset 18, -32
 1612              		.cfi_offset 19, -40
 1613              		.cfi_offset 20, -48
 1614 0a64 13040103 		addi	s0,sp,48
 1615              		.cfi_def_cfa 8, 0
 1616 0a68 13090500 		mv	s2,a0
 1617 0a6c 138A0500 		mv	s4,a1
 1618 0a70 93090600 		mv	s3,a2
 137:src/_Sem.cpp  ****     if (_Thread::running->isInterrupted()) return 0; //prekinuta nit se automatski izbacuje
 1619              		.loc 1 137 5
 1620              		.loc 1 137 40 is_stmt 0
 1621 0a74 97070000 		la	a5,_ZN7_Thread7runningE
 1621      83B70700 
 1622 0a7c 03B50700 		ld	a0,0(a5)
 1623              	.LVL171:
 1624              	.LEHB16:
 1625 0a80 97000000 		call	_ZN7_Thread13isInterruptedEv@plt
 1625      E7800000 
 1626              	.LVL172:
 1627              		.loc 1 137 5
 1628 0a88 631E051C 		bnez	a0,.L130
 1629 0a8c 93040500 		mv	s1,a0
 138:src/_Sem.cpp  ****     if (sem1->val > 0) {sem1->val--; return 0;}
 1630              		.loc 1 138 5 is_stmt 1
 1631              		.loc 1 138 15 is_stmt 0
 1632 0a90 83270901 		lw	a5,16(s2)
 1633              		.loc 1 138 5
 1634 0a94 639C0700 		bnez	a5,.L138
 139:src/_Sem.cpp  ****     else if (sem2->val > 0) { sem2->val--; return 0;}
 1635              		.loc 1 139 10 is_stmt 1
 1636              		.loc 1 139 20 is_stmt 0
 1637 0a98 83270A01 		lw	a5,16(s4)
 1638              		.loc 1 139 10
 1639 0a9c 639E0700 		bnez	a5,.L139
 140:src/_Sem.cpp  ****     if (!limit) return 1;
 1640              		.loc 1 140 5 is_stmt 1
 1641 0aa0 63920902 		bnez	s3,.L140
GAS LISTING /tmp/ccwACtCP.s 			page 38


 1642              		.loc 1 140 24 is_stmt 0
 1643 0aa4 93041000 		li	s1,1
 1644 0aa8 6F00001C 		j	.L136
 1645              	.L138:
 138:src/_Sem.cpp  ****     if (sem1->val > 0) {sem1->val--; return 0;}
 1646              		.loc 1 138 25 is_stmt 1 discriminator 1
 138:src/_Sem.cpp  ****     if (sem1->val > 0) {sem1->val--; return 0;}
 1647              		.loc 1 138 34 is_stmt 0 discriminator 1
 1648 0aac 9B87F7FF 		addiw	a5,a5,-1
 1649 0ab0 2328F900 		sw	a5,16(s2)
 138:src/_Sem.cpp  ****     if (sem1->val > 0) {sem1->val--; return 0;}
 1650              		.loc 1 138 38 is_stmt 1 discriminator 1
 138:src/_Sem.cpp  ****     if (sem1->val > 0) {sem1->val--; return 0;}
 1651              		.loc 1 138 45 is_stmt 0 discriminator 1
 1652 0ab4 6F00401B 		j	.L136
 1653              	.L139:
 139:src/_Sem.cpp  ****     else if (sem2->val > 0) { sem2->val--; return 0;}
 1654              		.loc 1 139 31 is_stmt 1 discriminator 1
 139:src/_Sem.cpp  ****     else if (sem2->val > 0) { sem2->val--; return 0;}
 1655              		.loc 1 139 40 is_stmt 0 discriminator 1
 1656 0ab8 9B87F7FF 		addiw	a5,a5,-1
 1657 0abc 2328FA00 		sw	a5,16(s4)
 139:src/_Sem.cpp  ****     else if (sem2->val > 0) { sem2->val--; return 0;}
 1658              		.loc 1 139 44 is_stmt 1 discriminator 1
 139:src/_Sem.cpp  ****     else if (sem2->val > 0) { sem2->val--; return 0;}
 1659              		.loc 1 139 51 is_stmt 0 discriminator 1
 1660 0ac0 6F00801A 		j	.L136
 1661              	.L140:
 141:src/_Sem.cpp  ****     _WaitManager* manager = new _SemORSleepManager(_Thread::running, sem1, sem2);
 1662              		.loc 1 141 5 is_stmt 1
 1663              	.LVL173:
 1664              	.LBB69:
 1665              	.LBB70:
 114:src/../h/_WaitManager.h **** 
 115:src/../h/_WaitManager.h ****     int sem_pass(sem_t sem) override;
 116:src/../h/_WaitManager.h ****     int sleep_pass() override;
 117:src/../h/_WaitManager.h ****     virtual int interrupt() override;
 118:src/../h/_WaitManager.h **** 
 119:src/../h/_WaitManager.h **** private:
 120:src/../h/_WaitManager.h ****     sem_t sem;
 121:src/../h/_WaitManager.h **** };
 122:src/../h/_WaitManager.h **** 
 123:src/../h/_WaitManager.h **** class _JoinSleepManager : public _WaitManager {
 124:src/../h/_WaitManager.h **** public:
 125:src/../h/_WaitManager.h ****     _JoinSleepManager(thread_t my_thread, thread_t join_thread);
 126:src/../h/_WaitManager.h ****     static kmem_cache_t* cache;
 127:src/../h/_WaitManager.h ****     void*  operator new(size_t size) {
 128:src/../h/_WaitManager.h ****         if (!cache) cache = kmem_cache_create("JoinSleep_manager Cache", sizeof(_JoinSleepManager),
 129:src/../h/_WaitManager.h ****         return kmem_cache_alloc(cache);
 130:src/../h/_WaitManager.h ****     }
 131:src/../h/_WaitManager.h ****     void operator delete(void* adr) { kmem_cache_free(cache, adr);}
 132:src/../h/_WaitManager.h **** 
 133:src/../h/_WaitManager.h ****     int join_pass() override;
 134:src/../h/_WaitManager.h ****     int sleep_pass() override;
 135:src/../h/_WaitManager.h ****     virtual int interrupt() override;
 136:src/../h/_WaitManager.h **** 
 137:src/../h/_WaitManager.h **** private:
GAS LISTING /tmp/ccwACtCP.s 			page 39


 138:src/../h/_WaitManager.h ****     thread_t join_thread = join_thread;
 139:src/../h/_WaitManager.h **** };
 140:src/../h/_WaitManager.h **** 
 141:src/../h/_WaitManager.h **** class _SemORSleepManager : public _WaitManager {
 142:src/../h/_WaitManager.h **** public:
 143:src/../h/_WaitManager.h ****     _SemORSleepManager(thread_t my_thread, sem_t sem1, sem_t sem2);
 144:src/../h/_WaitManager.h ****     static kmem_cache_t* cache;
 145:src/../h/_WaitManager.h ****     void*  operator new(size_t size) {
 146:src/../h/_WaitManager.h ****         if (!cache) cache = kmem_cache_create("SemORSleep_manager Cache", sizeof(_SemORSleepManager
 1666              		.loc 3 146 9
 1667              		.loc 3 146 13 is_stmt 0
 1668 0ac4 97070000 		la	a5,_ZN18_SemORSleepManager5cacheE
 1668      83B70700 
 1669 0acc 83B70700 		ld	a5,0(a5)
 1670              		.loc 3 146 9
 1671 0ad0 63800704 		beqz	a5,.L141
 1672              	.L124:
 147:src/../h/_WaitManager.h ****         return kmem_cache_alloc(cache);
 1673              		.loc 3 147 9 is_stmt 1
 1674              		.loc 3 147 32 is_stmt 0
 1675 0ad4 97070000 		la	a5,_ZN18_SemORSleepManager5cacheE
 1675      83B70700 
 1676 0adc 03B50700 		ld	a0,0(a5)
 1677 0ae0 97000000 		call	_Z16kmem_cache_allocP12kmem_cache_t@plt
 1677      E7800000 
 1678              	.LVL174:
 1679              	.LEHE16:
 1680 0ae8 93040500 		mv	s1,a0
 1681              	.LVL175:
 1682              	.LBE70:
 1683              	.LBE69:
 1684              		.loc 1 141 80
 1685 0aec 63080504 		beqz	a0,.L125
 1686              		.loc 1 141 80 discriminator 1
 1687 0af0 93060A00 		mv	a3,s4
 1688 0af4 13060900 		mv	a2,s2
 1689 0af8 97070000 		la	a5,_ZN7_Thread7runningE
 1689      83B70700 
 1690 0b00 83B50700 		ld	a1,0(a5)
 1691              	.LEHB17:
 1692 0b04 97000000 		call	_ZN18_SemORSleepManagerC1EP7_ThreadP4_SemS3_@plt
 1692      E7800000 
 1693              	.LVL176:
 1694              	.LEHE17:
 1695 0b0c 6F000003 		j	.L125
 1696              	.LVL177:
 1697              	.L141:
 1698              	.LBB72:
 1699              	.LBB71:
 146:src/../h/_WaitManager.h ****         return kmem_cache_alloc(cache);
 1700              		.loc 3 146 21 is_stmt 1
 146:src/../h/_WaitManager.h ****         return kmem_cache_alloc(cache);
 1701              		.loc 3 146 46 is_stmt 0
 1702 0b10 93060000 		li	a3,0
 1703 0b14 13060000 		li	a2,0
 1704 0b18 93050002 		li	a1,32
 1705 0b1c 17050000 		lla	a0,.LC5
GAS LISTING /tmp/ccwACtCP.s 			page 40


 1705      13050500 
 1706              	.LEHB18:
 1707 0b24 97000000 		call	_Z17kmem_cache_createPKcmPFvPvES3_@plt
 1707      E7800000 
 1708              	.LVL178:
 146:src/../h/_WaitManager.h ****         return kmem_cache_alloc(cache);
 1709              		.loc 3 146 27
 1710 0b2c 97070000 		la	a5,_ZN18_SemORSleepManager5cacheE
 1710      83B70700 
 1711 0b34 23B0A700 		sd	a0,0(a5)
 1712 0b38 6FF0DFF9 		j	.L124
 1713              	.LVL179:
 1714              	.L125:
 1715              	.LBE71:
 1716              	.LBE72:
 142:src/_Sem.cpp  ****     if (!manager) return -1;
 1717              		.loc 1 142 5 is_stmt 1 discriminator 6
 1718 0b3c 63880414 		beqz	s1,.L132
 143:src/_Sem.cpp  ****     int ret = sem1->list.add(_Thread::running);
 1719              		.loc 1 143 5
 1720              		.loc 1 143 29 is_stmt 0
 1721 0b40 97070000 		la	a5,_ZN7_Thread7runningE
 1721      83B70700 
 1722 0b48 83B50700 		ld	a1,0(a5)
 1723 0b4c 13050900 		mv	a0,s2
 1724 0b50 97000000 		call	_ZN11_ThreadList3addEP7_Thread@plt
 1724      E7800000 
 1725              	.LVL180:
 1726 0b58 93040500 		mv	s1,a0
 1727              	.LVL181:
 144:src/_Sem.cpp  ****     if (ret) { _Thread::running->removeManager(); return ret;}
 1728              		.loc 1 144 5 is_stmt 1
 1729 0b5c 63160506 		bnez	a0,.L142
 145:src/_Sem.cpp  ****     ret = sem2->list.add(_Thread::running);
 1730              		.loc 1 145 5
 1731              		.loc 1 145 25 is_stmt 0
 1732 0b60 97070000 		la	a5,_ZN7_Thread7runningE
 1732      83B70700 
 1733 0b68 83B50700 		ld	a1,0(a5)
 1734 0b6c 13050A00 		mv	a0,s4
 1735              	.LVL182:
 1736 0b70 97000000 		call	_ZN11_ThreadList3addEP7_Thread@plt
 1736      E7800000 
 1737              	.LVL183:
 1738 0b78 93040500 		mv	s1,a0
 1739              	.LVL184:
 146:src/_Sem.cpp  ****     if (ret) { sem1->remove(_Thread::running);
 1740              		.loc 1 146 5 is_stmt 1
 1741 0b7c 63120506 		bnez	a0,.L143
 147:src/_Sem.cpp  ****         _Thread::running->removeManager(); return ret;}
 148:src/_Sem.cpp  ****     ret = _Sleep::put(_Thread::running, limit);
 1742              		.loc 1 148 5
 1743              		.loc 1 148 22 is_stmt 0
 1744 0b80 93850900 		mv	a1,s3
 1745 0b84 97070000 		la	a5,_ZN7_Thread7runningE
 1745      83B70700 
 1746 0b8c 03B50700 		ld	a0,0(a5)
GAS LISTING /tmp/ccwACtCP.s 			page 41


 1747              	.LVL185:
 1748 0b90 97000000 		call	_ZN6_Sleep3putEP7_Threadm@plt
 1748      E7800000 
 1749              	.LVL186:
 1750 0b98 93040500 		mv	s1,a0
 1751              	.LVL187:
 149:src/_Sem.cpp  ****     if (ret) {sem1->remove(_Thread::running); sem2->remove(_Thread::running);
 1752              		.loc 1 149 5 is_stmt 1
 1753 0b9c 63160506 		bnez	a0,.L144
 150:src/_Sem.cpp  ****         _Thread::running->removeManager(); return ret;}
 151:src/_Sem.cpp  ****     _Thread::safeDispatch();
 1754              		.loc 1 151 5
 1755              		.loc 1 151 26 is_stmt 0
 1756 0ba0 97000000 		call	_ZN7_Thread12safeDispatchEv@plt
 1756      E7800000 
 1757              	.LVL188:
 152:src/_Sem.cpp  ****     if (_Thread::running->limitReached()) return 1;
 1758              		.loc 1 152 5 is_stmt 1
 1759              		.loc 1 152 39 is_stmt 0
 1760 0ba8 97070000 		la	a5,_ZN7_Thread7runningE
 1760      83B70700 
 1761 0bb0 03B50700 		ld	a0,0(a5)
 1762 0bb4 97000000 		call	_ZN7_Thread12limitReachedEv@plt
 1762      E7800000 
 1763              	.LVL189:
 1764              		.loc 1 152 5
 1765 0bbc 63020508 		beqz	a0,.L145
 1766              		.loc 1 152 50
 1767 0bc0 93041000 		li	s1,1
 1768 0bc4 6F00400A 		j	.L136
 1769              	.LVL190:
 1770              	.L142:
 144:src/_Sem.cpp  ****     ret = sem2->list.add(_Thread::running);
 1771              		.loc 1 144 16 is_stmt 1 discriminator 1
 144:src/_Sem.cpp  ****     ret = sem2->list.add(_Thread::running);
 1772              		.loc 1 144 47 is_stmt 0 discriminator 1
 1773 0bc8 97070000 		la	a5,_ZN7_Thread7runningE
 1773      83B70700 
 1774 0bd0 03B50700 		ld	a0,0(a5)
 1775              	.LVL191:
 1776 0bd4 97000000 		call	_ZN7_Thread13removeManagerEv@plt
 1776      E7800000 
 1777              	.LVL192:
 144:src/_Sem.cpp  ****     ret = sem2->list.add(_Thread::running);
 1778              		.loc 1 144 51 is_stmt 1 discriminator 1
 144:src/_Sem.cpp  ****     ret = sem2->list.add(_Thread::running);
 1779              		.loc 1 144 58 is_stmt 0 discriminator 1
 1780 0bdc 6F00C008 		j	.L136
 1781              	.LVL193:
 1782              	.L143:
 146:src/_Sem.cpp  ****         _Thread::running->removeManager(); return ret;}
 1783              		.loc 1 146 16 is_stmt 1 discriminator 1
 146:src/_Sem.cpp  ****         _Thread::running->removeManager(); return ret;}
 1784              		.loc 1 146 28 is_stmt 0 discriminator 1
 1785 0be0 97090000 		la	s3,_ZN7_Thread7runningE
 1785      83B90900 
 1786              	.LVL194:
GAS LISTING /tmp/ccwACtCP.s 			page 42


 1787 0be8 83B50900 		ld	a1,0(s3)
 1788 0bec 13050900 		mv	a0,s2
 1789              	.LVL195:
 1790 0bf0 97000000 		call	_ZN4_Sem6removeEP7_Thread
 1790      E7800000 
 1791              	.LVL196:
 147:src/_Sem.cpp  ****     ret = _Sleep::put(_Thread::running, limit);
 1792              		.loc 1 147 9 is_stmt 1 discriminator 1
 147:src/_Sem.cpp  ****     ret = _Sleep::put(_Thread::running, limit);
 1793              		.loc 1 147 40 is_stmt 0 discriminator 1
 1794 0bf8 03B50900 		ld	a0,0(s3)
 1795 0bfc 97000000 		call	_ZN7_Thread13removeManagerEv@plt
 1795      E7800000 
 1796              	.LVL197:
 147:src/_Sem.cpp  ****     ret = _Sleep::put(_Thread::running, limit);
 1797              		.loc 1 147 44 is_stmt 1 discriminator 1
 147:src/_Sem.cpp  ****     ret = _Sleep::put(_Thread::running, limit);
 1798              		.loc 1 147 51 is_stmt 0 discriminator 1
 1799 0c04 6F004006 		j	.L136
 1800              	.LVL198:
 1801              	.L144:
 149:src/_Sem.cpp  ****         _Thread::running->removeManager(); return ret;}
 1802              		.loc 1 149 15 is_stmt 1 discriminator 1
 149:src/_Sem.cpp  ****         _Thread::running->removeManager(); return ret;}
 1803              		.loc 1 149 27 is_stmt 0 discriminator 1
 1804 0c08 97090000 		la	s3,_ZN7_Thread7runningE
 1804      83B90900 
 1805              	.LVL199:
 1806 0c10 83B50900 		ld	a1,0(s3)
 1807 0c14 13050900 		mv	a0,s2
 1808              	.LVL200:
 1809 0c18 97000000 		call	_ZN4_Sem6removeEP7_Thread
 1809      E7800000 
 1810              	.LVL201:
 149:src/_Sem.cpp  ****         _Thread::running->removeManager(); return ret;}
 1811              		.loc 1 149 47 is_stmt 1 discriminator 1
 149:src/_Sem.cpp  ****         _Thread::running->removeManager(); return ret;}
 1812              		.loc 1 149 59 is_stmt 0 discriminator 1
 1813 0c20 83B50900 		ld	a1,0(s3)
 1814 0c24 13050A00 		mv	a0,s4
 1815 0c28 97000000 		call	_ZN4_Sem6removeEP7_Thread
 1815      E7800000 
 1816              	.LVL202:
 150:src/_Sem.cpp  ****     _Thread::safeDispatch();
 1817              		.loc 1 150 9 is_stmt 1 discriminator 1
 150:src/_Sem.cpp  ****     _Thread::safeDispatch();
 1818              		.loc 1 150 40 is_stmt 0 discriminator 1
 1819 0c30 03B50900 		ld	a0,0(s3)
 1820 0c34 97000000 		call	_ZN7_Thread13removeManagerEv@plt
 1820      E7800000 
 1821              	.LVL203:
 150:src/_Sem.cpp  ****     _Thread::safeDispatch();
 1822              		.loc 1 150 44 is_stmt 1 discriminator 1
 150:src/_Sem.cpp  ****     _Thread::safeDispatch();
 1823              		.loc 1 150 51 is_stmt 0 discriminator 1
 1824 0c3c 6F00C002 		j	.L136
 1825              	.LVL204:
GAS LISTING /tmp/ccwACtCP.s 			page 43


 1826              	.L145:
 153:src/_Sem.cpp  ****     if (_Thread::running->kicked()) return -3;
 1827              		.loc 1 153 5 is_stmt 1
 1828              		.loc 1 153 33 is_stmt 0
 1829 0c40 97070000 		la	a5,_ZN7_Thread7runningE
 1829      83B70700 
 1830 0c48 03B50700 		ld	a0,0(a5)
 1831 0c4c 97000000 		call	_ZN7_Thread6kickedEv@plt
 1831      E7800000 
 1832              	.LVL205:
 1833              	.LEHE18:
 1834 0c54 93040500 		mv	s1,a0
 1835              		.loc 1 153 5
 1836 0c58 63080500 		beqz	a0,.L136
 1837              		.loc 1 153 45
 1838 0c5c 9304D0FF 		li	s1,-3
 1839 0c60 6F008000 		j	.L136
 1840              	.L130:
 137:src/_Sem.cpp  ****     if (sem1->val > 0) {sem1->val--; return 0;}
 1841              		.loc 1 137 51
 1842 0c64 93040000 		li	s1,0
 1843              	.LVL206:
 1844              	.L136:
 154:src/_Sem.cpp  ****     return 0;
 155:src/_Sem.cpp  **** }
 1845              		.loc 1 155 1
 1846 0c68 13850400 		mv	a0,s1
 1847 0c6c 83308102 		ld	ra,40(sp)
 1848              		.cfi_remember_state
 1849              		.cfi_restore 1
 1850 0c70 03340102 		ld	s0,32(sp)
 1851              		.cfi_restore 8
 1852              		.cfi_def_cfa 2, 48
 1853 0c74 83348101 		ld	s1,24(sp)
 1854              		.cfi_restore 9
 1855 0c78 03390101 		ld	s2,16(sp)
 1856              		.cfi_restore 18
 1857              	.LVL207:
 1858 0c7c 83398100 		ld	s3,8(sp)
 1859              		.cfi_restore 19
 1860 0c80 033A0100 		ld	s4,0(sp)
 1861              		.cfi_restore 20
 1862              	.LVL208:
 1863 0c84 13010103 		addi	sp,sp,48
 1864              		.cfi_def_cfa_offset 0
 1865 0c88 67800000 		jr	ra
 1866              	.LVL209:
 1867              	.L132:
 1868              		.cfi_restore_state
 142:src/_Sem.cpp  ****     int ret = sem1->list.add(_Thread::running);
 1869              		.loc 1 142 27
 1870 0c8c 9304F0FF 		li	s1,-1
 1871              	.LVL210:
 1872 0c90 6FF09FFD 		j	.L136
 1873              	.L135:
 1874 0c94 13090500 		mv	s2,a0
 1875              	.LVL211:
GAS LISTING /tmp/ccwACtCP.s 			page 44


 1876              	.LBB73:
 1877              	.LBB74:
 148:src/../h/_WaitManager.h ****     }
 149:src/../h/_WaitManager.h ****     void operator delete(void* adr) { kmem_cache_free(cache, adr);}
 1878              		.loc 3 149 39 is_stmt 1
 1879              		.loc 3 149 54 is_stmt 0
 1880 0c98 93850400 		mv	a1,s1
 1881 0c9c 97070000 		la	a5,_ZN18_SemORSleepManager5cacheE
 1881      83B70700 
 1882 0ca4 03B50700 		ld	a0,0(a5)
 1883 0ca8 97000000 		call	_Z15kmem_cache_freeP12kmem_cache_tPv@plt
 1883      E7800000 
 1884              	.LVL212:
 1885 0cb0 13050900 		mv	a0,s2
 1886              	.LEHB19:
 1887 0cb4 97000000 		call	_Unwind_Resume@plt
 1887      E7800000 
 1888              	.LVL213:
 1889              	.LEHE19:
 1890              	.LBE74:
 1891              	.LBE73:
 1892              		.cfi_endproc
 1893              	.LFE51:
 1894              		.section	.gcc_except_table
 1895              	.LLSDA51:
 1896 00e0 FF       		.byte	0xff
 1897 00e1 FF       		.byte	0xff
 1898 00e2 03       		.byte	0x3
 1899 00e3 34       		.byte	0x34
 1900 00e4 00000000 		.4byte	.LEHB16-.LFB51
 1901 00e8 00000000 		.4byte	.LEHE16-.LEHB16
 1902 00ec 00000000 		.4byte	0
 1903 00f0 00       		.byte	0
 1904 00f1 00000000 		.4byte	.LEHB17-.LFB51
 1905 00f5 00000000 		.4byte	.LEHE17-.LEHB17
 1906 00f9 00000000 		.4byte	.L135-.LFB51
 1907 00fd 00       		.byte	0
 1908 00fe 00000000 		.4byte	.LEHB18-.LFB51
 1909 0102 00000000 		.4byte	.LEHE18-.LEHB18
 1910 0106 00000000 		.4byte	0
 1911 010a 00       		.byte	0
 1912 010b 00000000 		.4byte	.LEHB19-.LFB51
 1913 010f 00000000 		.4byte	.LEHE19-.LEHB19
 1914 0113 00000000 		.4byte	0
 1915 0117 00       		.byte	0
 1916              		.text
 1918              		.section	.rodata.str1.8
 1919 0089 00000000 		.align	3
 1919      000000
 1920              	.LC6:
 1921 0090 53656D41 		.string	"SemANDSleep_manager Cache"
 1921      4E44536C 
 1921      6565705F 
 1921      6D616E61 
 1921      67657220 
 1922              		.text
 1923              		.align	2
GAS LISTING /tmp/ccwACtCP.s 			page 45


 1924              		.globl	_ZN4_Sem15semWaitANDLimitEPS_S0_m
 1926              	_ZN4_Sem15semWaitANDLimitEPS_S0_m:
 1927              	.LFB52:
 156:src/_Sem.cpp  **** int _Sem::semWaitANDLimit(sem_t sem1, sem_t sem2, time_t limit) {
 1928              		.loc 1 156 65 is_stmt 1
 1929              		.cfi_startproc
 1930              		.cfi_personality 0x9b,DW.ref.__gxx_personality_v0
 1931              		.cfi_lsda 0x1b,.LLSDA52
 1932              	.LVL214:
 1933 0cbc 130101FC 		addi	sp,sp,-64
 1934              		.cfi_def_cfa_offset 64
 1935 0cc0 233C1102 		sd	ra,56(sp)
 1936 0cc4 23388102 		sd	s0,48(sp)
 1937 0cc8 23349102 		sd	s1,40(sp)
 1938 0ccc 23302103 		sd	s2,32(sp)
 1939 0cd0 233C3101 		sd	s3,24(sp)
 1940 0cd4 23384101 		sd	s4,16(sp)
 1941 0cd8 23345101 		sd	s5,8(sp)
 1942              		.cfi_offset 1, -8
 1943              		.cfi_offset 8, -16
 1944              		.cfi_offset 9, -24
 1945              		.cfi_offset 18, -32
 1946              		.cfi_offset 19, -40
 1947              		.cfi_offset 20, -48
 1948              		.cfi_offset 21, -56
 1949 0cdc 13040104 		addi	s0,sp,64
 1950              		.cfi_def_cfa 8, 0
 1951 0ce0 13090500 		mv	s2,a0
 1952 0ce4 93890500 		mv	s3,a1
 1953 0ce8 130A0600 		mv	s4,a2
 157:src/_Sem.cpp  ****     if (_Thread::running->isInterrupted()) return 0; //prekinuta nit se automatski izbacuje
 1954              		.loc 1 157 5
 1955              		.loc 1 157 40 is_stmt 0
 1956 0cec 97070000 		la	a5,_ZN7_Thread7runningE
 1956      83B70700 
 1957 0cf4 03B50700 		ld	a0,0(a5)
 1958              	.LVL215:
 1959              	.LEHB20:
 1960 0cf8 97000000 		call	_ZN7_Thread13isInterruptedEv@plt
 1960      E7800000 
 1961              	.LVL216:
 1962              		.loc 1 157 5
 1963 0d00 631A0520 		bnez	a0,.L161
 1964 0d04 93040500 		mv	s1,a0
 158:src/_Sem.cpp  ****     if (sem1->val > 0) { sem1->val--; sem1 = nullptr; }
 1965              		.loc 1 158 5 is_stmt 1
 1966              		.loc 1 158 15 is_stmt 0
 1967 0d08 83270901 		lw	a5,16(s2)
 1968              		.loc 1 158 5
 1969 0d0c 63880700 		beqz	a5,.L148
 1970              		.loc 1 158 26 is_stmt 1 discriminator 1
 1971              		.loc 1 158 35 is_stmt 0 discriminator 1
 1972 0d10 9B87F7FF 		addiw	a5,a5,-1
 1973 0d14 2328F900 		sw	a5,16(s2)
 1974              		.loc 1 158 39 is_stmt 1 discriminator 1
 1975              	.LVL217:
 1976              		.loc 1 158 44 is_stmt 0 discriminator 1
GAS LISTING /tmp/ccwACtCP.s 			page 46


 1977 0d18 13090000 		li	s2,0
 1978              	.LVL218:
 1979              	.L148:
 159:src/_Sem.cpp  ****     if (sem2->val > 0) { sem2->val--; sem2 = nullptr; }
 1980              		.loc 1 159 5 is_stmt 1
 1981              		.loc 1 159 15 is_stmt 0
 1982 0d1c 83A70901 		lw	a5,16(s3)
 1983              		.loc 1 159 5
 1984 0d20 63880700 		beqz	a5,.L149
 1985              		.loc 1 159 26 is_stmt 1 discriminator 1
 1986              		.loc 1 159 35 is_stmt 0 discriminator 1
 1987 0d24 9B87F7FF 		addiw	a5,a5,-1
 1988 0d28 23A8F900 		sw	a5,16(s3)
 1989              		.loc 1 159 39 is_stmt 1 discriminator 1
 1990              	.LVL219:
 1991              		.loc 1 159 44 is_stmt 0 discriminator 1
 1992 0d2c 93090000 		li	s3,0
 1993              	.LVL220:
 1994              	.L149:
 160:src/_Sem.cpp  ****     if (!sem1 && !sem2) return 0;
 1995              		.loc 1 160 5 is_stmt 1
 1996 0d30 63080900 		beqz	s2,.L169
 1997              	.L150:
 161:src/_Sem.cpp  ****     if (!limit) return 1;
 1998              		.loc 1 161 5
 1999 0d34 631A0A00 		bnez	s4,.L170
 2000              		.loc 1 161 24 is_stmt 0
 2001 0d38 93041000 		li	s1,1
 2002 0d3c 6F00C01D 		j	.L167
 2003              	.L169:
 160:src/_Sem.cpp  ****     if (!sem1 && !sem2) return 0;
 2004              		.loc 1 160 15 discriminator 1
 2005 0d40 E39A09FE 		bnez	s3,.L150
 2006 0d44 6F00401D 		j	.L167
 2007              	.L170:
 162:src/_Sem.cpp  ****     _WaitManager* manager = new _SemANDSleepManager(_Thread::running, sem1, sem2);
 2008              		.loc 1 162 5 is_stmt 1
 2009              	.LVL221:
 2010              	.LBB79:
 2011              	.LBB80:
 150:src/../h/_WaitManager.h **** 
 151:src/../h/_WaitManager.h ****     int sem_pass(sem_t sem) override;
 152:src/../h/_WaitManager.h ****     int sleep_pass() override;
 153:src/../h/_WaitManager.h ****     virtual int interrupt() override;
 154:src/../h/_WaitManager.h **** 
 155:src/../h/_WaitManager.h **** private:
 156:src/../h/_WaitManager.h ****     sem_t sem1, sem2;
 157:src/../h/_WaitManager.h **** };
 158:src/../h/_WaitManager.h **** 
 159:src/../h/_WaitManager.h **** class _SemANDSleepManager : public _WaitManager {
 160:src/../h/_WaitManager.h **** public:
 161:src/../h/_WaitManager.h ****     _SemANDSleepManager(thread_t my_thread, sem_t sem1, sem_t sem2);
 162:src/../h/_WaitManager.h ****     static kmem_cache_t* cache;
 163:src/../h/_WaitManager.h ****     void*  operator new(size_t size) {
 164:src/../h/_WaitManager.h ****         if (!cache) cache = kmem_cache_create("SemANDSleep_manager Cache", sizeof(_SemANDSleepManag
 2012              		.loc 3 164 9
 2013              		.loc 3 164 13 is_stmt 0
GAS LISTING /tmp/ccwACtCP.s 			page 47


 2014 0d48 97070000 		la	a5,_ZN19_SemANDSleepManager5cacheE
 2014      83B70700 
 2015 0d50 83B70700 		ld	a5,0(a5)
 2016              		.loc 3 164 9
 2017 0d54 63800704 		beqz	a5,.L171
 2018              	.L151:
 165:src/../h/_WaitManager.h ****         return kmem_cache_alloc(cache);
 2019              		.loc 3 165 9 is_stmt 1
 2020              		.loc 3 165 32 is_stmt 0
 2021 0d58 97070000 		la	a5,_ZN19_SemANDSleepManager5cacheE
 2021      83B70700 
 2022 0d60 03B50700 		ld	a0,0(a5)
 2023 0d64 97000000 		call	_Z16kmem_cache_allocP12kmem_cache_t@plt
 2023      E7800000 
 2024              	.LVL222:
 2025              	.LEHE20:
 2026 0d6c 930A0500 		mv	s5,a0
 2027              	.LVL223:
 2028              	.LBE80:
 2029              	.LBE79:
 2030              		.loc 1 162 81
 2031 0d70 63080504 		beqz	a0,.L152
 2032              		.loc 1 162 81 discriminator 1
 2033 0d74 93860900 		mv	a3,s3
 2034 0d78 13060900 		mv	a2,s2
 2035 0d7c 97070000 		la	a5,_ZN7_Thread7runningE
 2035      83B70700 
 2036 0d84 83B50700 		ld	a1,0(a5)
 2037              	.LEHB21:
 2038 0d88 97000000 		call	_ZN19_SemANDSleepManagerC1EP7_ThreadP4_SemS3_@plt
 2038      E7800000 
 2039              	.LVL224:
 2040              	.LEHE21:
 2041 0d90 6F000003 		j	.L152
 2042              	.LVL225:
 2043              	.L171:
 2044              	.LBB82:
 2045              	.LBB81:
 164:src/../h/_WaitManager.h ****         return kmem_cache_alloc(cache);
 2046              		.loc 3 164 21 is_stmt 1
 164:src/../h/_WaitManager.h ****         return kmem_cache_alloc(cache);
 2047              		.loc 3 164 46 is_stmt 0
 2048 0d94 93060000 		li	a3,0
 2049 0d98 13060000 		li	a2,0
 2050 0d9c 93050002 		li	a1,32
 2051 0da0 17050000 		lla	a0,.LC6
 2051      13050500 
 2052              	.LEHB22:
 2053 0da8 97000000 		call	_Z17kmem_cache_createPKcmPFvPvES3_@plt
 2053      E7800000 
 2054              	.LVL226:
 164:src/../h/_WaitManager.h ****         return kmem_cache_alloc(cache);
 2055              		.loc 3 164 27
 2056 0db0 97070000 		la	a5,_ZN19_SemANDSleepManager5cacheE
 2056      83B70700 
 2057 0db8 23B0A700 		sd	a0,0(a5)
 2058 0dbc 6FF0DFF9 		j	.L151
GAS LISTING /tmp/ccwACtCP.s 			page 48


 2059              	.LVL227:
 2060              	.L152:
 2061              	.LBE81:
 2062              	.LBE82:
 163:src/_Sem.cpp  ****     if (!manager) return -1;
 2063              		.loc 1 163 5 is_stmt 1 discriminator 6
 2064 0dc0 63800A18 		beqz	s5,.L163
 164:src/_Sem.cpp  ****     int ret = 0;
 2065              		.loc 1 164 5
 2066              	.LVL228:
 165:src/_Sem.cpp  ****     if (sem1) ret = sem1->list.add(_Thread::running);
 2067              		.loc 1 165 5
 2068 0dc4 63020902 		beqz	s2,.L153
 2069              		.loc 1 165 15 discriminator 1
 2070              		.loc 1 165 35 is_stmt 0 discriminator 1
 2071 0dc8 97070000 		la	a5,_ZN7_Thread7runningE
 2071      83B70700 
 2072 0dd0 83B50700 		ld	a1,0(a5)
 2073 0dd4 13050900 		mv	a0,s2
 2074 0dd8 97000000 		call	_ZN11_ThreadList3addEP7_Thread@plt
 2074      E7800000 
 2075              	.LVL229:
 2076 0de0 93040500 		mv	s1,a0
 2077              	.LVL230:
 166:src/_Sem.cpp  ****     if (ret) { _Thread::running->removeManager(); return ret;}
 2078              		.loc 1 166 5 is_stmt 1 discriminator 1
 2079 0de4 631E0504 		bnez	a0,.L172
 2080              	.LVL231:
 2081              	.L153:
 167:src/_Sem.cpp  ****     if (sem2) ret = sem2->list.add(_Thread::running);
 2082              		.loc 1 167 5
 2083 0de8 63800902 		beqz	s3,.L154
 2084              		.loc 1 167 15 discriminator 1
 2085              		.loc 1 167 35 is_stmt 0 discriminator 1
 2086 0dec 97070000 		la	a5,_ZN7_Thread7runningE
 2086      83B70700 
 2087 0df4 83B50700 		ld	a1,0(a5)
 2088 0df8 13850900 		mv	a0,s3
 2089 0dfc 97000000 		call	_ZN11_ThreadList3addEP7_Thread@plt
 2089      E7800000 
 2090              	.LVL232:
 2091 0e04 93040500 		mv	s1,a0
 2092              	.LVL233:
 2093              	.L154:
 168:src/_Sem.cpp  ****     if (ret) { if (sem1) sem1->remove(_Thread::running);
 2094              		.loc 1 168 5 is_stmt 1
 2095 0e08 63880404 		beqz	s1,.L155
 2096              		.loc 1 168 16 discriminator 1
 2097 0e0c 630E0900 		beqz	s2,.L156
 2098              		.loc 1 168 26 discriminator 2
 2099              		.loc 1 168 38 is_stmt 0 discriminator 2
 2100 0e10 97070000 		la	a5,_ZN7_Thread7runningE
 2100      83B70700 
 2101 0e18 83B50700 		ld	a1,0(a5)
 2102 0e1c 13050900 		mv	a0,s2
 2103 0e20 97000000 		call	_ZN4_Sem6removeEP7_Thread
 2103      E7800000 
GAS LISTING /tmp/ccwACtCP.s 			page 49


 2104              	.LVL234:
 2105              	.L156:
 169:src/_Sem.cpp  ****         _Thread::running->removeManager(); return ret;}
 2106              		.loc 1 169 9 is_stmt 1
 2107              		.loc 1 169 40 is_stmt 0
 2108 0e28 97070000 		la	a5,_ZN7_Thread7runningE
 2108      83B70700 
 2109 0e30 03B50700 		ld	a0,0(a5)
 2110 0e34 97000000 		call	_ZN7_Thread13removeManagerEv@plt
 2110      E7800000 
 2111              	.LVL235:
 2112              		.loc 1 169 44 is_stmt 1
 2113              		.loc 1 169 51 is_stmt 0
 2114 0e3c 6F00C00D 		j	.L167
 2115              	.LVL236:
 2116              	.L172:
 166:src/_Sem.cpp  ****     if (sem2) ret = sem2->list.add(_Thread::running);
 2117              		.loc 1 166 16 is_stmt 1 discriminator 1
 166:src/_Sem.cpp  ****     if (sem2) ret = sem2->list.add(_Thread::running);
 2118              		.loc 1 166 47 is_stmt 0 discriminator 1
 2119 0e40 97070000 		la	a5,_ZN7_Thread7runningE
 2119      83B70700 
 2120 0e48 03B50700 		ld	a0,0(a5)
 2121              	.LVL237:
 2122 0e4c 97000000 		call	_ZN7_Thread13removeManagerEv@plt
 2122      E7800000 
 2123              	.LVL238:
 166:src/_Sem.cpp  ****     if (sem2) ret = sem2->list.add(_Thread::running);
 2124              		.loc 1 166 51 is_stmt 1 discriminator 1
 166:src/_Sem.cpp  ****     if (sem2) ret = sem2->list.add(_Thread::running);
 2125              		.loc 1 166 58 is_stmt 0 discriminator 1
 2126 0e54 6F00400C 		j	.L167
 2127              	.LVL239:
 2128              	.L155:
 170:src/_Sem.cpp  ****     ret = _Sleep::put(_Thread::running, limit);
 2129              		.loc 1 170 5 is_stmt 1
 2130              		.loc 1 170 22 is_stmt 0
 2131 0e58 93050A00 		mv	a1,s4
 2132 0e5c 97070000 		la	a5,_ZN7_Thread7runningE
 2132      83B70700 
 2133 0e64 03B50700 		ld	a0,0(a5)
 2134 0e68 97000000 		call	_ZN6_Sleep3putEP7_Threadm@plt
 2134      E7800000 
 2135              	.LVL240:
 2136 0e70 93040500 		mv	s1,a0
 2137              	.LVL241:
 171:src/_Sem.cpp  ****     if (ret) { if (sem1) sem1->remove(_Thread::running); if (sem2) sem2->remove(_Thread::running);
 2138              		.loc 1 171 5 is_stmt 1
 2139 0e74 630A0504 		beqz	a0,.L157
 2140              		.loc 1 171 16 discriminator 1
 2141 0e78 630E0900 		beqz	s2,.L158
 2142              		.loc 1 171 26 discriminator 2
 2143              		.loc 1 171 38 is_stmt 0 discriminator 2
 2144 0e7c 97070000 		la	a5,_ZN7_Thread7runningE
 2144      83B70700 
 2145 0e84 83B50700 		ld	a1,0(a5)
 2146 0e88 13050900 		mv	a0,s2
GAS LISTING /tmp/ccwACtCP.s 			page 50


 2147              	.LVL242:
 2148 0e8c 97000000 		call	_ZN4_Sem6removeEP7_Thread
 2148      E7800000 
 2149              	.LVL243:
 2150              	.L158:
 2151              		.loc 1 171 58 is_stmt 1 discriminator 4
 2152 0e94 638E0900 		beqz	s3,.L159
 2153              		.loc 1 171 68 discriminator 5
 2154              		.loc 1 171 80 is_stmt 0 discriminator 5
 2155 0e98 97070000 		la	a5,_ZN7_Thread7runningE
 2155      83B70700 
 2156 0ea0 83B50700 		ld	a1,0(a5)
 2157 0ea4 13850900 		mv	a0,s3
 2158 0ea8 97000000 		call	_ZN4_Sem6removeEP7_Thread
 2158      E7800000 
 2159              	.LVL244:
 2160              	.L159:
 172:src/_Sem.cpp  ****         _Thread::running->removeManager(); return ret;}
 2161              		.loc 1 172 9 is_stmt 1
 2162              		.loc 1 172 40 is_stmt 0
 2163 0eb0 97070000 		la	a5,_ZN7_Thread7runningE
 2163      83B70700 
 2164 0eb8 03B50700 		ld	a0,0(a5)
 2165 0ebc 97000000 		call	_ZN7_Thread13removeManagerEv@plt
 2165      E7800000 
 2166              	.LVL245:
 2167              		.loc 1 172 44 is_stmt 1
 2168              		.loc 1 172 51 is_stmt 0
 2169 0ec4 6F004005 		j	.L167
 2170              	.LVL246:
 2171              	.L157:
 173:src/_Sem.cpp  ****     _Thread::safeDispatch();
 2172              		.loc 1 173 5 is_stmt 1
 2173              		.loc 1 173 26 is_stmt 0
 2174 0ec8 97000000 		call	_ZN7_Thread12safeDispatchEv@plt
 2174      E7800000 
 2175              	.LVL247:
 174:src/_Sem.cpp  ****     if (_Thread::running->limitReached()) return 1;
 2176              		.loc 1 174 5 is_stmt 1
 2177              		.loc 1 174 39 is_stmt 0
 2178 0ed0 97070000 		la	a5,_ZN7_Thread7runningE
 2178      83B70700 
 2179 0ed8 03B50700 		ld	a0,0(a5)
 2180 0edc 97000000 		call	_ZN7_Thread12limitReachedEv@plt
 2180      E7800000 
 2181              	.LVL248:
 2182              		.loc 1 174 5
 2183 0ee4 63060500 		beqz	a0,.L173
 2184              		.loc 1 174 50
 2185 0ee8 93041000 		li	s1,1
 2186 0eec 6F00C002 		j	.L167
 2187              	.L173:
 175:src/_Sem.cpp  ****     if (_Thread::running->kicked()) return -3;
 2188              		.loc 1 175 5 is_stmt 1
 2189              		.loc 1 175 33 is_stmt 0
 2190 0ef0 97070000 		la	a5,_ZN7_Thread7runningE
 2190      83B70700 
GAS LISTING /tmp/ccwACtCP.s 			page 51


 2191 0ef8 03B50700 		ld	a0,0(a5)
 2192 0efc 97000000 		call	_ZN7_Thread6kickedEv@plt
 2192      E7800000 
 2193              	.LVL249:
 2194              	.LEHE22:
 2195 0f04 93040500 		mv	s1,a0
 2196              		.loc 1 175 5
 2197 0f08 63080500 		beqz	a0,.L167
 2198              		.loc 1 175 45
 2199 0f0c 9304D0FF 		li	s1,-3
 2200 0f10 6F008000 		j	.L167
 2201              	.LVL250:
 2202              	.L161:
 157:src/_Sem.cpp  ****     if (sem1->val > 0) { sem1->val--; sem1 = nullptr; }
 2203              		.loc 1 157 51
 2204 0f14 93040000 		li	s1,0
 2205              	.L167:
 176:src/_Sem.cpp  ****     return 0;
 177:src/_Sem.cpp  **** }...
 2206              		.loc 1 177 1
 2207 0f18 13850400 		mv	a0,s1
 2208 0f1c 83308103 		ld	ra,56(sp)
 2209              		.cfi_remember_state
 2210              		.cfi_restore 1
 2211 0f20 03340103 		ld	s0,48(sp)
 2212              		.cfi_restore 8
 2213              		.cfi_def_cfa 2, 64
 2214 0f24 83348102 		ld	s1,40(sp)
 2215              		.cfi_restore 9
 2216 0f28 03390102 		ld	s2,32(sp)
 2217              		.cfi_restore 18
 2218              	.LVL251:
 2219 0f2c 83398101 		ld	s3,24(sp)
 2220              		.cfi_restore 19
 2221              	.LVL252:
 2222 0f30 033A0101 		ld	s4,16(sp)
 2223              		.cfi_restore 20
 2224              	.LVL253:
 2225 0f34 833A8100 		ld	s5,8(sp)
 2226              		.cfi_restore 21
 2227 0f38 13010104 		addi	sp,sp,64
 2228              		.cfi_def_cfa_offset 0
 2229 0f3c 67800000 		jr	ra
 2230              	.LVL254:
 2231              	.L163:
 2232              		.cfi_restore_state
 163:src/_Sem.cpp  ****     if (!manager) return -1;
 2233              		.loc 1 163 27
 2234 0f40 9304F0FF 		li	s1,-1
 2235 0f44 6FF05FFD 		j	.L167
 2236              	.LVL255:
 2237              	.L166:
 2238 0f48 93040500 		mv	s1,a0
 2239              	.LVL256:
 2240              	.LBB83:
 2241              	.LBB84:
 166:src/../h/_WaitManager.h ****     }
GAS LISTING /tmp/ccwACtCP.s 			page 52


 167:src/../h/_WaitManager.h ****     void operator delete(void* adr) { kmem_cache_free(cache, adr);}
 2242              		.loc 3 167 39 is_stmt 1
 2243              		.loc 3 167 54 is_stmt 0
 2244 0f4c 93850A00 		mv	a1,s5
 2245 0f50 97070000 		la	a5,_ZN19_SemANDSleepManager5cacheE
 2245      83B70700 
 2246 0f58 03B50700 		ld	a0,0(a5)
 2247 0f5c 97000000 		call	_Z15kmem_cache_freeP12kmem_cache_tPv@plt
 2247      E7800000 
 2248              	.LVL257:
 2249 0f64 13850400 		mv	a0,s1
 2250              	.LEHB23:
 2251 0f68 97000000 		call	_Unwind_Resume@plt
 2251      E7800000 
 2252              	.LVL258:
 2253              	.LEHE23:
 2254              	.LBE84:
 2255              	.LBE83:
 2256              		.cfi_endproc
 2257              	.LFE52:
 2258              		.section	.gcc_except_table
 2259              	.LLSDA52:
 2260 0118 FF       		.byte	0xff
 2261 0119 FF       		.byte	0xff
 2262 011a 03       		.byte	0x3
 2263 011b 34       		.byte	0x34
 2264 011c 00000000 		.4byte	.LEHB20-.LFB52
 2265 0120 00000000 		.4byte	.LEHE20-.LEHB20
 2266 0124 00000000 		.4byte	0
 2267 0128 00       		.byte	0
 2268 0129 00000000 		.4byte	.LEHB21-.LFB52
 2269 012d 00000000 		.4byte	.LEHE21-.LEHB21
 2270 0131 00000000 		.4byte	.L166-.LFB52
 2271 0135 00       		.byte	0
 2272 0136 00000000 		.4byte	.LEHB22-.LFB52
 2273 013a 00000000 		.4byte	.LEHE22-.LEHB22
 2274 013e 00000000 		.4byte	0
 2275 0142 00       		.byte	0
 2276 0143 00000000 		.4byte	.LEHB23-.LFB52
 2277 0147 00000000 		.4byte	.LEHE23-.LEHB23
 2278 014b 00000000 		.4byte	0
 2279 014f 00       		.byte	0
 2280              		.text
 2282              		.globl	_ZN4_Sem5cacheE
 2283              		.bss
 2284              		.align	3
 2285              		.set	.LANCHOR0,. + 0
 2288              	_ZN4_Sem5cacheE:
 2289 0000 00000000 		.zero	8
 2289      00000000 
 2290              		.text
 2291              	.Letext0:
 2292              		.file 4 "src/../h/../lib/hw.h"
 2293              		.file 5 "src/../h/types.h"
 2294              		.file 6 "src/../h/_Thread.h"
 2295              		.file 7 "src/../h/_Sem.h"
 2296              		.file 8 "src/../h/_slab.h"
GAS LISTING /tmp/ccwACtCP.s 			page 53


 2297              		.file 9 "src/../h/_Sleep.h"
 8616              		.align	3
 8619              	DW.ref.__gxx_personality_v0:
 8620 0000 00000000 		.dword	__gxx_personality_v0
 8620      00000000 
 8621              		.ident	"GCC: (Ubuntu 9.4.0-1ubuntu1~20.04) 9.4.0"
 8622              		.section	.note.GNU-stack,"",@progbits
GAS LISTING /tmp/ccwACtCP.s 			page 54

