GAS LISTING /tmp/cc3TcJAA.s 			page 1


   1              		.file	"_slab.cpp"
   2              		.option pic
   3              		.option norelax
   4              		.text
   5              	.Ltext0:
   6              		.align	2
   7              		.globl	_Z9kmem_initPvi
   9              	_Z9kmem_initPvi:
  10              	.LFB38:
  11              		.file 1 "src/_slab.cpp"
   1:src/_slab.cpp **** //
   2:src/_slab.cpp **** // Created by os on 11/19/22.
   3:src/_slab.cpp **** //
   4:src/_slab.cpp **** 
   5:src/_slab.cpp **** #include "../h/_slab.h"
   6:src/_slab.cpp **** #include "../h/_SlabAllocator.h"
   7:src/_slab.cpp **** 
   8:src/_slab.cpp **** void kmem_init(void *space, int block_num) {
  12              		.loc 1 8 44
  13              		.cfi_startproc
  14              	.LVL0:
  15 0000 130101FF 		addi	sp,sp,-16
  16              		.cfi_def_cfa_offset 16
  17 0004 23341100 		sd	ra,8(sp)
  18 0008 23308100 		sd	s0,0(sp)
  19              		.cfi_offset 1, -8
  20              		.cfi_offset 8, -16
  21 000c 13040101 		addi	s0,sp,16
  22              		.cfi_def_cfa 8, 0
   9:src/_slab.cpp ****     kmem_cache_t::kmem_init(space, block_num);
  23              		.loc 1 9 5
  24              		.loc 1 9 28 is_stmt 0
  25 0010 97000000 		call	_ZN12kmem_cache_t9kmem_initEPvi@plt
  25      E7800000 
  26              	.LVL1:
  10:src/_slab.cpp **** }
  27              		.loc 1 10 1
  28 0018 83308100 		ld	ra,8(sp)
  29              		.cfi_restore 1
  30 001c 03340100 		ld	s0,0(sp)
  31              		.cfi_restore 8
  32              		.cfi_def_cfa 2, 16
  33 0020 13010101 		addi	sp,sp,16
  34              		.cfi_def_cfa_offset 0
  35 0024 67800000 		jr	ra
  36              		.cfi_endproc
  37              	.LFE38:
  39              		.align	2
  40              		.globl	_Z17kmem_cache_createPKcmPFvPvES3_
  42              	_Z17kmem_cache_createPKcmPFvPvES3_:
  43              	.LFB39:
  11:src/_slab.cpp **** kmem_cache_t *kmem_cache_create(const char *name, size_t size, void (*ctor)(void *), void (*dtor)(v
  44              		.loc 1 11 108 is_stmt 1
  45              		.cfi_startproc
  46              	.LVL2:
  47 0028 130101FF 		addi	sp,sp,-16
  48              		.cfi_def_cfa_offset 16
GAS LISTING /tmp/cc3TcJAA.s 			page 2


  49 002c 23341100 		sd	ra,8(sp)
  50 0030 23308100 		sd	s0,0(sp)
  51              		.cfi_offset 1, -8
  52              		.cfi_offset 8, -16
  53 0034 13040101 		addi	s0,sp,16
  54              		.cfi_def_cfa 8, 0
  12:src/_slab.cpp ****     return kmem_cache_t::kmem_cache_create(name, size, ctor, dtor);
  55              		.loc 1 12 5
  56              		.loc 1 12 43 is_stmt 0
  57 0038 97000000 		call	_ZN12kmem_cache_t17kmem_cache_createEPKcmPFvPvES4_@plt
  57      E7800000 
  58              	.LVL3:
  13:src/_slab.cpp **** }
  59              		.loc 1 13 1
  60 0040 83308100 		ld	ra,8(sp)
  61              		.cfi_restore 1
  62 0044 03340100 		ld	s0,0(sp)
  63              		.cfi_restore 8
  64              		.cfi_def_cfa 2, 16
  65 0048 13010101 		addi	sp,sp,16
  66              		.cfi_def_cfa_offset 0
  67 004c 67800000 		jr	ra
  68              		.cfi_endproc
  69              	.LFE39:
  71              		.align	2
  72              		.globl	_Z17kmem_cache_shrinkP12kmem_cache_t
  74              	_Z17kmem_cache_shrinkP12kmem_cache_t:
  75              	.LFB40:
  14:src/_slab.cpp **** int kmem_cache_shrink(kmem_cache_t *cachep) {
  76              		.loc 1 14 45 is_stmt 1
  77              		.cfi_startproc
  78              	.LVL4:
  79 0050 130101FF 		addi	sp,sp,-16
  80              		.cfi_def_cfa_offset 16
  81 0054 23341100 		sd	ra,8(sp)
  82 0058 23308100 		sd	s0,0(sp)
  83              		.cfi_offset 1, -8
  84              		.cfi_offset 8, -16
  85 005c 13040101 		addi	s0,sp,16
  86              		.cfi_def_cfa 8, 0
  15:src/_slab.cpp ****     return kmem_cache_t::kmem_cache_shrink(cachep);
  87              		.loc 1 15 5
  88              		.loc 1 15 43 is_stmt 0
  89 0060 97000000 		call	_ZN12kmem_cache_t17kmem_cache_shrinkEPS_@plt
  89      E7800000 
  90              	.LVL5:
  16:src/_slab.cpp **** }
  91              		.loc 1 16 1
  92 0068 83308100 		ld	ra,8(sp)
  93              		.cfi_restore 1
  94 006c 03340100 		ld	s0,0(sp)
  95              		.cfi_restore 8
  96              		.cfi_def_cfa 2, 16
  97 0070 13010101 		addi	sp,sp,16
  98              		.cfi_def_cfa_offset 0
  99 0074 67800000 		jr	ra
 100              		.cfi_endproc
GAS LISTING /tmp/cc3TcJAA.s 			page 3


 101              	.LFE40:
 103              		.align	2
 104              		.globl	_Z16kmem_cache_allocP12kmem_cache_t
 106              	_Z16kmem_cache_allocP12kmem_cache_t:
 107              	.LFB41:
  17:src/_slab.cpp **** void* kmem_cache_alloc(kmem_cache_t *cachep) {
 108              		.loc 1 17 46 is_stmt 1
 109              		.cfi_startproc
 110              	.LVL6:
 111 0078 130101FF 		addi	sp,sp,-16
 112              		.cfi_def_cfa_offset 16
 113 007c 23341100 		sd	ra,8(sp)
 114 0080 23308100 		sd	s0,0(sp)
 115              		.cfi_offset 1, -8
 116              		.cfi_offset 8, -16
 117 0084 13040101 		addi	s0,sp,16
 118              		.cfi_def_cfa 8, 0
  18:src/_slab.cpp ****     return kmem_cache_t::kmem_cache_alloc(cachep);
 119              		.loc 1 18 5
 120              		.loc 1 18 42 is_stmt 0
 121 0088 97000000 		call	_ZN12kmem_cache_t16kmem_cache_allocEPS_@plt
 121      E7800000 
 122              	.LVL7:
  19:src/_slab.cpp **** }
 123              		.loc 1 19 1
 124 0090 83308100 		ld	ra,8(sp)
 125              		.cfi_restore 1
 126 0094 03340100 		ld	s0,0(sp)
 127              		.cfi_restore 8
 128              		.cfi_def_cfa 2, 16
 129 0098 13010101 		addi	sp,sp,16
 130              		.cfi_def_cfa_offset 0
 131 009c 67800000 		jr	ra
 132              		.cfi_endproc
 133              	.LFE41:
 135              		.align	2
 136              		.globl	_Z15kmem_cache_freeP12kmem_cache_tPv
 138              	_Z15kmem_cache_freeP12kmem_cache_tPv:
 139              	.LFB42:
  20:src/_slab.cpp **** void kmem_cache_free(kmem_cache_t *cachep, void *objp) {
 140              		.loc 1 20 56 is_stmt 1
 141              		.cfi_startproc
 142              	.LVL8:
 143 00a0 130101FF 		addi	sp,sp,-16
 144              		.cfi_def_cfa_offset 16
 145 00a4 23341100 		sd	ra,8(sp)
 146 00a8 23308100 		sd	s0,0(sp)
 147              		.cfi_offset 1, -8
 148              		.cfi_offset 8, -16
 149 00ac 13040101 		addi	s0,sp,16
 150              		.cfi_def_cfa 8, 0
  21:src/_slab.cpp ****     kmem_cache_t::kmem_cache_free(cachep, objp);
 151              		.loc 1 21 5
 152              		.loc 1 21 34 is_stmt 0
 153 00b0 97000000 		call	_ZN12kmem_cache_t15kmem_cache_freeEPS_Pv@plt
 153      E7800000 
 154              	.LVL9:
GAS LISTING /tmp/cc3TcJAA.s 			page 4


  22:src/_slab.cpp **** }
 155              		.loc 1 22 1
 156 00b8 83308100 		ld	ra,8(sp)
 157              		.cfi_restore 1
 158 00bc 03340100 		ld	s0,0(sp)
 159              		.cfi_restore 8
 160              		.cfi_def_cfa 2, 16
 161 00c0 13010101 		addi	sp,sp,16
 162              		.cfi_def_cfa_offset 0
 163 00c4 67800000 		jr	ra
 164              		.cfi_endproc
 165              	.LFE42:
 167              		.align	2
 168              		.globl	_Z7kmallocm
 170              	_Z7kmallocm:
 171              	.LFB43:
  23:src/_slab.cpp **** void* kmalloc(size_t size) {
 172              		.loc 1 23 28 is_stmt 1
 173              		.cfi_startproc
 174              	.LVL10:
 175 00c8 130101FF 		addi	sp,sp,-16
 176              		.cfi_def_cfa_offset 16
 177 00cc 23341100 		sd	ra,8(sp)
 178 00d0 23308100 		sd	s0,0(sp)
 179              		.cfi_offset 1, -8
 180              		.cfi_offset 8, -16
 181 00d4 13040101 		addi	s0,sp,16
 182              		.cfi_def_cfa 8, 0
  24:src/_slab.cpp ****     return kmem_cache_t::kmalloc(size);
 183              		.loc 1 24 5
 184              		.loc 1 24 33 is_stmt 0
 185 00d8 97000000 		call	_ZN12kmem_cache_t7kmallocEm@plt
 185      E7800000 
 186              	.LVL11:
  25:src/_slab.cpp **** }
 187              		.loc 1 25 1
 188 00e0 83308100 		ld	ra,8(sp)
 189              		.cfi_restore 1
 190 00e4 03340100 		ld	s0,0(sp)
 191              		.cfi_restore 8
 192              		.cfi_def_cfa 2, 16
 193 00e8 13010101 		addi	sp,sp,16
 194              		.cfi_def_cfa_offset 0
 195 00ec 67800000 		jr	ra
 196              		.cfi_endproc
 197              	.LFE43:
 199              		.align	2
 200              		.globl	_Z5kfreePKv
 202              	_Z5kfreePKv:
 203              	.LFB44:
  26:src/_slab.cpp **** void kfree(const void *objp) {
 204              		.loc 1 26 30 is_stmt 1
 205              		.cfi_startproc
 206              	.LVL12:
 207 00f0 130101FF 		addi	sp,sp,-16
 208              		.cfi_def_cfa_offset 16
 209 00f4 23341100 		sd	ra,8(sp)
GAS LISTING /tmp/cc3TcJAA.s 			page 5


 210 00f8 23308100 		sd	s0,0(sp)
 211              		.cfi_offset 1, -8
 212              		.cfi_offset 8, -16
 213 00fc 13040101 		addi	s0,sp,16
 214              		.cfi_def_cfa 8, 0
  27:src/_slab.cpp ****     kmem_cache_t::kfree(objp);
 215              		.loc 1 27 5
 216              		.loc 1 27 24 is_stmt 0
 217 0100 97000000 		call	_ZN12kmem_cache_t5kfreeEPKv@plt
 217      E7800000 
 218              	.LVL13:
  28:src/_slab.cpp **** }
 219              		.loc 1 28 1
 220 0108 83308100 		ld	ra,8(sp)
 221              		.cfi_restore 1
 222 010c 03340100 		ld	s0,0(sp)
 223              		.cfi_restore 8
 224              		.cfi_def_cfa 2, 16
 225 0110 13010101 		addi	sp,sp,16
 226              		.cfi_def_cfa_offset 0
 227 0114 67800000 		jr	ra
 228              		.cfi_endproc
 229              	.LFE44:
 231              		.align	2
 232              		.globl	_Z18kmem_cache_destroyP12kmem_cache_t
 234              	_Z18kmem_cache_destroyP12kmem_cache_t:
 235              	.LFB45:
  29:src/_slab.cpp **** void kmem_cache_destroy(kmem_cache_t *cachep) {
 236              		.loc 1 29 47 is_stmt 1
 237              		.cfi_startproc
 238              	.LVL14:
 239 0118 130101FF 		addi	sp,sp,-16
 240              		.cfi_def_cfa_offset 16
 241 011c 23341100 		sd	ra,8(sp)
 242 0120 23308100 		sd	s0,0(sp)
 243              		.cfi_offset 1, -8
 244              		.cfi_offset 8, -16
 245 0124 13040101 		addi	s0,sp,16
 246              		.cfi_def_cfa 8, 0
  30:src/_slab.cpp ****     kmem_cache_t::kmem_cache_destroy(cachep);
 247              		.loc 1 30 5
 248              		.loc 1 30 37 is_stmt 0
 249 0128 97000000 		call	_ZN12kmem_cache_t18kmem_cache_destroyEPS_@plt
 249      E7800000 
 250              	.LVL15:
  31:src/_slab.cpp **** }
 251              		.loc 1 31 1
 252 0130 83308100 		ld	ra,8(sp)
 253              		.cfi_restore 1
 254 0134 03340100 		ld	s0,0(sp)
 255              		.cfi_restore 8
 256              		.cfi_def_cfa 2, 16
 257 0138 13010101 		addi	sp,sp,16
 258              		.cfi_def_cfa_offset 0
 259 013c 67800000 		jr	ra
 260              		.cfi_endproc
 261              	.LFE45:
GAS LISTING /tmp/cc3TcJAA.s 			page 6


 263              		.align	2
 264              		.globl	_Z15kmem_cache_infoP12kmem_cache_t
 266              	_Z15kmem_cache_infoP12kmem_cache_t:
 267              	.LFB46:
  32:src/_slab.cpp **** void kmem_cache_info(kmem_cache_t *cachep) {
 268              		.loc 1 32 44 is_stmt 1
 269              		.cfi_startproc
 270              	.LVL16:
 271 0140 130101FF 		addi	sp,sp,-16
 272              		.cfi_def_cfa_offset 16
 273 0144 23341100 		sd	ra,8(sp)
 274 0148 23308100 		sd	s0,0(sp)
 275              		.cfi_offset 1, -8
 276              		.cfi_offset 8, -16
 277 014c 13040101 		addi	s0,sp,16
 278              		.cfi_def_cfa 8, 0
  33:src/_slab.cpp ****     kmem_cache_t::kmem_cache_info(cachep);
 279              		.loc 1 33 5
 280              		.loc 1 33 34 is_stmt 0
 281 0150 97000000 		call	_ZN12kmem_cache_t15kmem_cache_infoEPS_@plt
 281      E7800000 
 282              	.LVL17:
  34:src/_slab.cpp **** }
 283              		.loc 1 34 1
 284 0158 83308100 		ld	ra,8(sp)
 285              		.cfi_restore 1
 286 015c 03340100 		ld	s0,0(sp)
 287              		.cfi_restore 8
 288              		.cfi_def_cfa 2, 16
 289 0160 13010101 		addi	sp,sp,16
 290              		.cfi_def_cfa_offset 0
 291 0164 67800000 		jr	ra
 292              		.cfi_endproc
 293              	.LFE46:
 295              		.align	2
 296              		.globl	_Z16kmem_cache_errorP12kmem_cache_t
 298              	_Z16kmem_cache_errorP12kmem_cache_t:
 299              	.LFB47:
  35:src/_slab.cpp **** int kmem_cache_error(kmem_cache_t *cachep) {
 300              		.loc 1 35 44 is_stmt 1
 301              		.cfi_startproc
 302              	.LVL18:
 303 0168 130101FF 		addi	sp,sp,-16
 304              		.cfi_def_cfa_offset 16
 305 016c 23341100 		sd	ra,8(sp)
 306 0170 23308100 		sd	s0,0(sp)
 307              		.cfi_offset 1, -8
 308              		.cfi_offset 8, -16
 309 0174 13040101 		addi	s0,sp,16
 310              		.cfi_def_cfa 8, 0
  36:src/_slab.cpp ****     return kmem_cache_t::kmem_cache_error(cachep);
 311              		.loc 1 36 5
 312              		.loc 1 36 42 is_stmt 0
 313 0178 97000000 		call	_ZN12kmem_cache_t16kmem_cache_errorEPS_@plt
 313      E7800000 
 314              	.LVL19:
  37:src/_slab.cpp **** }
GAS LISTING /tmp/cc3TcJAA.s 			page 7


 315              		.loc 1 37 1
 316 0180 83308100 		ld	ra,8(sp)
 317              		.cfi_restore 1
 318 0184 03340100 		ld	s0,0(sp)
 319              		.cfi_restore 8
 320              		.cfi_def_cfa 2, 16
 321 0188 13010101 		addi	sp,sp,16
 322              		.cfi_def_cfa_offset 0
 323 018c 67800000 		jr	ra
 324              		.cfi_endproc
 325              	.LFE47:
 327              		.align	2
 328              		.globl	_Z20kmem_cache_info_buffi
 330              	_Z20kmem_cache_info_buffi:
 331              	.LFB48:
  38:src/_slab.cpp **** 
  39:src/_slab.cpp **** void kmem_cache_info_buff(int pow) {
 332              		.loc 1 39 36 is_stmt 1
 333              		.cfi_startproc
 334              	.LVL20:
 335 0190 130101FF 		addi	sp,sp,-16
 336              		.cfi_def_cfa_offset 16
 337 0194 23341100 		sd	ra,8(sp)
 338 0198 23308100 		sd	s0,0(sp)
 339              		.cfi_offset 1, -8
 340              		.cfi_offset 8, -16
 341 019c 13040101 		addi	s0,sp,16
 342              		.cfi_def_cfa 8, 0
  40:src/_slab.cpp ****     kmem_cache_t::kmem_cache_info_buff(pow);
 343              		.loc 1 40 5
 344              		.loc 1 40 39 is_stmt 0
 345 01a0 97000000 		call	_ZN12kmem_cache_t20kmem_cache_info_buffEi@plt
 345      E7800000 
 346              	.LVL21:
  41:src/_slab.cpp **** }
 347              		.loc 1 41 1
 348 01a8 83308100 		ld	ra,8(sp)
 349              		.cfi_restore 1
 350 01ac 03340100 		ld	s0,0(sp)
 351              		.cfi_restore 8
 352              		.cfi_def_cfa 2, 16
 353 01b0 13010101 		addi	sp,sp,16
 354              		.cfi_def_cfa_offset 0
 355 01b4 67800000 		jr	ra
 356              		.cfi_endproc
 357              	.LFE48:
 359              		.align	2
 360              		.globl	_Z10buddyAlloci
 362              	_Z10buddyAlloci:
 363              	.LFB49:
  42:src/_slab.cpp **** void* buddyAlloc(int pow) {
 364              		.loc 1 42 27 is_stmt 1
 365              		.cfi_startproc
 366              	.LVL22:
 367 01b8 130101FF 		addi	sp,sp,-16
 368              		.cfi_def_cfa_offset 16
 369 01bc 23341100 		sd	ra,8(sp)
GAS LISTING /tmp/cc3TcJAA.s 			page 8


 370 01c0 23308100 		sd	s0,0(sp)
 371              		.cfi_offset 1, -8
 372              		.cfi_offset 8, -16
 373 01c4 13040101 		addi	s0,sp,16
 374              		.cfi_def_cfa 8, 0
  43:src/_slab.cpp ****     return kmem_cache_t::buddyAlloc(pow);
 375              		.loc 1 43 5
 376              		.loc 1 43 36 is_stmt 0
 377 01c8 97000000 		call	_ZN12kmem_cache_t10buddyAllocEi@plt
 377      E7800000 
 378              	.LVL23:
  44:src/_slab.cpp **** }
 379              		.loc 1 44 1
 380 01d0 83308100 		ld	ra,8(sp)
 381              		.cfi_restore 1
 382 01d4 03340100 		ld	s0,0(sp)
 383              		.cfi_restore 8
 384              		.cfi_def_cfa 2, 16
 385 01d8 13010101 		addi	sp,sp,16
 386              		.cfi_def_cfa_offset 0
 387 01dc 67800000 		jr	ra
 388              		.cfi_endproc
 389              	.LFE49:
 391              		.align	2
 392              		.globl	_Z9buddyFreePv
 394              	_Z9buddyFreePv:
 395              	.LFB50:
  45:src/_slab.cpp **** void buddyFree(void* ptr) {
 396              		.loc 1 45 27 is_stmt 1
 397              		.cfi_startproc
 398              	.LVL24:
 399 01e0 130101FF 		addi	sp,sp,-16
 400              		.cfi_def_cfa_offset 16
 401 01e4 23341100 		sd	ra,8(sp)
 402 01e8 23308100 		sd	s0,0(sp)
 403              		.cfi_offset 1, -8
 404              		.cfi_offset 8, -16
 405 01ec 13040101 		addi	s0,sp,16
 406              		.cfi_def_cfa 8, 0
  46:src/_slab.cpp ****     return kmem_cache_t::buddyFree(ptr);
 407              		.loc 1 46 5
 408              		.loc 1 46 35 is_stmt 0
 409 01f0 97000000 		call	_ZN12kmem_cache_t9buddyFreeEPv@plt
 409      E7800000 
 410              	.LVL25:
  47:src/_slab.cpp **** }
 411              		.loc 1 47 1
 412 01f8 83308100 		ld	ra,8(sp)
 413              		.cfi_restore 1
 414 01fc 03340100 		ld	s0,0(sp)
 415              		.cfi_restore 8
 416              		.cfi_def_cfa 2, 16
 417 0200 13010101 		addi	sp,sp,16
 418              		.cfi_def_cfa_offset 0
 419 0204 67800000 		jr	ra
 420              		.cfi_endproc
 421              	.LFE50:
GAS LISTING /tmp/cc3TcJAA.s 			page 9


 423              		.align	2
 424              		.globl	_Z11getBuddyEndv
 426              	_Z11getBuddyEndv:
 427              	.LFB51:
  48:src/_slab.cpp **** void* getBuddyEnd() {
 428              		.loc 1 48 21 is_stmt 1
 429              		.cfi_startproc
 430 0208 130101FF 		addi	sp,sp,-16
 431              		.cfi_def_cfa_offset 16
 432 020c 23341100 		sd	ra,8(sp)
 433 0210 23308100 		sd	s0,0(sp)
 434              		.cfi_offset 1, -8
 435              		.cfi_offset 8, -16
 436 0214 13040101 		addi	s0,sp,16
 437              		.cfi_def_cfa 8, 0
  49:src/_slab.cpp ****     return kmem_cache_t::getBuddyEnd();
 438              		.loc 1 49 5
 439              		.loc 1 49 37 is_stmt 0
 440 0218 97000000 		call	_ZN12kmem_cache_t11getBuddyEndEv@plt
 440      E7800000 
 441              	.LVL26:
  50:src/_slab.cpp **** }
 442              		.loc 1 50 1
 443 0220 83308100 		ld	ra,8(sp)
 444              		.cfi_restore 1
 445 0224 03340100 		ld	s0,0(sp)
 446              		.cfi_restore 8
 447              		.cfi_def_cfa 2, 16
 448 0228 13010101 		addi	sp,sp,16
 449              		.cfi_def_cfa_offset 0
 450 022c 67800000 		jr	ra
 451              		.cfi_endproc
 452              	.LFE51:
 454              		.globl	PAGEOFF
 455              		.globl	PAGEOFFMASK
 456              		.section	.rodata
 457              		.align	2
 460              	PAGEOFF:
 461 0000 0C000000 		.word	12
 464              	PAGEOFFMASK:
 465 0004 FF0F0000 		.word	4095
 466              		.text
 467              	.Letext0:
 468              		.file 2 "src/../h/../lib/hw.h"
 469              		.file 3 "src/../h/_slab.h"
 470              		.file 4 "src/../h/_placementNew.h"
 471              		.file 5 "src/../h/_BuddyAllocator.h"
 472              		.file 6 "src/../h/_SlabAllocator.h"
GAS LISTING /tmp/cc3TcJAA.s 			page 10

