GAS LISTING /tmp/cc6lMr8s.s 			page 1


   1              		.file	"_SlabAllocator.cpp"
   2              		.option pic
   3              		.option norelax
   4              		.text
   5              	.Ltext0:
   6              		.section	.text._ZN5_Slab17getAllocatedCountEv,"axG",@progbits,_ZN5_Slab17getAllocatedCountEv,comda
   7              		.align	2
   8              		.weak	_ZN5_Slab17getAllocatedCountEv
  10              	_ZN5_Slab17getAllocatedCountEv:
  11              	.LFB29:
  12              		.file 1 "src/../h/_SlabAllocator.h"
   1:src/../h/_SlabAllocator.h **** //
   2:src/../h/_SlabAllocator.h **** // Created by os on 11/19/22.
   3:src/../h/_SlabAllocator.h **** //
   4:src/../h/_SlabAllocator.h **** 
   5:src/../h/_SlabAllocator.h **** #ifndef PROJECT_BASE__SLABALLOCATOR_H
   6:src/../h/_SlabAllocator.h **** #define PROJECT_BASE__SLABALLOCATOR_H
   7:src/../h/_SlabAllocator.h **** #include "_BuddyAllocator.h"
   8:src/../h/_SlabAllocator.h **** 
   9:src/../h/_SlabAllocator.h **** class _Slab {
  10:src/../h/_SlabAllocator.h **** protected:
  11:src/../h/_SlabAllocator.h ****     void* free;
  12:src/../h/_SlabAllocator.h ****     int allocated;
  13:src/../h/_SlabAllocator.h ****     size_t slotSize, slabSize;
  14:src/../h/_SlabAllocator.h ****     _Slab(size_t slotSize, size_t slabSize);
  15:src/../h/_SlabAllocator.h ****     _Slab() {}
  16:src/../h/_SlabAllocator.h ****     void init(int num);
  17:src/../h/_SlabAllocator.h **** public:
  18:src/../h/_SlabAllocator.h ****     _Slab* next, *prev;
  19:src/../h/_SlabAllocator.h ****     virtual void* alloc();
  20:src/../h/_SlabAllocator.h ****     virtual void dealloc(void*);
  21:src/../h/_SlabAllocator.h ****     virtual bool isEmpty();
  22:src/../h/_SlabAllocator.h ****     virtual bool isFull();
  23:src/../h/_SlabAllocator.h ****     virtual int getAllocatedCount() { return allocated; }
  13              		.loc 1 23 17
  14              		.cfi_startproc
  15              	.LVL0:
  16 0000 130101FF 		addi	sp,sp,-16
  17              		.cfi_def_cfa_offset 16
  18 0004 23348100 		sd	s0,8(sp)
  19              		.cfi_offset 8, -8
  20 0008 13040101 		addi	s0,sp,16
  21              		.cfi_def_cfa 8, 0
  22              		.loc 1 23 39
  23              		.loc 1 23 57 is_stmt 0
  24 000c 03250501 		lw	a0,16(a0)
  25              	.LVL1:
  26 0010 03348100 		ld	s0,8(sp)
  27              		.cfi_restore 8
  28              		.cfi_def_cfa 2, 16
  29 0014 13010101 		addi	sp,sp,16
  30              		.cfi_def_cfa_offset 0
  31 0018 67800000 		jr	ra
  32              		.cfi_endproc
  33              	.LFE29:
  35              		.section	.text._ZN5_Slab8containsEPv,"axG",@progbits,_ZN5_Slab8containsEPv,comdat
  36              		.align	2
GAS LISTING /tmp/cc6lMr8s.s 			page 2


  37              		.weak	_ZN5_Slab8containsEPv
  39              	_ZN5_Slab8containsEPv:
  40              	.LFB30:
  24:src/../h/_SlabAllocator.h ****     virtual bool contains(void* adr) { return false; }//ova bi trebalo da bude pure virtual ali ne 
  41              		.loc 1 24 18 is_stmt 1
  42              		.cfi_startproc
  43              	.LVL2:
  44 0000 130101FF 		addi	sp,sp,-16
  45              		.cfi_def_cfa_offset 16
  46 0004 23348100 		sd	s0,8(sp)
  47              		.cfi_offset 8, -8
  48 0008 13040101 		addi	s0,sp,16
  49              		.cfi_def_cfa 8, 0
  50              		.loc 1 24 40
  51              		.loc 1 24 54 is_stmt 0
  52 000c 13050000 		li	a0,0
  53              	.LVL3:
  54 0010 03348100 		ld	s0,8(sp)
  55              		.cfi_restore 8
  56              		.cfi_def_cfa 2, 16
  57 0014 13010101 		addi	sp,sp,16
  58              		.cfi_def_cfa_offset 0
  59 0018 67800000 		jr	ra
  60              		.cfi_endproc
  61              	.LFE30:
  63              		.text
  64              		.align	2
  65              		.globl	_ZN5_Slab5allocEv
  67              	_ZN5_Slab5allocEv:
  68              	.LFB42:
  69              		.file 2 "src/_SlabAllocator.cpp"
   1:src/_SlabAllocator.cpp **** //
   2:src/_SlabAllocator.cpp **** // Created by os on 11/19/22.
   3:src/_SlabAllocator.cpp **** //
   4:src/_SlabAllocator.cpp **** 
   5:src/_SlabAllocator.cpp **** #include "../h/_SlabAllocator.h"
   6:src/_SlabAllocator.cpp **** #include "../h/_slab.h"
   7:src/_SlabAllocator.cpp **** #include "../h/_Console.h"
   8:src/_SlabAllocator.cpp **** 
   9:src/_SlabAllocator.cpp **** const int kmem_cache_t::MAX = 20; //maksimalan broj objektnih keseva
  10:src/_SlabAllocator.cpp **** const int kmem_cache_t::buffPowMin = 5;
  11:src/_SlabAllocator.cpp **** const int kmem_cache_t::buffPowMax = 17;
  12:src/_SlabAllocator.cpp **** _BuddyTree* kmem_cache_t::buddy;
  13:src/_SlabAllocator.cpp **** _Slab::_Slab(size_t slotSize, size_t slabSize) {
  14:src/_SlabAllocator.cpp ****     this->slotSize = slotSize; this->slabSize = slabSize;
  15:src/_SlabAllocator.cpp **** }
  16:src/_SlabAllocator.cpp **** void _Slab::init(int num) {
  17:src/_SlabAllocator.cpp ****     char* ptr = (char*)free;
  18:src/_SlabAllocator.cpp ****     for (int i = 0; i < num - 1; i++) {
  19:src/_SlabAllocator.cpp ****         *(void**)ptr = ptr + slotSize;
  20:src/_SlabAllocator.cpp ****         ptr += slotSize;
  21:src/_SlabAllocator.cpp ****     }
  22:src/_SlabAllocator.cpp ****     *(void**)ptr = nullptr;
  23:src/_SlabAllocator.cpp **** }
  24:src/_SlabAllocator.cpp **** void* _Slab::alloc() {
  70              		.loc 2 24 22 is_stmt 1
  71              		.cfi_startproc
GAS LISTING /tmp/cc6lMr8s.s 			page 3


  72              	.LVL4:
  73 0000 130101FF 		addi	sp,sp,-16
  74              		.cfi_def_cfa_offset 16
  75 0004 23348100 		sd	s0,8(sp)
  76              		.cfi_offset 8, -8
  77 0008 13040101 		addi	s0,sp,16
  78              		.cfi_def_cfa 8, 0
  79 000c 93070500 		mv	a5,a0
  25:src/_SlabAllocator.cpp ****     if (!free) return nullptr;
  80              		.loc 2 25 5
  81              		.loc 2 25 10 is_stmt 0
  82 0010 03358500 		ld	a0,8(a0)
  83              	.LVL5:
  84              		.loc 2 25 5
  85 0014 630C0500 		beqz	a0,.L5
  26:src/_SlabAllocator.cpp ****     void* ret = free;
  86              		.loc 2 26 5 is_stmt 1
  87              	.LVL6:
  27:src/_SlabAllocator.cpp ****     free = *(void**)free;
  88              		.loc 2 27 5
  89              		.loc 2 27 12 is_stmt 0
  90 0018 03370500 		ld	a4,0(a0)
  91              		.loc 2 27 10
  92 001c 23B4E700 		sd	a4,8(a5)
  28:src/_SlabAllocator.cpp ****     allocated++;
  93              		.loc 2 28 5 is_stmt 1
  94 0020 03A70701 		lw	a4,16(a5)
  95              		.loc 2 28 14 is_stmt 0
  96 0024 1B071700 		addiw	a4,a4,1
  97 0028 23A8E700 		sw	a4,16(a5)
  29:src/_SlabAllocator.cpp ****     return ret;
  98              		.loc 2 29 5 is_stmt 1
  99              	.LVL7:
 100              	.L5:
  30:src/_SlabAllocator.cpp **** }
 101              		.loc 2 30 1 is_stmt 0
 102 002c 03348100 		ld	s0,8(sp)
 103              		.cfi_restore 8
 104              		.cfi_def_cfa 2, 16
 105 0030 13010101 		addi	sp,sp,16
 106              		.cfi_def_cfa_offset 0
 107 0034 67800000 		jr	ra
 108              		.cfi_endproc
 109              	.LFE42:
 111              		.align	2
 112              		.globl	_ZN5_Slab7deallocEPv
 114              	_ZN5_Slab7deallocEPv:
 115              	.LFB43:
  31:src/_SlabAllocator.cpp **** void _Slab::dealloc(void* ptr) {
 116              		.loc 2 31 32 is_stmt 1
 117              		.cfi_startproc
 118              	.LVL8:
 119 0038 130101FF 		addi	sp,sp,-16
 120              		.cfi_def_cfa_offset 16
 121 003c 23348100 		sd	s0,8(sp)
 122              		.cfi_offset 8, -8
 123 0040 13040101 		addi	s0,sp,16
GAS LISTING /tmp/cc6lMr8s.s 			page 4


 124              		.cfi_def_cfa 8, 0
  32:src/_SlabAllocator.cpp ****     *(void**)ptr = free;
 125              		.loc 2 32 5
 126              		.loc 2 32 20 is_stmt 0
 127 0044 83378500 		ld	a5,8(a0)
 128              		.loc 2 32 18
 129 0048 23B0F500 		sd	a5,0(a1)
  33:src/_SlabAllocator.cpp ****     free = ptr;
 130              		.loc 2 33 5 is_stmt 1
 131              		.loc 2 33 10 is_stmt 0
 132 004c 2334B500 		sd	a1,8(a0)
  34:src/_SlabAllocator.cpp ****     allocated--;
 133              		.loc 2 34 5 is_stmt 1
 134 0050 83270501 		lw	a5,16(a0)
 135              		.loc 2 34 14 is_stmt 0
 136 0054 9B87F7FF 		addiw	a5,a5,-1
 137 0058 2328F500 		sw	a5,16(a0)
  35:src/_SlabAllocator.cpp **** }
 138              		.loc 2 35 1
 139 005c 03348100 		ld	s0,8(sp)
 140              		.cfi_restore 8
 141              		.cfi_def_cfa 2, 16
 142 0060 13010101 		addi	sp,sp,16
 143              		.cfi_def_cfa_offset 0
 144 0064 67800000 		jr	ra
 145              		.cfi_endproc
 146              	.LFE43:
 148              		.align	2
 149              		.globl	_ZN5_Slab7isEmptyEv
 151              	_ZN5_Slab7isEmptyEv:
 152              	.LFB44:
  36:src/_SlabAllocator.cpp **** bool _Slab::isEmpty() {
 153              		.loc 2 36 23 is_stmt 1
 154              		.cfi_startproc
 155              	.LVL9:
 156 0068 130101FF 		addi	sp,sp,-16
 157              		.cfi_def_cfa_offset 16
 158 006c 23348100 		sd	s0,8(sp)
 159              		.cfi_offset 8, -8
 160 0070 13040101 		addi	s0,sp,16
 161              		.cfi_def_cfa 8, 0
  37:src/_SlabAllocator.cpp ****     return allocated == 0;
 162              		.loc 2 37 5
 163              		.loc 2 37 12 is_stmt 0
 164 0074 03250501 		lw	a0,16(a0)
 165              	.LVL10:
  38:src/_SlabAllocator.cpp **** }
 166              		.loc 2 38 1
 167 0078 13351500 		seqz	a0,a0
 168 007c 03348100 		ld	s0,8(sp)
 169              		.cfi_restore 8
 170              		.cfi_def_cfa 2, 16
 171 0080 13010101 		addi	sp,sp,16
 172              		.cfi_def_cfa_offset 0
 173 0084 67800000 		jr	ra
 174              		.cfi_endproc
 175              	.LFE44:
GAS LISTING /tmp/cc6lMr8s.s 			page 5


 177              		.align	2
 178              		.globl	_ZN5_Slab6isFullEv
 180              	_ZN5_Slab6isFullEv:
 181              	.LFB45:
  39:src/_SlabAllocator.cpp **** bool _Slab::isFull() {
 182              		.loc 2 39 22 is_stmt 1
 183              		.cfi_startproc
 184              	.LVL11:
 185 0088 130101FF 		addi	sp,sp,-16
 186              		.cfi_def_cfa_offset 16
 187 008c 23348100 		sd	s0,8(sp)
 188              		.cfi_offset 8, -8
 189 0090 13040101 		addi	s0,sp,16
 190              		.cfi_def_cfa 8, 0
  40:src/_SlabAllocator.cpp ****     return free == nullptr;
 191              		.loc 2 40 5
 192              		.loc 2 40 12 is_stmt 0
 193 0094 03358500 		ld	a0,8(a0)
 194              	.LVL12:
  41:src/_SlabAllocator.cpp **** }
 195              		.loc 2 41 1
 196 0098 13351500 		seqz	a0,a0
 197 009c 03348100 		ld	s0,8(sp)
 198              		.cfi_restore 8
 199              		.cfi_def_cfa 2, 16
 200 00a0 13010101 		addi	sp,sp,16
 201              		.cfi_def_cfa_offset 0
 202 00a4 67800000 		jr	ra
 203              		.cfi_endproc
 204              	.LFE45:
 206              		.align	2
 207              		.globl	_ZN8_ObjSlab8containsEPv
 209              	_ZN8_ObjSlab8containsEPv:
 210              	.LFB49:
  42:src/_SlabAllocator.cpp **** _ObjSlab::_ObjSlab(size_t slotSize, size_t slabSize) : _Slab(slotSize, slabSize) {
  43:src/_SlabAllocator.cpp ****     prev = next = nullptr;
  44:src/_SlabAllocator.cpp ****     allocated = 0;
  45:src/_SlabAllocator.cpp ****     free = (char*)this + sizeof(_Slab);
  46:src/_SlabAllocator.cpp ****     //Ulancavanje slotova
  47:src/_SlabAllocator.cpp ****     init((slabSize - sizeof(_ObjSlab)) / slotSize);
  48:src/_SlabAllocator.cpp **** }
  49:src/_SlabAllocator.cpp **** bool _ObjSlab::contains(void* adr) {
 211              		.loc 2 49 36 is_stmt 1
 212              		.cfi_startproc
 213              	.LVL13:
 214 00a8 130101FF 		addi	sp,sp,-16
 215              		.cfi_def_cfa_offset 16
 216 00ac 23348100 		sd	s0,8(sp)
 217              		.cfi_offset 8, -8
 218 00b0 13040101 		addi	s0,sp,16
 219              		.cfi_def_cfa 8, 0
  50:src/_SlabAllocator.cpp ****     return adr > this && adr < (char*)this + slabSize;
 220              		.loc 2 50 5
 221              		.loc 2 50 23 is_stmt 0
 222 00b4 637CB500 		bleu	a1,a0,.L16
 223              		.loc 2 50 46 discriminator 1
 224 00b8 83370502 		ld	a5,32(a0)
GAS LISTING /tmp/cc6lMr8s.s 			page 6


 225              		.loc 2 50 44 discriminator 1
 226 00bc 3305F500 		add	a0,a0,a5
 227              	.LVL14:
 228              		.loc 2 50 23 discriminator 1
 229 00c0 63EEA500 		bgtu	a0,a1,.L17
 230              		.loc 2 50 23
 231 00c4 13050000 		li	a0,0
 232 00c8 6F008000 		j	.L15
 233              	.LVL15:
 234              	.L16:
 235 00cc 13050000 		li	a0,0
 236              	.LVL16:
 237              	.L15:
  51:src/_SlabAllocator.cpp **** }
 238              		.loc 2 51 1 discriminator 6
 239 00d0 03348100 		ld	s0,8(sp)
 240              		.cfi_remember_state
 241              		.cfi_restore 8
 242              		.cfi_def_cfa 2, 16
 243 00d4 13010101 		addi	sp,sp,16
 244              		.cfi_def_cfa_offset 0
 245 00d8 67800000 		jr	ra
 246              	.L17:
 247              		.cfi_restore_state
  50:src/_SlabAllocator.cpp ****     return adr > this && adr < (char*)this + slabSize;
 248              		.loc 2 50 23
 249 00dc 13051000 		li	a0,1
 250 00e0 6FF01FFF 		j	.L15
 251              		.cfi_endproc
 252              	.LFE49:
 254              		.align	2
 255              		.globl	_ZN9_BuffSlab8containsEPv
 257              	_ZN9_BuffSlab8containsEPv:
 258              	.LFB53:
  52:src/_SlabAllocator.cpp **** _BuffSlab::_BuffSlab(size_t slotSize, size_t slabSize, void* slabSpace) : _Slab(slotSize, slabSize)
  53:src/_SlabAllocator.cpp ****     slab = slabSpace;
  54:src/_SlabAllocator.cpp ****     prev = next = nullptr;
  55:src/_SlabAllocator.cpp ****     allocated = 0;
  56:src/_SlabAllocator.cpp ****     free = slab;
  57:src/_SlabAllocator.cpp ****     this->slotSize = slotSize;
  58:src/_SlabAllocator.cpp ****     init(slabSize / slotSize);
  59:src/_SlabAllocator.cpp **** }
  60:src/_SlabAllocator.cpp **** bool _BuffSlab::contains(void* adr) {
 259              		.loc 2 60 37 is_stmt 1
 260              		.cfi_startproc
 261              	.LVL17:
 262 00e4 130101FF 		addi	sp,sp,-16
 263              		.cfi_def_cfa_offset 16
 264 00e8 23348100 		sd	s0,8(sp)
 265              		.cfi_offset 8, -8
 266 00ec 13040101 		addi	s0,sp,16
 267              		.cfi_def_cfa 8, 0
  61:src/_SlabAllocator.cpp ****     return adr >= slab && adr < (char*)slab + slabSize;
 268              		.loc 2 61 5
 269              		.loc 2 61 19 is_stmt 0
 270 00f0 83378503 		ld	a5,56(a0)
 271              		.loc 2 61 24
GAS LISTING /tmp/cc6lMr8s.s 			page 7


 272 00f4 63ECF500 		bgtu	a5,a1,.L21
 273              		.loc 2 61 47 discriminator 1
 274 00f8 03370502 		ld	a4,32(a0)
 275              		.loc 2 61 45 discriminator 1
 276 00fc B387E700 		add	a5,a5,a4
 277              		.loc 2 61 24 discriminator 1
 278 0100 63EEF500 		bgtu	a5,a1,.L22
 279              		.loc 2 61 24
 280 0104 13050000 		li	a0,0
 281              	.LVL18:
 282 0108 6F008000 		j	.L20
 283              	.LVL19:
 284              	.L21:
 285 010c 13050000 		li	a0,0
 286              	.LVL20:
 287              	.L20:
  62:src/_SlabAllocator.cpp **** }
 288              		.loc 2 62 1 discriminator 6
 289 0110 03348100 		ld	s0,8(sp)
 290              		.cfi_remember_state
 291              		.cfi_restore 8
 292              		.cfi_def_cfa 2, 16
 293 0114 13010101 		addi	sp,sp,16
 294              		.cfi_def_cfa_offset 0
 295 0118 67800000 		jr	ra
 296              	.LVL21:
 297              	.L22:
 298              		.cfi_restore_state
  61:src/_SlabAllocator.cpp ****     return adr >= slab && adr < (char*)slab + slabSize;
 299              		.loc 2 61 24
 300 011c 13051000 		li	a0,1
 301              	.LVL22:
 302 0120 6FF01FFF 		j	.L20
 303              		.cfi_endproc
 304              	.LFE53:
 306              		.align	2
 307              		.globl	_ZN5_SlabC2Emm
 309              	_ZN5_SlabC2Emm:
 310              	.LFB39:
  13:src/_SlabAllocator.cpp ****     this->slotSize = slotSize; this->slabSize = slabSize;
 311              		.loc 2 13 1 is_stmt 1
 312              		.cfi_startproc
 313              	.LVL23:
 314 0124 130101FF 		addi	sp,sp,-16
 315              		.cfi_def_cfa_offset 16
 316 0128 23348100 		sd	s0,8(sp)
 317              		.cfi_offset 8, -8
 318 012c 13040101 		addi	s0,sp,16
 319              		.cfi_def_cfa 8, 0
 320              	.LBB18:
  13:src/_SlabAllocator.cpp ****     this->slotSize = slotSize; this->slabSize = slabSize;
 321              		.loc 2 13 46 is_stmt 0
 322 0130 97070000 		lla	a5,_ZTV5_Slab+16
 322      93870700 
 323 0138 2330F500 		sd	a5,0(a0)
  14:src/_SlabAllocator.cpp **** }
 324              		.loc 2 14 5 is_stmt 1
GAS LISTING /tmp/cc6lMr8s.s 			page 8


  14:src/_SlabAllocator.cpp **** }
 325              		.loc 2 14 20 is_stmt 0
 326 013c 233CB500 		sd	a1,24(a0)
  14:src/_SlabAllocator.cpp **** }
 327              		.loc 2 14 32 is_stmt 1
  14:src/_SlabAllocator.cpp **** }
 328              		.loc 2 14 47 is_stmt 0
 329 0140 2330C502 		sd	a2,32(a0)
 330              	.LBE18:
  15:src/_SlabAllocator.cpp **** void _Slab::init(int num) {
 331              		.loc 2 15 1
 332 0144 03348100 		ld	s0,8(sp)
 333              		.cfi_restore 8
 334              		.cfi_def_cfa 2, 16
 335 0148 13010101 		addi	sp,sp,16
 336              		.cfi_def_cfa_offset 0
 337 014c 67800000 		jr	ra
 338              		.cfi_endproc
 339              	.LFE39:
 341              		.globl	_ZN5_SlabC1Emm
 342              		.set	_ZN5_SlabC1Emm,_ZN5_SlabC2Emm
 343              		.align	2
 344              		.globl	_ZN5_Slab4initEi
 346              	_ZN5_Slab4initEi:
 347              	.LFB41:
  16:src/_SlabAllocator.cpp ****     char* ptr = (char*)free;
 348              		.loc 2 16 27 is_stmt 1
 349              		.cfi_startproc
 350              	.LVL24:
 351 0150 130101FF 		addi	sp,sp,-16
 352              		.cfi_def_cfa_offset 16
 353 0154 23348100 		sd	s0,8(sp)
 354              		.cfi_offset 8, -8
 355 0158 13040101 		addi	s0,sp,16
 356              		.cfi_def_cfa 8, 0
  17:src/_SlabAllocator.cpp ****     for (int i = 0; i < num - 1; i++) {
 357              		.loc 2 17 5
  17:src/_SlabAllocator.cpp ****     for (int i = 0; i < num - 1; i++) {
 358              		.loc 2 17 11 is_stmt 0
 359 015c 83378500 		ld	a5,8(a0)
 360              	.LVL25:
  18:src/_SlabAllocator.cpp ****         *(void**)ptr = ptr + slotSize;
 361              		.loc 2 18 5 is_stmt 1
 362              	.LBB19:
  18:src/_SlabAllocator.cpp ****         *(void**)ptr = ptr + slotSize;
 363              		.loc 2 18 14 is_stmt 0
 364 0160 93060000 		li	a3,0
 365              	.LVL26:
 366              	.L28:
  18:src/_SlabAllocator.cpp ****         *(void**)ptr = ptr + slotSize;
 367              		.loc 2 18 23 is_stmt 1 discriminator 3
  18:src/_SlabAllocator.cpp ****         *(void**)ptr = ptr + slotSize;
 368              		.loc 2 18 29 is_stmt 0 discriminator 3
 369 0164 1B87F5FF 		addiw	a4,a1,-1
  18:src/_SlabAllocator.cpp ****         *(void**)ptr = ptr + slotSize;
 370              		.loc 2 18 23 discriminator 3
 371 0168 63D0E602 		ble	a4,a3,.L27
GAS LISTING /tmp/cc6lMr8s.s 			page 9


  19:src/_SlabAllocator.cpp ****         ptr += slotSize;
 372              		.loc 2 19 9 is_stmt 1 discriminator 2
  19:src/_SlabAllocator.cpp ****         ptr += slotSize;
 373              		.loc 2 19 30 is_stmt 0 discriminator 2
 374 016c 03378501 		ld	a4,24(a0)
  19:src/_SlabAllocator.cpp ****         ptr += slotSize;
 375              		.loc 2 19 28 discriminator 2
 376 0170 3387E700 		add	a4,a5,a4
  19:src/_SlabAllocator.cpp ****         ptr += slotSize;
 377              		.loc 2 19 22 discriminator 2
 378 0174 23B0E700 		sd	a4,0(a5)
  20:src/_SlabAllocator.cpp ****     }
 379              		.loc 2 20 9 is_stmt 1 discriminator 2
  20:src/_SlabAllocator.cpp ****     }
 380              		.loc 2 20 16 is_stmt 0 discriminator 2
 381 0178 03378501 		ld	a4,24(a0)
  20:src/_SlabAllocator.cpp ****     }
 382              		.loc 2 20 13 discriminator 2
 383 017c B387E700 		add	a5,a5,a4
 384              	.LVL27:
  18:src/_SlabAllocator.cpp ****         *(void**)ptr = ptr + slotSize;
 385              		.loc 2 18 5 is_stmt 1 discriminator 2
 386 0180 9B861600 		addiw	a3,a3,1
 387              	.LVL28:
 388 0184 6FF01FFE 		j	.L28
 389              	.LVL29:
 390              	.L27:
 391              	.LBE19:
  22:src/_SlabAllocator.cpp **** }
 392              		.loc 2 22 5
  22:src/_SlabAllocator.cpp **** }
 393              		.loc 2 22 18 is_stmt 0
 394 0188 23B00700 		sd	zero,0(a5)
  23:src/_SlabAllocator.cpp **** void* _Slab::alloc() {
 395              		.loc 2 23 1
 396 018c 03348100 		ld	s0,8(sp)
 397              		.cfi_restore 8
 398              		.cfi_def_cfa 2, 16
 399 0190 13010101 		addi	sp,sp,16
 400              		.cfi_def_cfa_offset 0
 401 0194 67800000 		jr	ra
 402              		.cfi_endproc
 403              	.LFE41:
 405              		.align	2
 406              		.globl	_ZN8_ObjSlabC2Emm
 408              	_ZN8_ObjSlabC2Emm:
 409              	.LFB47:
  42:src/_SlabAllocator.cpp ****     prev = next = nullptr;
 410              		.loc 2 42 1 is_stmt 1
 411              		.cfi_startproc
 412              	.LVL30:
 413 0198 130101FD 		addi	sp,sp,-48
 414              		.cfi_def_cfa_offset 48
 415 019c 23341102 		sd	ra,40(sp)
 416 01a0 23308102 		sd	s0,32(sp)
 417 01a4 233C9100 		sd	s1,24(sp)
 418 01a8 23382101 		sd	s2,16(sp)
GAS LISTING /tmp/cc6lMr8s.s 			page 10


 419 01ac 23343101 		sd	s3,8(sp)
 420              		.cfi_offset 1, -8
 421              		.cfi_offset 8, -16
 422              		.cfi_offset 9, -24
 423              		.cfi_offset 18, -32
 424              		.cfi_offset 19, -40
 425 01b0 13040103 		addi	s0,sp,48
 426              		.cfi_def_cfa 8, 0
 427 01b4 93040500 		mv	s1,a0
 428 01b8 93890500 		mv	s3,a1
 429 01bc 13090600 		mv	s2,a2
 430              	.LBB20:
  42:src/_SlabAllocator.cpp ****     prev = next = nullptr;
 431              		.loc 2 42 80 is_stmt 0
 432 01c0 97000000 		call	_ZN5_SlabC2Emm
 432      E7800000 
 433              	.LVL31:
 434 01c8 97070000 		lla	a5,_ZTV8_ObjSlab+16
 434      93870700 
 435 01d0 23B0F400 		sd	a5,0(s1)
  43:src/_SlabAllocator.cpp ****     allocated = 0;
 436              		.loc 2 43 5 is_stmt 1
  43:src/_SlabAllocator.cpp ****     allocated = 0;
 437              		.loc 2 43 17 is_stmt 0
 438 01d4 23B40402 		sd	zero,40(s1)
  43:src/_SlabAllocator.cpp ****     allocated = 0;
 439              		.loc 2 43 10
 440 01d8 23B80402 		sd	zero,48(s1)
  44:src/_SlabAllocator.cpp ****     free = (char*)this + sizeof(_Slab);
 441              		.loc 2 44 5 is_stmt 1
  44:src/_SlabAllocator.cpp ****     free = (char*)this + sizeof(_Slab);
 442              		.loc 2 44 15 is_stmt 0
 443 01dc 23A80400 		sw	zero,16(s1)
  45:src/_SlabAllocator.cpp ****     //Ulancavanje slotova
 444              		.loc 2 45 5 is_stmt 1
  45:src/_SlabAllocator.cpp ****     //Ulancavanje slotova
 445              		.loc 2 45 24 is_stmt 0
 446 01e0 93878403 		addi	a5,s1,56
  45:src/_SlabAllocator.cpp ****     //Ulancavanje slotova
 447              		.loc 2 45 10
 448 01e4 23B4F400 		sd	a5,8(s1)
  47:src/_SlabAllocator.cpp **** }
 449              		.loc 2 47 5 is_stmt 1
  47:src/_SlabAllocator.cpp **** }
 450              		.loc 2 47 20 is_stmt 0
 451 01e8 130989FC 		addi	s2,s2,-56
 452              	.LVL32:
  47:src/_SlabAllocator.cpp **** }
 453              		.loc 2 47 40
 454 01ec B3553903 		divu	a1,s2,s3
  47:src/_SlabAllocator.cpp **** }
 455              		.loc 2 47 9
 456 01f0 9B850500 		sext.w	a1,a1
 457 01f4 13850400 		mv	a0,s1
 458 01f8 97000000 		call	_ZN5_Slab4initEi
 458      E7800000 
 459              	.LVL33:
GAS LISTING /tmp/cc6lMr8s.s 			page 11


 460              	.LBE20:
  48:src/_SlabAllocator.cpp **** bool _ObjSlab::contains(void* adr) {
 461              		.loc 2 48 1
 462 0200 83308102 		ld	ra,40(sp)
 463              		.cfi_restore 1
 464 0204 03340102 		ld	s0,32(sp)
 465              		.cfi_restore 8
 466              		.cfi_def_cfa 2, 48
 467 0208 83348101 		ld	s1,24(sp)
 468              		.cfi_restore 9
 469              	.LVL34:
 470 020c 03390101 		ld	s2,16(sp)
 471              		.cfi_restore 18
 472              	.LVL35:
 473 0210 83398100 		ld	s3,8(sp)
 474              		.cfi_restore 19
 475              	.LVL36:
 476 0214 13010103 		addi	sp,sp,48
 477              		.cfi_def_cfa_offset 0
 478 0218 67800000 		jr	ra
 479              		.cfi_endproc
 480              	.LFE47:
 482              		.globl	_ZN8_ObjSlabC1Emm
 483              		.set	_ZN8_ObjSlabC1Emm,_ZN8_ObjSlabC2Emm
 484              		.align	2
 485              		.globl	_ZN9_BuffSlabC2EmmPv
 487              	_ZN9_BuffSlabC2EmmPv:
 488              	.LFB51:
  52:src/_SlabAllocator.cpp ****     slab = slabSpace;
 489              		.loc 2 52 1 is_stmt 1
 490              		.cfi_startproc
 491              	.LVL37:
 492 021c 130101FD 		addi	sp,sp,-48
 493              		.cfi_def_cfa_offset 48
 494 0220 23341102 		sd	ra,40(sp)
 495 0224 23308102 		sd	s0,32(sp)
 496 0228 233C9100 		sd	s1,24(sp)
 497 022c 23382101 		sd	s2,16(sp)
 498 0230 23343101 		sd	s3,8(sp)
 499 0234 23304101 		sd	s4,0(sp)
 500              		.cfi_offset 1, -8
 501              		.cfi_offset 8, -16
 502              		.cfi_offset 9, -24
 503              		.cfi_offset 18, -32
 504              		.cfi_offset 19, -40
 505              		.cfi_offset 20, -48
 506 0238 13040103 		addi	s0,sp,48
 507              		.cfi_def_cfa 8, 0
 508 023c 93040500 		mv	s1,a0
 509 0240 93890500 		mv	s3,a1
 510 0244 13090600 		mv	s2,a2
 511 0248 138A0600 		mv	s4,a3
 512              	.LBB21:
  52:src/_SlabAllocator.cpp ****     slab = slabSpace;
 513              		.loc 2 52 99 is_stmt 0
 514 024c 97000000 		call	_ZN5_SlabC2Emm
 514      E7800000 
GAS LISTING /tmp/cc6lMr8s.s 			page 12


 515              	.LVL38:
 516 0254 97070000 		lla	a5,_ZTV9_BuffSlab+16
 516      93870700 
 517 025c 23B0F400 		sd	a5,0(s1)
  53:src/_SlabAllocator.cpp ****     prev = next = nullptr;
 518              		.loc 2 53 5 is_stmt 1
  53:src/_SlabAllocator.cpp ****     prev = next = nullptr;
 519              		.loc 2 53 10 is_stmt 0
 520 0260 23BC4403 		sd	s4,56(s1)
  54:src/_SlabAllocator.cpp ****     allocated = 0;
 521              		.loc 2 54 5 is_stmt 1
  54:src/_SlabAllocator.cpp ****     allocated = 0;
 522              		.loc 2 54 17 is_stmt 0
 523 0264 23B40402 		sd	zero,40(s1)
  54:src/_SlabAllocator.cpp ****     allocated = 0;
 524              		.loc 2 54 10
 525 0268 23B80402 		sd	zero,48(s1)
  55:src/_SlabAllocator.cpp ****     free = slab;
 526              		.loc 2 55 5 is_stmt 1
  55:src/_SlabAllocator.cpp ****     free = slab;
 527              		.loc 2 55 15 is_stmt 0
 528 026c 23A80400 		sw	zero,16(s1)
  56:src/_SlabAllocator.cpp ****     this->slotSize = slotSize;
 529              		.loc 2 56 5 is_stmt 1
  56:src/_SlabAllocator.cpp ****     this->slotSize = slotSize;
 530              		.loc 2 56 10 is_stmt 0
 531 0270 23B44401 		sd	s4,8(s1)
  57:src/_SlabAllocator.cpp ****     init(slabSize / slotSize);
 532              		.loc 2 57 5 is_stmt 1
  57:src/_SlabAllocator.cpp ****     init(slabSize / slotSize);
 533              		.loc 2 57 20 is_stmt 0
 534 0274 23BC3401 		sd	s3,24(s1)
  58:src/_SlabAllocator.cpp **** }
 535              		.loc 2 58 5 is_stmt 1
  58:src/_SlabAllocator.cpp **** }
 536              		.loc 2 58 19 is_stmt 0
 537 0278 B3553903 		divu	a1,s2,s3
  58:src/_SlabAllocator.cpp **** }
 538              		.loc 2 58 9
 539 027c 9B850500 		sext.w	a1,a1
 540 0280 13850400 		mv	a0,s1
 541 0284 97000000 		call	_ZN5_Slab4initEi
 541      E7800000 
 542              	.LVL39:
 543              	.LBE21:
  59:src/_SlabAllocator.cpp **** bool _BuffSlab::contains(void* adr) {
 544              		.loc 2 59 1
 545 028c 83308102 		ld	ra,40(sp)
 546              		.cfi_restore 1
 547 0290 03340102 		ld	s0,32(sp)
 548              		.cfi_restore 8
 549              		.cfi_def_cfa 2, 48
 550 0294 83348101 		ld	s1,24(sp)
 551              		.cfi_restore 9
 552              	.LVL40:
 553 0298 03390101 		ld	s2,16(sp)
 554              		.cfi_restore 18
GAS LISTING /tmp/cc6lMr8s.s 			page 13


 555              	.LVL41:
 556 029c 83398100 		ld	s3,8(sp)
 557              		.cfi_restore 19
 558              	.LVL42:
 559 02a0 033A0100 		ld	s4,0(sp)
 560              		.cfi_restore 20
 561              	.LVL43:
 562 02a4 13010103 		addi	sp,sp,48
 563              		.cfi_def_cfa_offset 0
 564 02a8 67800000 		jr	ra
 565              		.cfi_endproc
 566              	.LFE51:
 568              		.globl	_ZN9_BuffSlabC1EmmPv
 569              		.set	_ZN9_BuffSlabC1EmmPv,_ZN9_BuffSlabC2EmmPv
 570              		.align	2
 571              		.globl	_ZN12kmem_cache_t19formatBuffSlabSpaceEP9_BuffSlabPv
 573              	_ZN12kmem_cache_t19formatBuffSlabSpaceEP9_BuffSlabPv:
 574              	.LFB54:
  63:src/_SlabAllocator.cpp **** 
  64:src/_SlabAllocator.cpp **** 
  65:src/_SlabAllocator.cpp **** kmem_cache_t* kmem_cache_t::cacheMem; //memorija u koju se smestaju kesevi
  66:src/_SlabAllocator.cpp **** kmem_cache_t* kmem_cache_t::freeHead; //lista slobodnih
  67:src/_SlabAllocator.cpp **** kmem_cache_t* kmem_cache_t::allocatedHead; //lista zauzetih
  68:src/_SlabAllocator.cpp **** _BuffSlab* kmem_cache_t::buffSlabHead;
  69:src/_SlabAllocator.cpp **** _BuffSlab* kmem_cache_t::formatBuffSlabSpace(_BuffSlab* start, void* end) {
 575              		.loc 2 69 75 is_stmt 1
 576              		.cfi_startproc
 577              	.LVL44:
 578 02ac 130101FD 		addi	sp,sp,-48
 579              		.cfi_def_cfa_offset 48
 580 02b0 23341102 		sd	ra,40(sp)
 581 02b4 23308102 		sd	s0,32(sp)
 582 02b8 233C9100 		sd	s1,24(sp)
 583 02bc 23382101 		sd	s2,16(sp)
 584 02c0 23343101 		sd	s3,8(sp)
 585 02c4 23304101 		sd	s4,0(sp)
 586              		.cfi_offset 1, -8
 587              		.cfi_offset 8, -16
 588              		.cfi_offset 9, -24
 589              		.cfi_offset 18, -32
 590              		.cfi_offset 19, -40
 591              		.cfi_offset 20, -48
 592 02c8 13040103 		addi	s0,sp,48
 593              		.cfi_def_cfa 8, 0
 594 02cc 93040500 		mv	s1,a0
 595 02d0 138A0500 		mv	s4,a1
  70:src/_SlabAllocator.cpp ****     _BuffSlab* prev, *cur;
 596              		.loc 2 70 5
  71:src/_SlabAllocator.cpp ****     prev = nullptr; cur = start;
 597              		.loc 2 71 5
 598              	.LVL45:
 599              		.loc 2 71 21
 600              		.loc 2 71 10 is_stmt 0
 601 02d4 93090000 		li	s3,0
 602 02d8 6F00C000 		j	.L35
 603              	.LVL46:
 604              	.L38:
GAS LISTING /tmp/cc6lMr8s.s 			page 14


  69:src/_SlabAllocator.cpp ****     _BuffSlab* prev, *cur;
 605              		.loc 2 69 75
 606 02dc 93890400 		mv	s3,s1
 607              	.LVL47:
 608 02e0 93040900 		mv	s1,s2
 609              	.LVL48:
 610              	.L35:
  72:src/_SlabAllocator.cpp ****     while (cur + 1 <= end) {
 611              		.loc 2 72 5 is_stmt 1
 612              		.loc 2 72 20
 613              		.loc 2 72 16 is_stmt 0
 614 02e4 13890404 		addi	s2,s1,64
 615              		.loc 2 72 20
 616 02e8 63682A03 		bgtu	s2,s4,.L36
  73:src/_SlabAllocator.cpp ****         new (cur) _BuffSlab();
 617              		.loc 2 73 9 is_stmt 1
 618              		.loc 2 73 29 is_stmt 0
 619 02ec 93850400 		mv	a1,s1
 620 02f0 13050004 		li	a0,64
 621 02f4 97000000 		call	_ZnwmPv@plt
 621      E7800000 
 622              	.LVL49:
 623 02fc 63080500 		beqz	a0,.L37
 624              	.LVL50:
 625              	.LBB22:
 626              	.LBB23:
  25:src/../h/_SlabAllocator.h **** };
  26:src/../h/_SlabAllocator.h **** 
  27:src/../h/_SlabAllocator.h **** class _ObjSlab : public _Slab {
  28:src/../h/_SlabAllocator.h **** public:
  29:src/../h/_SlabAllocator.h ****     _ObjSlab(size_t slotSize, size_t slabSize);
  30:src/../h/_SlabAllocator.h ****     _ObjSlab() {}
  31:src/../h/_SlabAllocator.h ****     virtual bool contains(void* adr);
  32:src/../h/_SlabAllocator.h **** };
  33:src/../h/_SlabAllocator.h **** 
  34:src/../h/_SlabAllocator.h **** class _BuffSlab : public _Slab {
  35:src/../h/_SlabAllocator.h ****     void* slab;
  36:src/../h/_SlabAllocator.h **** public:
  37:src/../h/_SlabAllocator.h ****     _BuffSlab(size_t slotSize, size_t slabSize, void* slabSpace);
  38:src/../h/_SlabAllocator.h ****     _BuffSlab() {}
 627              		.loc 1 38 17
 628 0300 97070000 		lla	a5,_ZTV9_BuffSlab+16
 628      93870700 
 629 0308 2330F500 		sd	a5,0(a0)
 630              	.LVL51:
 631              	.L37:
 632              	.LBE23:
 633              	.LBE22:
  74:src/_SlabAllocator.cpp ****         if (prev) prev->next = cur;
 634              		.loc 2 74 9 is_stmt 1
 635 030c E38809FC 		beqz	s3,.L38
 636              		.loc 2 74 19 discriminator 1
 637              		.loc 2 74 30 is_stmt 0 discriminator 1
 638 0310 23B49902 		sd	s1,40(s3)
 639 0314 6FF09FFC 		j	.L38
 640              	.L36:
  75:src/_SlabAllocator.cpp ****         prev = cur; cur++;
GAS LISTING /tmp/cc6lMr8s.s 			page 15


  76:src/_SlabAllocator.cpp ****     }
  77:src/_SlabAllocator.cpp ****     if (!prev) return nullptr;
 641              		.loc 2 77 5 is_stmt 1
 642 0318 63840900 		beqz	s3,.L34
  78:src/_SlabAllocator.cpp ****     prev->next = nullptr;
 643              		.loc 2 78 5
 644              		.loc 2 78 16 is_stmt 0
 645 031c 23B40902 		sd	zero,40(s3)
  79:src/_SlabAllocator.cpp ****     return prev;
 646              		.loc 2 79 5 is_stmt 1
 647              	.L34:
  80:src/_SlabAllocator.cpp **** }
 648              		.loc 2 80 1 is_stmt 0
 649 0320 13850900 		mv	a0,s3
 650 0324 83308102 		ld	ra,40(sp)
 651              		.cfi_restore 1
 652 0328 03340102 		ld	s0,32(sp)
 653              		.cfi_restore 8
 654              		.cfi_def_cfa 2, 48
 655 032c 83348101 		ld	s1,24(sp)
 656              		.cfi_restore 9
 657              	.LVL52:
 658 0330 03390101 		ld	s2,16(sp)
 659              		.cfi_restore 18
 660              	.LVL53:
 661 0334 83398100 		ld	s3,8(sp)
 662              		.cfi_restore 19
 663              	.LVL54:
 664 0338 033A0100 		ld	s4,0(sp)
 665              		.cfi_restore 20
 666              	.LVL55:
 667 033c 13010103 		addi	sp,sp,48
 668              		.cfi_def_cfa_offset 0
 669 0340 67800000 		jr	ra
 670              		.cfi_endproc
 671              	.LFE54:
 673              		.align	2
 674              		.globl	_ZN12kmem_cache_t19expandBuffSlabSpaceEv
 676              	_ZN12kmem_cache_t19expandBuffSlabSpaceEv:
 677              	.LFB55:
  81:src/_SlabAllocator.cpp **** void kmem_cache_t::expandBuffSlabSpace() {
 678              		.loc 2 81 42 is_stmt 1
 679              		.cfi_startproc
 680 0344 130101FE 		addi	sp,sp,-32
 681              		.cfi_def_cfa_offset 32
 682 0348 233C1100 		sd	ra,24(sp)
 683 034c 23388100 		sd	s0,16(sp)
 684 0350 23349100 		sd	s1,8(sp)
 685              		.cfi_offset 1, -8
 686              		.cfi_offset 8, -16
 687              		.cfi_offset 9, -24
 688 0354 13040102 		addi	s0,sp,32
 689              		.cfi_def_cfa 8, 0
  82:src/_SlabAllocator.cpp ****     _BuffSlab* newspace = (_BuffSlab*)buddy->allocBlock(0);
 690              		.loc 2 82 5
 691              		.loc 2 82 56 is_stmt 0
 692 0358 93050000 		li	a1,0
GAS LISTING /tmp/cc6lMr8s.s 			page 16


 693 035c 17050000 		ld	a0,.LANCHOR0
 693      03350500 
 694 0364 97000000 		call	_ZN10_BuddyTree10allocBlockEi@plt
 694      E7800000 
 695              	.LVL56:
  83:src/_SlabAllocator.cpp ****     if (!newspace) return;
 696              		.loc 2 83 5 is_stmt 1
 697 036c 63060502 		beqz	a0,.L41
 698 0370 93040500 		mv	s1,a0
  84:src/_SlabAllocator.cpp ****     _BuffSlab* last = formatBuffSlabSpace(newspace, (char*)newspace + BLOCK_SIZE);
 699              		.loc 2 84 5
 700              		.loc 2 84 42 is_stmt 0
 701 0374 B7150000 		li	a1,4096
 702 0378 B305B500 		add	a1,a0,a1
 703 037c 97000000 		call	_ZN12kmem_cache_t19formatBuffSlabSpaceEP9_BuffSlabPv
 703      E7800000 
 704              	.LVL57:
  85:src/_SlabAllocator.cpp ****     last->next = buffSlabHead; buffSlabHead = newspace;
 705              		.loc 2 85 5 is_stmt 1
 706              		.loc 2 85 16 is_stmt 0
 707 0384 97070000 		lla	a5,.LANCHOR0
 707      93870700 
 708 038c 03B78700 		ld	a4,8(a5)
 709 0390 2334E502 		sd	a4,40(a0)
 710              		.loc 2 85 32 is_stmt 1
 711              		.loc 2 85 45 is_stmt 0
 712 0394 23B49700 		sd	s1,8(a5)
 713              	.LVL58:
 714              	.L41:
  86:src/_SlabAllocator.cpp **** }
 715              		.loc 2 86 1
 716 0398 83308101 		ld	ra,24(sp)
 717              		.cfi_restore 1
 718 039c 03340101 		ld	s0,16(sp)
 719              		.cfi_restore 8
 720              		.cfi_def_cfa 2, 32
 721 03a0 83348100 		ld	s1,8(sp)
 722              		.cfi_restore 9
 723 03a4 13010102 		addi	sp,sp,32
 724              		.cfi_def_cfa_offset 0
 725 03a8 67800000 		jr	ra
 726              		.cfi_endproc
 727              	.LFE55:
 729              		.align	2
 730              		.globl	_ZN12kmem_cache_t13allocBuffSlabEv
 732              	_ZN12kmem_cache_t13allocBuffSlabEv:
 733              	.LFB56:
  87:src/_SlabAllocator.cpp **** _BuffSlab* kmem_cache_t::allocBuffSlab() {
 734              		.loc 2 87 42 is_stmt 1
 735              		.cfi_startproc
  88:src/_SlabAllocator.cpp ****     if (!buffSlabHead) expandBuffSlabSpace();
 736              		.loc 2 88 5
 737              		.loc 2 88 9 is_stmt 0
 738 03ac 97070000 		ld	a5,.LANCHOR0+8
 738      83B70700 
 739              		.loc 2 88 5
 740 03b4 63800702 		beqz	a5,.L53
GAS LISTING /tmp/cc6lMr8s.s 			page 17


  89:src/_SlabAllocator.cpp ****     if (!buffSlabHead) return nullptr;
 741              		.loc 2 89 5 is_stmt 1
 742              		.loc 2 89 9 is_stmt 0
 743 03b8 17050000 		ld	a0,.LANCHOR0+8
 743      03350500 
 744              		.loc 2 89 5
 745 03c0 630A0504 		beqz	a0,.L49
  90:src/_SlabAllocator.cpp ****     _BuffSlab* ret = buffSlabHead;
 746              		.loc 2 90 5 is_stmt 1
 747              	.LVL59:
  91:src/_SlabAllocator.cpp ****     buffSlabHead = (_BuffSlab*)(ret->next);
 748              		.loc 2 91 5
 749              		.loc 2 91 38 is_stmt 0
 750 03c4 83378502 		ld	a5,40(a0)
 751              		.loc 2 91 18
 752 03c8 17070000 		sd	a5,.LANCHOR0+8,a4
 752      2330F700 
  92:src/_SlabAllocator.cpp ****     return ret;
 753              		.loc 2 92 5 is_stmt 1
 754 03d0 67800000 		ret
 755              	.LVL60:
 756              	.L53:
  87:src/_SlabAllocator.cpp ****     if (!buffSlabHead) expandBuffSlabSpace();
 757              		.loc 2 87 42 is_stmt 0 discriminator 1
 758 03d4 130101FF 		addi	sp,sp,-16
 759              		.cfi_def_cfa_offset 16
 760 03d8 23341100 		sd	ra,8(sp)
 761 03dc 23308100 		sd	s0,0(sp)
 762              		.cfi_offset 1, -8
 763              		.cfi_offset 8, -16
 764 03e0 13040101 		addi	s0,sp,16
 765              		.cfi_def_cfa 8, 0
  88:src/_SlabAllocator.cpp ****     if (!buffSlabHead) return nullptr;
 766              		.loc 2 88 24 is_stmt 1 discriminator 1
  88:src/_SlabAllocator.cpp ****     if (!buffSlabHead) return nullptr;
 767              		.loc 2 88 43 is_stmt 0 discriminator 1
 768 03e4 97000000 		call	_ZN12kmem_cache_t19expandBuffSlabSpaceEv
 768      E7800000 
 769              	.LVL61:
  89:src/_SlabAllocator.cpp ****     _BuffSlab* ret = buffSlabHead;
 770              		.loc 2 89 5 is_stmt 1 discriminator 1
  89:src/_SlabAllocator.cpp ****     _BuffSlab* ret = buffSlabHead;
 771              		.loc 2 89 9 is_stmt 0 discriminator 1
 772 03ec 17050000 		ld	a0,.LANCHOR0+8
 772      03350500 
  89:src/_SlabAllocator.cpp ****     _BuffSlab* ret = buffSlabHead;
 773              		.loc 2 89 5 discriminator 1
 774 03f4 63080500 		beqz	a0,.L44
  90:src/_SlabAllocator.cpp ****     buffSlabHead = (_BuffSlab*)(ret->next);
 775              		.loc 2 90 5 is_stmt 1
 776              	.LVL62:
  91:src/_SlabAllocator.cpp ****     return ret;
 777              		.loc 2 91 5
  91:src/_SlabAllocator.cpp ****     return ret;
 778              		.loc 2 91 38 is_stmt 0
 779 03f8 83378502 		ld	a5,40(a0)
  91:src/_SlabAllocator.cpp ****     return ret;
GAS LISTING /tmp/cc6lMr8s.s 			page 18


 780              		.loc 2 91 18
 781 03fc 17070000 		sd	a5,.LANCHOR0+8,a4
 781      2330F700 
 782              		.loc 2 92 5 is_stmt 1
 783              	.LVL63:
 784              	.L44:
  93:src/_SlabAllocator.cpp **** }
 785              		.loc 2 93 1 is_stmt 0
 786 0404 83308100 		ld	ra,8(sp)
 787              		.cfi_restore 1
 788 0408 03340100 		ld	s0,0(sp)
 789              		.cfi_restore 8
 790              		.cfi_def_cfa 2, 16
 791 040c 13010101 		addi	sp,sp,16
 792              		.cfi_def_cfa_offset 0
 793 0410 67800000 		jr	ra
 794              	.L49:
 795 0414 67800000 		ret
 796              		.cfi_endproc
 797              	.LFE56:
 799              		.align	2
 800              		.globl	_ZN12kmem_cache_t15deallocBuffSlabEP9_BuffSlab
 802              	_ZN12kmem_cache_t15deallocBuffSlabEP9_BuffSlab:
 803              	.LFB57:
  94:src/_SlabAllocator.cpp **** void kmem_cache_t::deallocBuffSlab(_BuffSlab* slab) {
 804              		.loc 2 94 53 is_stmt 1
 805              		.cfi_startproc
 806              	.LVL64:
 807 0418 130101FF 		addi	sp,sp,-16
 808              		.cfi_def_cfa_offset 16
 809 041c 23348100 		sd	s0,8(sp)
 810              		.cfi_offset 8, -8
 811 0420 13040101 		addi	s0,sp,16
 812              		.cfi_def_cfa 8, 0
  95:src/_SlabAllocator.cpp ****     slab->next = buffSlabHead;
 813              		.loc 2 95 5
 814              		.loc 2 95 16 is_stmt 0
 815 0424 97070000 		lla	a5,.LANCHOR0
 815      93870700 
 816 042c 03B78700 		ld	a4,8(a5)
 817 0430 2334E502 		sd	a4,40(a0)
  96:src/_SlabAllocator.cpp ****     buffSlabHead = slab;
 818              		.loc 2 96 5 is_stmt 1
 819              		.loc 2 96 18 is_stmt 0
 820 0434 23B4A700 		sd	a0,8(a5)
  97:src/_SlabAllocator.cpp **** }
 821              		.loc 2 97 1
 822 0438 03348100 		ld	s0,8(sp)
 823              		.cfi_restore 8
 824              		.cfi_def_cfa 2, 16
 825 043c 13010101 		addi	sp,sp,16
 826              		.cfi_def_cfa_offset 0
 827 0440 67800000 		jr	ra
 828              		.cfi_endproc
 829              	.LFE57:
 831              		.align	2
 832              		.globl	_ZN12kmem_cache_t8allocKctEv
GAS LISTING /tmp/cc6lMr8s.s 			page 19


 834              	_ZN12kmem_cache_t8allocKctEv:
 835              	.LFB59:
  98:src/_SlabAllocator.cpp **** void kmem_cache_t::kmem_init(_BuddyTree* bud) {
  99:src/_SlabAllocator.cpp ****     buddy = bud;
 100:src/_SlabAllocator.cpp ****     int buffCnt = buffPowMax - buffPowMin + 1;
 101:src/_SlabAllocator.cpp ****     //size_t cacheMemSize = (MAX + buffCnt) * sizeof(kmem_cache_t);
 102:src/_SlabAllocator.cpp ****     cacheMem = (kmem_cache_t*)buddy->allocBlock(0);
 103:src/_SlabAllocator.cpp ****     //inicijalizacija objektnih keseva
 104:src/_SlabAllocator.cpp ****     kmem_cache_t* prev = nullptr, * cur = nullptr;
 105:src/_SlabAllocator.cpp ****     for (int i = 0; i < MAX; i++) {
 106:src/_SlabAllocator.cpp ****         prev = cur;
 107:src/_SlabAllocator.cpp ****         cur = cacheMem + buffCnt + i;
 108:src/_SlabAllocator.cpp ****         new (cacheMem + buffCnt + i) kmem_cache_t();
 109:src/_SlabAllocator.cpp ****         cur->prev = prev; cur->next = nullptr;
 110:src/_SlabAllocator.cpp ****         if (prev) prev->next = cur;
 111:src/_SlabAllocator.cpp ****     }
 112:src/_SlabAllocator.cpp ****     freeHead = cacheMem + buffCnt;
 113:src/_SlabAllocator.cpp ****     allocatedHead = nullptr;
 114:src/_SlabAllocator.cpp ****     //inicjalizacija bafer slabova
 115:src/_SlabAllocator.cpp ****     buffSlabHead = (_BuffSlab*)(cacheMem + buffCnt + MAX);
 116:src/_SlabAllocator.cpp ****     if (!formatBuffSlabSpace(buffSlabHead, (char*)cacheMem + BLOCK_SIZE)) {
 117:src/_SlabAllocator.cpp ****         buffSlabHead = nullptr; expandBuffSlabSpace();
 118:src/_SlabAllocator.cpp ****     }
 119:src/_SlabAllocator.cpp ****     //inicijalizacija bafer keseva
 120:src/_SlabAllocator.cpp ****     size_t buffSize = 1 << buffPowMin;
 121:src/_SlabAllocator.cpp ****     for (int i = 0; i < buffCnt; i++) {
 122:src/_SlabAllocator.cpp ****         new (cacheMem + i) kmem_cache_t("buffCache", buffSize, nullptr, nullptr, true);
 123:src/_SlabAllocator.cpp ****         buffSize <<= 1;
 124:src/_SlabAllocator.cpp ****     }
 125:src/_SlabAllocator.cpp **** }
 126:src/_SlabAllocator.cpp **** kmem_cache_t* kmem_cache_t::allocKct() {
 836              		.loc 2 126 40 is_stmt 1
 837              		.cfi_startproc
 838 0444 130101FF 		addi	sp,sp,-16
 839              		.cfi_def_cfa_offset 16
 840 0448 23348100 		sd	s0,8(sp)
 841              		.cfi_offset 8, -8
 842 044c 13040101 		addi	s0,sp,16
 843              		.cfi_def_cfa 8, 0
 127:src/_SlabAllocator.cpp ****     if (!freeHead) return nullptr;
 844              		.loc 2 127 5
 845              		.loc 2 127 9 is_stmt 0
 846 0450 17050000 		ld	a0,.LANCHOR0+16
 846      03350500 
 847              		.loc 2 127 5
 848 0458 63080502 		beqz	a0,.L56
 128:src/_SlabAllocator.cpp ****     //izbacuje se iz liste slobodnih
 129:src/_SlabAllocator.cpp ****     kmem_cache_t* ret = freeHead;
 849              		.loc 2 129 5 is_stmt 1
 850              	.LVL65:
 130:src/_SlabAllocator.cpp ****     freeHead = freeHead->next;
 851              		.loc 2 130 5
 852              		.loc 2 130 26 is_stmt 0
 853 045c 83378504 		ld	a5,72(a0)
 854              		.loc 2 130 14
 855 0460 17070000 		sd	a5,.LANCHOR0+16,a4
 855      2330F700 
GAS LISTING /tmp/cc6lMr8s.s 			page 20


 131:src/_SlabAllocator.cpp ****     if (freeHead) freeHead->prev = nullptr;
 856              		.loc 2 131 5 is_stmt 1
 857 0468 63840700 		beqz	a5,.L58
 858              		.loc 2 131 19 discriminator 1
 859              		.loc 2 131 34 is_stmt 0 discriminator 1
 860 046c 23B80704 		sd	zero,80(a5)
 861              	.L58:
 132:src/_SlabAllocator.cpp ****     //ubacuje se u listu alociranih
 133:src/_SlabAllocator.cpp ****     ret->next = allocatedHead; ret->prev = nullptr;
 862              		.loc 2 133 5 is_stmt 1
 863              		.loc 2 133 15 is_stmt 0
 864 0470 97070000 		ld	a5,.LANCHOR0+24
 864      83B70700 
 865 0478 2334F504 		sd	a5,72(a0)
 866              		.loc 2 133 32 is_stmt 1
 867              		.loc 2 133 42 is_stmt 0
 868 047c 23380504 		sd	zero,80(a0)
 134:src/_SlabAllocator.cpp ****     if (allocatedHead) allocatedHead->prev = ret;
 869              		.loc 2 134 5 is_stmt 1
 870 0480 63840700 		beqz	a5,.L56
 871              		.loc 2 134 24 discriminator 1
 872              		.loc 2 134 44 is_stmt 0 discriminator 1
 873 0484 23B8A704 		sd	a0,80(a5)
 874              	.LVL66:
 875              	.L56:
 135:src/_SlabAllocator.cpp ****     return ret;
 136:src/_SlabAllocator.cpp **** }
 876              		.loc 2 136 1
 877 0488 03348100 		ld	s0,8(sp)
 878              		.cfi_restore 8
 879              		.cfi_def_cfa 2, 16
 880 048c 13010101 		addi	sp,sp,16
 881              		.cfi_def_cfa_offset 0
 882 0490 67800000 		jr	ra
 883              		.cfi_endproc
 884              	.LFE59:
 886              		.align	2
 887              		.globl	_ZN12kmem_cache_t10deallocKctEPS_
 889              	_ZN12kmem_cache_t10deallocKctEPS_:
 890              	.LFB60:
 137:src/_SlabAllocator.cpp **** void kmem_cache_t::deallocKct(kmem_cache_t* kct) {
 891              		.loc 2 137 50 is_stmt 1
 892              		.cfi_startproc
 893              	.LVL67:
 894 0494 130101FF 		addi	sp,sp,-16
 895              		.cfi_def_cfa_offset 16
 896 0498 23348100 		sd	s0,8(sp)
 897              		.cfi_offset 8, -8
 898 049c 13040101 		addi	s0,sp,16
 899              		.cfi_def_cfa 8, 0
 138:src/_SlabAllocator.cpp ****     //izbacuje se iz liste alociranih
 139:src/_SlabAllocator.cpp ****     if (kct->prev) kct->prev->next = kct->next;
 900              		.loc 2 139 5
 901              		.loc 2 139 14 is_stmt 0
 902 04a0 83370505 		ld	a5,80(a0)
 903              		.loc 2 139 5
 904 04a4 63840704 		beqz	a5,.L61
GAS LISTING /tmp/cc6lMr8s.s 			page 21


 905              		.loc 2 139 20 is_stmt 1 discriminator 1
 906              		.loc 2 139 43 is_stmt 0 discriminator 1
 907 04a8 03378504 		ld	a4,72(a0)
 908              		.loc 2 139 36 discriminator 1
 909 04ac 23B4E704 		sd	a4,72(a5)
 910              	.L62:
 140:src/_SlabAllocator.cpp ****     else allocatedHead = kct->next;
 141:src/_SlabAllocator.cpp ****     if (kct->next) kct->next->prev = kct->prev;
 911              		.loc 2 141 5 is_stmt 1
 912              		.loc 2 141 14 is_stmt 0
 913 04b0 83378504 		ld	a5,72(a0)
 914              		.loc 2 141 5
 915 04b4 63860700 		beqz	a5,.L63
 916              		.loc 2 141 20 is_stmt 1 discriminator 1
 917              		.loc 2 141 43 is_stmt 0 discriminator 1
 918 04b8 03370505 		ld	a4,80(a0)
 919              		.loc 2 141 36 discriminator 1
 920 04bc 23B8E704 		sd	a4,80(a5)
 921              	.L63:
 142:src/_SlabAllocator.cpp ****     //ubacuje se u listu slobodnih
 143:src/_SlabAllocator.cpp ****     kct->next = freeHead;
 922              		.loc 2 143 5 is_stmt 1
 923              		.loc 2 143 15 is_stmt 0
 924 04c0 97070000 		ld	a5,.LANCHOR0+16
 924      83B70700 
 925 04c8 2334F504 		sd	a5,72(a0)
 144:src/_SlabAllocator.cpp ****     kct->prev = nullptr;
 926              		.loc 2 144 5 is_stmt 1
 927              		.loc 2 144 15 is_stmt 0
 928 04cc 23380504 		sd	zero,80(a0)
 145:src/_SlabAllocator.cpp ****     if (freeHead) freeHead->prev = kct;
 929              		.loc 2 145 5 is_stmt 1
 930 04d0 63840700 		beqz	a5,.L64
 931              		.loc 2 145 19 discriminator 1
 932              		.loc 2 145 34 is_stmt 0 discriminator 1
 933 04d4 23B8A704 		sd	a0,80(a5)
 934              	.L64:
 146:src/_SlabAllocator.cpp ****     freeHead = kct;
 935              		.loc 2 146 5 is_stmt 1
 936              		.loc 2 146 14 is_stmt 0
 937 04d8 97070000 		sd	a0,.LANCHOR0+16,a5
 937      23B0A700 
 147:src/_SlabAllocator.cpp **** }
 938              		.loc 2 147 1
 939 04e0 03348100 		ld	s0,8(sp)
 940              		.cfi_remember_state
 941              		.cfi_restore 8
 942              		.cfi_def_cfa 2, 16
 943 04e4 13010101 		addi	sp,sp,16
 944              		.cfi_def_cfa_offset 0
 945 04e8 67800000 		jr	ra
 946              	.L61:
 947              		.cfi_restore_state
 140:src/_SlabAllocator.cpp ****     if (kct->next) kct->next->prev = kct->prev;
 948              		.loc 2 140 10 is_stmt 1
 140:src/_SlabAllocator.cpp ****     if (kct->next) kct->next->prev = kct->prev;
 949              		.loc 2 140 31 is_stmt 0
GAS LISTING /tmp/cc6lMr8s.s 			page 22


 950 04ec 83378504 		ld	a5,72(a0)
 140:src/_SlabAllocator.cpp ****     if (kct->next) kct->next->prev = kct->prev;
 951              		.loc 2 140 24
 952 04f0 17070000 		sd	a5,.LANCHOR0+24,a4
 952      2330F700 
 953 04f8 6FF09FFB 		j	.L62
 954              		.cfi_endproc
 955              	.LFE60:
 957              		.align	2
 958              		.globl	_ZN12kmem_cache_t12getBuffCacheEm
 960              	_ZN12kmem_cache_t12getBuffCacheEm:
 961              	.LFB61:
 148:src/_SlabAllocator.cpp **** kmem_cache_t* kmem_cache_t::getBuffCache(size_t size) {
 962              		.loc 2 148 55 is_stmt 1
 963              		.cfi_startproc
 964              	.LVL68:
 965 04fc 130101FF 		addi	sp,sp,-16
 966              		.cfi_def_cfa_offset 16
 967 0500 23348100 		sd	s0,8(sp)
 968              		.cfi_offset 8, -8
 969 0504 13040101 		addi	s0,sp,16
 970              		.cfi_def_cfa 8, 0
 149:src/_SlabAllocator.cpp ****     //dohvata BUFFCACHE za bafer prosledjene velicine
 150:src/_SlabAllocator.cpp ****     int pow = 0; size_t buffSize = 1;
 971              		.loc 2 150 5
 972              	.LVL69:
 973              		.loc 2 150 18
 974              		.loc 2 150 25 is_stmt 0
 975 0508 93071000 		li	a5,1
 976              		.loc 2 150 9
 977 050c 13070000 		li	a4,0
 978              	.LVL70:
 979              	.L68:
 151:src/_SlabAllocator.cpp ****     while (buffSize < size) pow++, buffSize <<= 1;
 980              		.loc 2 151 5 is_stmt 1 discriminator 2
 981              		.loc 2 151 21 discriminator 2
 982 0510 63F8A700 		bgeu	a5,a0,.L67
 983              		.loc 2 151 29 discriminator 1
 984              		.loc 2 151 34 is_stmt 0 discriminator 1
 985 0514 1B071700 		addiw	a4,a4,1
 986              	.LVL71:
 987              		.loc 2 151 45 discriminator 1
 988 0518 93971700 		slli	a5,a5,1
 989              	.LVL72:
 990              		.loc 2 151 5 discriminator 1
 991 051c 6FF05FFF 		j	.L68
 992              	.LVL73:
 993              	.L67:
 152:src/_SlabAllocator.cpp ****     if (pow < buffPowMin) pow = buffPowMin;
 994              		.loc 2 152 5 is_stmt 1
 995 0520 93074000 		li	a5,4
 996              	.LVL74:
 997 0524 63DAE700 		ble	a4,a5,.L70
 153:src/_SlabAllocator.cpp ****     if (pow > buffPowMax) pow = buffPowMax;
 998              		.loc 2 153 5
 999 0528 93071001 		li	a5,17
 1000 052c 63D8E700 		ble	a4,a5,.L69
GAS LISTING /tmp/cc6lMr8s.s 			page 23


 1001              		.loc 2 153 31 is_stmt 0
 1002 0530 13071001 		li	a4,17
 1003              	.LVL75:
 1004 0534 6F008000 		j	.L69
 1005              	.LVL76:
 1006              	.L70:
 152:src/_SlabAllocator.cpp ****     if (pow < buffPowMin) pow = buffPowMin;
 1007              		.loc 2 152 31
 1008 0538 13075000 		li	a4,5
 1009              	.LVL77:
 1010              	.L69:
 154:src/_SlabAllocator.cpp ****     return cacheMem + pow - buffPowMin;
 1011              		.loc 2 154 5 is_stmt 1
 1012              		.loc 2 154 27 is_stmt 0
 1013 053c 13151700 		slli	a0,a4,1
 1014              	.LVL78:
 1015 0540 3307E500 		add	a4,a0,a4
 1016              	.LVL79:
 1017 0544 13175700 		slli	a4,a4,5
 1018 0548 130707E2 		addi	a4,a4,-480
 155:src/_SlabAllocator.cpp **** }
 1019              		.loc 2 155 1
 1020 054c 17050000 		ld	a0,.LANCHOR0+32
 1020      03350500 
 1021 0554 3305E500 		add	a0,a0,a4
 1022 0558 03348100 		ld	s0,8(sp)
 1023              		.cfi_restore 8
 1024              		.cfi_def_cfa 2, 16
 1025 055c 13010101 		addi	sp,sp,16
 1026              		.cfi_def_cfa_offset 0
 1027 0560 67800000 		jr	ra
 1028              		.cfi_endproc
 1029              	.LFE61:
 1031              		.align	2
 1032              		.globl	_ZN12kmem_cache_t4moveEPP5_SlabS2_S1_
 1034              	_ZN12kmem_cache_t4moveEPP5_SlabS2_S1_:
 1035              	.LFB62:
 156:src/_SlabAllocator.cpp **** void kmem_cache_t::move(_Slab** listFrom, _Slab** listTo, _Slab* slab) {
 1036              		.loc 2 156 72 is_stmt 1
 1037              		.cfi_startproc
 1038              	.LVL80:
 1039 0564 130101FF 		addi	sp,sp,-16
 1040              		.cfi_def_cfa_offset 16
 1041 0568 23348100 		sd	s0,8(sp)
 1042              		.cfi_offset 8, -8
 1043 056c 13040101 		addi	s0,sp,16
 1044              		.cfi_def_cfa 8, 0
 157:src/_SlabAllocator.cpp ****     //izbacivanje
 158:src/_SlabAllocator.cpp ****     _Slab* prev = slab->prev;
 1045              		.loc 2 158 5
 1046              		.loc 2 158 12 is_stmt 0
 1047 0570 83370603 		ld	a5,48(a2)
 1048              	.LVL81:
 159:src/_SlabAllocator.cpp ****     if (prev) prev->next = slab->next;
 1049              		.loc 2 159 5 is_stmt 1
 1050 0574 63800704 		beqz	a5,.L74
 1051              		.loc 2 159 15 discriminator 1
GAS LISTING /tmp/cc6lMr8s.s 			page 24


 1052              		.loc 2 159 34 is_stmt 0 discriminator 1
 1053 0578 03378602 		ld	a4,40(a2)
 1054              		.loc 2 159 26 discriminator 1
 1055 057c 23B4E702 		sd	a4,40(a5)
 1056              	.L75:
 160:src/_SlabAllocator.cpp ****     else *listFrom = slab->next;
 161:src/_SlabAllocator.cpp ****     _Slab* next = slab->next;
 1057              		.loc 2 161 5 is_stmt 1
 1058              		.loc 2 161 12 is_stmt 0
 1059 0580 03378602 		ld	a4,40(a2)
 1060              	.LVL82:
 162:src/_SlabAllocator.cpp ****     if (next) next->prev = prev;
 1061              		.loc 2 162 5 is_stmt 1
 1062 0584 63040700 		beqz	a4,.L76
 1063              		.loc 2 162 15 discriminator 1
 1064              		.loc 2 162 26 is_stmt 0 discriminator 1
 1065 0588 2338F702 		sd	a5,48(a4)
 1066              	.L76:
 163:src/_SlabAllocator.cpp ****     //ubacivanje
 164:src/_SlabAllocator.cpp ****     slab->next = *listTo; slab->prev = nullptr;
 1067              		.loc 2 164 5 is_stmt 1
 1068              		.loc 2 164 18 is_stmt 0
 1069 058c 83B70500 		ld	a5,0(a1)
 1070              	.LVL83:
 1071              		.loc 2 164 16
 1072 0590 2334F602 		sd	a5,40(a2)
 1073              		.loc 2 164 27 is_stmt 1
 1074              		.loc 2 164 38 is_stmt 0
 1075 0594 23380602 		sd	zero,48(a2)
 165:src/_SlabAllocator.cpp ****     if (*listTo) (*listTo)->prev = slab;
 1076              		.loc 2 165 5 is_stmt 1
 1077              		.loc 2 165 9 is_stmt 0
 1078 0598 83B70500 		ld	a5,0(a1)
 1079              		.loc 2 165 5
 1080 059c 63840700 		beqz	a5,.L77
 1081              		.loc 2 165 18 is_stmt 1 discriminator 1
 1082              		.loc 2 165 34 is_stmt 0 discriminator 1
 1083 05a0 23B8C702 		sd	a2,48(a5)
 1084              	.L77:
 166:src/_SlabAllocator.cpp ****     *listTo = slab;
 1085              		.loc 2 166 5 is_stmt 1
 1086              		.loc 2 166 13 is_stmt 0
 1087 05a4 23B0C500 		sd	a2,0(a1)
 167:src/_SlabAllocator.cpp **** }
 1088              		.loc 2 167 1
 1089 05a8 03348100 		ld	s0,8(sp)
 1090              		.cfi_remember_state
 1091              		.cfi_restore 8
 1092              		.cfi_def_cfa 2, 16
 1093 05ac 13010101 		addi	sp,sp,16
 1094              		.cfi_def_cfa_offset 0
 1095 05b0 67800000 		jr	ra
 1096              	.LVL84:
 1097              	.L74:
 1098              		.cfi_restore_state
 160:src/_SlabAllocator.cpp ****     _Slab* next = slab->next;
 1099              		.loc 2 160 10 is_stmt 1
GAS LISTING /tmp/cc6lMr8s.s 			page 25


 160:src/_SlabAllocator.cpp ****     _Slab* next = slab->next;
 1100              		.loc 2 160 28 is_stmt 0
 1101 05b4 03378602 		ld	a4,40(a2)
 160:src/_SlabAllocator.cpp ****     _Slab* next = slab->next;
 1102              		.loc 2 160 20
 1103 05b8 2330E500 		sd	a4,0(a0)
 1104 05bc 6FF05FFC 		j	.L75
 1105              		.cfi_endproc
 1106              	.LFE62:
 1108              		.align	2
 1109              		.globl	_ZN12kmem_cache_t12calcSlabSizeEv
 1111              	_ZN12kmem_cache_t12calcSlabSizeEv:
 1112              	.LFB64:
 168:src/_SlabAllocator.cpp **** bool kmem_cache_t::deallocBuff(void* buff) {
 169:src/_SlabAllocator.cpp ****     for (int i = 0; i < buffPowMax - buffPowMin + 1; i++) {
 170:src/_SlabAllocator.cpp ****         if (cacheMem[i].dealloc(buff)) return true;
 171:src/_SlabAllocator.cpp ****     }
 172:src/_SlabAllocator.cpp ****     return false;
 173:src/_SlabAllocator.cpp **** }
 174:src/_SlabAllocator.cpp **** 
 175:src/_SlabAllocator.cpp **** void kmem_cache_t::calcSlabSize() {
 1113              		.loc 2 175 35 is_stmt 1
 1114              		.cfi_startproc
 1115              	.LVL85:
 1116 05c0 130101FF 		addi	sp,sp,-16
 1117              		.cfi_def_cfa_offset 16
 1118 05c4 23348100 		sd	s0,8(sp)
 1119              		.cfi_offset 8, -8
 1120 05c8 13040101 		addi	s0,sp,16
 1121              		.cfi_def_cfa 8, 0
 176:src/_SlabAllocator.cpp ****     slabSize = BLOCK_SIZE;
 1122              		.loc 2 176 5
 1123              		.loc 2 176 14 is_stmt 0
 1124 05cc B7170000 		li	a5,4096
 1125 05d0 2334F502 		sd	a5,40(a0)
 177:src/_SlabAllocator.cpp ****     if (buffCache) {
 1126              		.loc 2 177 5 is_stmt 1
 1127              	.LBB24:
 1128              		.loc 2 177 9 is_stmt 0
 1129 05d4 83470504 		lbu	a5,64(a0)
 1130              		.loc 2 177 5
 1131 05d8 638E0700 		beqz	a5,.L80
 1132              	.L82:
 178:src/_SlabAllocator.cpp ****         while (slotSize > slabSize) slabSize <<= 1;
 1133              		.loc 2 178 9 is_stmt 1 discriminator 2
 1134              		.loc 2 178 25 discriminator 2
 1135              		.loc 2 178 16 is_stmt 0 discriminator 2
 1136 05dc 03370502 		ld	a4,32(a0)
 1137              		.loc 2 178 27 discriminator 2
 1138 05e0 83378502 		ld	a5,40(a0)
 1139              		.loc 2 178 25 discriminator 2
 1140 05e4 63F0E704 		bleu	a4,a5,.L79
 1141              		.loc 2 178 37 is_stmt 1 discriminator 1
 1142              		.loc 2 178 46 is_stmt 0 discriminator 1
 1143 05e8 93971700 		slli	a5,a5,1
 1144 05ec 2334F502 		sd	a5,40(a0)
 1145              		.loc 2 178 9 discriminator 1
GAS LISTING /tmp/cc6lMr8s.s 			page 26


 1146 05f0 6FF0DFFE 		j	.L82
 1147              	.L80:
 1148              	.LBB25:
 179:src/_SlabAllocator.cpp ****     }
 180:src/_SlabAllocator.cpp ****     else {
 181:src/_SlabAllocator.cpp ****         size_t headerSize = sizeof(_ObjSlab);
 1149              		.loc 2 181 9 is_stmt 1
 1150              	.LVL86:
 182:src/_SlabAllocator.cpp ****         if (slotSize <= BLOCK_SIZE / 8) return;
 1151              		.loc 2 182 9
 1152              		.loc 2 182 13 is_stmt 0
 1153 05f4 83360502 		ld	a3,32(a0)
 1154              		.loc 2 182 9
 1155 05f8 93070020 		li	a5,512
 1156 05fc 63E8D700 		bgtu	a3,a5,.L84
 1157 0600 6F004002 		j	.L79
 1158              	.L83:
 183:src/_SlabAllocator.cpp ****         else while (slotSize > slabSize - headerSize || (slabSize - headerSize) % slotSize > slotSi
 1159              		.loc 2 183 108 is_stmt 1 discriminator 3
 1160              		.loc 2 183 117 is_stmt 0 discriminator 3
 1161 0604 93971700 		slli	a5,a5,1
 1162 0608 2334F502 		sd	a5,40(a0)
 1163              	.L84:
 1164              		.loc 2 183 14 is_stmt 1 discriminator 4
 1165              		.loc 2 183 54 discriminator 4
 1166              		.loc 2 183 32 is_stmt 0 discriminator 4
 1167 060c 83378502 		ld	a5,40(a0)
 1168              		.loc 2 183 41 discriminator 4
 1169 0610 138787FC 		addi	a4,a5,-56
 1170              		.loc 2 183 54 discriminator 4
 1171 0614 E368D7FE 		bgtu	a3,a4,.L83
 1172              		.loc 2 183 81 discriminator 1
 1173 0618 3377D702 		remu	a4,a4,a3
 1174              		.loc 2 183 103 discriminator 1
 1175 061c 13D63600 		srli	a2,a3,3
 1176              		.loc 2 183 54 discriminator 1
 1177 0620 E362E6FE 		bgtu	a4,a2,.L83
 1178              	.LVL87:
 1179              	.L79:
 1180              	.LBE25:
 1181              	.LBE24:
 184:src/_SlabAllocator.cpp ****     }
 185:src/_SlabAllocator.cpp **** }
 1182              		.loc 2 185 1
 1183 0624 03348100 		ld	s0,8(sp)
 1184              		.cfi_restore 8
 1185              		.cfi_def_cfa 2, 16
 1186 0628 13010101 		addi	sp,sp,16
 1187              		.cfi_def_cfa_offset 0
 1188 062c 67800000 		jr	ra
 1189              		.cfi_endproc
 1190              	.LFE64:
 1192              		.align	2
 1193              		.globl	_ZN12kmem_cache_tC2EPKcmPFvPvES4_b
 1195              	_ZN12kmem_cache_tC2EPKcmPFvPvES4_b:
 1196              	.LFB66:
 186:src/_SlabAllocator.cpp **** kmem_cache_t::kmem_cache_t(const char* name, size_t size, void (*ctor)(void*), void (*dtor)(void*),
GAS LISTING /tmp/cc6lMr8s.s 			page 27


 1197              		.loc 2 186 1 is_stmt 1
 1198              		.cfi_startproc
 1199              	.LVL88:
 1200 0630 130101FF 		addi	sp,sp,-16
 1201              		.cfi_def_cfa_offset 16
 1202 0634 23341100 		sd	ra,8(sp)
 1203 0638 23308100 		sd	s0,0(sp)
 1204              		.cfi_offset 1, -8
 1205              		.cfi_offset 8, -16
 1206 063c 13040101 		addi	s0,sp,16
 1207              		.cfi_def_cfa 8, 0
 1208              	.LBB26:
 1209              		.loc 2 186 115 is_stmt 0
 1210 0640 233C0504 		sd	zero,88(a0)
 187:src/_SlabAllocator.cpp ****     this->name = name;
 1211              		.loc 2 187 5 is_stmt 1
 1212              		.loc 2 187 16 is_stmt 0
 1213 0644 233CB500 		sd	a1,24(a0)
 188:src/_SlabAllocator.cpp ****     this->slotSize = size;
 1214              		.loc 2 188 5 is_stmt 1
 1215              		.loc 2 188 20 is_stmt 0
 1216 0648 2330C502 		sd	a2,32(a0)
 189:src/_SlabAllocator.cpp ****     if (buffCache) {
 1217              		.loc 2 189 5 is_stmt 1
 190:src/_SlabAllocator.cpp ****         //ovde bi trebalo proveriti da li je size stepen dvojke
 191:src/_SlabAllocator.cpp ****     }
 192:src/_SlabAllocator.cpp ****     this->ctor = ctor;
 1218              		.loc 2 192 5
 1219              		.loc 2 192 16 is_stmt 0
 1220 064c 2338D502 		sd	a3,48(a0)
 193:src/_SlabAllocator.cpp ****     this->dtor = dtor;
 1221              		.loc 2 193 5 is_stmt 1
 1222              		.loc 2 193 16 is_stmt 0
 1223 0650 233CE502 		sd	a4,56(a0)
 194:src/_SlabAllocator.cpp ****     this->buffCache = buffCache;
 1224              		.loc 2 194 5 is_stmt 1
 1225              		.loc 2 194 21 is_stmt 0
 1226 0654 2300F504 		sb	a5,64(a0)
 195:src/_SlabAllocator.cpp ****     full = free = partial = nullptr;
 1227              		.loc 2 195 5 is_stmt 1
 1228              		.loc 2 195 27 is_stmt 0
 1229 0658 23380500 		sd	zero,16(a0)
 1230              		.loc 2 195 17
 1231 065c 23340500 		sd	zero,8(a0)
 1232              		.loc 2 195 10
 1233 0660 23300500 		sd	zero,0(a0)
 196:src/_SlabAllocator.cpp ****     err = nullptr;
 1234              		.loc 2 196 5 is_stmt 1
 197:src/_SlabAllocator.cpp ****     calcSlabSize();
 1235              		.loc 2 197 5
 1236              		.loc 2 197 17 is_stmt 0
 1237 0664 97000000 		call	_ZN12kmem_cache_t12calcSlabSizeEv
 1237      E7800000 
 1238              	.LVL89:
 1239              	.LBE26:
 198:src/_SlabAllocator.cpp **** }
 1240              		.loc 2 198 1
GAS LISTING /tmp/cc6lMr8s.s 			page 28


 1241 066c 83308100 		ld	ra,8(sp)
 1242              		.cfi_restore 1
 1243 0670 03340100 		ld	s0,0(sp)
 1244              		.cfi_restore 8
 1245              		.cfi_def_cfa 2, 16
 1246 0674 13010101 		addi	sp,sp,16
 1247              		.cfi_def_cfa_offset 0
 1248 0678 67800000 		jr	ra
 1249              		.cfi_endproc
 1250              	.LFE66:
 1252              		.globl	_ZN12kmem_cache_tC1EPKcmPFvPvES4_b
 1253              		.set	_ZN12kmem_cache_tC1EPKcmPFvPvES4_b,_ZN12kmem_cache_tC2EPKcmPFvPvES4_b
 1254              		.align	2
 1255              		.globl	_ZN12kmem_cache_tC2Ev
 1257              	_ZN12kmem_cache_tC2Ev:
 1258              	.LFB69:
 199:src/_SlabAllocator.cpp **** kmem_cache_t::kmem_cache_t() {
 1259              		.loc 2 199 1 is_stmt 1
 1260              		.cfi_startproc
 1261              	.LVL90:
 1262 067c 130101FF 		addi	sp,sp,-16
 1263              		.cfi_def_cfa_offset 16
 1264 0680 23348100 		sd	s0,8(sp)
 1265              		.cfi_offset 8, -8
 1266 0684 13040101 		addi	s0,sp,16
 1267              		.cfi_def_cfa 8, 0
 1268              	.LBB27:
 1269              		.loc 2 199 28 is_stmt 0
 1270 0688 233C0504 		sd	zero,88(a0)
 200:src/_SlabAllocator.cpp ****     full = free = partial = nullptr;
 1271              		.loc 2 200 5 is_stmt 1
 1272              		.loc 2 200 27 is_stmt 0
 1273 068c 23380500 		sd	zero,16(a0)
 1274              		.loc 2 200 17
 1275 0690 23340500 		sd	zero,8(a0)
 1276              		.loc 2 200 10
 1277 0694 23300500 		sd	zero,0(a0)
 201:src/_SlabAllocator.cpp ****     ctor = dtor = nullptr;
 1278              		.loc 2 201 5 is_stmt 1
 1279              		.loc 2 201 17 is_stmt 0
 1280 0698 233C0502 		sd	zero,56(a0)
 1281              		.loc 2 201 10
 1282 069c 23380502 		sd	zero,48(a0)
 202:src/_SlabAllocator.cpp ****     name = nullptr;
 1283              		.loc 2 202 5 is_stmt 1
 1284              		.loc 2 202 10 is_stmt 0
 1285 06a0 233C0500 		sd	zero,24(a0)
 203:src/_SlabAllocator.cpp ****     next = prev = nullptr;
 1286              		.loc 2 203 5 is_stmt 1
 1287              		.loc 2 203 17 is_stmt 0
 1288 06a4 23380504 		sd	zero,80(a0)
 1289              		.loc 2 203 10
 1290 06a8 23340504 		sd	zero,72(a0)
 204:src/_SlabAllocator.cpp ****     slotSize = slabSize = 0;
 1291              		.loc 2 204 5 is_stmt 1
 1292              		.loc 2 204 25 is_stmt 0
 1293 06ac 23340502 		sd	zero,40(a0)
GAS LISTING /tmp/cc6lMr8s.s 			page 29


 1294              		.loc 2 204 14
 1295 06b0 23300502 		sd	zero,32(a0)
 205:src/_SlabAllocator.cpp ****     buffCache = false;
 1296              		.loc 2 205 5 is_stmt 1
 1297              		.loc 2 205 15 is_stmt 0
 1298 06b4 23000504 		sb	zero,64(a0)
 206:src/_SlabAllocator.cpp ****     err = nullptr;
 1299              		.loc 2 206 5 is_stmt 1
 1300              	.LBE27:
 207:src/_SlabAllocator.cpp **** }
 1301              		.loc 2 207 1 is_stmt 0
 1302 06b8 03348100 		ld	s0,8(sp)
 1303              		.cfi_restore 8
 1304              		.cfi_def_cfa 2, 16
 1305 06bc 13010101 		addi	sp,sp,16
 1306              		.cfi_def_cfa_offset 0
 1307 06c0 67800000 		jr	ra
 1308              		.cfi_endproc
 1309              	.LFE69:
 1311              		.globl	_ZN12kmem_cache_tC1Ev
 1312              		.set	_ZN12kmem_cache_tC1Ev,_ZN12kmem_cache_tC2Ev
 1313              		.section	.rodata.str1.8,"aMS",@progbits,1
 1314              		.align	3
 1315              	.LC0:
 1316 0000 62756666 		.string	"buffCache"
 1316      43616368 
 1316      6500
 1317              		.text
 1318              		.align	2
 1319              		.globl	_ZN12kmem_cache_t9kmem_initEP10_BuddyTree
 1321              	_ZN12kmem_cache_t9kmem_initEP10_BuddyTree:
 1322              	.LFB58:
  98:src/_SlabAllocator.cpp ****     buddy = bud;
 1323              		.loc 2 98 47 is_stmt 1
 1324              		.cfi_startproc
 1325              	.LVL91:
 1326 06c4 130101FD 		addi	sp,sp,-48
 1327              		.cfi_def_cfa_offset 48
 1328 06c8 23341102 		sd	ra,40(sp)
 1329 06cc 23308102 		sd	s0,32(sp)
 1330 06d0 233C9100 		sd	s1,24(sp)
 1331 06d4 23382101 		sd	s2,16(sp)
 1332 06d8 23343101 		sd	s3,8(sp)
 1333              		.cfi_offset 1, -8
 1334              		.cfi_offset 8, -16
 1335              		.cfi_offset 9, -24
 1336              		.cfi_offset 18, -32
 1337              		.cfi_offset 19, -40
 1338 06dc 13040103 		addi	s0,sp,48
 1339              		.cfi_def_cfa 8, 0
  99:src/_SlabAllocator.cpp ****     int buffCnt = buffPowMax - buffPowMin + 1;
 1340              		.loc 2 99 5
  99:src/_SlabAllocator.cpp ****     int buffCnt = buffPowMax - buffPowMin + 1;
 1341              		.loc 2 99 11 is_stmt 0
 1342 06e0 97040000 		lla	s1,.LANCHOR0
 1342      93840400 
 1343 06e8 23B0A400 		sd	a0,0(s1)
GAS LISTING /tmp/cc6lMr8s.s 			page 30


 100:src/_SlabAllocator.cpp ****     //size_t cacheMemSize = (MAX + buffCnt) * sizeof(kmem_cache_t);
 1344              		.loc 2 100 5 is_stmt 1
 1345              	.LVL92:
 102:src/_SlabAllocator.cpp ****     //inicijalizacija objektnih keseva
 1346              		.loc 2 102 5
 102:src/_SlabAllocator.cpp ****     //inicijalizacija objektnih keseva
 1347              		.loc 2 102 48 is_stmt 0
 1348 06ec 93050000 		li	a1,0
 1349 06f0 97000000 		call	_ZN10_BuddyTree10allocBlockEi@plt
 1349      E7800000 
 1350              	.LVL93:
 102:src/_SlabAllocator.cpp ****     //inicijalizacija objektnih keseva
 1351              		.loc 2 102 14
 1352 06f8 23B0A402 		sd	a0,32(s1)
 104:src/_SlabAllocator.cpp ****     for (int i = 0; i < MAX; i++) {
 1353              		.loc 2 104 5 is_stmt 1
 1354              	.LVL94:
 105:src/_SlabAllocator.cpp ****         prev = cur;
 1355              		.loc 2 105 5
 1356              	.LBB28:
 105:src/_SlabAllocator.cpp ****         prev = cur;
 1357              		.loc 2 105 14 is_stmt 0
 1358 06fc 13090000 		li	s2,0
 1359              	.LBE28:
 104:src/_SlabAllocator.cpp ****     for (int i = 0; i < MAX; i++) {
 1360              		.loc 2 104 37
 1361 0700 93090000 		li	s3,0
 1362 0704 6F00C000 		j	.L94
 1363              	.LVL95:
 1364              	.L93:
 1365              	.LBB29:
 105:src/_SlabAllocator.cpp ****         prev = cur;
 1366              		.loc 2 105 5 is_stmt 1 discriminator 2
 1367 0708 1B091900 		addiw	s2,s2,1
 1368              	.LVL96:
 107:src/_SlabAllocator.cpp ****         new (cacheMem + buffCnt + i) kmem_cache_t();
 1369              		.loc 2 107 13 is_stmt 0 discriminator 2
 1370 070c 93890400 		mv	s3,s1
 1371              	.LVL97:
 1372              	.L94:
 105:src/_SlabAllocator.cpp ****         prev = cur;
 1373              		.loc 2 105 23 is_stmt 1 discriminator 1
 1374 0710 93073001 		li	a5,19
 1375 0714 63C82705 		bgt	s2,a5,.L91
 106:src/_SlabAllocator.cpp ****         cur = cacheMem + buffCnt + i;
 1376              		.loc 2 106 9
 1377              	.LVL98:
 107:src/_SlabAllocator.cpp ****         new (cacheMem + buffCnt + i) kmem_cache_t();
 1378              		.loc 2 107 9
 107:src/_SlabAllocator.cpp ****         new (cacheMem + buffCnt + i) kmem_cache_t();
 1379              		.loc 2 107 34 is_stmt 0
 1380 0718 9307D900 		addi	a5,s2,13
 1381 071c 93941700 		slli	s1,a5,1
 1382 0720 B384F400 		add	s1,s1,a5
 1383 0724 93975400 		slli	a5,s1,5
 107:src/_SlabAllocator.cpp ****         new (cacheMem + buffCnt + i) kmem_cache_t();
 1384              		.loc 2 107 13
GAS LISTING /tmp/cc6lMr8s.s 			page 31


 1385 0728 97040000 		ld	s1,.LANCHOR0+32
 1385      83B40400 
 1386 0730 B384F400 		add	s1,s1,a5
 1387              	.LVL99:
 108:src/_SlabAllocator.cpp ****         cur->prev = prev; cur->next = nullptr;
 1388              		.loc 2 108 9 is_stmt 1
 108:src/_SlabAllocator.cpp ****         cur->prev = prev; cur->next = nullptr;
 1389              		.loc 2 108 51 is_stmt 0
 1390 0734 93850400 		mv	a1,s1
 1391 0738 13050006 		li	a0,96
 1392 073c 97000000 		call	_ZnwmPv@plt
 1392      E7800000 
 1393              	.LVL100:
 1394 0744 63060500 		beqz	a0,.L92
 108:src/_SlabAllocator.cpp ****         cur->prev = prev; cur->next = nullptr;
 1395              		.loc 2 108 51 discriminator 1
 1396 0748 97000000 		call	_ZN12kmem_cache_tC1Ev
 1396      E7800000 
 1397              	.LVL101:
 1398              	.L92:
 109:src/_SlabAllocator.cpp ****         if (prev) prev->next = cur;
 1399              		.loc 2 109 9 is_stmt 1
 109:src/_SlabAllocator.cpp ****         if (prev) prev->next = cur;
 1400              		.loc 2 109 19 is_stmt 0
 1401 0750 23B83405 		sd	s3,80(s1)
 109:src/_SlabAllocator.cpp ****         if (prev) prev->next = cur;
 1402              		.loc 2 109 27 is_stmt 1
 109:src/_SlabAllocator.cpp ****         if (prev) prev->next = cur;
 1403              		.loc 2 109 37 is_stmt 0
 1404 0754 23B40404 		sd	zero,72(s1)
 110:src/_SlabAllocator.cpp ****     }
 1405              		.loc 2 110 9 is_stmt 1
 1406 0758 E38809FA 		beqz	s3,.L93
 110:src/_SlabAllocator.cpp ****     }
 1407              		.loc 2 110 19 discriminator 1
 110:src/_SlabAllocator.cpp ****     }
 1408              		.loc 2 110 30 is_stmt 0 discriminator 1
 1409 075c 23B49904 		sd	s1,72(s3)
 1410 0760 6FF09FFA 		j	.L93
 1411              	.LVL102:
 1412              	.L91:
 1413              	.LBE29:
 112:src/_SlabAllocator.cpp ****     allocatedHead = nullptr;
 1414              		.loc 2 112 5 is_stmt 1
 112:src/_SlabAllocator.cpp ****     allocatedHead = nullptr;
 1415              		.loc 2 112 25 is_stmt 0
 1416 0764 97070000 		lla	a5,.LANCHOR0
 1416      93870700 
 1417 076c 03B70702 		ld	a4,32(a5)
 1418 0770 9306074E 		addi	a3,a4,1248
 112:src/_SlabAllocator.cpp ****     allocatedHead = nullptr;
 1419              		.loc 2 112 14
 1420 0774 23B8D700 		sd	a3,16(a5)
 113:src/_SlabAllocator.cpp ****     //inicjalizacija bafer slabova
 1421              		.loc 2 113 5 is_stmt 1
 113:src/_SlabAllocator.cpp ****     //inicjalizacija bafer slabova
 1422              		.loc 2 113 19 is_stmt 0
GAS LISTING /tmp/cc6lMr8s.s 			page 32


 1423 0778 23BC0700 		sd	zero,24(a5)
 115:src/_SlabAllocator.cpp ****     if (!formatBuffSlabSpace(buffSlabHead, (char*)cacheMem + BLOCK_SIZE)) {
 1424              		.loc 2 115 5 is_stmt 1
 115:src/_SlabAllocator.cpp ****     if (!formatBuffSlabSpace(buffSlabHead, (char*)cacheMem + BLOCK_SIZE)) {
 1425              		.loc 2 115 52 is_stmt 0
 1426 077c B7150000 		li	a1,4096
 1427 0780 138505C6 		addi	a0,a1,-928
 1428 0784 3305A700 		add	a0,a4,a0
 115:src/_SlabAllocator.cpp ****     if (!formatBuffSlabSpace(buffSlabHead, (char*)cacheMem + BLOCK_SIZE)) {
 1429              		.loc 2 115 18
 1430 0788 23B4A700 		sd	a0,8(a5)
 116:src/_SlabAllocator.cpp ****         buffSlabHead = nullptr; expandBuffSlabSpace();
 1431              		.loc 2 116 5 is_stmt 1
 116:src/_SlabAllocator.cpp ****         buffSlabHead = nullptr; expandBuffSlabSpace();
 1432              		.loc 2 116 29 is_stmt 0
 1433 078c B305B700 		add	a1,a4,a1
 1434 0790 97000000 		call	_ZN12kmem_cache_t19formatBuffSlabSpaceEP9_BuffSlabPv
 1434      E7800000 
 1435              	.LVL103:
 116:src/_SlabAllocator.cpp ****         buffSlabHead = nullptr; expandBuffSlabSpace();
 1436              		.loc 2 116 5
 1437 0798 63080500 		beqz	a0,.L100
 1438              	.L95:
 1439              	.LBB30:
 107:src/_SlabAllocator.cpp ****         new (cacheMem + buffCnt + i) kmem_cache_t();
 1440              		.loc 2 107 13 discriminator 1
 1441 079c 93040000 		li	s1,0
 1442 07a0 13090002 		li	s2,32
 1443              	.LVL104:
 1444 07a4 6F000002 		j	.L98
 1445              	.LVL105:
 1446              	.L100:
 1447              	.LBE30:
 117:src/_SlabAllocator.cpp ****     }
 1448              		.loc 2 117 9 is_stmt 1
 117:src/_SlabAllocator.cpp ****     }
 1449              		.loc 2 117 22 is_stmt 0
 1450 07a8 97070000 		sd	zero,.LANCHOR0+8,a5
 1450      23B00700 
 117:src/_SlabAllocator.cpp ****     }
 1451              		.loc 2 117 33 is_stmt 1
 117:src/_SlabAllocator.cpp ****     }
 1452              		.loc 2 117 52 is_stmt 0
 1453 07b0 97000000 		call	_ZN12kmem_cache_t19expandBuffSlabSpaceEv
 1453      E7800000 
 1454              	.LVL106:
 1455 07b8 6FF05FFE 		j	.L95
 1456              	.LVL107:
 1457              	.L97:
 1458              	.LBB31:
 123:src/_SlabAllocator.cpp ****     }
 1459              		.loc 2 123 9 is_stmt 1 discriminator 2
 123:src/_SlabAllocator.cpp ****     }
 1460              		.loc 2 123 18 is_stmt 0 discriminator 2
 1461 07bc 13191900 		slli	s2,s2,1
 1462              	.LVL108:
 121:src/_SlabAllocator.cpp ****         new (cacheMem + i) kmem_cache_t("buffCache", buffSize, nullptr, nullptr, true);
GAS LISTING /tmp/cc6lMr8s.s 			page 33


 1463              		.loc 2 121 5 is_stmt 1 discriminator 2
 1464 07c0 9B841400 		addiw	s1,s1,1
 1465              	.LVL109:
 1466              	.L98:
 121:src/_SlabAllocator.cpp ****         new (cacheMem + i) kmem_cache_t("buffCache", buffSize, nullptr, nullptr, true);
 1467              		.loc 2 121 23 discriminator 1
 1468 07c4 9307C000 		li	a5,12
 1469 07c8 63C89704 		bgt	s1,a5,.L90
 122:src/_SlabAllocator.cpp ****         buffSize <<= 1;
 1470              		.loc 2 122 9
 122:src/_SlabAllocator.cpp ****         buffSize <<= 1;
 1471              		.loc 2 122 23 is_stmt 0
 1472 07cc 93971400 		slli	a5,s1,1
 1473 07d0 B3879700 		add	a5,a5,s1
 1474 07d4 93975700 		slli	a5,a5,5
 122:src/_SlabAllocator.cpp ****         buffSize <<= 1;
 1475              		.loc 2 122 86
 1476 07d8 97050000 		ld	a1,.LANCHOR0+32
 1476      83B50500 
 1477 07e0 B385F500 		add	a1,a1,a5
 1478 07e4 13050006 		li	a0,96
 1479 07e8 97000000 		call	_ZnwmPv@plt
 1479      E7800000 
 1480              	.LVL110:
 1481 07f0 E30605FC 		beqz	a0,.L97
 122:src/_SlabAllocator.cpp ****         buffSize <<= 1;
 1482              		.loc 2 122 86 discriminator 1
 1483 07f4 93071000 		li	a5,1
 1484 07f8 13070000 		li	a4,0
 1485 07fc 93060000 		li	a3,0
 1486 0800 13060900 		mv	a2,s2
 1487 0804 97050000 		lla	a1,.LC0
 1487      93850500 
 1488 080c 97000000 		call	_ZN12kmem_cache_tC1EPKcmPFvPvES4_b
 1488      E7800000 
 1489              	.LVL111:
 1490 0814 6FF09FFA 		j	.L97
 1491              	.L90:
 1492              	.LBE31:
 125:src/_SlabAllocator.cpp **** kmem_cache_t* kmem_cache_t::allocKct() {
 1493              		.loc 2 125 1
 1494 0818 83308102 		ld	ra,40(sp)
 1495              		.cfi_restore 1
 1496 081c 03340102 		ld	s0,32(sp)
 1497              		.cfi_restore 8
 1498              		.cfi_def_cfa 2, 48
 1499 0820 83348101 		ld	s1,24(sp)
 1500              		.cfi_restore 9
 1501              	.LVL112:
 1502 0824 03390101 		ld	s2,16(sp)
 1503              		.cfi_restore 18
 1504              	.LVL113:
 1505 0828 83398100 		ld	s3,8(sp)
 1506              		.cfi_restore 19
 1507              	.LVL114:
 1508 082c 13010103 		addi	sp,sp,48
 1509              		.cfi_def_cfa_offset 0
GAS LISTING /tmp/cc6lMr8s.s 			page 34


 1510 0830 67800000 		jr	ra
 1511              		.cfi_endproc
 1512              	.LFE58:
 1514              		.align	2
 1515              		.globl	_ZN12kmem_cache_t12deallocSlabsEP5_Slab
 1517              	_ZN12kmem_cache_t12deallocSlabsEP5_Slab:
 1518              	.LFB71:
 208:src/_SlabAllocator.cpp **** void kmem_cache_t::deallocSlabs(_Slab* head) {
 1519              		.loc 2 208 46 is_stmt 1
 1520              		.cfi_startproc
 1521              	.LVL115:
 1522 0834 130101FD 		addi	sp,sp,-48
 1523              		.cfi_def_cfa_offset 48
 1524 0838 23341102 		sd	ra,40(sp)
 1525 083c 23308102 		sd	s0,32(sp)
 1526 0840 233C9100 		sd	s1,24(sp)
 1527 0844 23382101 		sd	s2,16(sp)
 1528 0848 23343101 		sd	s3,8(sp)
 1529              		.cfi_offset 1, -8
 1530              		.cfi_offset 8, -16
 1531              		.cfi_offset 9, -24
 1532              		.cfi_offset 18, -32
 1533              		.cfi_offset 19, -40
 1534 084c 13040103 		addi	s0,sp,48
 1535              		.cfi_def_cfa 8, 0
 1536 0850 93090500 		mv	s3,a0
 1537 0854 93840500 		mv	s1,a1
 209:src/_SlabAllocator.cpp ****     _Slab* cur = head;
 1538              		.loc 2 209 5
 1539              	.LVL116:
 1540 0858 6F00C001 		j	.L102
 1541              	.LVL117:
 1542              	.L104:
 1543              	.LBB32:
 1544              	.LBB33:
 210:src/_SlabAllocator.cpp ****     while (cur) {
 211:src/_SlabAllocator.cpp ****         _Slab* tmp = cur;
 212:src/_SlabAllocator.cpp ****         cur = cur->next;
 213:src/_SlabAllocator.cpp ****         if (buffCache) {
 214:src/_SlabAllocator.cpp ****             _BuffSlab* t = (_BuffSlab*)tmp;
 215:src/_SlabAllocator.cpp ****             buddy->dealloc(t->getSlab());
 216:src/_SlabAllocator.cpp ****             deallocBuffSlab(t);
 217:src/_SlabAllocator.cpp ****         }
 218:src/_SlabAllocator.cpp ****         else buddy->dealloc(tmp);
 1545              		.loc 2 218 14
 1546              		.loc 2 218 28 is_stmt 0
 1547 085c 93850400 		mv	a1,s1
 1548 0860 17050000 		ld	a0,.LANCHOR0
 1548      03350500 
 1549 0868 97000000 		call	_ZN10_BuddyTree7deallocEPv@plt
 1549      E7800000 
 1550              	.LVL118:
 1551              	.L105:
 1552              	.LBE33:
 1553              	.LBE32:
 208:src/_SlabAllocator.cpp ****     _Slab* cur = head;
 1554              		.loc 2 208 46
GAS LISTING /tmp/cc6lMr8s.s 			page 35


 1555 0870 93040900 		mv	s1,s2
 1556              	.LVL119:
 1557              	.L102:
 210:src/_SlabAllocator.cpp ****     while (cur) {
 1558              		.loc 2 210 5 is_stmt 1
 210:src/_SlabAllocator.cpp ****     while (cur) {
 1559              		.loc 2 210 12
 1560 0874 638A0402 		beqz	s1,.L101
 1561              	.LBB38:
 211:src/_SlabAllocator.cpp ****         cur = cur->next;
 1562              		.loc 2 211 9
 1563              	.LVL120:
 212:src/_SlabAllocator.cpp ****         if (buffCache) {
 1564              		.loc 2 212 9
 212:src/_SlabAllocator.cpp ****         if (buffCache) {
 1565              		.loc 2 212 13 is_stmt 0
 1566 0878 03B98402 		ld	s2,40(s1)
 1567              	.LVL121:
 213:src/_SlabAllocator.cpp ****             _BuffSlab* t = (_BuffSlab*)tmp;
 1568              		.loc 2 213 9 is_stmt 1
 1569              	.LBB37:
 213:src/_SlabAllocator.cpp ****             _BuffSlab* t = (_BuffSlab*)tmp;
 1570              		.loc 2 213 13 is_stmt 0
 1571 087c 83C70904 		lbu	a5,64(s3)
 213:src/_SlabAllocator.cpp ****             _BuffSlab* t = (_BuffSlab*)tmp;
 1572              		.loc 2 213 9
 1573 0880 E38E07FC 		beqz	a5,.L104
 1574              	.LBB34:
 214:src/_SlabAllocator.cpp ****             buddy->dealloc(t->getSlab());
 1575              		.loc 2 214 13 is_stmt 1
 1576              	.LVL122:
 215:src/_SlabAllocator.cpp ****             deallocBuffSlab(t);
 1577              		.loc 2 215 13
 1578              	.LBB35:
 1579              	.LBB36:
  39:src/../h/_SlabAllocator.h ****     virtual bool contains(void* adr);
  40:src/../h/_SlabAllocator.h ****     void* getSlab() { return slab; }
 1580              		.loc 1 40 23
 1581              	.LBE36:
 1582              	.LBE35:
 215:src/_SlabAllocator.cpp ****             deallocBuffSlab(t);
 1583              		.loc 2 215 27 is_stmt 0
 1584 0884 83B58403 		ld	a1,56(s1)
 1585 0888 17050000 		ld	a0,.LANCHOR0
 1585      03350500 
 1586 0890 97000000 		call	_ZN10_BuddyTree7deallocEPv@plt
 1586      E7800000 
 1587              	.LVL123:
 216:src/_SlabAllocator.cpp ****         }
 1588              		.loc 2 216 13 is_stmt 1
 216:src/_SlabAllocator.cpp ****         }
 1589              		.loc 2 216 28 is_stmt 0
 1590 0898 13850400 		mv	a0,s1
 1591 089c 97000000 		call	_ZN12kmem_cache_t15deallocBuffSlabEP9_BuffSlab
 1591      E7800000 
 1592              	.LVL124:
 1593              	.LBE34:
GAS LISTING /tmp/cc6lMr8s.s 			page 36


 1594 08a4 6FF0DFFC 		j	.L105
 1595              	.LVL125:
 1596              	.L101:
 1597              	.LBE37:
 1598              	.LBE38:
 219:src/_SlabAllocator.cpp ****     }
 220:src/_SlabAllocator.cpp **** }
 1599              		.loc 2 220 1
 1600 08a8 83308102 		ld	ra,40(sp)
 1601              		.cfi_restore 1
 1602 08ac 03340102 		ld	s0,32(sp)
 1603              		.cfi_restore 8
 1604              		.cfi_def_cfa 2, 48
 1605 08b0 83348101 		ld	s1,24(sp)
 1606              		.cfi_restore 9
 1607              	.LVL126:
 1608 08b4 03390101 		ld	s2,16(sp)
 1609              		.cfi_restore 18
 1610 08b8 83398100 		ld	s3,8(sp)
 1611              		.cfi_restore 19
 1612              	.LVL127:
 1613 08bc 13010103 		addi	sp,sp,48
 1614              		.cfi_def_cfa_offset 0
 1615 08c0 67800000 		jr	ra
 1616              		.cfi_endproc
 1617              	.LFE71:
 1619              		.align	2
 1620              		.globl	_ZN12kmem_cache_tD2Ev
 1622              	_ZN12kmem_cache_tD2Ev:
 1623              	.LFB73:
 221:src/_SlabAllocator.cpp **** kmem_cache_t::~kmem_cache_t() {
 1624              		.loc 2 221 1 is_stmt 1
 1625              		.cfi_startproc
 1626              		.cfi_personality 0x9b,DW.ref.__gxx_personality_v0
 1627              		.cfi_lsda 0x1b,.LLSDA73
 1628              	.LVL128:
 1629 08c4 130101FE 		addi	sp,sp,-32
 1630              		.cfi_def_cfa_offset 32
 1631 08c8 233C1100 		sd	ra,24(sp)
 1632 08cc 23388100 		sd	s0,16(sp)
 1633 08d0 23349100 		sd	s1,8(sp)
 1634              		.cfi_offset 1, -8
 1635              		.cfi_offset 8, -16
 1636              		.cfi_offset 9, -24
 1637 08d4 13040102 		addi	s0,sp,32
 1638              		.cfi_def_cfa 8, 0
 1639 08d8 93040500 		mv	s1,a0
 1640              	.LBB39:
 222:src/_SlabAllocator.cpp ****     //dealokacija i reset podataka
 223:src/_SlabAllocator.cpp ****     deallocSlabs(full); deallocSlabs(partial); deallocSlabs(free);
 1641              		.loc 2 223 5
 1642              		.loc 2 223 17 is_stmt 0
 1643 08dc 83350500 		ld	a1,0(a0)
 1644 08e0 97000000 		call	_ZN12kmem_cache_t12deallocSlabsEP5_Slab
 1644      E7800000 
 1645              	.LVL129:
 1646              		.loc 2 223 25 is_stmt 1
GAS LISTING /tmp/cc6lMr8s.s 			page 37


 1647              		.loc 2 223 37 is_stmt 0
 1648 08e8 83B50401 		ld	a1,16(s1)
 1649 08ec 13850400 		mv	a0,s1
 1650 08f0 97000000 		call	_ZN12kmem_cache_t12deallocSlabsEP5_Slab
 1650      E7800000 
 1651              	.LVL130:
 1652              		.loc 2 223 48 is_stmt 1
 1653              		.loc 2 223 60 is_stmt 0
 1654 08f8 83B58400 		ld	a1,8(s1)
 1655 08fc 13850400 		mv	a0,s1
 1656 0900 97000000 		call	_ZN12kmem_cache_t12deallocSlabsEP5_Slab
 1656      E7800000 
 1657              	.LVL131:
 224:src/_SlabAllocator.cpp ****     full = partial = free = nullptr;
 1658              		.loc 2 224 5 is_stmt 1
 225:src/_SlabAllocator.cpp ****     ctor = dtor = nullptr;
 1659              		.loc 2 225 5
 226:src/_SlabAllocator.cpp ****     name = nullptr;
 1660              		.loc 2 226 5
 227:src/_SlabAllocator.cpp ****     slotSize = slabSize = 0;
 1661              		.loc 2 227 5
 228:src/_SlabAllocator.cpp ****     buffCache = false;
 1662              		.loc 2 228 5
 229:src/_SlabAllocator.cpp ****     err = nullptr;
 1663              		.loc 2 229 5
 1664              	.LBE39:
 230:src/_SlabAllocator.cpp **** }
 1665              		.loc 2 230 1 is_stmt 0
 1666 0908 83308101 		ld	ra,24(sp)
 1667              		.cfi_restore 1
 1668 090c 03340101 		ld	s0,16(sp)
 1669              		.cfi_restore 8
 1670              		.cfi_def_cfa 2, 32
 1671 0910 83348100 		ld	s1,8(sp)
 1672              		.cfi_restore 9
 1673              	.LVL132:
 1674 0914 13010102 		addi	sp,sp,32
 1675              		.cfi_def_cfa_offset 0
 1676 0918 67800000 		jr	ra
 1677              		.cfi_endproc
 1678              	.LFE73:
 1679              		.globl	__gxx_personality_v0
 1680              		.section	.gcc_except_table,"a",@progbits
 1681              	.LLSDA73:
 1682 0000 FF       		.byte	0xff
 1683 0001 FF       		.byte	0xff
 1684 0002 03       		.byte	0x3
 1685 0003 00       		.byte	0
 1686              		.text
 1688              		.globl	_ZN12kmem_cache_tD1Ev
 1689              		.set	_ZN12kmem_cache_tD1Ev,_ZN12kmem_cache_tD2Ev
 1690              		.align	2
 1691              		.globl	_ZN12kmem_cache_t9allocSlabEv
 1693              	_ZN12kmem_cache_t9allocSlabEv:
 1694              	.LFB75:
 231:src/_SlabAllocator.cpp **** _Slab* kmem_cache_t::allocSlab() {
 1695              		.loc 2 231 34 is_stmt 1
GAS LISTING /tmp/cc6lMr8s.s 			page 38


 1696              		.cfi_startproc
 1697              	.LVL133:
 1698 091c 130101FD 		addi	sp,sp,-48
 1699              		.cfi_def_cfa_offset 48
 1700 0920 23341102 		sd	ra,40(sp)
 1701 0924 23308102 		sd	s0,32(sp)
 1702 0928 233C9100 		sd	s1,24(sp)
 1703 092c 23382101 		sd	s2,16(sp)
 1704 0930 23343101 		sd	s3,8(sp)
 1705              		.cfi_offset 1, -8
 1706              		.cfi_offset 8, -16
 1707              		.cfi_offset 9, -24
 1708              		.cfi_offset 18, -32
 1709              		.cfi_offset 19, -40
 1710 0934 13040103 		addi	s0,sp,48
 1711              		.cfi_def_cfa 8, 0
 1712 0938 93040500 		mv	s1,a0
 232:src/_SlabAllocator.cpp ****     if (buffCache) {
 1713              		.loc 2 232 5
 1714              	.LBB40:
 1715              		.loc 2 232 9 is_stmt 0
 1716 093c 83470504 		lbu	a5,64(a0)
 1717              		.loc 2 232 5
 1718 0940 63880706 		beqz	a5,.L110
 1719              	.LBB41:
 233:src/_SlabAllocator.cpp ****         _BuffSlab* slab = allocBuffSlab();
 1720              		.loc 2 233 9 is_stmt 1
 1721              		.loc 2 233 40 is_stmt 0
 1722 0944 97000000 		call	_ZN12kmem_cache_t13allocBuffSlabEv
 1722      E7800000 
 1723              	.LVL134:
 1724 094c 13090500 		mv	s2,a0
 1725              	.LVL135:
 234:src/_SlabAllocator.cpp ****         if (!slab) return nullptr;
 1726              		.loc 2 234 9 is_stmt 1
 1727 0950 6300050A 		beqz	a0,.L109
 235:src/_SlabAllocator.cpp ****         void* slabSpace = buddy->alloc(slabSize);
 1728              		.loc 2 235 9
 1729              		.loc 2 235 39 is_stmt 0
 1730 0954 83B58402 		ld	a1,40(s1)
 1731 0958 17050000 		ld	a0,.LANCHOR0
 1731      03350500 
 1732              	.LVL136:
 1733 0960 97000000 		call	_ZN10_BuddyTree5allocEm@plt
 1733      E7800000 
 1734              	.LVL137:
 1735 0968 93090500 		mv	s3,a0
 1736              	.LVL138:
 236:src/_SlabAllocator.cpp ****         if (!slabSpace) { deallocBuffSlab(slab); return nullptr; }
 1737              		.loc 2 236 9 is_stmt 1
 1738 096c 63080502 		beqz	a0,.L116
 237:src/_SlabAllocator.cpp ****         new (slab) _BuffSlab(slotSize, slabSize, slabSpace);
 1739              		.loc 2 237 9
 1740              		.loc 2 237 59 is_stmt 0
 1741 0970 93050900 		mv	a1,s2
 1742 0974 13050004 		li	a0,64
 1743              	.LVL139:
GAS LISTING /tmp/cc6lMr8s.s 			page 39


 1744 0978 97000000 		call	_ZnwmPv@plt
 1744      E7800000 
 1745              	.LVL140:
 1746 0980 63080506 		beqz	a0,.L109
 1747              		.loc 2 237 59 discriminator 1
 1748 0984 93860900 		mv	a3,s3
 1749 0988 03B68402 		ld	a2,40(s1)
 1750 098c 83B50402 		ld	a1,32(s1)
 1751 0990 97000000 		call	_ZN9_BuffSlabC1EmmPv
 1751      E7800000 
 1752              	.LVL141:
 238:src/_SlabAllocator.cpp ****         return slab;
 1753              		.loc 2 238 9 is_stmt 1 discriminator 1
 1754              		.loc 2 238 16 is_stmt 0 discriminator 1
 1755 0998 6F008005 		j	.L109
 1756              	.LVL142:
 1757              	.L116:
 236:src/_SlabAllocator.cpp ****         if (!slabSpace) { deallocBuffSlab(slab); return nullptr; }
 1758              		.loc 2 236 27 is_stmt 1 discriminator 1
 236:src/_SlabAllocator.cpp ****         if (!slabSpace) { deallocBuffSlab(slab); return nullptr; }
 1759              		.loc 2 236 42 is_stmt 0 discriminator 1
 1760 099c 13050900 		mv	a0,s2
 1761              	.LVL143:
 1762 09a0 97000000 		call	_ZN12kmem_cache_t15deallocBuffSlabEP9_BuffSlab
 1762      E7800000 
 1763              	.LVL144:
 236:src/_SlabAllocator.cpp ****         if (!slabSpace) { deallocBuffSlab(slab); return nullptr; }
 1764              		.loc 2 236 50 is_stmt 1 discriminator 1
 236:src/_SlabAllocator.cpp ****         if (!slabSpace) { deallocBuffSlab(slab); return nullptr; }
 1765              		.loc 2 236 57 is_stmt 0 discriminator 1
 1766 09a8 13890900 		mv	s2,s3
 1767              	.LVL145:
 1768 09ac 6F004004 		j	.L109
 1769              	.LVL146:
 1770              	.L110:
 1771              	.LBE41:
 1772              	.LBB42:
 239:src/_SlabAllocator.cpp ****     }
 240:src/_SlabAllocator.cpp ****     else {
 241:src/_SlabAllocator.cpp ****         _ObjSlab* ret = (_ObjSlab*)buddy->alloc(slabSize);
 1773              		.loc 2 241 9 is_stmt 1
 1774              		.loc 2 241 48 is_stmt 0
 1775 09b0 83358502 		ld	a1,40(a0)
 1776 09b4 17050000 		ld	a0,.LANCHOR0
 1776      03350500 
 1777 09bc 97000000 		call	_ZN10_BuddyTree5allocEm@plt
 1777      E7800000 
 1778              	.LVL147:
 1779 09c4 13090500 		mv	s2,a0
 1780              	.LVL148:
 242:src/_SlabAllocator.cpp ****         if (!ret) return nullptr;
 1781              		.loc 2 242 9 is_stmt 1
 1782 09c8 63040502 		beqz	a0,.L109
 243:src/_SlabAllocator.cpp ****         new (ret) _ObjSlab(slotSize, slabSize);
 1783              		.loc 2 243 9
 1784              		.loc 2 243 46 is_stmt 0
 1785 09cc 93050500 		mv	a1,a0
GAS LISTING /tmp/cc6lMr8s.s 			page 40


 1786 09d0 13058003 		li	a0,56
 1787              	.LVL149:
 1788 09d4 97000000 		call	_ZnwmPv@plt
 1788      E7800000 
 1789              	.LVL150:
 1790 09dc 630A0500 		beqz	a0,.L109
 1791              		.loc 2 243 46 discriminator 1
 1792 09e0 03B68402 		ld	a2,40(s1)
 1793 09e4 83B50402 		ld	a1,32(s1)
 1794 09e8 97000000 		call	_ZN8_ObjSlabC1Emm
 1794      E7800000 
 1795              	.LVL151:
 244:src/_SlabAllocator.cpp ****         return ret;
 1796              		.loc 2 244 9 is_stmt 1 discriminator 1
 1797              	.L109:
 1798              	.LBE42:
 1799              	.LBE40:
 245:src/_SlabAllocator.cpp ****     }
 246:src/_SlabAllocator.cpp **** 
 247:src/_SlabAllocator.cpp **** }
 1800              		.loc 2 247 1 is_stmt 0
 1801 09f0 13050900 		mv	a0,s2
 1802 09f4 83308102 		ld	ra,40(sp)
 1803              		.cfi_restore 1
 1804 09f8 03340102 		ld	s0,32(sp)
 1805              		.cfi_restore 8
 1806              		.cfi_def_cfa 2, 48
 1807 09fc 83348101 		ld	s1,24(sp)
 1808              		.cfi_restore 9
 1809              	.LVL152:
 1810 0a00 03390101 		ld	s2,16(sp)
 1811              		.cfi_restore 18
 1812 0a04 83398100 		ld	s3,8(sp)
 1813              		.cfi_restore 19
 1814 0a08 13010103 		addi	sp,sp,48
 1815              		.cfi_def_cfa_offset 0
 1816 0a0c 67800000 		jr	ra
 1817              		.cfi_endproc
 1818              	.LFE75:
 1820              		.section	.rodata.str1.8
 1821 000a 00000000 		.align	3
 1821      0000
 1822              	.LC1:
 1823 0010 414C4C4F 		.string	"ALLOCATION_ERROR: COULD NOT ALLOCATE SLAB"
 1823      43415449 
 1823      4F4E5F45 
 1823      52524F52 
 1823      3A20434F 
 1824              		.text
 1825              		.align	2
 1826              		.globl	_ZN12kmem_cache_t5allocEv
 1828              	_ZN12kmem_cache_t5allocEv:
 1829              	.LFB76:
 248:src/_SlabAllocator.cpp **** void* kmem_cache_t::alloc() {
 1830              		.loc 2 248 29 is_stmt 1
 1831              		.cfi_startproc
 1832              	.LVL153:
GAS LISTING /tmp/cc6lMr8s.s 			page 41


 1833 0a10 130101FE 		addi	sp,sp,-32
 1834              		.cfi_def_cfa_offset 32
 1835 0a14 233C1100 		sd	ra,24(sp)
 1836 0a18 23388100 		sd	s0,16(sp)
 1837 0a1c 23349100 		sd	s1,8(sp)
 1838 0a20 23302101 		sd	s2,0(sp)
 1839              		.cfi_offset 1, -8
 1840              		.cfi_offset 8, -16
 1841              		.cfi_offset 9, -24
 1842              		.cfi_offset 18, -32
 1843 0a24 13040102 		addi	s0,sp,32
 1844              		.cfi_def_cfa 8, 0
 1845 0a28 93040500 		mv	s1,a0
 249:src/_SlabAllocator.cpp ****     void* ret;
 1846              		.loc 2 249 5
 250:src/_SlabAllocator.cpp ****     if (partial) {
 1847              		.loc 2 250 5
 1848              		.loc 2 250 9 is_stmt 0
 1849 0a2c 03350501 		ld	a0,16(a0)
 1850              	.LVL154:
 1851              		.loc 2 250 5
 1852 0a30 63060506 		beqz	a0,.L118
 251:src/_SlabAllocator.cpp ****         ret = partial->alloc();
 1853              		.loc 2 251 9 is_stmt 1
 1854              		.loc 2 251 30 is_stmt 0
 1855 0a34 83370500 		ld	a5,0(a0)
 1856 0a38 83B70700 		ld	a5,0(a5)
 1857              		.loc 2 251 29
 1858 0a3c E7800700 		jalr	a5
 1859              	.LVL155:
 1860 0a40 13090500 		mv	s2,a0
 1861              	.LVL156:
 252:src/_SlabAllocator.cpp ****         if (partial->isFull()) move(&partial, &full, partial); //prebacivanje iz partial u full lis
 1862              		.loc 2 252 9 is_stmt 1
 1863              		.loc 2 252 13 is_stmt 0
 1864 0a44 03B50401 		ld	a0,16(s1)
 1865              	.LVL157:
 1866              		.loc 2 252 29
 1867 0a48 83370500 		ld	a5,0(a0)
 1868 0a4c 83B78701 		ld	a5,24(a5)
 1869              		.loc 2 252 28
 1870 0a50 E7800700 		jalr	a5
 1871              	.LVL158:
 1872              		.loc 2 252 9
 1873 0a54 63180502 		bnez	a0,.L125
 1874              	.L119:
 253:src/_SlabAllocator.cpp ****     }
 254:src/_SlabAllocator.cpp ****     else {
 255:src/_SlabAllocator.cpp ****         if (!free) free = allocSlab();
 256:src/_SlabAllocator.cpp ****         if (!free) {
 257:src/_SlabAllocator.cpp ****             err = "ALLOCATION_ERROR: COULD NOT ALLOCATE SLAB";
 258:src/_SlabAllocator.cpp ****             return nullptr;
 259:src/_SlabAllocator.cpp ****         }
 260:src/_SlabAllocator.cpp ****         ret = free->alloc();
 261:src/_SlabAllocator.cpp ****         if (free->isFull()) move(&free, &full, free); //prebacivanje iz free u full listu
 262:src/_SlabAllocator.cpp ****         else move(&free, &partial, free); //prebacivanje iz free u partial listu
 263:src/_SlabAllocator.cpp ****     }
GAS LISTING /tmp/cc6lMr8s.s 			page 42


 264:src/_SlabAllocator.cpp ****     if (ctor) ctor(ret);
 1875              		.loc 2 264 5 is_stmt 1
 1876              		.loc 2 264 9 is_stmt 0
 1877 0a58 83B70403 		ld	a5,48(s1)
 1878              		.loc 2 264 5
 1879 0a5c 63860700 		beqz	a5,.L117
 1880              		.loc 2 264 15 is_stmt 1 discriminator 1
 1881              		.loc 2 264 19 is_stmt 0 discriminator 1
 1882 0a60 13050900 		mv	a0,s2
 1883 0a64 E7800700 		jalr	a5
 1884              	.LVL159:
 1885              	.L117:
 265:src/_SlabAllocator.cpp ****     return ret;
 266:src/_SlabAllocator.cpp **** }
 1886              		.loc 2 266 1
 1887 0a68 13050900 		mv	a0,s2
 1888 0a6c 83308101 		ld	ra,24(sp)
 1889              		.cfi_remember_state
 1890              		.cfi_restore 1
 1891 0a70 03340101 		ld	s0,16(sp)
 1892              		.cfi_restore 8
 1893              		.cfi_def_cfa 2, 32
 1894 0a74 83348100 		ld	s1,8(sp)
 1895              		.cfi_restore 9
 1896              	.LVL160:
 1897 0a78 03390100 		ld	s2,0(sp)
 1898              		.cfi_restore 18
 1899 0a7c 13010102 		addi	sp,sp,32
 1900              		.cfi_def_cfa_offset 0
 1901 0a80 67800000 		jr	ra
 1902              	.LVL161:
 1903              	.L125:
 1904              		.cfi_restore_state
 252:src/_SlabAllocator.cpp ****     }
 1905              		.loc 2 252 32 is_stmt 1 discriminator 1
 252:src/_SlabAllocator.cpp ****     }
 1906              		.loc 2 252 36 is_stmt 0 discriminator 1
 1907 0a84 03B60401 		ld	a2,16(s1)
 1908 0a88 93850400 		mv	a1,s1
 1909 0a8c 13850401 		addi	a0,s1,16
 1910 0a90 97000000 		call	_ZN12kmem_cache_t4moveEPP5_SlabS2_S1_
 1910      E7800000 
 1911              	.LVL162:
 1912 0a98 6FF01FFC 		j	.L119
 1913              	.LVL163:
 1914              	.L118:
 255:src/_SlabAllocator.cpp ****         if (!free) {
 1915              		.loc 2 255 9 is_stmt 1
 255:src/_SlabAllocator.cpp ****         if (!free) {
 1916              		.loc 2 255 14 is_stmt 0
 1917 0a9c 83B78400 		ld	a5,8(s1)
 255:src/_SlabAllocator.cpp ****         if (!free) {
 1918              		.loc 2 255 9
 1919 0aa0 63860704 		beqz	a5,.L126
 1920              	.L120:
 256:src/_SlabAllocator.cpp ****             err = "ALLOCATION_ERROR: COULD NOT ALLOCATE SLAB";
 1921              		.loc 2 256 9 is_stmt 1
GAS LISTING /tmp/cc6lMr8s.s 			page 43


 256:src/_SlabAllocator.cpp ****             err = "ALLOCATION_ERROR: COULD NOT ALLOCATE SLAB";
 1922              		.loc 2 256 14 is_stmt 0
 1923 0aa4 03B98400 		ld	s2,8(s1)
 256:src/_SlabAllocator.cpp ****             err = "ALLOCATION_ERROR: COULD NOT ALLOCATE SLAB";
 1924              		.loc 2 256 9
 1925 0aa8 630C0904 		beqz	s2,.L127
 260:src/_SlabAllocator.cpp ****         if (free->isFull()) move(&free, &full, free); //prebacivanje iz free u full listu
 1926              		.loc 2 260 9 is_stmt 1
 260:src/_SlabAllocator.cpp ****         if (free->isFull()) move(&free, &full, free); //prebacivanje iz free u full listu
 1927              		.loc 2 260 27 is_stmt 0
 1928 0aac 83370900 		ld	a5,0(s2)
 1929 0ab0 83B70700 		ld	a5,0(a5)
 260:src/_SlabAllocator.cpp ****         if (free->isFull()) move(&free, &full, free); //prebacivanje iz free u full listu
 1930              		.loc 2 260 26
 1931 0ab4 13050900 		mv	a0,s2
 1932 0ab8 E7800700 		jalr	a5
 1933              	.LVL164:
 1934 0abc 13090500 		mv	s2,a0
 1935              	.LVL165:
 261:src/_SlabAllocator.cpp ****         else move(&free, &partial, free); //prebacivanje iz free u partial listu
 1936              		.loc 2 261 9 is_stmt 1
 261:src/_SlabAllocator.cpp ****         else move(&free, &partial, free); //prebacivanje iz free u partial listu
 1937              		.loc 2 261 13 is_stmt 0
 1938 0ac0 03B58400 		ld	a0,8(s1)
 1939              	.LVL166:
 261:src/_SlabAllocator.cpp ****         else move(&free, &partial, free); //prebacivanje iz free u partial listu
 1940              		.loc 2 261 26
 1941 0ac4 83370500 		ld	a5,0(a0)
 1942 0ac8 83B78701 		ld	a5,24(a5)
 261:src/_SlabAllocator.cpp ****         else move(&free, &partial, free); //prebacivanje iz free u partial listu
 1943              		.loc 2 261 25
 1944 0acc E7800700 		jalr	a5
 1945              	.LVL167:
 261:src/_SlabAllocator.cpp ****         else move(&free, &partial, free); //prebacivanje iz free u partial listu
 1946              		.loc 2 261 9
 1947 0ad0 63000504 		beqz	a0,.L123
 261:src/_SlabAllocator.cpp ****         else move(&free, &partial, free); //prebacivanje iz free u partial listu
 1948              		.loc 2 261 29 is_stmt 1 discriminator 1
 261:src/_SlabAllocator.cpp ****         else move(&free, &partial, free); //prebacivanje iz free u partial listu
 1949              		.loc 2 261 33 is_stmt 0 discriminator 1
 1950 0ad4 03B68400 		ld	a2,8(s1)
 1951 0ad8 93850400 		mv	a1,s1
 1952 0adc 13858400 		addi	a0,s1,8
 1953 0ae0 97000000 		call	_ZN12kmem_cache_t4moveEPP5_SlabS2_S1_
 1953      E7800000 
 1954              	.LVL168:
 1955 0ae8 6FF01FF7 		j	.L119
 1956              	.LVL169:
 1957              	.L126:
 255:src/_SlabAllocator.cpp ****         if (!free) {
 1958              		.loc 2 255 20 is_stmt 1 discriminator 1
 255:src/_SlabAllocator.cpp ****         if (!free) {
 1959              		.loc 2 255 36 is_stmt 0 discriminator 1
 1960 0aec 13850400 		mv	a0,s1
 1961 0af0 97000000 		call	_ZN12kmem_cache_t9allocSlabEv
 1961      E7800000 
 1962              	.LVL170:
GAS LISTING /tmp/cc6lMr8s.s 			page 44


 255:src/_SlabAllocator.cpp ****         if (!free) {
 1963              		.loc 2 255 25 discriminator 1
 1964 0af8 23B4A400 		sd	a0,8(s1)
 1965 0afc 6FF09FFA 		j	.L120
 1966              	.L127:
 257:src/_SlabAllocator.cpp ****             return nullptr;
 1967              		.loc 2 257 13 is_stmt 1
 257:src/_SlabAllocator.cpp ****             return nullptr;
 1968              		.loc 2 257 17 is_stmt 0
 1969 0b00 97070000 		lla	a5,.LC1
 1969      93870700 
 1970 0b08 23BCF404 		sd	a5,88(s1)
 258:src/_SlabAllocator.cpp ****         }
 1971              		.loc 2 258 13 is_stmt 1
 258:src/_SlabAllocator.cpp ****         }
 1972              		.loc 2 258 20 is_stmt 0
 1973 0b0c 6FF0DFF5 		j	.L117
 1974              	.LVL171:
 1975              	.L123:
 262:src/_SlabAllocator.cpp ****     }
 1976              		.loc 2 262 14 is_stmt 1
 262:src/_SlabAllocator.cpp ****     }
 1977              		.loc 2 262 18 is_stmt 0
 1978 0b10 03B68400 		ld	a2,8(s1)
 1979 0b14 93850401 		addi	a1,s1,16
 1980 0b18 13858400 		addi	a0,s1,8
 1981 0b1c 97000000 		call	_ZN12kmem_cache_t4moveEPP5_SlabS2_S1_
 1981      E7800000 
 1982              	.LVL172:
 1983 0b24 6FF05FF3 		j	.L119
 1984              		.cfi_endproc
 1985              	.LFE76:
 1987              		.section	.rodata.str1.8
 1988 003a 00000000 		.align	3
 1988      0000
 1989              	.LC2:
 1990 0040 4445414C 		.string	"DEALLOCATION_ERROR: SLOT ADDRESS NOT FOUND IN CACHE."
 1990      4C4F4341 
 1990      54494F4E 
 1990      5F455252 
 1990      4F523A20 
 1991              		.text
 1992              		.align	2
 1993              		.globl	_ZN12kmem_cache_t7deallocEPv
 1995              	_ZN12kmem_cache_t7deallocEPv:
 1996              	.LFB77:
 267:src/_SlabAllocator.cpp **** /*bool kmem_cache_t::contains(_Slab* slab, void* obj) {
 268:src/_SlabAllocator.cpp ****     return obj > slab && obj < (char*)slab + slabSize;
 269:src/_SlabAllocator.cpp **** }*/
 270:src/_SlabAllocator.cpp **** bool kmem_cache_t::dealloc(void* obj) {
 1997              		.loc 2 270 39 is_stmt 1
 1998              		.cfi_startproc
 1999              	.LVL173:
 2000 0b28 130101FD 		addi	sp,sp,-48
 2001              		.cfi_def_cfa_offset 48
 2002 0b2c 23341102 		sd	ra,40(sp)
 2003 0b30 23308102 		sd	s0,32(sp)
GAS LISTING /tmp/cc6lMr8s.s 			page 45


 2004 0b34 233C9100 		sd	s1,24(sp)
 2005 0b38 23382101 		sd	s2,16(sp)
 2006 0b3c 23343101 		sd	s3,8(sp)
 2007 0b40 23304101 		sd	s4,0(sp)
 2008              		.cfi_offset 1, -8
 2009              		.cfi_offset 8, -16
 2010              		.cfi_offset 9, -24
 2011              		.cfi_offset 18, -32
 2012              		.cfi_offset 19, -40
 2013              		.cfi_offset 20, -48
 2014 0b44 13040103 		addi	s0,sp,48
 2015              		.cfi_def_cfa 8, 0
 2016 0b48 130A0500 		mv	s4,a0
 2017 0b4c 93890500 		mv	s3,a1
 271:src/_SlabAllocator.cpp ****     if (dtor) dtor(obj);
 2018              		.loc 2 271 5
 2019              		.loc 2 271 9 is_stmt 0
 2020 0b50 83378503 		ld	a5,56(a0)
 2021              		.loc 2 271 5
 2022 0b54 63860700 		beqz	a5,.L129
 2023              		.loc 2 271 15 is_stmt 1 discriminator 1
 2024              		.loc 2 271 19 is_stmt 0 discriminator 1
 2025 0b58 13850500 		mv	a0,a1
 2026              	.LVL174:
 2027 0b5c E7800700 		jalr	a5
 2028              	.LVL175:
 2029              	.L129:
 272:src/_SlabAllocator.cpp ****     _Slab* cur = full;
 2030              		.loc 2 272 5 is_stmt 1
 2031              		.loc 2 272 12 is_stmt 0
 2032 0b60 03390A00 		ld	s2,0(s4)
 2033              	.LVL176:
 2034              	.L135:
 273:src/_SlabAllocator.cpp ****     while (cur) {
 2035              		.loc 2 273 5 is_stmt 1
 2036              		.loc 2 273 12
 2037 0b64 6300090A 		beqz	s2,.L130
 274:src/_SlabAllocator.cpp ****         if (cur->contains(obj)) {
 2038              		.loc 2 274 9
 2039              		.loc 2 274 30 is_stmt 0
 2040 0b68 83370900 		ld	a5,0(s2)
 2041 0b6c 83B78702 		ld	a5,40(a5)
 2042              		.loc 2 274 26
 2043 0b70 93850900 		mv	a1,s3
 2044 0b74 13050900 		mv	a0,s2
 2045 0b78 E7800700 		jalr	a5
 2046              	.LVL177:
 2047 0b7c 93040500 		mv	s1,a0
 2048              		.loc 2 274 9
 2049 0b80 63160500 		bnez	a0,.L142
 275:src/_SlabAllocator.cpp ****             cur->dealloc(obj);
 276:src/_SlabAllocator.cpp ****             if (cur->isEmpty()) move(&full, &free, cur); //prebacivanje iz full u free
 277:src/_SlabAllocator.cpp ****             else move(&full, &partial, cur); //prebacivanje iz full u partial
 278:src/_SlabAllocator.cpp ****             return true;
 279:src/_SlabAllocator.cpp ****         }
 280:src/_SlabAllocator.cpp ****         cur = cur->next;
 2050              		.loc 2 280 9 is_stmt 1
GAS LISTING /tmp/cc6lMr8s.s 			page 46


 2051              		.loc 2 280 13 is_stmt 0
 2052 0b84 03398902 		ld	s2,40(s2)
 2053              	.LVL178:
 273:src/_SlabAllocator.cpp ****         if (cur->contains(obj)) {
 2054              		.loc 2 273 5
 2055 0b88 6FF0DFFD 		j	.L135
 2056              	.L142:
 275:src/_SlabAllocator.cpp ****             cur->dealloc(obj);
 2057              		.loc 2 275 13 is_stmt 1
 275:src/_SlabAllocator.cpp ****             cur->dealloc(obj);
 2058              		.loc 2 275 29 is_stmt 0
 2059 0b8c 83370900 		ld	a5,0(s2)
 2060 0b90 83B78700 		ld	a5,8(a5)
 275:src/_SlabAllocator.cpp ****             cur->dealloc(obj);
 2061              		.loc 2 275 25
 2062 0b94 93850900 		mv	a1,s3
 2063 0b98 13050900 		mv	a0,s2
 2064 0b9c E7800700 		jalr	a5
 2065              	.LVL179:
 276:src/_SlabAllocator.cpp ****             else move(&full, &partial, cur); //prebacivanje iz full u partial
 2066              		.loc 2 276 13 is_stmt 1
 276:src/_SlabAllocator.cpp ****             else move(&full, &partial, cur); //prebacivanje iz full u partial
 2067              		.loc 2 276 30 is_stmt 0
 2068 0ba0 83370900 		ld	a5,0(s2)
 2069 0ba4 83B70701 		ld	a5,16(a5)
 276:src/_SlabAllocator.cpp ****             else move(&full, &partial, cur); //prebacivanje iz full u partial
 2070              		.loc 2 276 29
 2071 0ba8 13050900 		mv	a0,s2
 2072 0bac E7800700 		jalr	a5
 2073              	.LVL180:
 276:src/_SlabAllocator.cpp ****             else move(&full, &partial, cur); //prebacivanje iz full u partial
 2074              		.loc 2 276 13
 2075 0bb0 630E0502 		beqz	a0,.L132
 276:src/_SlabAllocator.cpp ****             else move(&full, &partial, cur); //prebacivanje iz full u partial
 2076              		.loc 2 276 33 is_stmt 1 discriminator 1
 276:src/_SlabAllocator.cpp ****             else move(&full, &partial, cur); //prebacivanje iz full u partial
 2077              		.loc 2 276 37 is_stmt 0 discriminator 1
 2078 0bb4 13060900 		mv	a2,s2
 2079 0bb8 93058A00 		addi	a1,s4,8
 2080 0bbc 13050A00 		mv	a0,s4
 2081 0bc0 97000000 		call	_ZN12kmem_cache_t4moveEPP5_SlabS2_S1_
 2081      E7800000 
 2082              	.LVL181:
 2083              	.L134:
 281:src/_SlabAllocator.cpp ****     }
 282:src/_SlabAllocator.cpp ****     cur = partial;
 283:src/_SlabAllocator.cpp ****     while (cur) {
 284:src/_SlabAllocator.cpp ****         if (cur->contains(obj)) {
 285:src/_SlabAllocator.cpp ****             cur->dealloc(obj);
 286:src/_SlabAllocator.cpp ****             if (cur->isEmpty()) move(&partial, &free, cur); //prebacivanje iz full u free
 287:src/_SlabAllocator.cpp ****             return true;
 288:src/_SlabAllocator.cpp ****         }
 289:src/_SlabAllocator.cpp ****         cur = cur->next;
 290:src/_SlabAllocator.cpp ****     }
 291:src/_SlabAllocator.cpp ****     if (!buffCache) err = "DEALLOCATION_ERROR: SLOT ADDRESS NOT FOUND IN CACHE.";
 292:src/_SlabAllocator.cpp ****     return false;
 293:src/_SlabAllocator.cpp **** }
GAS LISTING /tmp/cc6lMr8s.s 			page 47


 2084              		.loc 2 293 1
 2085 0bc8 13850400 		mv	a0,s1
 2086 0bcc 83308102 		ld	ra,40(sp)
 2087              		.cfi_remember_state
 2088              		.cfi_restore 1
 2089 0bd0 03340102 		ld	s0,32(sp)
 2090              		.cfi_restore 8
 2091              		.cfi_def_cfa 2, 48
 2092 0bd4 83348101 		ld	s1,24(sp)
 2093              		.cfi_restore 9
 2094 0bd8 03390101 		ld	s2,16(sp)
 2095              		.cfi_restore 18
 2096              	.LVL182:
 2097 0bdc 83398100 		ld	s3,8(sp)
 2098              		.cfi_restore 19
 2099              	.LVL183:
 2100 0be0 033A0100 		ld	s4,0(sp)
 2101              		.cfi_restore 20
 2102              	.LVL184:
 2103 0be4 13010103 		addi	sp,sp,48
 2104              		.cfi_def_cfa_offset 0
 2105 0be8 67800000 		jr	ra
 2106              	.LVL185:
 2107              	.L132:
 2108              		.cfi_restore_state
 277:src/_SlabAllocator.cpp ****             return true;
 2109              		.loc 2 277 18 is_stmt 1
 277:src/_SlabAllocator.cpp ****             return true;
 2110              		.loc 2 277 22 is_stmt 0
 2111 0bec 13060900 		mv	a2,s2
 2112 0bf0 93050A01 		addi	a1,s4,16
 2113 0bf4 13050A00 		mv	a0,s4
 2114 0bf8 97000000 		call	_ZN12kmem_cache_t4moveEPP5_SlabS2_S1_
 2114      E7800000 
 2115              	.LVL186:
 278:src/_SlabAllocator.cpp ****         }
 2116              		.loc 2 278 13 is_stmt 1
 278:src/_SlabAllocator.cpp ****         }
 2117              		.loc 2 278 20 is_stmt 0
 2118 0c00 6FF09FFC 		j	.L134
 2119              	.L130:
 282:src/_SlabAllocator.cpp ****     while (cur) {
 2120              		.loc 2 282 5 is_stmt 1
 282:src/_SlabAllocator.cpp ****     while (cur) {
 2121              		.loc 2 282 9 is_stmt 0
 2122 0c04 03390A01 		ld	s2,16(s4)
 2123              	.LVL187:
 2124              	.L139:
 283:src/_SlabAllocator.cpp ****         if (cur->contains(obj)) {
 2125              		.loc 2 283 5 is_stmt 1
 283:src/_SlabAllocator.cpp ****         if (cur->contains(obj)) {
 2126              		.loc 2 283 12
 2127 0c08 63040906 		beqz	s2,.L136
 284:src/_SlabAllocator.cpp ****             cur->dealloc(obj);
 2128              		.loc 2 284 9
 284:src/_SlabAllocator.cpp ****             cur->dealloc(obj);
 2129              		.loc 2 284 30 is_stmt 0
GAS LISTING /tmp/cc6lMr8s.s 			page 48


 2130 0c0c 83370900 		ld	a5,0(s2)
 2131 0c10 83B78702 		ld	a5,40(a5)
 284:src/_SlabAllocator.cpp ****             cur->dealloc(obj);
 2132              		.loc 2 284 26
 2133 0c14 93850900 		mv	a1,s3
 2134 0c18 13050900 		mv	a0,s2
 2135 0c1c E7800700 		jalr	a5
 2136              	.LVL188:
 2137 0c20 93040500 		mv	s1,a0
 284:src/_SlabAllocator.cpp ****             cur->dealloc(obj);
 2138              		.loc 2 284 9
 2139 0c24 63160500 		bnez	a0,.L143
 289:src/_SlabAllocator.cpp ****     }
 2140              		.loc 2 289 9 is_stmt 1
 289:src/_SlabAllocator.cpp ****     }
 2141              		.loc 2 289 13 is_stmt 0
 2142 0c28 03398902 		ld	s2,40(s2)
 2143              	.LVL189:
 283:src/_SlabAllocator.cpp ****         if (cur->contains(obj)) {
 2144              		.loc 2 283 5
 2145 0c2c 6FF0DFFD 		j	.L139
 2146              	.L143:
 285:src/_SlabAllocator.cpp ****             if (cur->isEmpty()) move(&partial, &free, cur); //prebacivanje iz full u free
 2147              		.loc 2 285 13 is_stmt 1
 285:src/_SlabAllocator.cpp ****             if (cur->isEmpty()) move(&partial, &free, cur); //prebacivanje iz full u free
 2148              		.loc 2 285 29 is_stmt 0
 2149 0c30 83370900 		ld	a5,0(s2)
 2150 0c34 83B78700 		ld	a5,8(a5)
 285:src/_SlabAllocator.cpp ****             if (cur->isEmpty()) move(&partial, &free, cur); //prebacivanje iz full u free
 2151              		.loc 2 285 25
 2152 0c38 93850900 		mv	a1,s3
 2153 0c3c 13050900 		mv	a0,s2
 2154 0c40 E7800700 		jalr	a5
 2155              	.LVL190:
 286:src/_SlabAllocator.cpp ****             return true;
 2156              		.loc 2 286 13 is_stmt 1
 286:src/_SlabAllocator.cpp ****             return true;
 2157              		.loc 2 286 30 is_stmt 0
 2158 0c44 83370900 		ld	a5,0(s2)
 2159 0c48 83B70701 		ld	a5,16(a5)
 286:src/_SlabAllocator.cpp ****             return true;
 2160              		.loc 2 286 29
 2161 0c4c 13050900 		mv	a0,s2
 2162 0c50 E7800700 		jalr	a5
 2163              	.LVL191:
 286:src/_SlabAllocator.cpp ****             return true;
 2164              		.loc 2 286 13
 2165 0c54 E30A05F6 		beqz	a0,.L134
 286:src/_SlabAllocator.cpp ****             return true;
 2166              		.loc 2 286 33 is_stmt 1 discriminator 1
 286:src/_SlabAllocator.cpp ****             return true;
 2167              		.loc 2 286 37 is_stmt 0 discriminator 1
 2168 0c58 13060900 		mv	a2,s2
 2169 0c5c 93058A00 		addi	a1,s4,8
 2170 0c60 13050A01 		addi	a0,s4,16
 2171 0c64 97000000 		call	_ZN12kmem_cache_t4moveEPP5_SlabS2_S1_
 2171      E7800000 
GAS LISTING /tmp/cc6lMr8s.s 			page 49


 2172              	.LVL192:
 287:src/_SlabAllocator.cpp ****         }
 2173              		.loc 2 287 13 is_stmt 1 discriminator 1
 287:src/_SlabAllocator.cpp ****         }
 2174              		.loc 2 287 20 is_stmt 0 discriminator 1
 2175 0c6c 6FF0DFF5 		j	.L134
 2176              	.L136:
 291:src/_SlabAllocator.cpp ****     return false;
 2177              		.loc 2 291 5 is_stmt 1
 291:src/_SlabAllocator.cpp ****     return false;
 2178              		.loc 2 291 10 is_stmt 0
 2179 0c70 83440A04 		lbu	s1,64(s4)
 291:src/_SlabAllocator.cpp ****     return false;
 2180              		.loc 2 291 5
 2181 0c74 639A0400 		bnez	s1,.L140
 291:src/_SlabAllocator.cpp ****     return false;
 2182              		.loc 2 291 21 is_stmt 1 discriminator 1
 291:src/_SlabAllocator.cpp ****     return false;
 2183              		.loc 2 291 25 is_stmt 0 discriminator 1
 2184 0c78 97070000 		lla	a5,.LC2
 2184      93870700 
 2185 0c80 233CFA04 		sd	a5,88(s4)
 2186 0c84 6FF05FF4 		j	.L134
 2187              	.L140:
 292:src/_SlabAllocator.cpp **** }
 2188              		.loc 2 292 12
 2189 0c88 93040000 		li	s1,0
 2190 0c8c 6FF0DFF3 		j	.L134
 2191              		.cfi_endproc
 2192              	.LFE77:
 2194              		.align	2
 2195              		.globl	_ZN12kmem_cache_t11deallocBuffEPv
 2197              	_ZN12kmem_cache_t11deallocBuffEPv:
 2198              	.LFB63:
 168:src/_SlabAllocator.cpp ****     for (int i = 0; i < buffPowMax - buffPowMin + 1; i++) {
 2199              		.loc 2 168 44 is_stmt 1
 2200              		.cfi_startproc
 2201              	.LVL193:
 2202 0c90 130101FE 		addi	sp,sp,-32
 2203              		.cfi_def_cfa_offset 32
 2204 0c94 233C1100 		sd	ra,24(sp)
 2205 0c98 23388100 		sd	s0,16(sp)
 2206 0c9c 23349100 		sd	s1,8(sp)
 2207 0ca0 23302101 		sd	s2,0(sp)
 2208              		.cfi_offset 1, -8
 2209              		.cfi_offset 8, -16
 2210              		.cfi_offset 9, -24
 2211              		.cfi_offset 18, -32
 2212 0ca4 13040102 		addi	s0,sp,32
 2213              		.cfi_def_cfa 8, 0
 2214 0ca8 13090500 		mv	s2,a0
 169:src/_SlabAllocator.cpp ****         if (cacheMem[i].dealloc(buff)) return true;
 2215              		.loc 2 169 5
 2216              	.LVL194:
 2217              	.LBB43:
 169:src/_SlabAllocator.cpp ****         if (cacheMem[i].dealloc(buff)) return true;
 2218              		.loc 2 169 14 is_stmt 0
GAS LISTING /tmp/cc6lMr8s.s 			page 50


 2219 0cac 93040000 		li	s1,0
 2220              	.LVL195:
 2221              	.L146:
 169:src/_SlabAllocator.cpp ****         if (cacheMem[i].dealloc(buff)) return true;
 2222              		.loc 2 169 23 is_stmt 1 discriminator 1
 2223 0cb0 9307C000 		li	a5,12
 2224 0cb4 63CA9702 		bgt	s1,a5,.L147
 170:src/_SlabAllocator.cpp ****     }
 2225              		.loc 2 170 9
 170:src/_SlabAllocator.cpp ****     }
 2226              		.loc 2 170 23 is_stmt 0
 2227 0cb8 93971400 		slli	a5,s1,1
 2228 0cbc B3879700 		add	a5,a5,s1
 2229 0cc0 93975700 		slli	a5,a5,5
 170:src/_SlabAllocator.cpp ****     }
 2230              		.loc 2 170 32
 2231 0cc4 93050900 		mv	a1,s2
 2232 0cc8 17050000 		ld	a0,.LANCHOR0+32
 2232      03350500 
 2233 0cd0 3305F500 		add	a0,a0,a5
 2234 0cd4 97000000 		call	_ZN12kmem_cache_t7deallocEPv
 2234      E7800000 
 2235              	.LVL196:
 170:src/_SlabAllocator.cpp ****     }
 2236              		.loc 2 170 9
 2237 0cdc 63180500 		bnez	a0,.L145
 169:src/_SlabAllocator.cpp ****         if (cacheMem[i].dealloc(buff)) return true;
 2238              		.loc 2 169 5 is_stmt 1 discriminator 2
 2239 0ce0 9B841400 		addiw	s1,s1,1
 2240              	.LVL197:
 2241 0ce4 6FF0DFFC 		j	.L146
 2242              	.LVL198:
 2243              	.L147:
 2244              	.LBE43:
 172:src/_SlabAllocator.cpp **** }
 2245              		.loc 2 172 12 is_stmt 0
 2246 0ce8 13050000 		li	a0,0
 2247              	.L145:
 173:src/_SlabAllocator.cpp **** 
 2248              		.loc 2 173 1
 2249 0cec 83308101 		ld	ra,24(sp)
 2250              		.cfi_restore 1
 2251 0cf0 03340101 		ld	s0,16(sp)
 2252              		.cfi_restore 8
 2253              		.cfi_def_cfa 2, 32
 2254 0cf4 83348100 		ld	s1,8(sp)
 2255              		.cfi_restore 9
 2256              	.LVL199:
 2257 0cf8 03390100 		ld	s2,0(sp)
 2258              		.cfi_restore 18
 2259              	.LVL200:
 2260 0cfc 13010102 		addi	sp,sp,32
 2261              		.cfi_def_cfa_offset 0
 2262 0d00 67800000 		jr	ra
 2263              		.cfi_endproc
 2264              	.LFE63:
 2266              		.align	2
GAS LISTING /tmp/cc6lMr8s.s 			page 51


 2267              		.globl	_ZN12kmem_cache_t6shrinkEv
 2269              	_ZN12kmem_cache_t6shrinkEv:
 2270              	.LFB78:
 294:src/_SlabAllocator.cpp **** int kmem_cache_t::shrink() {
 2271              		.loc 2 294 28 is_stmt 1
 2272              		.cfi_startproc
 2273              	.LVL201:
 295:src/_SlabAllocator.cpp ****     if (free) {
 2274              		.loc 2 295 5
 2275              		.loc 2 295 9 is_stmt 0
 2276 0d04 83358500 		ld	a1,8(a0)
 2277              		.loc 2 295 5
 2278 0d08 63960500 		bnez	a1,.L156
 296:src/_SlabAllocator.cpp ****         deallocSlabs(free);
 297:src/_SlabAllocator.cpp ****         free = nullptr;
 298:src/_SlabAllocator.cpp ****         return 1;
 299:src/_SlabAllocator.cpp ****     }
 300:src/_SlabAllocator.cpp ****     return 0;
 2279              		.loc 2 300 12
 2280 0d0c 13050000 		li	a0,0
 2281              	.LVL202:
 301:src/_SlabAllocator.cpp **** }
 2282              		.loc 2 301 1
 2283 0d10 67800000 		ret
 2284              	.LVL203:
 2285              	.L156:
 294:src/_SlabAllocator.cpp ****     if (free) {
 2286              		.loc 2 294 28
 2287 0d14 130101FE 		addi	sp,sp,-32
 2288              		.cfi_def_cfa_offset 32
 2289 0d18 233C1100 		sd	ra,24(sp)
 2290 0d1c 23388100 		sd	s0,16(sp)
 2291 0d20 23349100 		sd	s1,8(sp)
 2292              		.cfi_offset 1, -8
 2293              		.cfi_offset 8, -16
 2294              		.cfi_offset 9, -24
 2295 0d24 13040102 		addi	s0,sp,32
 2296              		.cfi_def_cfa 8, 0
 2297 0d28 93040500 		mv	s1,a0
 296:src/_SlabAllocator.cpp ****         deallocSlabs(free);
 2298              		.loc 2 296 9 is_stmt 1
 296:src/_SlabAllocator.cpp ****         deallocSlabs(free);
 2299              		.loc 2 296 21 is_stmt 0
 2300 0d2c 97000000 		call	_ZN12kmem_cache_t12deallocSlabsEP5_Slab
 2300      E7800000 
 2301              	.LVL204:
 297:src/_SlabAllocator.cpp ****         return 1;
 2302              		.loc 2 297 9 is_stmt 1
 297:src/_SlabAllocator.cpp ****         return 1;
 2303              		.loc 2 297 14 is_stmt 0
 2304 0d34 23B40400 		sd	zero,8(s1)
 298:src/_SlabAllocator.cpp ****     }
 2305              		.loc 2 298 9 is_stmt 1
 298:src/_SlabAllocator.cpp ****     }
 2306              		.loc 2 298 16 is_stmt 0
 2307 0d38 13051000 		li	a0,1
 2308              		.loc 2 301 1
GAS LISTING /tmp/cc6lMr8s.s 			page 52


 2309 0d3c 83308101 		ld	ra,24(sp)
 2310              		.cfi_restore 1
 2311 0d40 03340101 		ld	s0,16(sp)
 2312              		.cfi_restore 8
 2313              		.cfi_def_cfa 2, 32
 2314 0d44 83348100 		ld	s1,8(sp)
 2315              		.cfi_restore 9
 2316              	.LVL205:
 2317 0d48 13010102 		addi	sp,sp,32
 2318              		.cfi_def_cfa_offset 0
 2319 0d4c 67800000 		jr	ra
 2320              		.cfi_endproc
 2321              	.LFE78:
 2323              		.align	2
 2324              		.globl	_ZN12kmem_cache_t7slabNumEv
 2326              	_ZN12kmem_cache_t7slabNumEv:
 2327              	.LFB79:
 302:src/_SlabAllocator.cpp **** int kmem_cache_t::slabNum() {
 2328              		.loc 2 302 29 is_stmt 1
 2329              		.cfi_startproc
 2330              	.LVL206:
 2331 0d50 130101FD 		addi	sp,sp,-48
 2332              		.cfi_def_cfa_offset 48
 2333 0d54 23348102 		sd	s0,40(sp)
 2334              		.cfi_offset 8, -8
 2335 0d58 13040103 		addi	s0,sp,48
 2336              		.cfi_def_cfa 8, 0
 303:src/_SlabAllocator.cpp ****     int res = 0;
 2337              		.loc 2 303 5
 2338              	.LVL207:
 304:src/_SlabAllocator.cpp ****     _Slab* arrs[] = {free, partial, full};
 2339              		.loc 2 304 5
 2340              		.loc 2 304 22 is_stmt 0
 2341 0d5c 83378500 		ld	a5,8(a0)
 2342              		.loc 2 304 41
 2343 0d60 233CF4FC 		sd	a5,-40(s0)
 2344              		.loc 2 304 28
 2345 0d64 83370501 		ld	a5,16(a0)
 2346              		.loc 2 304 41
 2347 0d68 2330F4FE 		sd	a5,-32(s0)
 2348              		.loc 2 304 37
 2349 0d6c 83370500 		ld	a5,0(a0)
 2350              		.loc 2 304 41
 2351 0d70 2334F4FE 		sd	a5,-24(s0)
 305:src/_SlabAllocator.cpp ****     for (int i = 0; i < 3; i++) {
 2352              		.loc 2 305 5 is_stmt 1
 2353              	.LVL208:
 2354              	.LBB44:
 2355              		.loc 2 305 14 is_stmt 0
 2356 0d74 13070000 		li	a4,0
 2357              	.LBE44:
 303:src/_SlabAllocator.cpp ****     int res = 0;
 2358              		.loc 2 303 9
 2359 0d78 13050000 		li	a0,0
 2360              	.LVL209:
 2361 0d7c 6F008000 		j	.L161
 2362              	.LVL210:
GAS LISTING /tmp/cc6lMr8s.s 			page 53


 2363              	.L159:
 2364              	.LBB46:
 2365              		.loc 2 305 5 is_stmt 1 discriminator 2
 2366 0d80 1B071700 		addiw	a4,a4,1
 2367              	.LVL211:
 2368              	.L161:
 2369              		.loc 2 305 23 discriminator 1
 2370 0d84 93072000 		li	a5,2
 2371 0d88 63C2E702 		bgt	a4,a5,.L158
 2372              	.LBB45:
 306:src/_SlabAllocator.cpp ****         _Slab* cur = arrs[i];
 2373              		.loc 2 306 9
 2374              		.loc 2 306 16 is_stmt 0
 2375 0d8c 93173700 		slli	a5,a4,3
 2376 0d90 930604FF 		addi	a3,s0,-16
 2377 0d94 B387F600 		add	a5,a3,a5
 2378 0d98 83B787FE 		ld	a5,-24(a5)
 2379              	.LVL212:
 2380              	.L160:
 307:src/_SlabAllocator.cpp ****         while (cur) { res++; cur = cur->next; }
 2381              		.loc 2 307 9 is_stmt 1 discriminator 2
 2382              		.loc 2 307 16 discriminator 2
 2383 0d9c E38207FE 		beqz	a5,.L159
 2384              		.loc 2 307 23 discriminator 1
 2385              		.loc 2 307 26 is_stmt 0 discriminator 1
 2386 0da0 1B051500 		addiw	a0,a0,1
 2387              	.LVL213:
 2388              		.loc 2 307 30 is_stmt 1 discriminator 1
 2389              		.loc 2 307 34 is_stmt 0 discriminator 1
 2390 0da4 83B78702 		ld	a5,40(a5)
 2391              	.LVL214:
 2392              		.loc 2 307 9 discriminator 1
 2393 0da8 6FF05FFF 		j	.L160
 2394              	.LVL215:
 2395              	.L158:
 2396              	.LBE45:
 2397              	.LBE46:
 308:src/_SlabAllocator.cpp ****     }
 309:src/_SlabAllocator.cpp ****     return res;
 2398              		.loc 2 309 5 is_stmt 1
 310:src/_SlabAllocator.cpp **** }
 2399              		.loc 2 310 1 is_stmt 0
 2400 0dac 03348102 		ld	s0,40(sp)
 2401              		.cfi_restore 8
 2402              		.cfi_def_cfa 2, 48
 2403 0db0 13010103 		addi	sp,sp,48
 2404              		.cfi_def_cfa_offset 0
 2405 0db4 67800000 		jr	ra
 2406              		.cfi_endproc
 2407              	.LFE79:
 2409              		.align	2
 2410              		.globl	_ZN12kmem_cache_t12slabCapacityEv
 2412              	_ZN12kmem_cache_t12slabCapacityEv:
 2413              	.LFB80:
 311:src/_SlabAllocator.cpp **** int kmem_cache_t::slabCapacity() {
 2414              		.loc 2 311 34 is_stmt 1
 2415              		.cfi_startproc
GAS LISTING /tmp/cc6lMr8s.s 			page 54


 2416              	.LVL216:
 2417 0db8 130101FF 		addi	sp,sp,-16
 2418              		.cfi_def_cfa_offset 16
 2419 0dbc 23348100 		sd	s0,8(sp)
 2420              		.cfi_offset 8, -8
 2421 0dc0 13040101 		addi	s0,sp,16
 2422              		.cfi_def_cfa 8, 0
 312:src/_SlabAllocator.cpp ****     size_t actualSize = buffCache ? slabSize : slabSize - sizeof(_ObjSlab);
 2423              		.loc 2 312 5
 2424              		.loc 2 312 25 is_stmt 0
 2425 0dc4 83470504 		lbu	a5,64(a0)
 2426              		.loc 2 312 35
 2427 0dc8 63800702 		beqz	a5,.L164
 2428              		.loc 2 312 35 discriminator 1
 2429 0dcc 83378502 		ld	a5,40(a0)
 2430              	.L165:
 2431              	.LVL217:
 313:src/_SlabAllocator.cpp ****     return actualSize / slotSize;
 2432              		.loc 2 313 5 is_stmt 1 discriminator 4
 2433              		.loc 2 313 25 is_stmt 0 discriminator 4
 2434 0dd0 03350502 		ld	a0,32(a0)
 2435              	.LVL218:
 2436              		.loc 2 313 23 discriminator 4
 2437 0dd4 33D5A702 		divu	a0,a5,a0
 314:src/_SlabAllocator.cpp **** }
 2438              		.loc 2 314 1 discriminator 4
 2439 0dd8 1B050500 		sext.w	a0,a0
 2440 0ddc 03348100 		ld	s0,8(sp)
 2441              		.cfi_remember_state
 2442              		.cfi_restore 8
 2443              		.cfi_def_cfa 2, 16
 2444 0de0 13010101 		addi	sp,sp,16
 2445              		.cfi_def_cfa_offset 0
 2446 0de4 67800000 		jr	ra
 2447              	.LVL219:
 2448              	.L164:
 2449              		.cfi_restore_state
 312:src/_SlabAllocator.cpp ****     size_t actualSize = buffCache ? slabSize : slabSize - sizeof(_ObjSlab);
 2450              		.loc 2 312 48 discriminator 2
 2451 0de8 83378502 		ld	a5,40(a0)
 312:src/_SlabAllocator.cpp ****     size_t actualSize = buffCache ? slabSize : slabSize - sizeof(_ObjSlab);
 2452              		.loc 2 312 35 discriminator 2
 2453 0dec 938787FC 		addi	a5,a5,-56
 2454 0df0 6FF01FFE 		j	.L165
 2455              		.cfi_endproc
 2456              	.LFE80:
 2458              		.align	2
 2459              		.globl	_ZN12kmem_cache_t16allocatedSlotNumEv
 2461              	_ZN12kmem_cache_t16allocatedSlotNumEv:
 2462              	.LFB81:
 315:src/_SlabAllocator.cpp **** int kmem_cache_t::allocatedSlotNum() {
 2463              		.loc 2 315 38 is_stmt 1
 2464              		.cfi_startproc
 2465              	.LVL220:
 2466 0df4 130101FB 		addi	sp,sp,-80
 2467              		.cfi_def_cfa_offset 80
 2468 0df8 23341104 		sd	ra,72(sp)
GAS LISTING /tmp/cc6lMr8s.s 			page 55


 2469 0dfc 23308104 		sd	s0,64(sp)
 2470 0e00 233C9102 		sd	s1,56(sp)
 2471 0e04 23382103 		sd	s2,48(sp)
 2472 0e08 23343103 		sd	s3,40(sp)
 2473              		.cfi_offset 1, -8
 2474              		.cfi_offset 8, -16
 2475              		.cfi_offset 9, -24
 2476              		.cfi_offset 18, -32
 2477              		.cfi_offset 19, -40
 2478 0e0c 13040105 		addi	s0,sp,80
 2479              		.cfi_def_cfa 8, 0
 316:src/_SlabAllocator.cpp ****     int res = 0;
 2480              		.loc 2 316 5
 2481              	.LVL221:
 317:src/_SlabAllocator.cpp ****     _Slab* arrs[] = {free, partial, full};
 2482              		.loc 2 317 5
 2483              		.loc 2 317 22 is_stmt 0
 2484 0e10 83378500 		ld	a5,8(a0)
 2485              		.loc 2 317 41
 2486 0e14 233CF4FA 		sd	a5,-72(s0)
 2487              		.loc 2 317 28
 2488 0e18 83370501 		ld	a5,16(a0)
 2489              		.loc 2 317 41
 2490 0e1c 2330F4FC 		sd	a5,-64(s0)
 2491              		.loc 2 317 37
 2492 0e20 83370500 		ld	a5,0(a0)
 2493              		.loc 2 317 41
 2494 0e24 2334F4FC 		sd	a5,-56(s0)
 318:src/_SlabAllocator.cpp ****     for (int i = 1; i < 3; i++) {
 2495              		.loc 2 318 5 is_stmt 1
 2496              	.LVL222:
 2497              	.LBB47:
 2498              		.loc 2 318 14 is_stmt 0
 2499 0e28 93091000 		li	s3,1
 2500              	.LBE47:
 316:src/_SlabAllocator.cpp ****     int res = 0;
 2501              		.loc 2 316 9
 2502 0e2c 13090000 		li	s2,0
 2503 0e30 6F008000 		j	.L171
 2504              	.LVL223:
 2505              	.L169:
 2506              	.LBB49:
 2507              		.loc 2 318 5 is_stmt 1 discriminator 2
 2508 0e34 9B891900 		addiw	s3,s3,1
 2509              	.LVL224:
 2510              	.L171:
 2511              		.loc 2 318 23 discriminator 1
 2512 0e38 93072000 		li	a5,2
 2513 0e3c 63CA3703 		bgt	s3,a5,.L168
 2514              	.LBB48:
 319:src/_SlabAllocator.cpp ****         _Slab* cur = arrs[i];
 2515              		.loc 2 319 9
 2516              		.loc 2 319 16 is_stmt 0
 2517 0e40 93973900 		slli	a5,s3,3
 2518 0e44 130704FD 		addi	a4,s0,-48
 2519 0e48 B307F700 		add	a5,a4,a5
 2520 0e4c 83B487FE 		ld	s1,-24(a5)
GAS LISTING /tmp/cc6lMr8s.s 			page 56


 2521              	.LVL225:
 2522              	.L170:
 320:src/_SlabAllocator.cpp ****         while (cur) { res += cur->getAllocatedCount(); cur = cur->next; }
 2523              		.loc 2 320 9 is_stmt 1 discriminator 3
 2524              		.loc 2 320 16 discriminator 3
 2525 0e50 E38204FE 		beqz	s1,.L169
 2526              		.loc 2 320 23 discriminator 1
 2527              		.loc 2 320 53 is_stmt 0 discriminator 1
 2528 0e54 83B70400 		ld	a5,0(s1)
 2529 0e58 83B70702 		ld	a5,32(a5)
 2530              		.loc 2 320 52 discriminator 1
 2531 0e5c 13850400 		mv	a0,s1
 2532 0e60 E7800700 		jalr	a5
 2533              	.LVL226:
 2534              		.loc 2 320 27 discriminator 1
 2535 0e64 3B09A900 		addw	s2,s2,a0
 2536              	.LVL227:
 2537              		.loc 2 320 56 is_stmt 1 discriminator 1
 2538              		.loc 2 320 60 is_stmt 0 discriminator 1
 2539 0e68 83B48402 		ld	s1,40(s1)
 2540              	.LVL228:
 2541              		.loc 2 320 9 discriminator 1
 2542 0e6c 6FF05FFE 		j	.L170
 2543              	.LVL229:
 2544              	.L168:
 2545              	.LBE48:
 2546              	.LBE49:
 321:src/_SlabAllocator.cpp ****     }
 322:src/_SlabAllocator.cpp ****     return res;
 2547              		.loc 2 322 5 is_stmt 1
 323:src/_SlabAllocator.cpp **** }
 2548              		.loc 2 323 1 is_stmt 0
 2549 0e70 13050900 		mv	a0,s2
 2550 0e74 83308104 		ld	ra,72(sp)
 2551              		.cfi_restore 1
 2552 0e78 03340104 		ld	s0,64(sp)
 2553              		.cfi_restore 8
 2554              		.cfi_def_cfa 2, 80
 2555 0e7c 83348103 		ld	s1,56(sp)
 2556              		.cfi_restore 9
 2557 0e80 03390103 		ld	s2,48(sp)
 2558              		.cfi_restore 18
 2559              	.LVL230:
 2560 0e84 83398102 		ld	s3,40(sp)
 2561              		.cfi_restore 19
 2562              	.LVL231:
 2563 0e88 13010105 		addi	sp,sp,80
 2564              		.cfi_def_cfa_offset 0
 2565 0e8c 67800000 		jr	ra
 2566              		.cfi_endproc
 2567              	.LFE81:
 2569              		.section	.rodata.str1.8
 2570 0075 000000   		.align	3
 2571              	.LC3:
 2572 0078 43616368 		.string	"Cache: "
 2572      653A2000 
 2573              		.align	3
GAS LISTING /tmp/cc6lMr8s.s 			page 57


 2574              	.LC4:
 2575 0080 536C6F74 		.string	"Slot size: "
 2575      2073697A 
 2575      653A2000 
 2576 008c 00000000 		.align	3
 2577              	.LC5:
 2578 0090 536C6162 		.string	"Slab size: "
 2578      2073697A 
 2578      653A2000 
 2579 009c 00000000 		.align	3
 2580              	.LC6:
 2581 00a0 536C6F74 		.string	"Slots per slab: "
 2581      73207065 
 2581      7220736C 
 2581      61623A20 
 2581      00
 2582 00b1 00000000 		.align	3
 2582      000000
 2583              	.LC7:
 2584 00b8 4E756D62 		.string	"Number of slabs: "
 2584      6572206F 
 2584      6620736C 
 2584      6162733A 
 2584      2000
 2585 00ca 00000000 		.align	3
 2585      0000
 2586              	.LC8:
 2587 00d0 416C6C6F 		.string	"Allocated objects / Total slots: "
 2587      63617465 
 2587      64206F62 
 2587      6A656374 
 2587      73202F20 
 2588 00f2 00000000 		.align	3
 2588      0000
 2589              	.LC9:
 2590 00f8 202F2000 		.string	" / "
 2591              		.text
 2592              		.align	2
 2593              		.globl	_ZN12kmem_cache_t9printInfoEv
 2595              	_ZN12kmem_cache_t9printInfoEv:
 2596              	.LFB82:
 324:src/_SlabAllocator.cpp **** void kmem_cache_t::printInfo() {
 2597              		.loc 2 324 32 is_stmt 1
 2598              		.cfi_startproc
 2599              	.LVL232:
 2600 0e90 130101FD 		addi	sp,sp,-48
 2601              		.cfi_def_cfa_offset 48
 2602 0e94 23341102 		sd	ra,40(sp)
 2603 0e98 23308102 		sd	s0,32(sp)
 2604 0e9c 233C9100 		sd	s1,24(sp)
 2605 0ea0 23382101 		sd	s2,16(sp)
 2606 0ea4 23343101 		sd	s3,8(sp)
 2607              		.cfi_offset 1, -8
 2608              		.cfi_offset 8, -16
 2609              		.cfi_offset 9, -24
 2610              		.cfi_offset 18, -32
 2611              		.cfi_offset 19, -40
GAS LISTING /tmp/cc6lMr8s.s 			page 58


 2612 0ea8 13040103 		addi	s0,sp,48
 2613              		.cfi_def_cfa 8, 0
 2614 0eac 93040500 		mv	s1,a0
 325:src/_SlabAllocator.cpp ****     int slabCnt = slabNum();
 2615              		.loc 2 325 5
 2616              		.loc 2 325 26 is_stmt 0
 2617 0eb0 97000000 		call	_ZN12kmem_cache_t7slabNumEv
 2617      E7800000 
 2618              	.LVL233:
 2619 0eb8 93090500 		mv	s3,a0
 2620              	.LVL234:
 326:src/_SlabAllocator.cpp ****     int slabCap = slabCapacity();
 2621              		.loc 2 326 5 is_stmt 1
 2622              		.loc 2 326 31 is_stmt 0
 2623 0ebc 13850400 		mv	a0,s1
 2624 0ec0 97000000 		call	_ZN12kmem_cache_t12slabCapacityEv
 2624      E7800000 
 2625              	.LVL235:
 2626 0ec8 13090500 		mv	s2,a0
 2627              	.LVL236:
 327:src/_SlabAllocator.cpp ****     _Console::printString("Cache: ");
 2628              		.loc 2 327 5 is_stmt 1
 2629              		.loc 2 327 26 is_stmt 0
 2630 0ecc 17050000 		lla	a0,.LC3
 2630      13050500 
 2631 0ed4 97000000 		call	_ZN8_Console11printStringEPKc@plt
 2631      E7800000 
 2632              	.LVL237:
 328:src/_SlabAllocator.cpp ****     _Console::printString(name);
 2633              		.loc 2 328 5 is_stmt 1
 2634              		.loc 2 328 26 is_stmt 0
 2635 0edc 03B58401 		ld	a0,24(s1)
 2636 0ee0 97000000 		call	_ZN8_Console11printStringEPKc@plt
 2636      E7800000 
 2637              	.LVL238:
 329:src/_SlabAllocator.cpp ****     _Console::putc('\n');
 2638              		.loc 2 329 5 is_stmt 1
 2639              		.loc 2 329 19 is_stmt 0
 2640 0ee8 1305A000 		li	a0,10
 2641 0eec 97000000 		call	_ZN8_Console4putcEc@plt
 2641      E7800000 
 2642              	.LVL239:
 330:src/_SlabAllocator.cpp **** 
 331:src/_SlabAllocator.cpp ****     _Console::printString("Slot size: ");
 2643              		.loc 2 331 5 is_stmt 1
 2644              		.loc 2 331 26 is_stmt 0
 2645 0ef4 17050000 		lla	a0,.LC4
 2645      13050500 
 2646 0efc 97000000 		call	_ZN8_Console11printStringEPKc@plt
 2646      E7800000 
 2647              	.LVL240:
 332:src/_SlabAllocator.cpp ****     _Console::printNum(slotSize);
 2648              		.loc 2 332 5 is_stmt 1
 2649              		.loc 2 332 23 is_stmt 0
 2650 0f04 03B50402 		ld	a0,32(s1)
 2651 0f08 97000000 		call	_ZN8_Console8printNumEm@plt
 2651      E7800000 
GAS LISTING /tmp/cc6lMr8s.s 			page 59


 2652              	.LVL241:
 333:src/_SlabAllocator.cpp ****     _Console::putc('\n');
 2653              		.loc 2 333 5 is_stmt 1
 2654              		.loc 2 333 19 is_stmt 0
 2655 0f10 1305A000 		li	a0,10
 2656 0f14 97000000 		call	_ZN8_Console4putcEc@plt
 2656      E7800000 
 2657              	.LVL242:
 334:src/_SlabAllocator.cpp **** 
 335:src/_SlabAllocator.cpp ****     _Console::printString("Slab size: ");
 2658              		.loc 2 335 5 is_stmt 1
 2659              		.loc 2 335 26 is_stmt 0
 2660 0f1c 17050000 		lla	a0,.LC5
 2660      13050500 
 2661 0f24 97000000 		call	_ZN8_Console11printStringEPKc@plt
 2661      E7800000 
 2662              	.LVL243:
 336:src/_SlabAllocator.cpp ****     _Console::printNum(slabSize);
 2663              		.loc 2 336 5 is_stmt 1
 2664              		.loc 2 336 23 is_stmt 0
 2665 0f2c 03B58402 		ld	a0,40(s1)
 2666 0f30 97000000 		call	_ZN8_Console8printNumEm@plt
 2666      E7800000 
 2667              	.LVL244:
 337:src/_SlabAllocator.cpp ****     _Console::putc('\n');
 2668              		.loc 2 337 5 is_stmt 1
 2669              		.loc 2 337 19 is_stmt 0
 2670 0f38 1305A000 		li	a0,10
 2671 0f3c 97000000 		call	_ZN8_Console4putcEc@plt
 2671      E7800000 
 2672              	.LVL245:
 338:src/_SlabAllocator.cpp **** 
 339:src/_SlabAllocator.cpp ****     _Console::printString("Slots per slab: ");
 2673              		.loc 2 339 5 is_stmt 1
 2674              		.loc 2 339 26 is_stmt 0
 2675 0f44 17050000 		lla	a0,.LC6
 2675      13050500 
 2676 0f4c 97000000 		call	_ZN8_Console11printStringEPKc@plt
 2676      E7800000 
 2677              	.LVL246:
 340:src/_SlabAllocator.cpp ****     _Console::printNum(slabCap);
 2678              		.loc 2 340 5 is_stmt 1
 2679              		.loc 2 340 23 is_stmt 0
 2680 0f54 13050900 		mv	a0,s2
 2681 0f58 97000000 		call	_ZN8_Console8printNumEm@plt
 2681      E7800000 
 2682              	.LVL247:
 341:src/_SlabAllocator.cpp ****     _Console::putc('\n');
 2683              		.loc 2 341 5 is_stmt 1
 2684              		.loc 2 341 19 is_stmt 0
 2685 0f60 1305A000 		li	a0,10
 2686 0f64 97000000 		call	_ZN8_Console4putcEc@plt
 2686      E7800000 
 2687              	.LVL248:
 342:src/_SlabAllocator.cpp **** 
 343:src/_SlabAllocator.cpp ****     _Console::printString("Number of slabs: ");
 2688              		.loc 2 343 5 is_stmt 1
GAS LISTING /tmp/cc6lMr8s.s 			page 60


 2689              		.loc 2 343 26 is_stmt 0
 2690 0f6c 17050000 		lla	a0,.LC7
 2690      13050500 
 2691 0f74 97000000 		call	_ZN8_Console11printStringEPKc@plt
 2691      E7800000 
 2692              	.LVL249:
 344:src/_SlabAllocator.cpp ****     _Console::printNum(slabCnt);
 2693              		.loc 2 344 5 is_stmt 1
 2694              		.loc 2 344 23 is_stmt 0
 2695 0f7c 13850900 		mv	a0,s3
 2696 0f80 97000000 		call	_ZN8_Console8printNumEm@plt
 2696      E7800000 
 2697              	.LVL250:
 345:src/_SlabAllocator.cpp ****     _Console::putc('\n');
 2698              		.loc 2 345 5 is_stmt 1
 2699              		.loc 2 345 19 is_stmt 0
 2700 0f88 1305A000 		li	a0,10
 2701 0f8c 97000000 		call	_ZN8_Console4putcEc@plt
 2701      E7800000 
 2702              	.LVL251:
 346:src/_SlabAllocator.cpp **** 
 347:src/_SlabAllocator.cpp ****     _Console::printString("Allocated objects / Total slots: ");
 2703              		.loc 2 347 5 is_stmt 1
 2704              		.loc 2 347 26 is_stmt 0
 2705 0f94 17050000 		lla	a0,.LC8
 2705      13050500 
 2706 0f9c 97000000 		call	_ZN8_Console11printStringEPKc@plt
 2706      E7800000 
 2707              	.LVL252:
 348:src/_SlabAllocator.cpp ****     _Console::printNum(allocatedSlotNum());
 2708              		.loc 2 348 5 is_stmt 1
 2709              		.loc 2 348 40 is_stmt 0
 2710 0fa4 13850400 		mv	a0,s1
 2711 0fa8 97000000 		call	_ZN12kmem_cache_t16allocatedSlotNumEv
 2711      E7800000 
 2712              	.LVL253:
 2713              		.loc 2 348 23
 2714 0fb0 97000000 		call	_ZN8_Console8printNumEm@plt
 2714      E7800000 
 2715              	.LVL254:
 349:src/_SlabAllocator.cpp ****     _Console::printString(" / ");
 2716              		.loc 2 349 5 is_stmt 1
 2717              		.loc 2 349 26 is_stmt 0
 2718 0fb8 17050000 		lla	a0,.LC9
 2718      13050500 
 2719 0fc0 97000000 		call	_ZN8_Console11printStringEPKc@plt
 2719      E7800000 
 2720              	.LVL255:
 350:src/_SlabAllocator.cpp ****     _Console::printNum(slabCnt * slabCap);
 2721              		.loc 2 350 5 is_stmt 1
 2722              		.loc 2 350 23 is_stmt 0
 2723 0fc8 3B852903 		mulw	a0,s3,s2
 2724 0fcc 97000000 		call	_ZN8_Console8printNumEm@plt
 2724      E7800000 
 2725              	.LVL256:
 351:src/_SlabAllocator.cpp ****     _Console::putc('\n');
 2726              		.loc 2 351 5 is_stmt 1
GAS LISTING /tmp/cc6lMr8s.s 			page 61


 2727              		.loc 2 351 19 is_stmt 0
 2728 0fd4 1305A000 		li	a0,10
 2729 0fd8 97000000 		call	_ZN8_Console4putcEc@plt
 2729      E7800000 
 2730              	.LVL257:
 352:src/_SlabAllocator.cpp **** 
 353:src/_SlabAllocator.cpp ****     _Console::putc('\n');
 2731              		.loc 2 353 5 is_stmt 1
 2732              		.loc 2 353 19 is_stmt 0
 2733 0fe0 1305A000 		li	a0,10
 2734 0fe4 97000000 		call	_ZN8_Console4putcEc@plt
 2734      E7800000 
 2735              	.LVL258:
 354:src/_SlabAllocator.cpp **** }
 2736              		.loc 2 354 1
 2737 0fec 83308102 		ld	ra,40(sp)
 2738              		.cfi_restore 1
 2739 0ff0 03340102 		ld	s0,32(sp)
 2740              		.cfi_restore 8
 2741              		.cfi_def_cfa 2, 48
 2742 0ff4 83348101 		ld	s1,24(sp)
 2743              		.cfi_restore 9
 2744              	.LVL259:
 2745 0ff8 03390101 		ld	s2,16(sp)
 2746              		.cfi_restore 18
 2747              	.LVL260:
 2748 0ffc 83398100 		ld	s3,8(sp)
 2749              		.cfi_restore 19
 2750              	.LVL261:
 2751 1000 13010103 		addi	sp,sp,48
 2752              		.cfi_def_cfa_offset 0
 2753 1004 67800000 		jr	ra
 2754              		.cfi_endproc
 2755              	.LFE82:
 2757              		.section	.rodata.str1.8
 2758 00fc 00000000 		.align	3
 2759              	.LC10:
 2760 0100 4E4F2045 		.string	"NO ERROR!\n"
 2760      52524F52 
 2760      210A00
 2761              		.text
 2762              		.align	2
 2763              		.globl	_ZN12kmem_cache_t10printErrorEv
 2765              	_ZN12kmem_cache_t10printErrorEv:
 2766              	.LFB83:
 355:src/_SlabAllocator.cpp **** int kmem_cache_t::printError() {
 2767              		.loc 2 355 32 is_stmt 1
 2768              		.cfi_startproc
 2769              	.LVL262:
 2770 1008 130101FE 		addi	sp,sp,-32
 2771              		.cfi_def_cfa_offset 32
 2772 100c 233C1100 		sd	ra,24(sp)
 2773 1010 23388100 		sd	s0,16(sp)
 2774 1014 23349100 		sd	s1,8(sp)
 2775              		.cfi_offset 1, -8
 2776              		.cfi_offset 8, -16
 2777              		.cfi_offset 9, -24
GAS LISTING /tmp/cc6lMr8s.s 			page 62


 2778 1018 13040102 		addi	s0,sp,32
 2779              		.cfi_def_cfa 8, 0
 2780 101c 93040500 		mv	s1,a0
 356:src/_SlabAllocator.cpp ****     if (err) {
 2781              		.loc 2 356 5
 2782              		.loc 2 356 9 is_stmt 0
 2783 1020 03358505 		ld	a0,88(a0)
 2784              	.LVL263:
 2785              		.loc 2 356 5
 2786 1024 630A0502 		beqz	a0,.L176
 357:src/_SlabAllocator.cpp ****         _Console::printString(err);
 2787              		.loc 2 357 9 is_stmt 1
 2788              		.loc 2 357 30 is_stmt 0
 2789 1028 97000000 		call	_ZN8_Console11printStringEPKc@plt
 2789      E7800000 
 2790              	.LVL264:
 358:src/_SlabAllocator.cpp ****         _Console::putc('\n');
 2791              		.loc 2 358 9 is_stmt 1
 2792              		.loc 2 358 23 is_stmt 0
 2793 1030 1305A000 		li	a0,10
 2794 1034 97000000 		call	_ZN8_Console4putcEc@plt
 2794      E7800000 
 2795              	.LVL265:
 359:src/_SlabAllocator.cpp ****         err = nullptr;
 2796              		.loc 2 359 9 is_stmt 1
 2797              		.loc 2 359 13 is_stmt 0
 2798 103c 23BC0404 		sd	zero,88(s1)
 360:src/_SlabAllocator.cpp ****         return 1;
 2799              		.loc 2 360 9 is_stmt 1
 2800              		.loc 2 360 16 is_stmt 0
 2801 1040 13051000 		li	a0,1
 2802              	.L177:
 361:src/_SlabAllocator.cpp ****     }
 362:src/_SlabAllocator.cpp ****     else {
 363:src/_SlabAllocator.cpp ****         _Console::printString("NO ERROR!\n");
 364:src/_SlabAllocator.cpp ****         return 0;
 365:src/_SlabAllocator.cpp ****     }
 366:src/_SlabAllocator.cpp **** }
 2803              		.loc 2 366 1
 2804 1044 83308101 		ld	ra,24(sp)
 2805              		.cfi_remember_state
 2806              		.cfi_restore 1
 2807 1048 03340101 		ld	s0,16(sp)
 2808              		.cfi_restore 8
 2809              		.cfi_def_cfa 2, 32
 2810 104c 83348100 		ld	s1,8(sp)
 2811              		.cfi_restore 9
 2812              	.LVL266:
 2813 1050 13010102 		addi	sp,sp,32
 2814              		.cfi_def_cfa_offset 0
 2815 1054 67800000 		jr	ra
 2816              	.LVL267:
 2817              	.L176:
 2818              		.cfi_restore_state
 363:src/_SlabAllocator.cpp ****         return 0;
 2819              		.loc 2 363 9 is_stmt 1
 363:src/_SlabAllocator.cpp ****         return 0;
GAS LISTING /tmp/cc6lMr8s.s 			page 63


 2820              		.loc 2 363 30 is_stmt 0
 2821 1058 17050000 		lla	a0,.LC10
 2821      13050500 
 2822 1060 97000000 		call	_ZN8_Console11printStringEPKc@plt
 2822      E7800000 
 2823              	.LVL268:
 364:src/_SlabAllocator.cpp ****     }
 2824              		.loc 2 364 9 is_stmt 1
 364:src/_SlabAllocator.cpp ****     }
 2825              		.loc 2 364 16 is_stmt 0
 2826 1068 13050000 		li	a0,0
 2827 106c 6FF09FFD 		j	.L177
 2828              		.cfi_endproc
 2829              	.LFE83:
 2831              		.align	2
 2832              		.globl	_ZN12kmem_cache_t9kmem_initEPvi
 2834              	_ZN12kmem_cache_t9kmem_initEPvi:
 2835              	.LFB84:
 367:src/_SlabAllocator.cpp **** 
 368:src/_SlabAllocator.cpp **** void kmem_cache_t::kmem_init(void* space, int block_num) {
 2836              		.loc 2 368 58 is_stmt 1
 2837              		.cfi_startproc
 2838              	.LVL269:
 2839 1070 130101FE 		addi	sp,sp,-32
 2840              		.cfi_def_cfa_offset 32
 2841 1074 233C1100 		sd	ra,24(sp)
 2842 1078 23388100 		sd	s0,16(sp)
 2843 107c 23349100 		sd	s1,8(sp)
 2844 1080 23302101 		sd	s2,0(sp)
 2845              		.cfi_offset 1, -8
 2846              		.cfi_offset 8, -16
 2847              		.cfi_offset 9, -24
 2848              		.cfi_offset 18, -32
 2849 1084 13040102 		addi	s0,sp,32
 2850              		.cfi_def_cfa 8, 0
 369:src/_SlabAllocator.cpp ****     void* heap_end = (char*)space + block_num * BLOCK_SIZE;
 2851              		.loc 2 369 5
 2852              		.loc 2 369 47 is_stmt 0
 2853 1088 9B95C500 		slliw	a1,a1,12
 2854              	.LVL270:
 2855              		.loc 2 369 11
 2856 108c 3309B500 		add	s2,a0,a1
 2857              	.LVL271:
 370:src/_SlabAllocator.cpp ****     _BuddyTree* buddy = new(space) _BuddyTree(heap_end, BLOCK_SIZE, PAGEOFFMASK);
 2858              		.loc 2 370 5 is_stmt 1
 2859              		.loc 2 370 80 is_stmt 0
 2860 1090 93050500 		mv	a1,a0
 2861 1094 13050003 		li	a0,48
 2862              	.LVL272:
 2863 1098 97000000 		call	_ZnwmPv@plt
 2863      E7800000 
 2864              	.LVL273:
 2865 10a0 93040500 		mv	s1,a0
 2866 10a4 630E0500 		beqz	a0,.L180
 2867              		.loc 2 370 80 discriminator 1
 2868 10a8 B7160000 		li	a3,4096
 2869 10ac 9386F6FF 		addi	a3,a3,-1
GAS LISTING /tmp/cc6lMr8s.s 			page 64


 2870 10b0 37160000 		li	a2,4096
 2871 10b4 93050900 		mv	a1,s2
 2872 10b8 97000000 		call	_ZN10_BuddyTreeC1EPvmm@plt
 2872      E7800000 
 2873              	.LVL274:
 2874              	.L180:
 371:src/_SlabAllocator.cpp ****     kmem_init(buddy);
 2875              		.loc 2 371 5 is_stmt 1 discriminator 4
 2876              		.loc 2 371 14 is_stmt 0 discriminator 4
 2877 10c0 13850400 		mv	a0,s1
 2878 10c4 97000000 		call	_ZN12kmem_cache_t9kmem_initEP10_BuddyTree
 2878      E7800000 
 2879              	.LVL275:
 372:src/_SlabAllocator.cpp **** }
 2880              		.loc 2 372 1 discriminator 4
 2881 10cc 83308101 		ld	ra,24(sp)
 2882              		.cfi_restore 1
 2883 10d0 03340101 		ld	s0,16(sp)
 2884              		.cfi_restore 8
 2885              		.cfi_def_cfa 2, 32
 2886 10d4 83348100 		ld	s1,8(sp)
 2887              		.cfi_restore 9
 2888              	.LVL276:
 2889 10d8 03390100 		ld	s2,0(sp)
 2890              		.cfi_restore 18
 2891              	.LVL277:
 2892 10dc 13010102 		addi	sp,sp,32
 2893              		.cfi_def_cfa_offset 0
 2894 10e0 67800000 		jr	ra
 2895              		.cfi_endproc
 2896              	.LFE84:
 2898              		.align	2
 2899              		.globl	_ZN12kmem_cache_t17kmem_cache_createEPKcmPFvPvES4_
 2901              	_ZN12kmem_cache_t17kmem_cache_createEPKcmPFvPvES4_:
 2902              	.LFB85:
 373:src/_SlabAllocator.cpp **** kmem_cache_t* kmem_cache_t::kmem_cache_create(const char* name, size_t size, void (*ctor)(void*), v
 2903              		.loc 2 373 120 is_stmt 1
 2904              		.cfi_startproc
 2905              	.LVL278:
 2906 10e4 130101FC 		addi	sp,sp,-64
 2907              		.cfi_def_cfa_offset 64
 2908 10e8 233C1102 		sd	ra,56(sp)
 2909 10ec 23388102 		sd	s0,48(sp)
 2910 10f0 23349102 		sd	s1,40(sp)
 2911 10f4 23302103 		sd	s2,32(sp)
 2912 10f8 233C3101 		sd	s3,24(sp)
 2913 10fc 23384101 		sd	s4,16(sp)
 2914 1100 23345101 		sd	s5,8(sp)
 2915              		.cfi_offset 1, -8
 2916              		.cfi_offset 8, -16
 2917              		.cfi_offset 9, -24
 2918              		.cfi_offset 18, -32
 2919              		.cfi_offset 19, -40
 2920              		.cfi_offset 20, -48
 2921              		.cfi_offset 21, -56
 2922 1104 13040104 		addi	s0,sp,64
 2923              		.cfi_def_cfa 8, 0
GAS LISTING /tmp/cc6lMr8s.s 			page 65


 2924 1108 13090500 		mv	s2,a0
 2925 110c 93890500 		mv	s3,a1
 2926 1110 130A0600 		mv	s4,a2
 2927 1114 938A0600 		mv	s5,a3
 374:src/_SlabAllocator.cpp ****     kmem_cache_t* ret = allocKct();
 2928              		.loc 2 374 5
 2929              		.loc 2 374 33 is_stmt 0
 2930 1118 97000000 		call	_ZN12kmem_cache_t8allocKctEv
 2930      E7800000 
 2931              	.LVL279:
 2932 1120 93040500 		mv	s1,a0
 2933              	.LVL280:
 375:src/_SlabAllocator.cpp ****     new (ret) kmem_cache_t(name, size, ctor, dtor, false);
 2934              		.loc 2 375 5 is_stmt 1
 2935              		.loc 2 375 57 is_stmt 0
 2936 1124 93050500 		mv	a1,a0
 2937 1128 13050006 		li	a0,96
 2938 112c 97000000 		call	_ZnwmPv@plt
 2938      E7800000 
 2939              	.LVL281:
 2940 1134 63000502 		beqz	a0,.L182
 2941              		.loc 2 375 57 discriminator 1
 2942 1138 93070000 		li	a5,0
 2943 113c 13870A00 		mv	a4,s5
 2944 1140 93060A00 		mv	a3,s4
 2945 1144 13860900 		mv	a2,s3
 2946 1148 93050900 		mv	a1,s2
 2947 114c 97000000 		call	_ZN12kmem_cache_tC1EPKcmPFvPvES4_b
 2947      E7800000 
 2948              	.LVL282:
 376:src/_SlabAllocator.cpp ****     return ret;
 2949              		.loc 2 376 5 is_stmt 1 discriminator 1
 2950              	.L182:
 377:src/_SlabAllocator.cpp **** }
 2951              		.loc 2 377 1 is_stmt 0
 2952 1154 13850400 		mv	a0,s1
 2953 1158 83308103 		ld	ra,56(sp)
 2954              		.cfi_restore 1
 2955 115c 03340103 		ld	s0,48(sp)
 2956              		.cfi_restore 8
 2957              		.cfi_def_cfa 2, 64
 2958 1160 83348102 		ld	s1,40(sp)
 2959              		.cfi_restore 9
 2960              	.LVL283:
 2961 1164 03390102 		ld	s2,32(sp)
 2962              		.cfi_restore 18
 2963              	.LVL284:
 2964 1168 83398101 		ld	s3,24(sp)
 2965              		.cfi_restore 19
 2966              	.LVL285:
 2967 116c 033A0101 		ld	s4,16(sp)
 2968              		.cfi_restore 20
 2969              	.LVL286:
 2970 1170 833A8100 		ld	s5,8(sp)
 2971              		.cfi_restore 21
 2972              	.LVL287:
 2973 1174 13010104 		addi	sp,sp,64
GAS LISTING /tmp/cc6lMr8s.s 			page 66


 2974              		.cfi_def_cfa_offset 0
 2975 1178 67800000 		jr	ra
 2976              		.cfi_endproc
 2977              	.LFE85:
 2979              		.align	2
 2980              		.globl	_ZN12kmem_cache_t17kmem_cache_shrinkEPS_
 2982              	_ZN12kmem_cache_t17kmem_cache_shrinkEPS_:
 2983              	.LFB86:
 378:src/_SlabAllocator.cpp **** int kmem_cache_t::kmem_cache_shrink(kmem_cache_t* cachep) {
 2984              		.loc 2 378 59 is_stmt 1
 2985              		.cfi_startproc
 2986              	.LVL288:
 2987 117c 130101FF 		addi	sp,sp,-16
 2988              		.cfi_def_cfa_offset 16
 2989 1180 23341100 		sd	ra,8(sp)
 2990 1184 23308100 		sd	s0,0(sp)
 2991              		.cfi_offset 1, -8
 2992              		.cfi_offset 8, -16
 2993 1188 13040101 		addi	s0,sp,16
 2994              		.cfi_def_cfa 8, 0
 379:src/_SlabAllocator.cpp ****     return cachep->shrink();
 2995              		.loc 2 379 5
 2996              		.loc 2 379 26 is_stmt 0
 2997 118c 97000000 		call	_ZN12kmem_cache_t6shrinkEv
 2997      E7800000 
 2998              	.LVL289:
 380:src/_SlabAllocator.cpp **** }
 2999              		.loc 2 380 1
 3000 1194 83308100 		ld	ra,8(sp)
 3001              		.cfi_restore 1
 3002 1198 03340100 		ld	s0,0(sp)
 3003              		.cfi_restore 8
 3004              		.cfi_def_cfa 2, 16
 3005 119c 13010101 		addi	sp,sp,16
 3006              		.cfi_def_cfa_offset 0
 3007 11a0 67800000 		jr	ra
 3008              		.cfi_endproc
 3009              	.LFE86:
 3011              		.align	2
 3012              		.globl	_ZN12kmem_cache_t16kmem_cache_allocEPS_
 3014              	_ZN12kmem_cache_t16kmem_cache_allocEPS_:
 3015              	.LFB87:
 381:src/_SlabAllocator.cpp **** void* kmem_cache_t::kmem_cache_alloc(kmem_cache_t* cachep) {
 3016              		.loc 2 381 60 is_stmt 1
 3017              		.cfi_startproc
 3018              	.LVL290:
 3019 11a4 130101FF 		addi	sp,sp,-16
 3020              		.cfi_def_cfa_offset 16
 3021 11a8 23341100 		sd	ra,8(sp)
 3022 11ac 23308100 		sd	s0,0(sp)
 3023              		.cfi_offset 1, -8
 3024              		.cfi_offset 8, -16
 3025 11b0 13040101 		addi	s0,sp,16
 3026              		.cfi_def_cfa 8, 0
 382:src/_SlabAllocator.cpp ****     return cachep->alloc();
 3027              		.loc 2 382 5
 3028              		.loc 2 382 25 is_stmt 0
GAS LISTING /tmp/cc6lMr8s.s 			page 67


 3029 11b4 97000000 		call	_ZN12kmem_cache_t5allocEv
 3029      E7800000 
 3030              	.LVL291:
 383:src/_SlabAllocator.cpp **** }
 3031              		.loc 2 383 1
 3032 11bc 83308100 		ld	ra,8(sp)
 3033              		.cfi_restore 1
 3034 11c0 03340100 		ld	s0,0(sp)
 3035              		.cfi_restore 8
 3036              		.cfi_def_cfa 2, 16
 3037 11c4 13010101 		addi	sp,sp,16
 3038              		.cfi_def_cfa_offset 0
 3039 11c8 67800000 		jr	ra
 3040              		.cfi_endproc
 3041              	.LFE87:
 3043              		.align	2
 3044              		.globl	_ZN12kmem_cache_t15kmem_cache_freeEPS_Pv
 3046              	_ZN12kmem_cache_t15kmem_cache_freeEPS_Pv:
 3047              	.LFB88:
 384:src/_SlabAllocator.cpp **** void kmem_cache_t::kmem_cache_free(kmem_cache_t* cachep, void* objp) {
 3048              		.loc 2 384 70 is_stmt 1
 3049              		.cfi_startproc
 3050              	.LVL292:
 3051 11cc 130101FF 		addi	sp,sp,-16
 3052              		.cfi_def_cfa_offset 16
 3053 11d0 23341100 		sd	ra,8(sp)
 3054 11d4 23308100 		sd	s0,0(sp)
 3055              		.cfi_offset 1, -8
 3056              		.cfi_offset 8, -16
 3057 11d8 13040101 		addi	s0,sp,16
 3058              		.cfi_def_cfa 8, 0
 385:src/_SlabAllocator.cpp ****     cachep->dealloc(objp);
 3059              		.loc 2 385 5
 3060              		.loc 2 385 20 is_stmt 0
 3061 11dc 97000000 		call	_ZN12kmem_cache_t7deallocEPv
 3061      E7800000 
 3062              	.LVL293:
 386:src/_SlabAllocator.cpp **** }
 3063              		.loc 2 386 1
 3064 11e4 83308100 		ld	ra,8(sp)
 3065              		.cfi_restore 1
 3066 11e8 03340100 		ld	s0,0(sp)
 3067              		.cfi_restore 8
 3068              		.cfi_def_cfa 2, 16
 3069 11ec 13010101 		addi	sp,sp,16
 3070              		.cfi_def_cfa_offset 0
 3071 11f0 67800000 		jr	ra
 3072              		.cfi_endproc
 3073              	.LFE88:
 3075              		.align	2
 3076              		.globl	_ZN12kmem_cache_t7kmallocEm
 3078              	_ZN12kmem_cache_t7kmallocEm:
 3079              	.LFB89:
 387:src/_SlabAllocator.cpp **** void* kmem_cache_t::kmalloc(size_t size) {
 3080              		.loc 2 387 42 is_stmt 1
 3081              		.cfi_startproc
 3082              	.LVL294:
GAS LISTING /tmp/cc6lMr8s.s 			page 68


 3083 11f4 130101FF 		addi	sp,sp,-16
 3084              		.cfi_def_cfa_offset 16
 3085 11f8 23341100 		sd	ra,8(sp)
 3086 11fc 23308100 		sd	s0,0(sp)
 3087              		.cfi_offset 1, -8
 3088              		.cfi_offset 8, -16
 3089 1200 13040101 		addi	s0,sp,16
 3090              		.cfi_def_cfa 8, 0
 388:src/_SlabAllocator.cpp ****     kmem_cache_t* cache = getBuffCache(size);
 3091              		.loc 2 388 5
 3092              		.loc 2 388 39 is_stmt 0
 3093 1204 97000000 		call	_ZN12kmem_cache_t12getBuffCacheEm
 3093      E7800000 
 3094              	.LVL295:
 389:src/_SlabAllocator.cpp ****     return cache->alloc();
 3095              		.loc 2 389 5 is_stmt 1
 3096              		.loc 2 389 24 is_stmt 0
 3097 120c 97000000 		call	_ZN12kmem_cache_t5allocEv
 3097      E7800000 
 3098              	.LVL296:
 390:src/_SlabAllocator.cpp **** }
 3099              		.loc 2 390 1
 3100 1214 83308100 		ld	ra,8(sp)
 3101              		.cfi_restore 1
 3102 1218 03340100 		ld	s0,0(sp)
 3103              		.cfi_restore 8
 3104              		.cfi_def_cfa 2, 16
 3105 121c 13010101 		addi	sp,sp,16
 3106              		.cfi_def_cfa_offset 0
 3107 1220 67800000 		jr	ra
 3108              		.cfi_endproc
 3109              	.LFE89:
 3111              		.align	2
 3112              		.globl	_ZN12kmem_cache_t5kfreeEPKv
 3114              	_ZN12kmem_cache_t5kfreeEPKv:
 3115              	.LFB90:
 391:src/_SlabAllocator.cpp **** void kmem_cache_t::kfree(const void* objp) {
 3116              		.loc 2 391 44 is_stmt 1
 3117              		.cfi_startproc
 3118              	.LVL297:
 3119 1224 130101FF 		addi	sp,sp,-16
 3120              		.cfi_def_cfa_offset 16
 3121 1228 23341100 		sd	ra,8(sp)
 3122 122c 23308100 		sd	s0,0(sp)
 3123              		.cfi_offset 1, -8
 3124              		.cfi_offset 8, -16
 3125 1230 13040101 		addi	s0,sp,16
 3126              		.cfi_def_cfa 8, 0
 392:src/_SlabAllocator.cpp ****     void* obj = (void*) objp;
 3127              		.loc 2 392 5
 3128              	.LVL298:
 393:src/_SlabAllocator.cpp ****     deallocBuff(obj);
 3129              		.loc 2 393 5
 3130              		.loc 2 393 16 is_stmt 0
 3131 1234 97000000 		call	_ZN12kmem_cache_t11deallocBuffEPv
 3131      E7800000 
 3132              	.LVL299:
GAS LISTING /tmp/cc6lMr8s.s 			page 69


 394:src/_SlabAllocator.cpp **** }
 3133              		.loc 2 394 1
 3134 123c 83308100 		ld	ra,8(sp)
 3135              		.cfi_restore 1
 3136 1240 03340100 		ld	s0,0(sp)
 3137              		.cfi_restore 8
 3138              		.cfi_def_cfa 2, 16
 3139 1244 13010101 		addi	sp,sp,16
 3140              		.cfi_def_cfa_offset 0
 3141 1248 67800000 		jr	ra
 3142              		.cfi_endproc
 3143              	.LFE90:
 3145              		.align	2
 3146              		.globl	_ZN12kmem_cache_t18kmem_cache_destroyEPS_
 3148              	_ZN12kmem_cache_t18kmem_cache_destroyEPS_:
 3149              	.LFB91:
 395:src/_SlabAllocator.cpp **** void kmem_cache_t::kmem_cache_destroy(kmem_cache_t* cachep) {
 3150              		.loc 2 395 61 is_stmt 1
 3151              		.cfi_startproc
 3152              	.LVL300:
 3153 124c 130101FE 		addi	sp,sp,-32
 3154              		.cfi_def_cfa_offset 32
 3155 1250 233C1100 		sd	ra,24(sp)
 3156 1254 23388100 		sd	s0,16(sp)
 3157 1258 23349100 		sd	s1,8(sp)
 3158              		.cfi_offset 1, -8
 3159              		.cfi_offset 8, -16
 3160              		.cfi_offset 9, -24
 3161 125c 13040102 		addi	s0,sp,32
 3162              		.cfi_def_cfa 8, 0
 3163 1260 93040500 		mv	s1,a0
 396:src/_SlabAllocator.cpp ****     cachep->~kmem_cache_t();
 3164              		.loc 2 396 5
 3165              		.loc 2 396 26 is_stmt 0
 3166 1264 97000000 		call	_ZN12kmem_cache_tD1Ev
 3166      E7800000 
 3167              	.LVL301:
 397:src/_SlabAllocator.cpp ****     deallocKct(cachep);
 3168              		.loc 2 397 5 is_stmt 1
 3169              		.loc 2 397 15 is_stmt 0
 3170 126c 13850400 		mv	a0,s1
 3171 1270 97000000 		call	_ZN12kmem_cache_t10deallocKctEPS_
 3171      E7800000 
 3172              	.LVL302:
 398:src/_SlabAllocator.cpp **** }
 3173              		.loc 2 398 1
 3174 1278 83308101 		ld	ra,24(sp)
 3175              		.cfi_restore 1
 3176 127c 03340101 		ld	s0,16(sp)
 3177              		.cfi_restore 8
 3178              		.cfi_def_cfa 2, 32
 3179 1280 83348100 		ld	s1,8(sp)
 3180              		.cfi_restore 9
 3181              	.LVL303:
 3182 1284 13010102 		addi	sp,sp,32
 3183              		.cfi_def_cfa_offset 0
 3184 1288 67800000 		jr	ra
GAS LISTING /tmp/cc6lMr8s.s 			page 70


 3185              		.cfi_endproc
 3186              	.LFE91:
 3188              		.align	2
 3189              		.globl	_ZN12kmem_cache_t15kmem_cache_infoEPS_
 3191              	_ZN12kmem_cache_t15kmem_cache_infoEPS_:
 3192              	.LFB92:
 399:src/_SlabAllocator.cpp **** void kmem_cache_t::kmem_cache_info(kmem_cache_t* cachep) {
 3193              		.loc 2 399 58 is_stmt 1
 3194              		.cfi_startproc
 3195              	.LVL304:
 3196 128c 130101FF 		addi	sp,sp,-16
 3197              		.cfi_def_cfa_offset 16
 3198 1290 23341100 		sd	ra,8(sp)
 3199 1294 23308100 		sd	s0,0(sp)
 3200              		.cfi_offset 1, -8
 3201              		.cfi_offset 8, -16
 3202 1298 13040101 		addi	s0,sp,16
 3203              		.cfi_def_cfa 8, 0
 400:src/_SlabAllocator.cpp ****     cachep->printInfo();
 3204              		.loc 2 400 5
 3205              		.loc 2 400 22 is_stmt 0
 3206 129c 97000000 		call	_ZN12kmem_cache_t9printInfoEv
 3206      E7800000 
 3207              	.LVL305:
 401:src/_SlabAllocator.cpp **** }
 3208              		.loc 2 401 1
 3209 12a4 83308100 		ld	ra,8(sp)
 3210              		.cfi_restore 1
 3211 12a8 03340100 		ld	s0,0(sp)
 3212              		.cfi_restore 8
 3213              		.cfi_def_cfa 2, 16
 3214 12ac 13010101 		addi	sp,sp,16
 3215              		.cfi_def_cfa_offset 0
 3216 12b0 67800000 		jr	ra
 3217              		.cfi_endproc
 3218              	.LFE92:
 3220              		.align	2
 3221              		.globl	_ZN12kmem_cache_t16kmem_cache_errorEPS_
 3223              	_ZN12kmem_cache_t16kmem_cache_errorEPS_:
 3224              	.LFB93:
 402:src/_SlabAllocator.cpp **** int kmem_cache_t::kmem_cache_error(kmem_cache_t* cachep) {
 3225              		.loc 2 402 58 is_stmt 1
 3226              		.cfi_startproc
 3227              	.LVL306:
 3228 12b4 130101FF 		addi	sp,sp,-16
 3229              		.cfi_def_cfa_offset 16
 3230 12b8 23341100 		sd	ra,8(sp)
 3231 12bc 23308100 		sd	s0,0(sp)
 3232              		.cfi_offset 1, -8
 3233              		.cfi_offset 8, -16
 3234 12c0 13040101 		addi	s0,sp,16
 3235              		.cfi_def_cfa 8, 0
 403:src/_SlabAllocator.cpp ****     return cachep->printError();
 3236              		.loc 2 403 5
 3237              		.loc 2 403 30 is_stmt 0
 3238 12c4 97000000 		call	_ZN12kmem_cache_t10printErrorEv
 3238      E7800000 
GAS LISTING /tmp/cc6lMr8s.s 			page 71


 3239              	.LVL307:
 404:src/_SlabAllocator.cpp **** }
 3240              		.loc 2 404 1
 3241 12cc 83308100 		ld	ra,8(sp)
 3242              		.cfi_restore 1
 3243 12d0 03340100 		ld	s0,0(sp)
 3244              		.cfi_restore 8
 3245              		.cfi_def_cfa 2, 16
 3246 12d4 13010101 		addi	sp,sp,16
 3247              		.cfi_def_cfa_offset 0
 3248 12d8 67800000 		jr	ra
 3249              		.cfi_endproc
 3250              	.LFE93:
 3252              		.align	2
 3253              		.globl	_ZN12kmem_cache_t20kmem_cache_info_buffEi
 3255              	_ZN12kmem_cache_t20kmem_cache_info_buffEi:
 3256              	.LFB94:
 405:src/_SlabAllocator.cpp **** void kmem_cache_t::kmem_cache_info_buff(int pow) {
 3257              		.loc 2 405 50 is_stmt 1
 3258              		.cfi_startproc
 3259              	.LVL308:
 406:src/_SlabAllocator.cpp ****     if (pow < buffPowMin || pow > buffPowMax) return;
 3260              		.loc 2 406 5
 3261              		.loc 2 406 26 is_stmt 0
 3262 12dc 1B07B5FF 		addiw	a4,a0,-5
 3263              		.loc 2 406 5
 3264 12e0 9307C000 		li	a5,12
 3265 12e4 63F4E700 		bleu	a4,a5,.L207
 3266 12e8 67800000 		ret
 3267              	.L207:
 405:src/_SlabAllocator.cpp **** void kmem_cache_t::kmem_cache_info_buff(int pow) {
 3268              		.loc 2 405 50
 3269 12ec 130101FF 		addi	sp,sp,-16
 3270              		.cfi_def_cfa_offset 16
 3271 12f0 23341100 		sd	ra,8(sp)
 3272 12f4 23308100 		sd	s0,0(sp)
 3273              		.cfi_offset 1, -8
 3274              		.cfi_offset 8, -16
 3275 12f8 13040101 		addi	s0,sp,16
 3276              		.cfi_def_cfa 8, 0
 407:src/_SlabAllocator.cpp ****     int i = pow - buffPowMin;
 3277              		.loc 2 407 5 is_stmt 1
 3278              	.LVL309:
 408:src/_SlabAllocator.cpp ****     cacheMem[i].printInfo();
 3279              		.loc 2 408 5
 3280              		.loc 2 408 15 is_stmt 0
 3281 12fc 93171700 		slli	a5,a4,1
 3282 1300 3385E700 		add	a0,a5,a4
 3283              	.LVL310:
 3284 1304 13155500 		slli	a0,a0,5
 3285              		.loc 2 408 26
 3286 1308 97070000 		ld	a5,.LANCHOR0+32
 3286      83B70700 
 3287 1310 3385A700 		add	a0,a5,a0
 3288 1314 97000000 		call	_ZN12kmem_cache_t9printInfoEv
 3288      E7800000 
 3289              	.LVL311:
GAS LISTING /tmp/cc6lMr8s.s 			page 72


 409:src/_SlabAllocator.cpp **** }
 3290              		.loc 2 409 1
 3291 131c 83308100 		ld	ra,8(sp)
 3292              		.cfi_restore 1
 3293 1320 03340100 		ld	s0,0(sp)
 3294              		.cfi_restore 8
 3295              		.cfi_def_cfa 2, 16
 3296 1324 13010101 		addi	sp,sp,16
 3297              		.cfi_def_cfa_offset 0
 3298 1328 67800000 		jr	ra
 3299              		.cfi_endproc
 3300              	.LFE94:
 3302              		.align	2
 3303              		.globl	_ZN12kmem_cache_t10buddyAllocEi
 3305              	_ZN12kmem_cache_t10buddyAllocEi:
 3306              	.LFB95:
 410:src/_SlabAllocator.cpp **** 
 411:src/_SlabAllocator.cpp **** void* kmem_cache_t::buddyAlloc(int pow) {
 3307              		.loc 2 411 41 is_stmt 1
 3308              		.cfi_startproc
 3309              	.LVL312:
 3310 132c 130101FF 		addi	sp,sp,-16
 3311              		.cfi_def_cfa_offset 16
 3312 1330 23341100 		sd	ra,8(sp)
 3313 1334 23308100 		sd	s0,0(sp)
 3314              		.cfi_offset 1, -8
 3315              		.cfi_offset 8, -16
 3316 1338 13040101 		addi	s0,sp,16
 3317              		.cfi_def_cfa 8, 0
 3318 133c 93050500 		mv	a1,a0
 412:src/_SlabAllocator.cpp ****     return buddy->allocBlock(pow);
 3319              		.loc 2 412 5
 3320              		.loc 2 412 29 is_stmt 0
 3321 1340 17050000 		ld	a0,.LANCHOR0
 3321      03350500 
 3322              	.LVL313:
 3323 1348 97000000 		call	_ZN10_BuddyTree10allocBlockEi@plt
 3323      E7800000 
 3324              	.LVL314:
 413:src/_SlabAllocator.cpp **** }
 3325              		.loc 2 413 1
 3326 1350 83308100 		ld	ra,8(sp)
 3327              		.cfi_restore 1
 3328 1354 03340100 		ld	s0,0(sp)
 3329              		.cfi_restore 8
 3330              		.cfi_def_cfa 2, 16
 3331 1358 13010101 		addi	sp,sp,16
 3332              		.cfi_def_cfa_offset 0
 3333 135c 67800000 		jr	ra
 3334              		.cfi_endproc
 3335              	.LFE95:
 3337              		.align	2
 3338              		.globl	_ZN12kmem_cache_t9buddyFreeEPv
 3340              	_ZN12kmem_cache_t9buddyFreeEPv:
 3341              	.LFB96:
 414:src/_SlabAllocator.cpp **** void kmem_cache_t::buddyFree(void* ptr) {
 3342              		.loc 2 414 41 is_stmt 1
GAS LISTING /tmp/cc6lMr8s.s 			page 73


 3343              		.cfi_startproc
 3344              	.LVL315:
 3345 1360 130101FF 		addi	sp,sp,-16
 3346              		.cfi_def_cfa_offset 16
 3347 1364 23341100 		sd	ra,8(sp)
 3348 1368 23308100 		sd	s0,0(sp)
 3349              		.cfi_offset 1, -8
 3350              		.cfi_offset 8, -16
 3351 136c 13040101 		addi	s0,sp,16
 3352              		.cfi_def_cfa 8, 0
 3353 1370 93050500 		mv	a1,a0
 415:src/_SlabAllocator.cpp ****     buddy->dealloc(ptr);
 3354              		.loc 2 415 5
 3355              		.loc 2 415 19 is_stmt 0
 3356 1374 17050000 		ld	a0,.LANCHOR0
 3356      03350500 
 3357              	.LVL316:
 3358 137c 97000000 		call	_ZN10_BuddyTree7deallocEPv@plt
 3358      E7800000 
 3359              	.LVL317:
 416:src/_SlabAllocator.cpp **** }
 3360              		.loc 2 416 1
 3361 1384 83308100 		ld	ra,8(sp)
 3362              		.cfi_restore 1
 3363 1388 03340100 		ld	s0,0(sp)
 3364              		.cfi_restore 8
 3365              		.cfi_def_cfa 2, 16
 3366 138c 13010101 		addi	sp,sp,16
 3367              		.cfi_def_cfa_offset 0
 3368 1390 67800000 		jr	ra
 3369              		.cfi_endproc
 3370              	.LFE96:
 3372              		.align	2
 3373              		.globl	_ZN12kmem_cache_t11getBuddyEndEv
 3375              	_ZN12kmem_cache_t11getBuddyEndEv:
 3376              	.LFB97:
 417:src/_SlabAllocator.cpp **** void* kmem_cache_t::getBuddyEnd() {
 3377              		.loc 2 417 35 is_stmt 1
 3378              		.cfi_startproc
 3379 1394 130101FF 		addi	sp,sp,-16
 3380              		.cfi_def_cfa_offset 16
 3381 1398 23348100 		sd	s0,8(sp)
 3382              		.cfi_offset 8, -8
 3383 139c 13040101 		addi	s0,sp,16
 3384              		.cfi_def_cfa 8, 0
 418:src/_SlabAllocator.cpp ****     return buddy->getEnd();
 3385              		.loc 2 418 5
 3386              	.LVL318:
 3387              	.LBB50:
 3388              	.LBB51:
 3389              		.file 3 "src/../h/_BuddyAllocator.h"
   1:src/../h/_BuddyAllocator.h **** //
   2:src/../h/_BuddyAllocator.h **** // Created by os on 11/19/22.
   3:src/../h/_BuddyAllocator.h **** //
   4:src/../h/_BuddyAllocator.h **** 
   5:src/../h/_BuddyAllocator.h **** #ifndef PROJECT_BASE__BUDDYALLOCATOR_H
   6:src/../h/_BuddyAllocator.h **** #define PROJECT_BASE__BUDDYALLOCATOR_H
GAS LISTING /tmp/cc6lMr8s.s 			page 74


   7:src/../h/_BuddyAllocator.h **** #include "../lib/hw.h"
   8:src/../h/_BuddyAllocator.h **** #include "_placementNew.h"
   9:src/../h/_BuddyAllocator.h **** typedef unsigned data_t;
  10:src/../h/_BuddyAllocator.h **** 
  11:src/../h/_BuddyAllocator.h **** 
  12:src/../h/_BuddyAllocator.h **** /*BUDDY ALOKACIJA
  13:src/../h/_BuddyAllocator.h **** Za voenje evidencije o alociranim segmentima koristi se binarno stablo, ali sa dodatkom ulanava
  14:src/../h/_BuddyAllocator.h **** Stablo je predstavljeno u linearizovanom obliku, kao kompletno binarno stablo, pri emu se u polju
  15:src/../h/_BuddyAllocator.h **** Stablo je kompletno, pa ako vor nije list onda mora imati oba potomka (ovo sledi iz prirode algor
  16:src/../h/_BuddyAllocator.h **** Do potomaka i pretka se dolazi standardno, jednostavnim aritmetikim operacijama (2i + 1, 2i + 2, 
  17:src/../h/_BuddyAllocator.h **** 
  18:src/../h/_BuddyAllocator.h **** */
  19:src/../h/_BuddyAllocator.h **** 
  20:src/../h/_BuddyAllocator.h **** 
  21:src/../h/_BuddyAllocator.h **** class _BuddyNode {
  22:src/../h/_BuddyAllocator.h ****     data_t data;
  23:src/../h/_BuddyAllocator.h ****     //data se sastoji iz sledecih bitova:
  24:src/../h/_BuddyAllocator.h ****     //15 - active -> oznacava da li je cvor deo trenutne konfiguracije stabla
  25:src/../h/_BuddyAllocator.h ****     //14 - leaf -> oznacava da li je cvor list (nepodeljeni deo memorije)
  26:src/../h/_BuddyAllocator.h ****     //13 - free -> oznacava da li je cvor slobodan (vazi samo ako je active = leaf = 1)
  27:src/../h/_BuddyAllocator.h ****     //12..0 - next -> oznacava sledeci cvor u listi listova na istom nivou
  28:src/../h/_BuddyAllocator.h ****     static const unsigned DATA_LEN;
  29:src/../h/_BuddyAllocator.h ****     static const data_t M_ACTIVE;
  30:src/../h/_BuddyAllocator.h ****     static const data_t M_LEAF;
  31:src/../h/_BuddyAllocator.h ****     static const data_t M_FREE;
  32:src/../h/_BuddyAllocator.h ****     static const data_t NEXT;
  33:src/../h/_BuddyAllocator.h ****     bool isActive() { return data & M_ACTIVE; }
  34:src/../h/_BuddyAllocator.h ****     bool isLeaf() { return data & M_LEAF; }
  35:src/../h/_BuddyAllocator.h ****     bool isFree() { return data & M_FREE; }
  36:src/../h/_BuddyAllocator.h ****     void setActive() { data |= M_ACTIVE; }
  37:src/../h/_BuddyAllocator.h ****     void setLeaf() { data |= M_LEAF; }
  38:src/../h/_BuddyAllocator.h ****     void setFree() { data |= M_FREE; }
  39:src/../h/_BuddyAllocator.h ****     void clearActive() { data &= ~M_ACTIVE; }
  40:src/../h/_BuddyAllocator.h ****     void clearLeaf() { data &= ~M_LEAF; }
  41:src/../h/_BuddyAllocator.h ****     void clearFree() { data &= ~M_FREE; }
  42:src/../h/_BuddyAllocator.h **** public:
  43:src/../h/_BuddyAllocator.h ****     _BuddyNode() { setOut(); }
  44:src/../h/_BuddyAllocator.h ****     int next();
  45:src/../h/_BuddyAllocator.h ****     void setNext(int next);
  46:src/../h/_BuddyAllocator.h ****     void setFresh() { setActive(); setLeaf(); setFree(); } //111
  47:src/../h/_BuddyAllocator.h ****     bool isFresh() { return isActive() && isLeaf() && isFree(); }
  48:src/../h/_BuddyAllocator.h ****     void setOut() { clearActive(); clearLeaf(); clearFree(); } //000
  49:src/../h/_BuddyAllocator.h ****     bool isOut() { return !isActive() && !isLeaf() && !isFree(); }
  50:src/../h/_BuddyAllocator.h ****     void setSplit() { setActive(); clearLeaf(); clearFree(); } //100
  51:src/../h/_BuddyAllocator.h ****     bool isSplit() { return isActive() && !isLeaf() && !isFree(); }
  52:src/../h/_BuddyAllocator.h ****     void setAllocated() { setActive(); setLeaf(); clearFree(); } //110
  53:src/../h/_BuddyAllocator.h ****     bool isAllocated() { return isActive() && isLeaf() && !isFree(); }
  54:src/../h/_BuddyAllocator.h **** 
  55:src/../h/_BuddyAllocator.h ****     void printState();
  56:src/../h/_BuddyAllocator.h **** };
  57:src/../h/_BuddyAllocator.h **** 
  58:src/../h/_BuddyAllocator.h **** class _BuddyTree {
  59:src/../h/_BuddyAllocator.h ****     _BuddyNode* arr;
  60:src/../h/_BuddyAllocator.h ****     int* lists;
  61:src/../h/_BuddyAllocator.h ****     void* start, *end; //pocetak i kraj prostora za alociranje
  62:src/../h/_BuddyAllocator.h ****     int blockNum; //ukupan broj blokova velicine blockSize od kojih se sastoji prostor za alociranj
  63:src/../h/_BuddyAllocator.h ****     int pow; //broj nivoa u stablu - 1 | redundantno ali koristno
GAS LISTING /tmp/cc6lMr8s.s 			page 75


  64:src/../h/_BuddyAllocator.h ****     size_t blockSize;
  65:src/../h/_BuddyAllocator.h **** 
  66:src/../h/_BuddyAllocator.h ****     static size_t extraMemoryNeeded(int blockNum, int pow) {
  67:src/../h/_BuddyAllocator.h ****         //racuna koliko memorije zauzimaju dodatne strukture za datu velicinu i broj blokova (linea
  68:src/../h/_BuddyAllocator.h ****         return (2 * blockNum - 1) * (sizeof(_BuddyNode)) + (pow + 1) * sizeof(int);
  69:src/../h/_BuddyAllocator.h ****     }
  70:src/../h/_BuddyAllocator.h ****     int calcLevel(size_t size); //racuna stepen bloka koji treba alocirati kako bi se dobilo size m
  71:src/../h/_BuddyAllocator.h ****     int calcLevel(int n); //racuna stepen bloka na osnovu polozaja u linearizovanom stablu
  72:src/../h/_BuddyAllocator.h ****     int left(int node) { return (2 * node + 1); }
  73:src/../h/_BuddyAllocator.h ****     int right(int node) { return (2 * node + 2); }
  74:src/../h/_BuddyAllocator.h ****     int parent(int node) { return (node - 1) / 2; }
  75:src/../h/_BuddyAllocator.h ****     int sibling(int node) { return (node & 1) ? node + 1 : node - 1; }
  76:src/../h/_BuddyAllocator.h ****     void split(int level); //uzima prvi slobodan cvor sa nivoa level, deli ga na dva, azurira stanj
  77:src/../h/_BuddyAllocator.h **** 
  78:src/../h/_BuddyAllocator.h ****     void* calcAddress(int node, int level); //racuna adresu bloka koji je predstavljen cvorom node 
  79:src/../h/_BuddyAllocator.h ****     int findNode(void* ptr);
  80:src/../h/_BuddyAllocator.h **** public:
  81:src/../h/_BuddyAllocator.h ****     _BuddyTree(void* HEAP_END, size_t blockSize, uint64 alignMask);
  82:src/../h/_BuddyAllocator.h ****     void* alloc(size_t size);
  83:src/../h/_BuddyAllocator.h ****     void* allocBlock(int level); //alocira blok stepena level
  84:src/../h/_BuddyAllocator.h ****     void dealloc(void* ptr);
  85:src/../h/_BuddyAllocator.h ****     void print();
  86:src/../h/_BuddyAllocator.h ****     void* getEnd() { return end; }
 3390              		.loc 3 86 22
 3391              	.LBE51:
 3392              	.LBE50:
 419:src/_SlabAllocator.cpp **** }...
 3393              		.loc 2 419 1 is_stmt 0
 3394 13a0 97070000 		ld	a5,.LANCHOR0
 3394      83B70700 
 3395 13a8 03B58701 		ld	a0,24(a5)
 3396 13ac 03348100 		ld	s0,8(sp)
 3397              		.cfi_restore 8
 3398              		.cfi_def_cfa 2, 16
 3399 13b0 13010101 		addi	sp,sp,16
 3400              		.cfi_def_cfa_offset 0
 3401 13b4 67800000 		jr	ra
 3402              		.cfi_endproc
 3403              	.LFE97:
 3405              		.weak	_ZTV5_Slab
 3406              		.section	.data.rel.ro.local._ZTV5_Slab,"awG",@progbits,_ZTV5_Slab,comdat
 3407              		.align	3
 3410              	_ZTV5_Slab:
 3411 0000 00000000 		.dword	0
 3411      00000000 
 3412 0008 00000000 		.dword	0
 3412      00000000 
 3413 0010 00000000 		.dword	_ZN5_Slab5allocEv
 3413      00000000 
 3414 0018 00000000 		.dword	_ZN5_Slab7deallocEPv
 3414      00000000 
 3415 0020 00000000 		.dword	_ZN5_Slab7isEmptyEv
 3415      00000000 
 3416 0028 00000000 		.dword	_ZN5_Slab6isFullEv
 3416      00000000 
 3417 0030 00000000 		.dword	_ZN5_Slab17getAllocatedCountEv
 3417      00000000 
GAS LISTING /tmp/cc6lMr8s.s 			page 76


 3418 0038 00000000 		.dword	_ZN5_Slab8containsEPv
 3418      00000000 
 3419              		.weak	_ZTV8_ObjSlab
 3420              		.section	.data.rel.ro.local._ZTV8_ObjSlab,"awG",@progbits,_ZTV8_ObjSlab,comdat
 3421              		.align	3
 3424              	_ZTV8_ObjSlab:
 3425 0000 00000000 		.dword	0
 3425      00000000 
 3426 0008 00000000 		.dword	0
 3426      00000000 
 3427 0010 00000000 		.dword	_ZN5_Slab5allocEv
 3427      00000000 
 3428 0018 00000000 		.dword	_ZN5_Slab7deallocEPv
 3428      00000000 
 3429 0020 00000000 		.dword	_ZN5_Slab7isEmptyEv
 3429      00000000 
 3430 0028 00000000 		.dword	_ZN5_Slab6isFullEv
 3430      00000000 
 3431 0030 00000000 		.dword	_ZN5_Slab17getAllocatedCountEv
 3431      00000000 
 3432 0038 00000000 		.dword	_ZN8_ObjSlab8containsEPv
 3432      00000000 
 3433              		.weak	_ZTV9_BuffSlab
 3434              		.section	.data.rel.ro.local._ZTV9_BuffSlab,"awG",@progbits,_ZTV9_BuffSlab,comdat
 3435              		.align	3
 3438              	_ZTV9_BuffSlab:
 3439 0000 00000000 		.dword	0
 3439      00000000 
 3440 0008 00000000 		.dword	0
 3440      00000000 
 3441 0010 00000000 		.dword	_ZN5_Slab5allocEv
 3441      00000000 
 3442 0018 00000000 		.dword	_ZN5_Slab7deallocEPv
 3442      00000000 
 3443 0020 00000000 		.dword	_ZN5_Slab7isEmptyEv
 3443      00000000 
 3444 0028 00000000 		.dword	_ZN5_Slab6isFullEv
 3444      00000000 
 3445 0030 00000000 		.dword	_ZN5_Slab17getAllocatedCountEv
 3445      00000000 
 3446 0038 00000000 		.dword	_ZN9_BuffSlab8containsEPv
 3446      00000000 
 3447              		.globl	_ZN12kmem_cache_t12buffSlabHeadE
 3448              		.globl	_ZN12kmem_cache_t13allocatedHeadE
 3449              		.globl	_ZN12kmem_cache_t8freeHeadE
 3450              		.globl	_ZN12kmem_cache_t8cacheMemE
 3451              		.globl	_ZN12kmem_cache_t5buddyE
 3452              		.globl	_ZN12kmem_cache_t10buffPowMaxE
 3453              		.globl	_ZN12kmem_cache_t10buffPowMinE
 3454              		.globl	_ZN12kmem_cache_t3MAXE
 3455              		.section	.rodata
 3456              		.align	2
 3459              	_ZN12kmem_cache_t10buffPowMaxE:
 3460 0000 11000000 		.word	17
 3463              	_ZN12kmem_cache_t10buffPowMinE:
 3464 0004 05000000 		.word	5
 3467              	_ZN12kmem_cache_t3MAXE:
GAS LISTING /tmp/cc6lMr8s.s 			page 77


 3468 0008 14000000 		.word	20
 3469              		.bss
 3470              		.align	3
 3471              		.set	.LANCHOR0,. + 0
 3474              	_ZN12kmem_cache_t5buddyE:
 3475 0000 00000000 		.zero	8
 3475      00000000 
 3478              	_ZN12kmem_cache_t12buffSlabHeadE:
 3479 0008 00000000 		.zero	8
 3479      00000000 
 3482              	_ZN12kmem_cache_t8freeHeadE:
 3483 0010 00000000 		.zero	8
 3483      00000000 
 3486              	_ZN12kmem_cache_t13allocatedHeadE:
 3487 0018 00000000 		.zero	8
 3487      00000000 
 3490              	_ZN12kmem_cache_t8cacheMemE:
 3491 0020 00000000 		.zero	8
 3491      00000000 
 3492              		.text
 3493              	.Letext0:
 3494              		.file 4 "src/../h/../lib/hw.h"
 3495              		.file 5 "src/../h/_placementNew.h"
 3496              		.file 6 "src/../h/_slab.h"
 3497              		.file 7 "src/../h/types.h"
 3498              		.file 8 "src/../h/_Buffer.h"
 3499              		.file 9 "src/../h/_Console.h"
 12345              		.align	3
 12348              	DW.ref.__gxx_personality_v0:
 12349 0000 00000000 		.dword	__gxx_personality_v0
 12349      00000000 
 12350              		.ident	"GCC: (Ubuntu 9.4.0-1ubuntu1~20.04) 9.4.0"
 12351              		.section	.note.GNU-stack,"",@progbits
GAS LISTING /tmp/cc6lMr8s.s 			page 78


DEFINED SYMBOLS
                            *ABS*:0000000000000000 _SlabAllocator.cpp
     /tmp/cc6lMr8s.s:10     .text._ZN5_Slab17getAllocatedCountEv:0000000000000000 _ZN5_Slab17getAllocatedCountEv
     /tmp/cc6lMr8s.s:14     .text._ZN5_Slab17getAllocatedCountEv:0000000000000000 .L0 
     /tmp/cc6lMr8s.s:16     .text._ZN5_Slab17getAllocatedCountEv:0000000000000000 .L0 
     /tmp/cc6lMr8s.s:17     .text._ZN5_Slab17getAllocatedCountEv:0000000000000004 .L0 
     /tmp/cc6lMr8s.s:19     .text._ZN5_Slab17getAllocatedCountEv:0000000000000008 .L0 
     /tmp/cc6lMr8s.s:21     .text._ZN5_Slab17getAllocatedCountEv:000000000000000c .L0 
     /tmp/cc6lMr8s.s:23     .text._ZN5_Slab17getAllocatedCountEv:000000000000000c .L0 
     /tmp/cc6lMr8s.s:24     .text._ZN5_Slab17getAllocatedCountEv:000000000000000c .L0 
     /tmp/cc6lMr8s.s:27     .text._ZN5_Slab17getAllocatedCountEv:0000000000000014 .L0 
     /tmp/cc6lMr8s.s:28     .text._ZN5_Slab17getAllocatedCountEv:0000000000000014 .L0 
     /tmp/cc6lMr8s.s:30     .text._ZN5_Slab17getAllocatedCountEv:0000000000000018 .L0 
     /tmp/cc6lMr8s.s:32     .text._ZN5_Slab17getAllocatedCountEv:000000000000001c .L0 
     /tmp/cc6lMr8s.s:39     .text._ZN5_Slab8containsEPv:0000000000000000 _ZN5_Slab8containsEPv
     /tmp/cc6lMr8s.s:42     .text._ZN5_Slab8containsEPv:0000000000000000 .L0 
     /tmp/cc6lMr8s.s:44     .text._ZN5_Slab8containsEPv:0000000000000000 .L0 
     /tmp/cc6lMr8s.s:45     .text._ZN5_Slab8containsEPv:0000000000000004 .L0 
     /tmp/cc6lMr8s.s:47     .text._ZN5_Slab8containsEPv:0000000000000008 .L0 
     /tmp/cc6lMr8s.s:49     .text._ZN5_Slab8containsEPv:000000000000000c .L0 
     /tmp/cc6lMr8s.s:51     .text._ZN5_Slab8containsEPv:000000000000000c .L0 
     /tmp/cc6lMr8s.s:52     .text._ZN5_Slab8containsEPv:000000000000000c .L0 
     /tmp/cc6lMr8s.s:55     .text._ZN5_Slab8containsEPv:0000000000000014 .L0 
     /tmp/cc6lMr8s.s:56     .text._ZN5_Slab8containsEPv:0000000000000014 .L0 
     /tmp/cc6lMr8s.s:58     .text._ZN5_Slab8containsEPv:0000000000000018 .L0 
     /tmp/cc6lMr8s.s:60     .text._ZN5_Slab8containsEPv:000000000000001c .L0 
     /tmp/cc6lMr8s.s:67     .text:0000000000000000 _ZN5_Slab5allocEv
     /tmp/cc6lMr8s.s:71     .text:0000000000000000 .L0 
     /tmp/cc6lMr8s.s:73     .text:0000000000000000 .L0 
     /tmp/cc6lMr8s.s:74     .text:0000000000000004 .L0 
     /tmp/cc6lMr8s.s:76     .text:0000000000000008 .L0 
     /tmp/cc6lMr8s.s:78     .text:000000000000000c .L0 
     /tmp/cc6lMr8s.s:81     .text:0000000000000010 .L0 
     /tmp/cc6lMr8s.s:82     .text:0000000000000010 .L0 
     /tmp/cc6lMr8s.s:85     .text:0000000000000014 .L0 
     /tmp/cc6lMr8s.s:88     .text:0000000000000018 .L0 
     /tmp/cc6lMr8s.s:89     .text:0000000000000018 .L0 
     /tmp/cc6lMr8s.s:90     .text:0000000000000018 .L0 
     /tmp/cc6lMr8s.s:92     .text:000000000000001c .L0 
     /tmp/cc6lMr8s.s:94     .text:0000000000000020 .L0 
     /tmp/cc6lMr8s.s:96     .text:0000000000000024 .L0 
     /tmp/cc6lMr8s.s:101    .text:000000000000002c .L0 
     /tmp/cc6lMr8s.s:102    .text:000000000000002c .L0 
     /tmp/cc6lMr8s.s:103    .text:0000000000000030 .L0 
     /tmp/cc6lMr8s.s:104    .text:0000000000000030 .L0 
     /tmp/cc6lMr8s.s:106    .text:0000000000000034 .L0 
     /tmp/cc6lMr8s.s:108    .text:0000000000000038 .L0 
     /tmp/cc6lMr8s.s:114    .text:0000000000000038 _ZN5_Slab7deallocEPv
     /tmp/cc6lMr8s.s:117    .text:0000000000000038 .L0 
     /tmp/cc6lMr8s.s:119    .text:0000000000000038 .L0 
     /tmp/cc6lMr8s.s:120    .text:000000000000003c .L0 
     /tmp/cc6lMr8s.s:122    .text:0000000000000040 .L0 
     /tmp/cc6lMr8s.s:124    .text:0000000000000044 .L0 
     /tmp/cc6lMr8s.s:126    .text:0000000000000044 .L0 
     /tmp/cc6lMr8s.s:127    .text:0000000000000044 .L0 
     /tmp/cc6lMr8s.s:129    .text:0000000000000048 .L0 
     /tmp/cc6lMr8s.s:131    .text:000000000000004c .L0 
GAS LISTING /tmp/cc6lMr8s.s 			page 79


     /tmp/cc6lMr8s.s:132    .text:000000000000004c .L0 
     /tmp/cc6lMr8s.s:134    .text:0000000000000050 .L0 
     /tmp/cc6lMr8s.s:136    .text:0000000000000054 .L0 
     /tmp/cc6lMr8s.s:139    .text:000000000000005c .L0 
     /tmp/cc6lMr8s.s:140    .text:0000000000000060 .L0 
     /tmp/cc6lMr8s.s:141    .text:0000000000000060 .L0 
     /tmp/cc6lMr8s.s:143    .text:0000000000000064 .L0 
     /tmp/cc6lMr8s.s:145    .text:0000000000000068 .L0 
     /tmp/cc6lMr8s.s:151    .text:0000000000000068 _ZN5_Slab7isEmptyEv
     /tmp/cc6lMr8s.s:154    .text:0000000000000068 .L0 
     /tmp/cc6lMr8s.s:156    .text:0000000000000068 .L0 
     /tmp/cc6lMr8s.s:157    .text:000000000000006c .L0 
     /tmp/cc6lMr8s.s:159    .text:0000000000000070 .L0 
     /tmp/cc6lMr8s.s:161    .text:0000000000000074 .L0 
     /tmp/cc6lMr8s.s:163    .text:0000000000000074 .L0 
     /tmp/cc6lMr8s.s:164    .text:0000000000000074 .L0 
     /tmp/cc6lMr8s.s:167    .text:0000000000000078 .L0 
     /tmp/cc6lMr8s.s:169    .text:0000000000000080 .L0 
     /tmp/cc6lMr8s.s:170    .text:0000000000000080 .L0 
     /tmp/cc6lMr8s.s:172    .text:0000000000000084 .L0 
     /tmp/cc6lMr8s.s:174    .text:0000000000000088 .L0 
     /tmp/cc6lMr8s.s:180    .text:0000000000000088 _ZN5_Slab6isFullEv
     /tmp/cc6lMr8s.s:183    .text:0000000000000088 .L0 
     /tmp/cc6lMr8s.s:185    .text:0000000000000088 .L0 
     /tmp/cc6lMr8s.s:186    .text:000000000000008c .L0 
     /tmp/cc6lMr8s.s:188    .text:0000000000000090 .L0 
     /tmp/cc6lMr8s.s:190    .text:0000000000000094 .L0 
     /tmp/cc6lMr8s.s:192    .text:0000000000000094 .L0 
     /tmp/cc6lMr8s.s:193    .text:0000000000000094 .L0 
     /tmp/cc6lMr8s.s:196    .text:0000000000000098 .L0 
     /tmp/cc6lMr8s.s:198    .text:00000000000000a0 .L0 
     /tmp/cc6lMr8s.s:199    .text:00000000000000a0 .L0 
     /tmp/cc6lMr8s.s:201    .text:00000000000000a4 .L0 
     /tmp/cc6lMr8s.s:203    .text:00000000000000a8 .L0 
     /tmp/cc6lMr8s.s:209    .text:00000000000000a8 _ZN8_ObjSlab8containsEPv
     /tmp/cc6lMr8s.s:212    .text:00000000000000a8 .L0 
     /tmp/cc6lMr8s.s:214    .text:00000000000000a8 .L0 
     /tmp/cc6lMr8s.s:215    .text:00000000000000ac .L0 
     /tmp/cc6lMr8s.s:217    .text:00000000000000b0 .L0 
     /tmp/cc6lMr8s.s:219    .text:00000000000000b4 .L0 
     /tmp/cc6lMr8s.s:221    .text:00000000000000b4 .L0 
     /tmp/cc6lMr8s.s:222    .text:00000000000000b4 .L0 
     /tmp/cc6lMr8s.s:224    .text:00000000000000b8 .L0 
     /tmp/cc6lMr8s.s:226    .text:00000000000000bc .L0 
     /tmp/cc6lMr8s.s:229    .text:00000000000000c0 .L0 
     /tmp/cc6lMr8s.s:231    .text:00000000000000c4 .L0 
     /tmp/cc6lMr8s.s:239    .text:00000000000000d0 .L0 
     /tmp/cc6lMr8s.s:240    .text:00000000000000d4 .L0 
     /tmp/cc6lMr8s.s:241    .text:00000000000000d4 .L0 
     /tmp/cc6lMr8s.s:242    .text:00000000000000d4 .L0 
     /tmp/cc6lMr8s.s:244    .text:00000000000000d8 .L0 
     /tmp/cc6lMr8s.s:247    .text:00000000000000dc .L0 
     /tmp/cc6lMr8s.s:249    .text:00000000000000dc .L0 
     /tmp/cc6lMr8s.s:251    .text:00000000000000e4 .L0 
     /tmp/cc6lMr8s.s:257    .text:00000000000000e4 _ZN9_BuffSlab8containsEPv
     /tmp/cc6lMr8s.s:260    .text:00000000000000e4 .L0 
     /tmp/cc6lMr8s.s:262    .text:00000000000000e4 .L0 
GAS LISTING /tmp/cc6lMr8s.s 			page 80


     /tmp/cc6lMr8s.s:263    .text:00000000000000e8 .L0 
     /tmp/cc6lMr8s.s:265    .text:00000000000000ec .L0 
     /tmp/cc6lMr8s.s:267    .text:00000000000000f0 .L0 
     /tmp/cc6lMr8s.s:269    .text:00000000000000f0 .L0 
     /tmp/cc6lMr8s.s:270    .text:00000000000000f0 .L0 
     /tmp/cc6lMr8s.s:272    .text:00000000000000f4 .L0 
     /tmp/cc6lMr8s.s:274    .text:00000000000000f8 .L0 
     /tmp/cc6lMr8s.s:276    .text:00000000000000fc .L0 
     /tmp/cc6lMr8s.s:278    .text:0000000000000100 .L0 
     /tmp/cc6lMr8s.s:280    .text:0000000000000104 .L0 
     /tmp/cc6lMr8s.s:289    .text:0000000000000110 .L0 
     /tmp/cc6lMr8s.s:290    .text:0000000000000114 .L0 
     /tmp/cc6lMr8s.s:291    .text:0000000000000114 .L0 
     /tmp/cc6lMr8s.s:292    .text:0000000000000114 .L0 
     /tmp/cc6lMr8s.s:294    .text:0000000000000118 .L0 
     /tmp/cc6lMr8s.s:298    .text:000000000000011c .L0 
     /tmp/cc6lMr8s.s:300    .text:000000000000011c .L0 
     /tmp/cc6lMr8s.s:303    .text:0000000000000124 .L0 
     /tmp/cc6lMr8s.s:309    .text:0000000000000124 _ZN5_SlabC2Emm
     /tmp/cc6lMr8s.s:312    .text:0000000000000124 .L0 
     /tmp/cc6lMr8s.s:314    .text:0000000000000124 .L0 
     /tmp/cc6lMr8s.s:315    .text:0000000000000128 .L0 
     /tmp/cc6lMr8s.s:317    .text:000000000000012c .L0 
     /tmp/cc6lMr8s.s:319    .text:0000000000000130 .L0 
     /tmp/cc6lMr8s.s:3410   .data.rel.ro.local._ZTV5_Slab:0000000000000000 _ZTV5_Slab
     /tmp/cc6lMr8s.s:322    .text:0000000000000130 .L0 
     /tmp/cc6lMr8s.s:325    .text:000000000000013c .L0 
     /tmp/cc6lMr8s.s:326    .text:000000000000013c .L0 
     /tmp/cc6lMr8s.s:328    .text:0000000000000140 .L0 
     /tmp/cc6lMr8s.s:329    .text:0000000000000140 .L0 
     /tmp/cc6lMr8s.s:332    .text:0000000000000144 .L0 
     /tmp/cc6lMr8s.s:333    .text:0000000000000148 .L0 
     /tmp/cc6lMr8s.s:334    .text:0000000000000148 .L0 
     /tmp/cc6lMr8s.s:336    .text:000000000000014c .L0 
     /tmp/cc6lMr8s.s:338    .text:0000000000000150 .L0 
     /tmp/cc6lMr8s.s:309    .text:0000000000000124 _ZN5_SlabC1Emm
     /tmp/cc6lMr8s.s:346    .text:0000000000000150 _ZN5_Slab4initEi
     /tmp/cc6lMr8s.s:349    .text:0000000000000150 .L0 
     /tmp/cc6lMr8s.s:351    .text:0000000000000150 .L0 
     /tmp/cc6lMr8s.s:352    .text:0000000000000154 .L0 
     /tmp/cc6lMr8s.s:354    .text:0000000000000158 .L0 
     /tmp/cc6lMr8s.s:356    .text:000000000000015c .L0 
     /tmp/cc6lMr8s.s:358    .text:000000000000015c .L0 
     /tmp/cc6lMr8s.s:359    .text:000000000000015c .L0 
     /tmp/cc6lMr8s.s:363    .text:0000000000000160 .L0 
     /tmp/cc6lMr8s.s:364    .text:0000000000000160 .L0 
     /tmp/cc6lMr8s.s:368    .text:0000000000000164 .L0 
     /tmp/cc6lMr8s.s:369    .text:0000000000000164 .L0 
     /tmp/cc6lMr8s.s:371    .text:0000000000000168 .L0 
     /tmp/cc6lMr8s.s:373    .text:000000000000016c .L0 
     /tmp/cc6lMr8s.s:374    .text:000000000000016c .L0 
     /tmp/cc6lMr8s.s:376    .text:0000000000000170 .L0 
     /tmp/cc6lMr8s.s:378    .text:0000000000000174 .L0 
     /tmp/cc6lMr8s.s:380    .text:0000000000000178 .L0 
     /tmp/cc6lMr8s.s:381    .text:0000000000000178 .L0 
     /tmp/cc6lMr8s.s:383    .text:000000000000017c .L0 
     /tmp/cc6lMr8s.s:386    .text:0000000000000180 .L0 
GAS LISTING /tmp/cc6lMr8s.s 			page 81


     /tmp/cc6lMr8s.s:393    .text:0000000000000188 .L0 
     /tmp/cc6lMr8s.s:394    .text:0000000000000188 .L0 
     /tmp/cc6lMr8s.s:396    .text:000000000000018c .L0 
     /tmp/cc6lMr8s.s:397    .text:0000000000000190 .L0 
     /tmp/cc6lMr8s.s:398    .text:0000000000000190 .L0 
     /tmp/cc6lMr8s.s:400    .text:0000000000000194 .L0 
     /tmp/cc6lMr8s.s:402    .text:0000000000000198 .L0 
     /tmp/cc6lMr8s.s:408    .text:0000000000000198 _ZN8_ObjSlabC2Emm
     /tmp/cc6lMr8s.s:411    .text:0000000000000198 .L0 
     /tmp/cc6lMr8s.s:413    .text:0000000000000198 .L0 
     /tmp/cc6lMr8s.s:414    .text:000000000000019c .L0 
     /tmp/cc6lMr8s.s:420    .text:00000000000001b0 .L0 
     /tmp/cc6lMr8s.s:421    .text:00000000000001b0 .L0 
     /tmp/cc6lMr8s.s:422    .text:00000000000001b0 .L0 
     /tmp/cc6lMr8s.s:423    .text:00000000000001b0 .L0 
     /tmp/cc6lMr8s.s:424    .text:00000000000001b0 .L0 
     /tmp/cc6lMr8s.s:426    .text:00000000000001b4 .L0 
     /tmp/cc6lMr8s.s:432    .text:00000000000001c0 .L0 
     /tmp/cc6lMr8s.s:3424   .data.rel.ro.local._ZTV8_ObjSlab:0000000000000000 _ZTV8_ObjSlab
     /tmp/cc6lMr8s.s:437    .text:00000000000001d4 .L0 
     /tmp/cc6lMr8s.s:438    .text:00000000000001d4 .L0 
     /tmp/cc6lMr8s.s:440    .text:00000000000001d8 .L0 
     /tmp/cc6lMr8s.s:442    .text:00000000000001dc .L0 
     /tmp/cc6lMr8s.s:443    .text:00000000000001dc .L0 
     /tmp/cc6lMr8s.s:445    .text:00000000000001e0 .L0 
     /tmp/cc6lMr8s.s:446    .text:00000000000001e0 .L0 
     /tmp/cc6lMr8s.s:448    .text:00000000000001e4 .L0 
     /tmp/cc6lMr8s.s:450    .text:00000000000001e8 .L0 
     /tmp/cc6lMr8s.s:451    .text:00000000000001e8 .L0 
     /tmp/cc6lMr8s.s:454    .text:00000000000001ec .L0 
     /tmp/cc6lMr8s.s:456    .text:00000000000001f0 .L0 
     /tmp/cc6lMr8s.s:462    .text:0000000000000200 .L0 
     /tmp/cc6lMr8s.s:463    .text:0000000000000204 .L0 
     /tmp/cc6lMr8s.s:465    .text:0000000000000208 .L0 
     /tmp/cc6lMr8s.s:466    .text:0000000000000208 .L0 
     /tmp/cc6lMr8s.s:468    .text:000000000000020c .L0 
     /tmp/cc6lMr8s.s:471    .text:0000000000000210 .L0 
     /tmp/cc6lMr8s.s:474    .text:0000000000000214 .L0 
     /tmp/cc6lMr8s.s:477    .text:0000000000000218 .L0 
     /tmp/cc6lMr8s.s:479    .text:000000000000021c .L0 
     /tmp/cc6lMr8s.s:408    .text:0000000000000198 _ZN8_ObjSlabC1Emm
     /tmp/cc6lMr8s.s:487    .text:000000000000021c _ZN9_BuffSlabC2EmmPv
     /tmp/cc6lMr8s.s:490    .text:000000000000021c .L0 
     /tmp/cc6lMr8s.s:492    .text:000000000000021c .L0 
     /tmp/cc6lMr8s.s:493    .text:0000000000000220 .L0 
     /tmp/cc6lMr8s.s:500    .text:0000000000000238 .L0 
     /tmp/cc6lMr8s.s:501    .text:0000000000000238 .L0 
     /tmp/cc6lMr8s.s:502    .text:0000000000000238 .L0 
     /tmp/cc6lMr8s.s:503    .text:0000000000000238 .L0 
     /tmp/cc6lMr8s.s:504    .text:0000000000000238 .L0 
     /tmp/cc6lMr8s.s:505    .text:0000000000000238 .L0 
     /tmp/cc6lMr8s.s:507    .text:000000000000023c .L0 
     /tmp/cc6lMr8s.s:514    .text:000000000000024c .L0 
     /tmp/cc6lMr8s.s:3438   .data.rel.ro.local._ZTV9_BuffSlab:0000000000000000 _ZTV9_BuffSlab
     /tmp/cc6lMr8s.s:519    .text:0000000000000260 .L0 
     /tmp/cc6lMr8s.s:520    .text:0000000000000260 .L0 
     /tmp/cc6lMr8s.s:522    .text:0000000000000264 .L0 
GAS LISTING /tmp/cc6lMr8s.s 			page 82


     /tmp/cc6lMr8s.s:523    .text:0000000000000264 .L0 
     /tmp/cc6lMr8s.s:525    .text:0000000000000268 .L0 
     /tmp/cc6lMr8s.s:527    .text:000000000000026c .L0 
     /tmp/cc6lMr8s.s:528    .text:000000000000026c .L0 
     /tmp/cc6lMr8s.s:530    .text:0000000000000270 .L0 
     /tmp/cc6lMr8s.s:531    .text:0000000000000270 .L0 
     /tmp/cc6lMr8s.s:533    .text:0000000000000274 .L0 
     /tmp/cc6lMr8s.s:534    .text:0000000000000274 .L0 
     /tmp/cc6lMr8s.s:536    .text:0000000000000278 .L0 
     /tmp/cc6lMr8s.s:537    .text:0000000000000278 .L0 
     /tmp/cc6lMr8s.s:539    .text:000000000000027c .L0 
     /tmp/cc6lMr8s.s:545    .text:000000000000028c .L0 
     /tmp/cc6lMr8s.s:546    .text:0000000000000290 .L0 
     /tmp/cc6lMr8s.s:548    .text:0000000000000294 .L0 
     /tmp/cc6lMr8s.s:549    .text:0000000000000294 .L0 
     /tmp/cc6lMr8s.s:551    .text:0000000000000298 .L0 
     /tmp/cc6lMr8s.s:554    .text:000000000000029c .L0 
     /tmp/cc6lMr8s.s:557    .text:00000000000002a0 .L0 
     /tmp/cc6lMr8s.s:560    .text:00000000000002a4 .L0 
     /tmp/cc6lMr8s.s:563    .text:00000000000002a8 .L0 
     /tmp/cc6lMr8s.s:565    .text:00000000000002ac .L0 
     /tmp/cc6lMr8s.s:487    .text:000000000000021c _ZN9_BuffSlabC1EmmPv
     /tmp/cc6lMr8s.s:573    .text:00000000000002ac _ZN12kmem_cache_t19formatBuffSlabSpaceEP9_BuffSlabPv
     /tmp/cc6lMr8s.s:576    .text:00000000000002ac .L0 
     /tmp/cc6lMr8s.s:578    .text:00000000000002ac .L0 
     /tmp/cc6lMr8s.s:579    .text:00000000000002b0 .L0 
     /tmp/cc6lMr8s.s:586    .text:00000000000002c8 .L0 
     /tmp/cc6lMr8s.s:587    .text:00000000000002c8 .L0 
     /tmp/cc6lMr8s.s:588    .text:00000000000002c8 .L0 
     /tmp/cc6lMr8s.s:589    .text:00000000000002c8 .L0 
     /tmp/cc6lMr8s.s:590    .text:00000000000002c8 .L0 
     /tmp/cc6lMr8s.s:591    .text:00000000000002c8 .L0 
     /tmp/cc6lMr8s.s:593    .text:00000000000002cc .L0 
     /tmp/cc6lMr8s.s:597    .text:00000000000002d4 .L0 
     /tmp/cc6lMr8s.s:599    .text:00000000000002d4 .L0 
     /tmp/cc6lMr8s.s:600    .text:00000000000002d4 .L0 
     /tmp/cc6lMr8s.s:601    .text:00000000000002d4 .L0 
     /tmp/cc6lMr8s.s:606    .text:00000000000002dc .L0 
     /tmp/cc6lMr8s.s:612    .text:00000000000002e4 .L0 
     /tmp/cc6lMr8s.s:613    .text:00000000000002e4 .L0 
     /tmp/cc6lMr8s.s:614    .text:00000000000002e4 .L0 
     /tmp/cc6lMr8s.s:616    .text:00000000000002e8 .L0 
     /tmp/cc6lMr8s.s:618    .text:00000000000002ec .L0 
     /tmp/cc6lMr8s.s:619    .text:00000000000002ec .L0 
     /tmp/cc6lMr8s.s:628    .text:0000000000000300 .L0 
     /tmp/cc6lMr8s.s:635    .text:000000000000030c .L0 
     /tmp/cc6lMr8s.s:637    .text:0000000000000310 .L0 
     /tmp/cc6lMr8s.s:638    .text:0000000000000310 .L0 
     /tmp/cc6lMr8s.s:642    .text:0000000000000318 .L0 
     /tmp/cc6lMr8s.s:644    .text:000000000000031c .L0 
     /tmp/cc6lMr8s.s:645    .text:000000000000031c .L0 
     /tmp/cc6lMr8s.s:648    .text:0000000000000320 .L0 
     /tmp/cc6lMr8s.s:649    .text:0000000000000320 .L0 
     /tmp/cc6lMr8s.s:651    .text:0000000000000328 .L0 
     /tmp/cc6lMr8s.s:653    .text:000000000000032c .L0 
     /tmp/cc6lMr8s.s:654    .text:000000000000032c .L0 
     /tmp/cc6lMr8s.s:656    .text:0000000000000330 .L0 
GAS LISTING /tmp/cc6lMr8s.s 			page 83


     /tmp/cc6lMr8s.s:659    .text:0000000000000334 .L0 
     /tmp/cc6lMr8s.s:662    .text:0000000000000338 .L0 
     /tmp/cc6lMr8s.s:665    .text:000000000000033c .L0 
     /tmp/cc6lMr8s.s:668    .text:0000000000000340 .L0 
     /tmp/cc6lMr8s.s:670    .text:0000000000000344 .L0 
     /tmp/cc6lMr8s.s:676    .text:0000000000000344 _ZN12kmem_cache_t19expandBuffSlabSpaceEv
     /tmp/cc6lMr8s.s:679    .text:0000000000000344 .L0 
     /tmp/cc6lMr8s.s:680    .text:0000000000000344 .L0 
     /tmp/cc6lMr8s.s:681    .text:0000000000000348 .L0 
     /tmp/cc6lMr8s.s:685    .text:0000000000000354 .L0 
     /tmp/cc6lMr8s.s:686    .text:0000000000000354 .L0 
     /tmp/cc6lMr8s.s:687    .text:0000000000000354 .L0 
     /tmp/cc6lMr8s.s:689    .text:0000000000000358 .L0 
     /tmp/cc6lMr8s.s:691    .text:0000000000000358 .L0 
     /tmp/cc6lMr8s.s:692    .text:0000000000000358 .L0 
     /tmp/cc6lMr8s.s:697    .text:000000000000036c .L0 
     /tmp/cc6lMr8s.s:700    .text:0000000000000374 .L0 
     /tmp/cc6lMr8s.s:701    .text:0000000000000374 .L0 
     /tmp/cc6lMr8s.s:706    .text:0000000000000384 .L0 
     /tmp/cc6lMr8s.s:707    .text:0000000000000384 .L0 
     /tmp/cc6lMr8s.s:711    .text:0000000000000394 .L0 
     /tmp/cc6lMr8s.s:712    .text:0000000000000394 .L0 
     /tmp/cc6lMr8s.s:716    .text:0000000000000398 .L0 
     /tmp/cc6lMr8s.s:717    .text:000000000000039c .L0 
     /tmp/cc6lMr8s.s:719    .text:00000000000003a0 .L0 
     /tmp/cc6lMr8s.s:720    .text:00000000000003a0 .L0 
     /tmp/cc6lMr8s.s:722    .text:00000000000003a4 .L0 
     /tmp/cc6lMr8s.s:724    .text:00000000000003a8 .L0 
     /tmp/cc6lMr8s.s:726    .text:00000000000003ac .L0 
     /tmp/cc6lMr8s.s:732    .text:00000000000003ac _ZN12kmem_cache_t13allocBuffSlabEv
     /tmp/cc6lMr8s.s:735    .text:00000000000003ac .L0 
     /tmp/cc6lMr8s.s:736    .text:00000000000003ac .L0 
     /tmp/cc6lMr8s.s:737    .text:00000000000003ac .L0 
     /tmp/cc6lMr8s.s:738    .text:00000000000003ac .L0 
     /tmp/cc6lMr8s.s:740    .text:00000000000003b4 .L0 
     /tmp/cc6lMr8s.s:742    .text:00000000000003b8 .L0 
     /tmp/cc6lMr8s.s:743    .text:00000000000003b8 .L0 
     /tmp/cc6lMr8s.s:745    .text:00000000000003c0 .L0 
     /tmp/cc6lMr8s.s:748    .text:00000000000003c4 .L0 
     /tmp/cc6lMr8s.s:749    .text:00000000000003c4 .L0 
     /tmp/cc6lMr8s.s:750    .text:00000000000003c4 .L0 
     /tmp/cc6lMr8s.s:752    .text:00000000000003c8 .L0 
     /tmp/cc6lMr8s.s:754    .text:00000000000003d0 .L0 
     /tmp/cc6lMr8s.s:758    .text:00000000000003d4 .L0 
     /tmp/cc6lMr8s.s:759    .text:00000000000003d8 .L0 
     /tmp/cc6lMr8s.s:762    .text:00000000000003e0 .L0 
     /tmp/cc6lMr8s.s:763    .text:00000000000003e0 .L0 
     /tmp/cc6lMr8s.s:765    .text:00000000000003e4 .L0 
     /tmp/cc6lMr8s.s:767    .text:00000000000003e4 .L0 
     /tmp/cc6lMr8s.s:768    .text:00000000000003e4 .L0 
     /tmp/cc6lMr8s.s:771    .text:00000000000003ec .L0 
     /tmp/cc6lMr8s.s:772    .text:00000000000003ec .L0 
     /tmp/cc6lMr8s.s:774    .text:00000000000003f4 .L0 
     /tmp/cc6lMr8s.s:777    .text:00000000000003f8 .L0 
     /tmp/cc6lMr8s.s:778    .text:00000000000003f8 .L0 
     /tmp/cc6lMr8s.s:779    .text:00000000000003f8 .L0 
     /tmp/cc6lMr8s.s:781    .text:00000000000003fc .L0 
GAS LISTING /tmp/cc6lMr8s.s 			page 84


     /tmp/cc6lMr8s.s:785    .text:0000000000000404 .L0 
     /tmp/cc6lMr8s.s:786    .text:0000000000000404 .L0 
     /tmp/cc6lMr8s.s:787    .text:0000000000000408 .L0 
     /tmp/cc6lMr8s.s:789    .text:000000000000040c .L0 
     /tmp/cc6lMr8s.s:790    .text:000000000000040c .L0 
     /tmp/cc6lMr8s.s:792    .text:0000000000000410 .L0 
     /tmp/cc6lMr8s.s:796    .text:0000000000000418 .L0 
     /tmp/cc6lMr8s.s:802    .text:0000000000000418 _ZN12kmem_cache_t15deallocBuffSlabEP9_BuffSlab
     /tmp/cc6lMr8s.s:805    .text:0000000000000418 .L0 
     /tmp/cc6lMr8s.s:807    .text:0000000000000418 .L0 
     /tmp/cc6lMr8s.s:808    .text:000000000000041c .L0 
     /tmp/cc6lMr8s.s:810    .text:0000000000000420 .L0 
     /tmp/cc6lMr8s.s:812    .text:0000000000000424 .L0 
     /tmp/cc6lMr8s.s:814    .text:0000000000000424 .L0 
     /tmp/cc6lMr8s.s:815    .text:0000000000000424 .L0 
     /tmp/cc6lMr8s.s:819    .text:0000000000000434 .L0 
     /tmp/cc6lMr8s.s:820    .text:0000000000000434 .L0 
     /tmp/cc6lMr8s.s:822    .text:0000000000000438 .L0 
     /tmp/cc6lMr8s.s:823    .text:000000000000043c .L0 
     /tmp/cc6lMr8s.s:824    .text:000000000000043c .L0 
     /tmp/cc6lMr8s.s:826    .text:0000000000000440 .L0 
     /tmp/cc6lMr8s.s:828    .text:0000000000000444 .L0 
     /tmp/cc6lMr8s.s:834    .text:0000000000000444 _ZN12kmem_cache_t8allocKctEv
     /tmp/cc6lMr8s.s:837    .text:0000000000000444 .L0 
     /tmp/cc6lMr8s.s:838    .text:0000000000000444 .L0 
     /tmp/cc6lMr8s.s:839    .text:0000000000000448 .L0 
     /tmp/cc6lMr8s.s:841    .text:000000000000044c .L0 
     /tmp/cc6lMr8s.s:843    .text:0000000000000450 .L0 
     /tmp/cc6lMr8s.s:845    .text:0000000000000450 .L0 
     /tmp/cc6lMr8s.s:846    .text:0000000000000450 .L0 
     /tmp/cc6lMr8s.s:848    .text:0000000000000458 .L0 
     /tmp/cc6lMr8s.s:851    .text:000000000000045c .L0 
     /tmp/cc6lMr8s.s:852    .text:000000000000045c .L0 
     /tmp/cc6lMr8s.s:853    .text:000000000000045c .L0 
     /tmp/cc6lMr8s.s:855    .text:0000000000000460 .L0 
     /tmp/cc6lMr8s.s:857    .text:0000000000000468 .L0 
     /tmp/cc6lMr8s.s:859    .text:000000000000046c .L0 
     /tmp/cc6lMr8s.s:860    .text:000000000000046c .L0 
     /tmp/cc6lMr8s.s:863    .text:0000000000000470 .L0 
     /tmp/cc6lMr8s.s:864    .text:0000000000000470 .L0 
     /tmp/cc6lMr8s.s:867    .text:000000000000047c .L0 
     /tmp/cc6lMr8s.s:868    .text:000000000000047c .L0 
     /tmp/cc6lMr8s.s:870    .text:0000000000000480 .L0 
     /tmp/cc6lMr8s.s:872    .text:0000000000000484 .L0 
     /tmp/cc6lMr8s.s:873    .text:0000000000000484 .L0 
     /tmp/cc6lMr8s.s:877    .text:0000000000000488 .L0 
     /tmp/cc6lMr8s.s:878    .text:000000000000048c .L0 
     /tmp/cc6lMr8s.s:879    .text:000000000000048c .L0 
     /tmp/cc6lMr8s.s:881    .text:0000000000000490 .L0 
     /tmp/cc6lMr8s.s:883    .text:0000000000000494 .L0 
     /tmp/cc6lMr8s.s:889    .text:0000000000000494 _ZN12kmem_cache_t10deallocKctEPS_
     /tmp/cc6lMr8s.s:892    .text:0000000000000494 .L0 
     /tmp/cc6lMr8s.s:894    .text:0000000000000494 .L0 
     /tmp/cc6lMr8s.s:895    .text:0000000000000498 .L0 
     /tmp/cc6lMr8s.s:897    .text:000000000000049c .L0 
     /tmp/cc6lMr8s.s:899    .text:00000000000004a0 .L0 
     /tmp/cc6lMr8s.s:901    .text:00000000000004a0 .L0 
GAS LISTING /tmp/cc6lMr8s.s 			page 85


     /tmp/cc6lMr8s.s:902    .text:00000000000004a0 .L0 
     /tmp/cc6lMr8s.s:904    .text:00000000000004a4 .L0 
     /tmp/cc6lMr8s.s:906    .text:00000000000004a8 .L0 
     /tmp/cc6lMr8s.s:907    .text:00000000000004a8 .L0 
     /tmp/cc6lMr8s.s:909    .text:00000000000004ac .L0 
     /tmp/cc6lMr8s.s:912    .text:00000000000004b0 .L0 
     /tmp/cc6lMr8s.s:913    .text:00000000000004b0 .L0 
     /tmp/cc6lMr8s.s:915    .text:00000000000004b4 .L0 
     /tmp/cc6lMr8s.s:917    .text:00000000000004b8 .L0 
     /tmp/cc6lMr8s.s:918    .text:00000000000004b8 .L0 
     /tmp/cc6lMr8s.s:920    .text:00000000000004bc .L0 
     /tmp/cc6lMr8s.s:923    .text:00000000000004c0 .L0 
     /tmp/cc6lMr8s.s:924    .text:00000000000004c0 .L0 
     /tmp/cc6lMr8s.s:927    .text:00000000000004cc .L0 
     /tmp/cc6lMr8s.s:928    .text:00000000000004cc .L0 
     /tmp/cc6lMr8s.s:930    .text:00000000000004d0 .L0 
     /tmp/cc6lMr8s.s:932    .text:00000000000004d4 .L0 
     /tmp/cc6lMr8s.s:933    .text:00000000000004d4 .L0 
     /tmp/cc6lMr8s.s:936    .text:00000000000004d8 .L0 
     /tmp/cc6lMr8s.s:937    .text:00000000000004d8 .L0 
     /tmp/cc6lMr8s.s:939    .text:00000000000004e0 .L0 
     /tmp/cc6lMr8s.s:940    .text:00000000000004e4 .L0 
     /tmp/cc6lMr8s.s:941    .text:00000000000004e4 .L0 
     /tmp/cc6lMr8s.s:942    .text:00000000000004e4 .L0 
     /tmp/cc6lMr8s.s:944    .text:00000000000004e8 .L0 
     /tmp/cc6lMr8s.s:947    .text:00000000000004ec .L0 
     /tmp/cc6lMr8s.s:949    .text:00000000000004ec .L0 
     /tmp/cc6lMr8s.s:950    .text:00000000000004ec .L0 
     /tmp/cc6lMr8s.s:952    .text:00000000000004f0 .L0 
     /tmp/cc6lMr8s.s:954    .text:00000000000004fc .L0 
     /tmp/cc6lMr8s.s:960    .text:00000000000004fc _ZN12kmem_cache_t12getBuffCacheEm
     /tmp/cc6lMr8s.s:963    .text:00000000000004fc .L0 
     /tmp/cc6lMr8s.s:965    .text:00000000000004fc .L0 
     /tmp/cc6lMr8s.s:966    .text:0000000000000500 .L0 
     /tmp/cc6lMr8s.s:968    .text:0000000000000504 .L0 
     /tmp/cc6lMr8s.s:970    .text:0000000000000508 .L0 
     /tmp/cc6lMr8s.s:973    .text:0000000000000508 .L0 
     /tmp/cc6lMr8s.s:974    .text:0000000000000508 .L0 
     /tmp/cc6lMr8s.s:975    .text:0000000000000508 .L0 
     /tmp/cc6lMr8s.s:977    .text:000000000000050c .L0 
     /tmp/cc6lMr8s.s:981    .text:0000000000000510 .L0 
     /tmp/cc6lMr8s.s:982    .text:0000000000000510 .L0 
     /tmp/cc6lMr8s.s:984    .text:0000000000000514 .L0 
     /tmp/cc6lMr8s.s:985    .text:0000000000000514 .L0 
     /tmp/cc6lMr8s.s:988    .text:0000000000000518 .L0 
     /tmp/cc6lMr8s.s:991    .text:000000000000051c .L0 
     /tmp/cc6lMr8s.s:995    .text:0000000000000520 .L0 
     /tmp/cc6lMr8s.s:999    .text:0000000000000528 .L0 
     /tmp/cc6lMr8s.s:1002   .text:0000000000000530 .L0 
     /tmp/cc6lMr8s.s:1008   .text:0000000000000538 .L0 
     /tmp/cc6lMr8s.s:1012   .text:000000000000053c .L0 
     /tmp/cc6lMr8s.s:1013   .text:000000000000053c .L0 
     /tmp/cc6lMr8s.s:1020   .text:000000000000054c .L0 
     /tmp/cc6lMr8s.s:1023   .text:000000000000055c .L0 
     /tmp/cc6lMr8s.s:1024   .text:000000000000055c .L0 
     /tmp/cc6lMr8s.s:1026   .text:0000000000000560 .L0 
     /tmp/cc6lMr8s.s:1028   .text:0000000000000564 .L0 
GAS LISTING /tmp/cc6lMr8s.s 			page 86


     /tmp/cc6lMr8s.s:1034   .text:0000000000000564 _ZN12kmem_cache_t4moveEPP5_SlabS2_S1_
     /tmp/cc6lMr8s.s:1037   .text:0000000000000564 .L0 
     /tmp/cc6lMr8s.s:1039   .text:0000000000000564 .L0 
     /tmp/cc6lMr8s.s:1040   .text:0000000000000568 .L0 
     /tmp/cc6lMr8s.s:1042   .text:000000000000056c .L0 
     /tmp/cc6lMr8s.s:1044   .text:0000000000000570 .L0 
     /tmp/cc6lMr8s.s:1046   .text:0000000000000570 .L0 
     /tmp/cc6lMr8s.s:1047   .text:0000000000000570 .L0 
     /tmp/cc6lMr8s.s:1050   .text:0000000000000574 .L0 
     /tmp/cc6lMr8s.s:1052   .text:0000000000000578 .L0 
     /tmp/cc6lMr8s.s:1053   .text:0000000000000578 .L0 
     /tmp/cc6lMr8s.s:1055   .text:000000000000057c .L0 
     /tmp/cc6lMr8s.s:1058   .text:0000000000000580 .L0 
     /tmp/cc6lMr8s.s:1059   .text:0000000000000580 .L0 
     /tmp/cc6lMr8s.s:1062   .text:0000000000000584 .L0 
     /tmp/cc6lMr8s.s:1064   .text:0000000000000588 .L0 
     /tmp/cc6lMr8s.s:1065   .text:0000000000000588 .L0 
     /tmp/cc6lMr8s.s:1068   .text:000000000000058c .L0 
     /tmp/cc6lMr8s.s:1069   .text:000000000000058c .L0 
     /tmp/cc6lMr8s.s:1072   .text:0000000000000590 .L0 
     /tmp/cc6lMr8s.s:1074   .text:0000000000000594 .L0 
     /tmp/cc6lMr8s.s:1075   .text:0000000000000594 .L0 
     /tmp/cc6lMr8s.s:1077   .text:0000000000000598 .L0 
     /tmp/cc6lMr8s.s:1078   .text:0000000000000598 .L0 
     /tmp/cc6lMr8s.s:1080   .text:000000000000059c .L0 
     /tmp/cc6lMr8s.s:1082   .text:00000000000005a0 .L0 
     /tmp/cc6lMr8s.s:1083   .text:00000000000005a0 .L0 
     /tmp/cc6lMr8s.s:1086   .text:00000000000005a4 .L0 
     /tmp/cc6lMr8s.s:1087   .text:00000000000005a4 .L0 
     /tmp/cc6lMr8s.s:1089   .text:00000000000005a8 .L0 
     /tmp/cc6lMr8s.s:1090   .text:00000000000005ac .L0 
     /tmp/cc6lMr8s.s:1091   .text:00000000000005ac .L0 
     /tmp/cc6lMr8s.s:1092   .text:00000000000005ac .L0 
     /tmp/cc6lMr8s.s:1094   .text:00000000000005b0 .L0 
     /tmp/cc6lMr8s.s:1098   .text:00000000000005b4 .L0 
     /tmp/cc6lMr8s.s:1100   .text:00000000000005b4 .L0 
     /tmp/cc6lMr8s.s:1101   .text:00000000000005b4 .L0 
     /tmp/cc6lMr8s.s:1103   .text:00000000000005b8 .L0 
     /tmp/cc6lMr8s.s:1105   .text:00000000000005c0 .L0 
     /tmp/cc6lMr8s.s:1111   .text:00000000000005c0 _ZN12kmem_cache_t12calcSlabSizeEv
     /tmp/cc6lMr8s.s:1114   .text:00000000000005c0 .L0 
     /tmp/cc6lMr8s.s:1116   .text:00000000000005c0 .L0 
     /tmp/cc6lMr8s.s:1117   .text:00000000000005c4 .L0 
     /tmp/cc6lMr8s.s:1119   .text:00000000000005c8 .L0 
     /tmp/cc6lMr8s.s:1121   .text:00000000000005cc .L0 
     /tmp/cc6lMr8s.s:1123   .text:00000000000005cc .L0 
     /tmp/cc6lMr8s.s:1124   .text:00000000000005cc .L0 
     /tmp/cc6lMr8s.s:1128   .text:00000000000005d4 .L0 
     /tmp/cc6lMr8s.s:1129   .text:00000000000005d4 .L0 
     /tmp/cc6lMr8s.s:1131   .text:00000000000005d8 .L0 
     /tmp/cc6lMr8s.s:1134   .text:00000000000005dc .L0 
     /tmp/cc6lMr8s.s:1135   .text:00000000000005dc .L0 
     /tmp/cc6lMr8s.s:1136   .text:00000000000005dc .L0 
     /tmp/cc6lMr8s.s:1138   .text:00000000000005e0 .L0 
     /tmp/cc6lMr8s.s:1140   .text:00000000000005e4 .L0 
     /tmp/cc6lMr8s.s:1142   .text:00000000000005e8 .L0 
     /tmp/cc6lMr8s.s:1143   .text:00000000000005e8 .L0 
GAS LISTING /tmp/cc6lMr8s.s 			page 87


     /tmp/cc6lMr8s.s:1146   .text:00000000000005f0 .L0 
     /tmp/cc6lMr8s.s:1151   .text:00000000000005f4 .L0 
     /tmp/cc6lMr8s.s:1152   .text:00000000000005f4 .L0 
     /tmp/cc6lMr8s.s:1153   .text:00000000000005f4 .L0 
     /tmp/cc6lMr8s.s:1155   .text:00000000000005f8 .L0 
     /tmp/cc6lMr8s.s:1160   .text:0000000000000604 .L0 
     /tmp/cc6lMr8s.s:1161   .text:0000000000000604 .L0 
     /tmp/cc6lMr8s.s:1165   .text:000000000000060c .L0 
     /tmp/cc6lMr8s.s:1166   .text:000000000000060c .L0 
     /tmp/cc6lMr8s.s:1167   .text:000000000000060c .L0 
     /tmp/cc6lMr8s.s:1169   .text:0000000000000610 .L0 
     /tmp/cc6lMr8s.s:1171   .text:0000000000000614 .L0 
     /tmp/cc6lMr8s.s:1173   .text:0000000000000618 .L0 
     /tmp/cc6lMr8s.s:1175   .text:000000000000061c .L0 
     /tmp/cc6lMr8s.s:1177   .text:0000000000000620 .L0 
     /tmp/cc6lMr8s.s:1183   .text:0000000000000624 .L0 
     /tmp/cc6lMr8s.s:1184   .text:0000000000000628 .L0 
     /tmp/cc6lMr8s.s:1185   .text:0000000000000628 .L0 
     /tmp/cc6lMr8s.s:1187   .text:000000000000062c .L0 
     /tmp/cc6lMr8s.s:1189   .text:0000000000000630 .L0 
     /tmp/cc6lMr8s.s:1195   .text:0000000000000630 _ZN12kmem_cache_tC2EPKcmPFvPvES4_b
     /tmp/cc6lMr8s.s:1198   .text:0000000000000630 .L0 
     /tmp/cc6lMr8s.s:1200   .text:0000000000000630 .L0 
     /tmp/cc6lMr8s.s:1201   .text:0000000000000634 .L0 
     /tmp/cc6lMr8s.s:1204   .text:000000000000063c .L0 
     /tmp/cc6lMr8s.s:1205   .text:000000000000063c .L0 
     /tmp/cc6lMr8s.s:1207   .text:0000000000000640 .L0 
     /tmp/cc6lMr8s.s:1210   .text:0000000000000640 .L0 
     /tmp/cc6lMr8s.s:1212   .text:0000000000000644 .L0 
     /tmp/cc6lMr8s.s:1213   .text:0000000000000644 .L0 
     /tmp/cc6lMr8s.s:1215   .text:0000000000000648 .L0 
     /tmp/cc6lMr8s.s:1216   .text:0000000000000648 .L0 
     /tmp/cc6lMr8s.s:1218   .text:000000000000064c .L0 
     /tmp/cc6lMr8s.s:1219   .text:000000000000064c .L0 
     /tmp/cc6lMr8s.s:1220   .text:000000000000064c .L0 
     /tmp/cc6lMr8s.s:1222   .text:0000000000000650 .L0 
     /tmp/cc6lMr8s.s:1223   .text:0000000000000650 .L0 
     /tmp/cc6lMr8s.s:1225   .text:0000000000000654 .L0 
     /tmp/cc6lMr8s.s:1226   .text:0000000000000654 .L0 
     /tmp/cc6lMr8s.s:1228   .text:0000000000000658 .L0 
     /tmp/cc6lMr8s.s:1229   .text:0000000000000658 .L0 
     /tmp/cc6lMr8s.s:1231   .text:000000000000065c .L0 
     /tmp/cc6lMr8s.s:1233   .text:0000000000000660 .L0 
     /tmp/cc6lMr8s.s:1235   .text:0000000000000664 .L0 
     /tmp/cc6lMr8s.s:1236   .text:0000000000000664 .L0 
     /tmp/cc6lMr8s.s:1237   .text:0000000000000664 .L0 
     /tmp/cc6lMr8s.s:1241   .text:000000000000066c .L0 
     /tmp/cc6lMr8s.s:1242   .text:0000000000000670 .L0 
     /tmp/cc6lMr8s.s:1244   .text:0000000000000674 .L0 
     /tmp/cc6lMr8s.s:1245   .text:0000000000000674 .L0 
     /tmp/cc6lMr8s.s:1247   .text:0000000000000678 .L0 
     /tmp/cc6lMr8s.s:1249   .text:000000000000067c .L0 
     /tmp/cc6lMr8s.s:1195   .text:0000000000000630 _ZN12kmem_cache_tC1EPKcmPFvPvES4_b
     /tmp/cc6lMr8s.s:1257   .text:000000000000067c _ZN12kmem_cache_tC2Ev
     /tmp/cc6lMr8s.s:1260   .text:000000000000067c .L0 
     /tmp/cc6lMr8s.s:1262   .text:000000000000067c .L0 
     /tmp/cc6lMr8s.s:1263   .text:0000000000000680 .L0 
GAS LISTING /tmp/cc6lMr8s.s 			page 88


     /tmp/cc6lMr8s.s:1265   .text:0000000000000684 .L0 
     /tmp/cc6lMr8s.s:1267   .text:0000000000000688 .L0 
     /tmp/cc6lMr8s.s:1270   .text:0000000000000688 .L0 
     /tmp/cc6lMr8s.s:1272   .text:000000000000068c .L0 
     /tmp/cc6lMr8s.s:1273   .text:000000000000068c .L0 
     /tmp/cc6lMr8s.s:1275   .text:0000000000000690 .L0 
     /tmp/cc6lMr8s.s:1277   .text:0000000000000694 .L0 
     /tmp/cc6lMr8s.s:1279   .text:0000000000000698 .L0 
     /tmp/cc6lMr8s.s:1280   .text:0000000000000698 .L0 
     /tmp/cc6lMr8s.s:1282   .text:000000000000069c .L0 
     /tmp/cc6lMr8s.s:1284   .text:00000000000006a0 .L0 
     /tmp/cc6lMr8s.s:1285   .text:00000000000006a0 .L0 
     /tmp/cc6lMr8s.s:1287   .text:00000000000006a4 .L0 
     /tmp/cc6lMr8s.s:1288   .text:00000000000006a4 .L0 
     /tmp/cc6lMr8s.s:1290   .text:00000000000006a8 .L0 
     /tmp/cc6lMr8s.s:1292   .text:00000000000006ac .L0 
     /tmp/cc6lMr8s.s:1293   .text:00000000000006ac .L0 
     /tmp/cc6lMr8s.s:1295   .text:00000000000006b0 .L0 
     /tmp/cc6lMr8s.s:1297   .text:00000000000006b4 .L0 
     /tmp/cc6lMr8s.s:1298   .text:00000000000006b4 .L0 
     /tmp/cc6lMr8s.s:1301   .text:00000000000006b8 .L0 
     /tmp/cc6lMr8s.s:1302   .text:00000000000006b8 .L0 
     /tmp/cc6lMr8s.s:1303   .text:00000000000006bc .L0 
     /tmp/cc6lMr8s.s:1304   .text:00000000000006bc .L0 
     /tmp/cc6lMr8s.s:1306   .text:00000000000006c0 .L0 
     /tmp/cc6lMr8s.s:1308   .text:00000000000006c4 .L0 
     /tmp/cc6lMr8s.s:1257   .text:000000000000067c _ZN12kmem_cache_tC1Ev
     /tmp/cc6lMr8s.s:1321   .text:00000000000006c4 _ZN12kmem_cache_t9kmem_initEP10_BuddyTree
     /tmp/cc6lMr8s.s:1324   .text:00000000000006c4 .L0 
     /tmp/cc6lMr8s.s:1326   .text:00000000000006c4 .L0 
     /tmp/cc6lMr8s.s:1327   .text:00000000000006c8 .L0 
     /tmp/cc6lMr8s.s:1333   .text:00000000000006dc .L0 
     /tmp/cc6lMr8s.s:1334   .text:00000000000006dc .L0 
     /tmp/cc6lMr8s.s:1335   .text:00000000000006dc .L0 
     /tmp/cc6lMr8s.s:1336   .text:00000000000006dc .L0 
     /tmp/cc6lMr8s.s:1337   .text:00000000000006dc .L0 
     /tmp/cc6lMr8s.s:1339   .text:00000000000006e0 .L0 
     /tmp/cc6lMr8s.s:1341   .text:00000000000006e0 .L0 
     /tmp/cc6lMr8s.s:1342   .text:00000000000006e0 .L0 
     /tmp/cc6lMr8s.s:1346   .text:00000000000006ec .L0 
     /tmp/cc6lMr8s.s:1347   .text:00000000000006ec .L0 
     /tmp/cc6lMr8s.s:1348   .text:00000000000006ec .L0 
     /tmp/cc6lMr8s.s:1352   .text:00000000000006f8 .L0 
     /tmp/cc6lMr8s.s:1355   .text:00000000000006fc .L0 
     /tmp/cc6lMr8s.s:1357   .text:00000000000006fc .L0 
     /tmp/cc6lMr8s.s:1358   .text:00000000000006fc .L0 
     /tmp/cc6lMr8s.s:1361   .text:0000000000000700 .L0 
     /tmp/cc6lMr8s.s:1367   .text:0000000000000708 .L0 
     /tmp/cc6lMr8s.s:1370   .text:000000000000070c .L0 
     /tmp/cc6lMr8s.s:1374   .text:0000000000000710 .L0 
     /tmp/cc6lMr8s.s:1378   .text:0000000000000718 .L0 
     /tmp/cc6lMr8s.s:1379   .text:0000000000000718 .L0 
     /tmp/cc6lMr8s.s:1380   .text:0000000000000718 .L0 
     /tmp/cc6lMr8s.s:1385   .text:0000000000000728 .L0 
     /tmp/cc6lMr8s.s:1389   .text:0000000000000734 .L0 
     /tmp/cc6lMr8s.s:1390   .text:0000000000000734 .L0 
     /tmp/cc6lMr8s.s:1396   .text:0000000000000748 .L0 
GAS LISTING /tmp/cc6lMr8s.s 			page 89


     /tmp/cc6lMr8s.s:1400   .text:0000000000000750 .L0 
     /tmp/cc6lMr8s.s:1401   .text:0000000000000750 .L0 
     /tmp/cc6lMr8s.s:1403   .text:0000000000000754 .L0 
     /tmp/cc6lMr8s.s:1404   .text:0000000000000754 .L0 
     /tmp/cc6lMr8s.s:1406   .text:0000000000000758 .L0 
     /tmp/cc6lMr8s.s:1408   .text:000000000000075c .L0 
     /tmp/cc6lMr8s.s:1409   .text:000000000000075c .L0 
     /tmp/cc6lMr8s.s:1415   .text:0000000000000764 .L0 
     /tmp/cc6lMr8s.s:1416   .text:0000000000000764 .L0 
     /tmp/cc6lMr8s.s:1420   .text:0000000000000774 .L0 
     /tmp/cc6lMr8s.s:1422   .text:0000000000000778 .L0 
     /tmp/cc6lMr8s.s:1423   .text:0000000000000778 .L0 
     /tmp/cc6lMr8s.s:1425   .text:000000000000077c .L0 
     /tmp/cc6lMr8s.s:1426   .text:000000000000077c .L0 
     /tmp/cc6lMr8s.s:1430   .text:0000000000000788 .L0 
     /tmp/cc6lMr8s.s:1432   .text:000000000000078c .L0 
     /tmp/cc6lMr8s.s:1433   .text:000000000000078c .L0 
     /tmp/cc6lMr8s.s:1437   .text:0000000000000798 .L0 
     /tmp/cc6lMr8s.s:1441   .text:000000000000079c .L0 
     /tmp/cc6lMr8s.s:1449   .text:00000000000007a8 .L0 
     /tmp/cc6lMr8s.s:1450   .text:00000000000007a8 .L0 
     /tmp/cc6lMr8s.s:1452   .text:00000000000007b0 .L0 
     /tmp/cc6lMr8s.s:1453   .text:00000000000007b0 .L0 
     /tmp/cc6lMr8s.s:1460   .text:00000000000007bc .L0 
     /tmp/cc6lMr8s.s:1461   .text:00000000000007bc .L0 
     /tmp/cc6lMr8s.s:1464   .text:00000000000007c0 .L0 
     /tmp/cc6lMr8s.s:1468   .text:00000000000007c4 .L0 
     /tmp/cc6lMr8s.s:1471   .text:00000000000007cc .L0 
     /tmp/cc6lMr8s.s:1472   .text:00000000000007cc .L0 
     /tmp/cc6lMr8s.s:1476   .text:00000000000007d8 .L0 
     /tmp/cc6lMr8s.s:1483   .text:00000000000007f4 .L0 
     /tmp/cc6lMr8s.s:1494   .text:0000000000000818 .L0 
     /tmp/cc6lMr8s.s:1495   .text:000000000000081c .L0 
     /tmp/cc6lMr8s.s:1497   .text:0000000000000820 .L0 
     /tmp/cc6lMr8s.s:1498   .text:0000000000000820 .L0 
     /tmp/cc6lMr8s.s:1500   .text:0000000000000824 .L0 
     /tmp/cc6lMr8s.s:1503   .text:0000000000000828 .L0 
     /tmp/cc6lMr8s.s:1506   .text:000000000000082c .L0 
     /tmp/cc6lMr8s.s:1509   .text:0000000000000830 .L0 
     /tmp/cc6lMr8s.s:1511   .text:0000000000000834 .L0 
     /tmp/cc6lMr8s.s:1517   .text:0000000000000834 _ZN12kmem_cache_t12deallocSlabsEP5_Slab
     /tmp/cc6lMr8s.s:1520   .text:0000000000000834 .L0 
     /tmp/cc6lMr8s.s:1522   .text:0000000000000834 .L0 
     /tmp/cc6lMr8s.s:1523   .text:0000000000000838 .L0 
     /tmp/cc6lMr8s.s:1529   .text:000000000000084c .L0 
     /tmp/cc6lMr8s.s:1530   .text:000000000000084c .L0 
     /tmp/cc6lMr8s.s:1531   .text:000000000000084c .L0 
     /tmp/cc6lMr8s.s:1532   .text:000000000000084c .L0 
     /tmp/cc6lMr8s.s:1533   .text:000000000000084c .L0 
     /tmp/cc6lMr8s.s:1535   .text:0000000000000850 .L0 
     /tmp/cc6lMr8s.s:1540   .text:0000000000000858 .L0 
     /tmp/cc6lMr8s.s:1546   .text:000000000000085c .L0 
     /tmp/cc6lMr8s.s:1547   .text:000000000000085c .L0 
     /tmp/cc6lMr8s.s:1555   .text:0000000000000870 .L0 
     /tmp/cc6lMr8s.s:1559   .text:0000000000000874 .L0 
     /tmp/cc6lMr8s.s:1560   .text:0000000000000874 .L0 
     /tmp/cc6lMr8s.s:1564   .text:0000000000000878 .L0 
GAS LISTING /tmp/cc6lMr8s.s 			page 90


     /tmp/cc6lMr8s.s:1565   .text:0000000000000878 .L0 
     /tmp/cc6lMr8s.s:1566   .text:0000000000000878 .L0 
     /tmp/cc6lMr8s.s:1570   .text:000000000000087c .L0 
     /tmp/cc6lMr8s.s:1571   .text:000000000000087c .L0 
     /tmp/cc6lMr8s.s:1573   .text:0000000000000880 .L0 
     /tmp/cc6lMr8s.s:1577   .text:0000000000000884 .L0 
     /tmp/cc6lMr8s.s:1580   .text:0000000000000884 .L0 
     /tmp/cc6lMr8s.s:1583   .text:0000000000000884 .L0 
     /tmp/cc6lMr8s.s:1584   .text:0000000000000884 .L0 
     /tmp/cc6lMr8s.s:1589   .text:0000000000000898 .L0 
     /tmp/cc6lMr8s.s:1590   .text:0000000000000898 .L0 
     /tmp/cc6lMr8s.s:1600   .text:00000000000008a8 .L0 
     /tmp/cc6lMr8s.s:1601   .text:00000000000008ac .L0 
     /tmp/cc6lMr8s.s:1603   .text:00000000000008b0 .L0 
     /tmp/cc6lMr8s.s:1604   .text:00000000000008b0 .L0 
     /tmp/cc6lMr8s.s:1606   .text:00000000000008b4 .L0 
     /tmp/cc6lMr8s.s:1609   .text:00000000000008b8 .L0 
     /tmp/cc6lMr8s.s:1611   .text:00000000000008bc .L0 
     /tmp/cc6lMr8s.s:1614   .text:00000000000008c0 .L0 
     /tmp/cc6lMr8s.s:1616   .text:00000000000008c4 .L0 
     /tmp/cc6lMr8s.s:1622   .text:00000000000008c4 _ZN12kmem_cache_tD2Ev
     /tmp/cc6lMr8s.s:1625   .text:00000000000008c4 .L0 
     /tmp/cc6lMr8s.s:12348  .data.rel.local.DW.ref.__gxx_personality_v0:0000000000000000 DW.ref.__gxx_personality_v0
     /tmp/cc6lMr8s.s:1629   .text:00000000000008c4 .L0 
     /tmp/cc6lMr8s.s:1630   .text:00000000000008c8 .L0 
     /tmp/cc6lMr8s.s:1634   .text:00000000000008d4 .L0 
     /tmp/cc6lMr8s.s:1635   .text:00000000000008d4 .L0 
     /tmp/cc6lMr8s.s:1636   .text:00000000000008d4 .L0 
     /tmp/cc6lMr8s.s:1638   .text:00000000000008d8 .L0 
     /tmp/cc6lMr8s.s:1642   .text:00000000000008dc .L0 
     /tmp/cc6lMr8s.s:1643   .text:00000000000008dc .L0 
     /tmp/cc6lMr8s.s:1647   .text:00000000000008e8 .L0 
     /tmp/cc6lMr8s.s:1648   .text:00000000000008e8 .L0 
     /tmp/cc6lMr8s.s:1653   .text:00000000000008f8 .L0 
     /tmp/cc6lMr8s.s:1654   .text:00000000000008f8 .L0 
     /tmp/cc6lMr8s.s:1659   .text:0000000000000908 .L0 
     /tmp/cc6lMr8s.s:1660   .text:0000000000000908 .L0 
     /tmp/cc6lMr8s.s:1661   .text:0000000000000908 .L0 
     /tmp/cc6lMr8s.s:1662   .text:0000000000000908 .L0 
     /tmp/cc6lMr8s.s:1663   .text:0000000000000908 .L0 
     /tmp/cc6lMr8s.s:1665   .text:0000000000000908 .L0 
     /tmp/cc6lMr8s.s:1666   .text:0000000000000908 .L0 
     /tmp/cc6lMr8s.s:1667   .text:000000000000090c .L0 
     /tmp/cc6lMr8s.s:1669   .text:0000000000000910 .L0 
     /tmp/cc6lMr8s.s:1670   .text:0000000000000910 .L0 
     /tmp/cc6lMr8s.s:1672   .text:0000000000000914 .L0 
     /tmp/cc6lMr8s.s:1675   .text:0000000000000918 .L0 
     /tmp/cc6lMr8s.s:1677   .text:000000000000091c .L0 
     /tmp/cc6lMr8s.s:1622   .text:00000000000008c4 _ZN12kmem_cache_tD1Ev
     /tmp/cc6lMr8s.s:1693   .text:000000000000091c _ZN12kmem_cache_t9allocSlabEv
     /tmp/cc6lMr8s.s:1696   .text:000000000000091c .L0 
     /tmp/cc6lMr8s.s:1698   .text:000000000000091c .L0 
     /tmp/cc6lMr8s.s:1699   .text:0000000000000920 .L0 
     /tmp/cc6lMr8s.s:1705   .text:0000000000000934 .L0 
     /tmp/cc6lMr8s.s:1706   .text:0000000000000934 .L0 
     /tmp/cc6lMr8s.s:1707   .text:0000000000000934 .L0 
     /tmp/cc6lMr8s.s:1708   .text:0000000000000934 .L0 
GAS LISTING /tmp/cc6lMr8s.s 			page 91


     /tmp/cc6lMr8s.s:1709   .text:0000000000000934 .L0 
     /tmp/cc6lMr8s.s:1711   .text:0000000000000938 .L0 
     /tmp/cc6lMr8s.s:1715   .text:000000000000093c .L0 
     /tmp/cc6lMr8s.s:1716   .text:000000000000093c .L0 
     /tmp/cc6lMr8s.s:1718   .text:0000000000000940 .L0 
     /tmp/cc6lMr8s.s:1721   .text:0000000000000944 .L0 
     /tmp/cc6lMr8s.s:1722   .text:0000000000000944 .L0 
     /tmp/cc6lMr8s.s:1727   .text:0000000000000950 .L0 
     /tmp/cc6lMr8s.s:1729   .text:0000000000000954 .L0 
     /tmp/cc6lMr8s.s:1730   .text:0000000000000954 .L0 
     /tmp/cc6lMr8s.s:1738   .text:000000000000096c .L0 
     /tmp/cc6lMr8s.s:1740   .text:0000000000000970 .L0 
     /tmp/cc6lMr8s.s:1741   .text:0000000000000970 .L0 
     /tmp/cc6lMr8s.s:1748   .text:0000000000000984 .L0 
     /tmp/cc6lMr8s.s:1754   .text:0000000000000998 .L0 
     /tmp/cc6lMr8s.s:1755   .text:0000000000000998 .L0 
     /tmp/cc6lMr8s.s:1759   .text:000000000000099c .L0 
     /tmp/cc6lMr8s.s:1760   .text:000000000000099c .L0 
     /tmp/cc6lMr8s.s:1765   .text:00000000000009a8 .L0 
     /tmp/cc6lMr8s.s:1766   .text:00000000000009a8 .L0 
     /tmp/cc6lMr8s.s:1774   .text:00000000000009b0 .L0 
     /tmp/cc6lMr8s.s:1775   .text:00000000000009b0 .L0 
     /tmp/cc6lMr8s.s:1782   .text:00000000000009c8 .L0 
     /tmp/cc6lMr8s.s:1784   .text:00000000000009cc .L0 
     /tmp/cc6lMr8s.s:1785   .text:00000000000009cc .L0 
     /tmp/cc6lMr8s.s:1792   .text:00000000000009e0 .L0 
     /tmp/cc6lMr8s.s:1800   .text:00000000000009f0 .L0 
     /tmp/cc6lMr8s.s:1801   .text:00000000000009f0 .L0 
     /tmp/cc6lMr8s.s:1803   .text:00000000000009f8 .L0 
     /tmp/cc6lMr8s.s:1805   .text:00000000000009fc .L0 
     /tmp/cc6lMr8s.s:1806   .text:00000000000009fc .L0 
     /tmp/cc6lMr8s.s:1808   .text:0000000000000a00 .L0 
     /tmp/cc6lMr8s.s:1811   .text:0000000000000a04 .L0 
     /tmp/cc6lMr8s.s:1813   .text:0000000000000a08 .L0 
     /tmp/cc6lMr8s.s:1815   .text:0000000000000a0c .L0 
     /tmp/cc6lMr8s.s:1817   .text:0000000000000a10 .L0 
     /tmp/cc6lMr8s.s:1828   .text:0000000000000a10 _ZN12kmem_cache_t5allocEv
     /tmp/cc6lMr8s.s:1831   .text:0000000000000a10 .L0 
     /tmp/cc6lMr8s.s:1833   .text:0000000000000a10 .L0 
     /tmp/cc6lMr8s.s:1834   .text:0000000000000a14 .L0 
     /tmp/cc6lMr8s.s:1839   .text:0000000000000a24 .L0 
     /tmp/cc6lMr8s.s:1840   .text:0000000000000a24 .L0 
     /tmp/cc6lMr8s.s:1841   .text:0000000000000a24 .L0 
     /tmp/cc6lMr8s.s:1842   .text:0000000000000a24 .L0 
     /tmp/cc6lMr8s.s:1844   .text:0000000000000a28 .L0 
     /tmp/cc6lMr8s.s:1847   .text:0000000000000a2c .L0 
     /tmp/cc6lMr8s.s:1848   .text:0000000000000a2c .L0 
     /tmp/cc6lMr8s.s:1849   .text:0000000000000a2c .L0 
     /tmp/cc6lMr8s.s:1852   .text:0000000000000a30 .L0 
     /tmp/cc6lMr8s.s:1854   .text:0000000000000a34 .L0 
     /tmp/cc6lMr8s.s:1855   .text:0000000000000a34 .L0 
     /tmp/cc6lMr8s.s:1858   .text:0000000000000a3c .L0 
     /tmp/cc6lMr8s.s:1863   .text:0000000000000a44 .L0 
     /tmp/cc6lMr8s.s:1864   .text:0000000000000a44 .L0 
     /tmp/cc6lMr8s.s:1867   .text:0000000000000a48 .L0 
     /tmp/cc6lMr8s.s:1870   .text:0000000000000a50 .L0 
     /tmp/cc6lMr8s.s:1873   .text:0000000000000a54 .L0 
GAS LISTING /tmp/cc6lMr8s.s 			page 92


     /tmp/cc6lMr8s.s:1876   .text:0000000000000a58 .L0 
     /tmp/cc6lMr8s.s:1877   .text:0000000000000a58 .L0 
     /tmp/cc6lMr8s.s:1879   .text:0000000000000a5c .L0 
     /tmp/cc6lMr8s.s:1881   .text:0000000000000a60 .L0 
     /tmp/cc6lMr8s.s:1882   .text:0000000000000a60 .L0 
     /tmp/cc6lMr8s.s:1887   .text:0000000000000a68 .L0 
     /tmp/cc6lMr8s.s:1889   .text:0000000000000a70 .L0 
     /tmp/cc6lMr8s.s:1890   .text:0000000000000a70 .L0 
     /tmp/cc6lMr8s.s:1892   .text:0000000000000a74 .L0 
     /tmp/cc6lMr8s.s:1893   .text:0000000000000a74 .L0 
     /tmp/cc6lMr8s.s:1895   .text:0000000000000a78 .L0 
     /tmp/cc6lMr8s.s:1898   .text:0000000000000a7c .L0 
     /tmp/cc6lMr8s.s:1900   .text:0000000000000a80 .L0 
     /tmp/cc6lMr8s.s:1904   .text:0000000000000a84 .L0 
     /tmp/cc6lMr8s.s:1906   .text:0000000000000a84 .L0 
     /tmp/cc6lMr8s.s:1907   .text:0000000000000a84 .L0 
     /tmp/cc6lMr8s.s:1916   .text:0000000000000a9c .L0 
     /tmp/cc6lMr8s.s:1917   .text:0000000000000a9c .L0 
     /tmp/cc6lMr8s.s:1919   .text:0000000000000aa0 .L0 
     /tmp/cc6lMr8s.s:1922   .text:0000000000000aa4 .L0 
     /tmp/cc6lMr8s.s:1923   .text:0000000000000aa4 .L0 
     /tmp/cc6lMr8s.s:1925   .text:0000000000000aa8 .L0 
     /tmp/cc6lMr8s.s:1927   .text:0000000000000aac .L0 
     /tmp/cc6lMr8s.s:1928   .text:0000000000000aac .L0 
     /tmp/cc6lMr8s.s:1931   .text:0000000000000ab4 .L0 
     /tmp/cc6lMr8s.s:1937   .text:0000000000000ac0 .L0 
     /tmp/cc6lMr8s.s:1938   .text:0000000000000ac0 .L0 
     /tmp/cc6lMr8s.s:1941   .text:0000000000000ac4 .L0 
     /tmp/cc6lMr8s.s:1944   .text:0000000000000acc .L0 
     /tmp/cc6lMr8s.s:1947   .text:0000000000000ad0 .L0 
     /tmp/cc6lMr8s.s:1949   .text:0000000000000ad4 .L0 
     /tmp/cc6lMr8s.s:1950   .text:0000000000000ad4 .L0 
     /tmp/cc6lMr8s.s:1959   .text:0000000000000aec .L0 
     /tmp/cc6lMr8s.s:1960   .text:0000000000000aec .L0 
     /tmp/cc6lMr8s.s:1964   .text:0000000000000af8 .L0 
     /tmp/cc6lMr8s.s:1968   .text:0000000000000b00 .L0 
     /tmp/cc6lMr8s.s:1969   .text:0000000000000b00 .L0 
     /tmp/cc6lMr8s.s:1972   .text:0000000000000b0c .L0 
     /tmp/cc6lMr8s.s:1973   .text:0000000000000b0c .L0 
     /tmp/cc6lMr8s.s:1977   .text:0000000000000b10 .L0 
     /tmp/cc6lMr8s.s:1978   .text:0000000000000b10 .L0 
     /tmp/cc6lMr8s.s:1984   .text:0000000000000b28 .L0 
     /tmp/cc6lMr8s.s:1995   .text:0000000000000b28 _ZN12kmem_cache_t7deallocEPv
     /tmp/cc6lMr8s.s:1998   .text:0000000000000b28 .L0 
     /tmp/cc6lMr8s.s:2000   .text:0000000000000b28 .L0 
     /tmp/cc6lMr8s.s:2001   .text:0000000000000b2c .L0 
     /tmp/cc6lMr8s.s:2008   .text:0000000000000b44 .L0 
     /tmp/cc6lMr8s.s:2009   .text:0000000000000b44 .L0 
     /tmp/cc6lMr8s.s:2010   .text:0000000000000b44 .L0 
     /tmp/cc6lMr8s.s:2011   .text:0000000000000b44 .L0 
     /tmp/cc6lMr8s.s:2012   .text:0000000000000b44 .L0 
     /tmp/cc6lMr8s.s:2013   .text:0000000000000b44 .L0 
     /tmp/cc6lMr8s.s:2015   .text:0000000000000b48 .L0 
     /tmp/cc6lMr8s.s:2019   .text:0000000000000b50 .L0 
     /tmp/cc6lMr8s.s:2020   .text:0000000000000b50 .L0 
     /tmp/cc6lMr8s.s:2022   .text:0000000000000b54 .L0 
     /tmp/cc6lMr8s.s:2024   .text:0000000000000b58 .L0 
GAS LISTING /tmp/cc6lMr8s.s 			page 93


     /tmp/cc6lMr8s.s:2025   .text:0000000000000b58 .L0 
     /tmp/cc6lMr8s.s:2031   .text:0000000000000b60 .L0 
     /tmp/cc6lMr8s.s:2032   .text:0000000000000b60 .L0 
     /tmp/cc6lMr8s.s:2036   .text:0000000000000b64 .L0 
     /tmp/cc6lMr8s.s:2037   .text:0000000000000b64 .L0 
     /tmp/cc6lMr8s.s:2039   .text:0000000000000b68 .L0 
     /tmp/cc6lMr8s.s:2040   .text:0000000000000b68 .L0 
     /tmp/cc6lMr8s.s:2043   .text:0000000000000b70 .L0 
     /tmp/cc6lMr8s.s:2049   .text:0000000000000b80 .L0 
     /tmp/cc6lMr8s.s:2051   .text:0000000000000b84 .L0 
     /tmp/cc6lMr8s.s:2052   .text:0000000000000b84 .L0 
     /tmp/cc6lMr8s.s:2055   .text:0000000000000b88 .L0 
     /tmp/cc6lMr8s.s:2058   .text:0000000000000b8c .L0 
     /tmp/cc6lMr8s.s:2059   .text:0000000000000b8c .L0 
     /tmp/cc6lMr8s.s:2062   .text:0000000000000b94 .L0 
     /tmp/cc6lMr8s.s:2067   .text:0000000000000ba0 .L0 
     /tmp/cc6lMr8s.s:2068   .text:0000000000000ba0 .L0 
     /tmp/cc6lMr8s.s:2071   .text:0000000000000ba8 .L0 
     /tmp/cc6lMr8s.s:2075   .text:0000000000000bb0 .L0 
     /tmp/cc6lMr8s.s:2077   .text:0000000000000bb4 .L0 
     /tmp/cc6lMr8s.s:2078   .text:0000000000000bb4 .L0 
     /tmp/cc6lMr8s.s:2085   .text:0000000000000bc8 .L0 
     /tmp/cc6lMr8s.s:2087   .text:0000000000000bd0 .L0 
     /tmp/cc6lMr8s.s:2088   .text:0000000000000bd0 .L0 
     /tmp/cc6lMr8s.s:2090   .text:0000000000000bd4 .L0 
     /tmp/cc6lMr8s.s:2091   .text:0000000000000bd4 .L0 
     /tmp/cc6lMr8s.s:2093   .text:0000000000000bd8 .L0 
     /tmp/cc6lMr8s.s:2095   .text:0000000000000bdc .L0 
     /tmp/cc6lMr8s.s:2098   .text:0000000000000be0 .L0 
     /tmp/cc6lMr8s.s:2101   .text:0000000000000be4 .L0 
     /tmp/cc6lMr8s.s:2104   .text:0000000000000be8 .L0 
     /tmp/cc6lMr8s.s:2108   .text:0000000000000bec .L0 
     /tmp/cc6lMr8s.s:2110   .text:0000000000000bec .L0 
     /tmp/cc6lMr8s.s:2111   .text:0000000000000bec .L0 
     /tmp/cc6lMr8s.s:2117   .text:0000000000000c00 .L0 
     /tmp/cc6lMr8s.s:2118   .text:0000000000000c00 .L0 
     /tmp/cc6lMr8s.s:2121   .text:0000000000000c04 .L0 
     /tmp/cc6lMr8s.s:2122   .text:0000000000000c04 .L0 
     /tmp/cc6lMr8s.s:2126   .text:0000000000000c08 .L0 
     /tmp/cc6lMr8s.s:2127   .text:0000000000000c08 .L0 
     /tmp/cc6lMr8s.s:2129   .text:0000000000000c0c .L0 
     /tmp/cc6lMr8s.s:2130   .text:0000000000000c0c .L0 
     /tmp/cc6lMr8s.s:2133   .text:0000000000000c14 .L0 
     /tmp/cc6lMr8s.s:2139   .text:0000000000000c24 .L0 
     /tmp/cc6lMr8s.s:2141   .text:0000000000000c28 .L0 
     /tmp/cc6lMr8s.s:2142   .text:0000000000000c28 .L0 
     /tmp/cc6lMr8s.s:2145   .text:0000000000000c2c .L0 
     /tmp/cc6lMr8s.s:2148   .text:0000000000000c30 .L0 
     /tmp/cc6lMr8s.s:2149   .text:0000000000000c30 .L0 
     /tmp/cc6lMr8s.s:2152   .text:0000000000000c38 .L0 
     /tmp/cc6lMr8s.s:2157   .text:0000000000000c44 .L0 
     /tmp/cc6lMr8s.s:2158   .text:0000000000000c44 .L0 
     /tmp/cc6lMr8s.s:2161   .text:0000000000000c4c .L0 
     /tmp/cc6lMr8s.s:2165   .text:0000000000000c54 .L0 
     /tmp/cc6lMr8s.s:2167   .text:0000000000000c58 .L0 
     /tmp/cc6lMr8s.s:2168   .text:0000000000000c58 .L0 
     /tmp/cc6lMr8s.s:2174   .text:0000000000000c6c .L0 
GAS LISTING /tmp/cc6lMr8s.s 			page 94


     /tmp/cc6lMr8s.s:2175   .text:0000000000000c6c .L0 
     /tmp/cc6lMr8s.s:2178   .text:0000000000000c70 .L0 
     /tmp/cc6lMr8s.s:2179   .text:0000000000000c70 .L0 
     /tmp/cc6lMr8s.s:2181   .text:0000000000000c74 .L0 
     /tmp/cc6lMr8s.s:2183   .text:0000000000000c78 .L0 
     /tmp/cc6lMr8s.s:2184   .text:0000000000000c78 .L0 
     /tmp/cc6lMr8s.s:2189   .text:0000000000000c88 .L0 
     /tmp/cc6lMr8s.s:2191   .text:0000000000000c90 .L0 
     /tmp/cc6lMr8s.s:2197   .text:0000000000000c90 _ZN12kmem_cache_t11deallocBuffEPv
     /tmp/cc6lMr8s.s:2200   .text:0000000000000c90 .L0 
     /tmp/cc6lMr8s.s:2202   .text:0000000000000c90 .L0 
     /tmp/cc6lMr8s.s:2203   .text:0000000000000c94 .L0 
     /tmp/cc6lMr8s.s:2208   .text:0000000000000ca4 .L0 
     /tmp/cc6lMr8s.s:2209   .text:0000000000000ca4 .L0 
     /tmp/cc6lMr8s.s:2210   .text:0000000000000ca4 .L0 
     /tmp/cc6lMr8s.s:2211   .text:0000000000000ca4 .L0 
     /tmp/cc6lMr8s.s:2213   .text:0000000000000ca8 .L0 
     /tmp/cc6lMr8s.s:2218   .text:0000000000000cac .L0 
     /tmp/cc6lMr8s.s:2219   .text:0000000000000cac .L0 
     /tmp/cc6lMr8s.s:2223   .text:0000000000000cb0 .L0 
     /tmp/cc6lMr8s.s:2226   .text:0000000000000cb8 .L0 
     /tmp/cc6lMr8s.s:2227   .text:0000000000000cb8 .L0 
     /tmp/cc6lMr8s.s:2231   .text:0000000000000cc4 .L0 
     /tmp/cc6lMr8s.s:2237   .text:0000000000000cdc .L0 
     /tmp/cc6lMr8s.s:2239   .text:0000000000000ce0 .L0 
     /tmp/cc6lMr8s.s:2246   .text:0000000000000ce8 .L0 
     /tmp/cc6lMr8s.s:2249   .text:0000000000000cec .L0 
     /tmp/cc6lMr8s.s:2250   .text:0000000000000cf0 .L0 
     /tmp/cc6lMr8s.s:2252   .text:0000000000000cf4 .L0 
     /tmp/cc6lMr8s.s:2253   .text:0000000000000cf4 .L0 
     /tmp/cc6lMr8s.s:2255   .text:0000000000000cf8 .L0 
     /tmp/cc6lMr8s.s:2258   .text:0000000000000cfc .L0 
     /tmp/cc6lMr8s.s:2261   .text:0000000000000d00 .L0 
     /tmp/cc6lMr8s.s:2263   .text:0000000000000d04 .L0 
     /tmp/cc6lMr8s.s:2269   .text:0000000000000d04 _ZN12kmem_cache_t6shrinkEv
     /tmp/cc6lMr8s.s:2272   .text:0000000000000d04 .L0 
     /tmp/cc6lMr8s.s:2274   .text:0000000000000d04 .L0 
     /tmp/cc6lMr8s.s:2275   .text:0000000000000d04 .L0 
     /tmp/cc6lMr8s.s:2276   .text:0000000000000d04 .L0 
     /tmp/cc6lMr8s.s:2278   .text:0000000000000d08 .L0 
     /tmp/cc6lMr8s.s:2280   .text:0000000000000d0c .L0 
     /tmp/cc6lMr8s.s:2283   .text:0000000000000d10 .L0 
     /tmp/cc6lMr8s.s:2287   .text:0000000000000d14 .L0 
     /tmp/cc6lMr8s.s:2288   .text:0000000000000d18 .L0 
     /tmp/cc6lMr8s.s:2292   .text:0000000000000d24 .L0 
     /tmp/cc6lMr8s.s:2293   .text:0000000000000d24 .L0 
     /tmp/cc6lMr8s.s:2294   .text:0000000000000d24 .L0 
     /tmp/cc6lMr8s.s:2296   .text:0000000000000d28 .L0 
     /tmp/cc6lMr8s.s:2299   .text:0000000000000d2c .L0 
     /tmp/cc6lMr8s.s:2300   .text:0000000000000d2c .L0 
     /tmp/cc6lMr8s.s:2303   .text:0000000000000d34 .L0 
     /tmp/cc6lMr8s.s:2304   .text:0000000000000d34 .L0 
     /tmp/cc6lMr8s.s:2306   .text:0000000000000d38 .L0 
     /tmp/cc6lMr8s.s:2307   .text:0000000000000d38 .L0 
     /tmp/cc6lMr8s.s:2309   .text:0000000000000d3c .L0 
     /tmp/cc6lMr8s.s:2310   .text:0000000000000d40 .L0 
     /tmp/cc6lMr8s.s:2312   .text:0000000000000d44 .L0 
GAS LISTING /tmp/cc6lMr8s.s 			page 95


     /tmp/cc6lMr8s.s:2313   .text:0000000000000d44 .L0 
     /tmp/cc6lMr8s.s:2315   .text:0000000000000d48 .L0 
     /tmp/cc6lMr8s.s:2318   .text:0000000000000d4c .L0 
     /tmp/cc6lMr8s.s:2320   .text:0000000000000d50 .L0 
     /tmp/cc6lMr8s.s:2326   .text:0000000000000d50 _ZN12kmem_cache_t7slabNumEv
     /tmp/cc6lMr8s.s:2329   .text:0000000000000d50 .L0 
     /tmp/cc6lMr8s.s:2331   .text:0000000000000d50 .L0 
     /tmp/cc6lMr8s.s:2332   .text:0000000000000d54 .L0 
     /tmp/cc6lMr8s.s:2334   .text:0000000000000d58 .L0 
     /tmp/cc6lMr8s.s:2336   .text:0000000000000d5c .L0 
     /tmp/cc6lMr8s.s:2339   .text:0000000000000d5c .L0 
     /tmp/cc6lMr8s.s:2340   .text:0000000000000d5c .L0 
     /tmp/cc6lMr8s.s:2341   .text:0000000000000d5c .L0 
     /tmp/cc6lMr8s.s:2343   .text:0000000000000d60 .L0 
     /tmp/cc6lMr8s.s:2345   .text:0000000000000d64 .L0 
     /tmp/cc6lMr8s.s:2347   .text:0000000000000d68 .L0 
     /tmp/cc6lMr8s.s:2349   .text:0000000000000d6c .L0 
     /tmp/cc6lMr8s.s:2351   .text:0000000000000d70 .L0 
     /tmp/cc6lMr8s.s:2355   .text:0000000000000d74 .L0 
     /tmp/cc6lMr8s.s:2356   .text:0000000000000d74 .L0 
     /tmp/cc6lMr8s.s:2359   .text:0000000000000d78 .L0 
     /tmp/cc6lMr8s.s:2366   .text:0000000000000d80 .L0 
     /tmp/cc6lMr8s.s:2370   .text:0000000000000d84 .L0 
     /tmp/cc6lMr8s.s:2374   .text:0000000000000d8c .L0 
     /tmp/cc6lMr8s.s:2375   .text:0000000000000d8c .L0 
     /tmp/cc6lMr8s.s:2382   .text:0000000000000d9c .L0 
     /tmp/cc6lMr8s.s:2383   .text:0000000000000d9c .L0 
     /tmp/cc6lMr8s.s:2385   .text:0000000000000da0 .L0 
     /tmp/cc6lMr8s.s:2386   .text:0000000000000da0 .L0 
     /tmp/cc6lMr8s.s:2389   .text:0000000000000da4 .L0 
     /tmp/cc6lMr8s.s:2390   .text:0000000000000da4 .L0 
     /tmp/cc6lMr8s.s:2393   .text:0000000000000da8 .L0 
     /tmp/cc6lMr8s.s:2399   .text:0000000000000dac .L0 
     /tmp/cc6lMr8s.s:2400   .text:0000000000000dac .L0 
     /tmp/cc6lMr8s.s:2401   .text:0000000000000db0 .L0 
     /tmp/cc6lMr8s.s:2402   .text:0000000000000db0 .L0 
     /tmp/cc6lMr8s.s:2404   .text:0000000000000db4 .L0 
     /tmp/cc6lMr8s.s:2406   .text:0000000000000db8 .L0 
     /tmp/cc6lMr8s.s:2412   .text:0000000000000db8 _ZN12kmem_cache_t12slabCapacityEv
     /tmp/cc6lMr8s.s:2415   .text:0000000000000db8 .L0 
     /tmp/cc6lMr8s.s:2417   .text:0000000000000db8 .L0 
     /tmp/cc6lMr8s.s:2418   .text:0000000000000dbc .L0 
     /tmp/cc6lMr8s.s:2420   .text:0000000000000dc0 .L0 
     /tmp/cc6lMr8s.s:2422   .text:0000000000000dc4 .L0 
     /tmp/cc6lMr8s.s:2424   .text:0000000000000dc4 .L0 
     /tmp/cc6lMr8s.s:2425   .text:0000000000000dc4 .L0 
     /tmp/cc6lMr8s.s:2427   .text:0000000000000dc8 .L0 
     /tmp/cc6lMr8s.s:2429   .text:0000000000000dcc .L0 
     /tmp/cc6lMr8s.s:2433   .text:0000000000000dd0 .L0 
     /tmp/cc6lMr8s.s:2434   .text:0000000000000dd0 .L0 
     /tmp/cc6lMr8s.s:2437   .text:0000000000000dd4 .L0 
     /tmp/cc6lMr8s.s:2439   .text:0000000000000dd8 .L0 
     /tmp/cc6lMr8s.s:2441   .text:0000000000000de0 .L0 
     /tmp/cc6lMr8s.s:2442   .text:0000000000000de0 .L0 
     /tmp/cc6lMr8s.s:2443   .text:0000000000000de0 .L0 
     /tmp/cc6lMr8s.s:2445   .text:0000000000000de4 .L0 
     /tmp/cc6lMr8s.s:2449   .text:0000000000000de8 .L0 
GAS LISTING /tmp/cc6lMr8s.s 			page 96


     /tmp/cc6lMr8s.s:2451   .text:0000000000000de8 .L0 
     /tmp/cc6lMr8s.s:2453   .text:0000000000000dec .L0 
     /tmp/cc6lMr8s.s:2455   .text:0000000000000df4 .L0 
     /tmp/cc6lMr8s.s:2461   .text:0000000000000df4 _ZN12kmem_cache_t16allocatedSlotNumEv
     /tmp/cc6lMr8s.s:2464   .text:0000000000000df4 .L0 
     /tmp/cc6lMr8s.s:2466   .text:0000000000000df4 .L0 
     /tmp/cc6lMr8s.s:2467   .text:0000000000000df8 .L0 
     /tmp/cc6lMr8s.s:2473   .text:0000000000000e0c .L0 
     /tmp/cc6lMr8s.s:2474   .text:0000000000000e0c .L0 
     /tmp/cc6lMr8s.s:2475   .text:0000000000000e0c .L0 
     /tmp/cc6lMr8s.s:2476   .text:0000000000000e0c .L0 
     /tmp/cc6lMr8s.s:2477   .text:0000000000000e0c .L0 
     /tmp/cc6lMr8s.s:2479   .text:0000000000000e10 .L0 
     /tmp/cc6lMr8s.s:2482   .text:0000000000000e10 .L0 
     /tmp/cc6lMr8s.s:2483   .text:0000000000000e10 .L0 
     /tmp/cc6lMr8s.s:2484   .text:0000000000000e10 .L0 
     /tmp/cc6lMr8s.s:2486   .text:0000000000000e14 .L0 
     /tmp/cc6lMr8s.s:2488   .text:0000000000000e18 .L0 
     /tmp/cc6lMr8s.s:2490   .text:0000000000000e1c .L0 
     /tmp/cc6lMr8s.s:2492   .text:0000000000000e20 .L0 
     /tmp/cc6lMr8s.s:2494   .text:0000000000000e24 .L0 
     /tmp/cc6lMr8s.s:2498   .text:0000000000000e28 .L0 
     /tmp/cc6lMr8s.s:2499   .text:0000000000000e28 .L0 
     /tmp/cc6lMr8s.s:2502   .text:0000000000000e2c .L0 
     /tmp/cc6lMr8s.s:2508   .text:0000000000000e34 .L0 
     /tmp/cc6lMr8s.s:2512   .text:0000000000000e38 .L0 
     /tmp/cc6lMr8s.s:2516   .text:0000000000000e40 .L0 
     /tmp/cc6lMr8s.s:2517   .text:0000000000000e40 .L0 
     /tmp/cc6lMr8s.s:2524   .text:0000000000000e50 .L0 
     /tmp/cc6lMr8s.s:2525   .text:0000000000000e50 .L0 
     /tmp/cc6lMr8s.s:2527   .text:0000000000000e54 .L0 
     /tmp/cc6lMr8s.s:2528   .text:0000000000000e54 .L0 
     /tmp/cc6lMr8s.s:2531   .text:0000000000000e5c .L0 
     /tmp/cc6lMr8s.s:2535   .text:0000000000000e64 .L0 
     /tmp/cc6lMr8s.s:2538   .text:0000000000000e68 .L0 
     /tmp/cc6lMr8s.s:2539   .text:0000000000000e68 .L0 
     /tmp/cc6lMr8s.s:2542   .text:0000000000000e6c .L0 
     /tmp/cc6lMr8s.s:2548   .text:0000000000000e70 .L0 
     /tmp/cc6lMr8s.s:2549   .text:0000000000000e70 .L0 
     /tmp/cc6lMr8s.s:2551   .text:0000000000000e78 .L0 
     /tmp/cc6lMr8s.s:2553   .text:0000000000000e7c .L0 
     /tmp/cc6lMr8s.s:2554   .text:0000000000000e7c .L0 
     /tmp/cc6lMr8s.s:2556   .text:0000000000000e80 .L0 
     /tmp/cc6lMr8s.s:2558   .text:0000000000000e84 .L0 
     /tmp/cc6lMr8s.s:2561   .text:0000000000000e88 .L0 
     /tmp/cc6lMr8s.s:2564   .text:0000000000000e8c .L0 
     /tmp/cc6lMr8s.s:2566   .text:0000000000000e90 .L0 
     /tmp/cc6lMr8s.s:2595   .text:0000000000000e90 _ZN12kmem_cache_t9printInfoEv
     /tmp/cc6lMr8s.s:2598   .text:0000000000000e90 .L0 
     /tmp/cc6lMr8s.s:2600   .text:0000000000000e90 .L0 
     /tmp/cc6lMr8s.s:2601   .text:0000000000000e94 .L0 
     /tmp/cc6lMr8s.s:2607   .text:0000000000000ea8 .L0 
     /tmp/cc6lMr8s.s:2608   .text:0000000000000ea8 .L0 
     /tmp/cc6lMr8s.s:2609   .text:0000000000000ea8 .L0 
     /tmp/cc6lMr8s.s:2610   .text:0000000000000ea8 .L0 
     /tmp/cc6lMr8s.s:2611   .text:0000000000000ea8 .L0 
     /tmp/cc6lMr8s.s:2613   .text:0000000000000eac .L0 
GAS LISTING /tmp/cc6lMr8s.s 			page 97


     /tmp/cc6lMr8s.s:2616   .text:0000000000000eb0 .L0 
     /tmp/cc6lMr8s.s:2617   .text:0000000000000eb0 .L0 
     /tmp/cc6lMr8s.s:2622   .text:0000000000000ebc .L0 
     /tmp/cc6lMr8s.s:2623   .text:0000000000000ebc .L0 
     /tmp/cc6lMr8s.s:2629   .text:0000000000000ecc .L0 
     /tmp/cc6lMr8s.s:2630   .text:0000000000000ecc .L0 
     /tmp/cc6lMr8s.s:2634   .text:0000000000000edc .L0 
     /tmp/cc6lMr8s.s:2635   .text:0000000000000edc .L0 
     /tmp/cc6lMr8s.s:2639   .text:0000000000000ee8 .L0 
     /tmp/cc6lMr8s.s:2640   .text:0000000000000ee8 .L0 
     /tmp/cc6lMr8s.s:2644   .text:0000000000000ef4 .L0 
     /tmp/cc6lMr8s.s:2645   .text:0000000000000ef4 .L0 
     /tmp/cc6lMr8s.s:2649   .text:0000000000000f04 .L0 
     /tmp/cc6lMr8s.s:2650   .text:0000000000000f04 .L0 
     /tmp/cc6lMr8s.s:2654   .text:0000000000000f10 .L0 
     /tmp/cc6lMr8s.s:2655   .text:0000000000000f10 .L0 
     /tmp/cc6lMr8s.s:2659   .text:0000000000000f1c .L0 
     /tmp/cc6lMr8s.s:2660   .text:0000000000000f1c .L0 
     /tmp/cc6lMr8s.s:2664   .text:0000000000000f2c .L0 
     /tmp/cc6lMr8s.s:2665   .text:0000000000000f2c .L0 
     /tmp/cc6lMr8s.s:2669   .text:0000000000000f38 .L0 
     /tmp/cc6lMr8s.s:2670   .text:0000000000000f38 .L0 
     /tmp/cc6lMr8s.s:2674   .text:0000000000000f44 .L0 
     /tmp/cc6lMr8s.s:2675   .text:0000000000000f44 .L0 
     /tmp/cc6lMr8s.s:2679   .text:0000000000000f54 .L0 
     /tmp/cc6lMr8s.s:2680   .text:0000000000000f54 .L0 
     /tmp/cc6lMr8s.s:2684   .text:0000000000000f60 .L0 
     /tmp/cc6lMr8s.s:2685   .text:0000000000000f60 .L0 
     /tmp/cc6lMr8s.s:2689   .text:0000000000000f6c .L0 
     /tmp/cc6lMr8s.s:2690   .text:0000000000000f6c .L0 
     /tmp/cc6lMr8s.s:2694   .text:0000000000000f7c .L0 
     /tmp/cc6lMr8s.s:2695   .text:0000000000000f7c .L0 
     /tmp/cc6lMr8s.s:2699   .text:0000000000000f88 .L0 
     /tmp/cc6lMr8s.s:2700   .text:0000000000000f88 .L0 
     /tmp/cc6lMr8s.s:2704   .text:0000000000000f94 .L0 
     /tmp/cc6lMr8s.s:2705   .text:0000000000000f94 .L0 
     /tmp/cc6lMr8s.s:2709   .text:0000000000000fa4 .L0 
     /tmp/cc6lMr8s.s:2710   .text:0000000000000fa4 .L0 
     /tmp/cc6lMr8s.s:2714   .text:0000000000000fb0 .L0 
     /tmp/cc6lMr8s.s:2717   .text:0000000000000fb8 .L0 
     /tmp/cc6lMr8s.s:2718   .text:0000000000000fb8 .L0 
     /tmp/cc6lMr8s.s:2722   .text:0000000000000fc8 .L0 
     /tmp/cc6lMr8s.s:2723   .text:0000000000000fc8 .L0 
     /tmp/cc6lMr8s.s:2727   .text:0000000000000fd4 .L0 
     /tmp/cc6lMr8s.s:2728   .text:0000000000000fd4 .L0 
     /tmp/cc6lMr8s.s:2732   .text:0000000000000fe0 .L0 
     /tmp/cc6lMr8s.s:2733   .text:0000000000000fe0 .L0 
     /tmp/cc6lMr8s.s:2737   .text:0000000000000fec .L0 
     /tmp/cc6lMr8s.s:2738   .text:0000000000000ff0 .L0 
     /tmp/cc6lMr8s.s:2740   .text:0000000000000ff4 .L0 
     /tmp/cc6lMr8s.s:2741   .text:0000000000000ff4 .L0 
     /tmp/cc6lMr8s.s:2743   .text:0000000000000ff8 .L0 
     /tmp/cc6lMr8s.s:2746   .text:0000000000000ffc .L0 
     /tmp/cc6lMr8s.s:2749   .text:0000000000001000 .L0 
     /tmp/cc6lMr8s.s:2752   .text:0000000000001004 .L0 
     /tmp/cc6lMr8s.s:2754   .text:0000000000001008 .L0 
     /tmp/cc6lMr8s.s:2765   .text:0000000000001008 _ZN12kmem_cache_t10printErrorEv
GAS LISTING /tmp/cc6lMr8s.s 			page 98


     /tmp/cc6lMr8s.s:2768   .text:0000000000001008 .L0 
     /tmp/cc6lMr8s.s:2770   .text:0000000000001008 .L0 
     /tmp/cc6lMr8s.s:2771   .text:000000000000100c .L0 
     /tmp/cc6lMr8s.s:2775   .text:0000000000001018 .L0 
     /tmp/cc6lMr8s.s:2776   .text:0000000000001018 .L0 
     /tmp/cc6lMr8s.s:2777   .text:0000000000001018 .L0 
     /tmp/cc6lMr8s.s:2779   .text:000000000000101c .L0 
     /tmp/cc6lMr8s.s:2782   .text:0000000000001020 .L0 
     /tmp/cc6lMr8s.s:2783   .text:0000000000001020 .L0 
     /tmp/cc6lMr8s.s:2786   .text:0000000000001024 .L0 
     /tmp/cc6lMr8s.s:2788   .text:0000000000001028 .L0 
     /tmp/cc6lMr8s.s:2789   .text:0000000000001028 .L0 
     /tmp/cc6lMr8s.s:2792   .text:0000000000001030 .L0 
     /tmp/cc6lMr8s.s:2793   .text:0000000000001030 .L0 
     /tmp/cc6lMr8s.s:2797   .text:000000000000103c .L0 
     /tmp/cc6lMr8s.s:2798   .text:000000000000103c .L0 
     /tmp/cc6lMr8s.s:2800   .text:0000000000001040 .L0 
     /tmp/cc6lMr8s.s:2801   .text:0000000000001040 .L0 
     /tmp/cc6lMr8s.s:2804   .text:0000000000001044 .L0 
     /tmp/cc6lMr8s.s:2805   .text:0000000000001048 .L0 
     /tmp/cc6lMr8s.s:2806   .text:0000000000001048 .L0 
     /tmp/cc6lMr8s.s:2808   .text:000000000000104c .L0 
     /tmp/cc6lMr8s.s:2809   .text:000000000000104c .L0 
     /tmp/cc6lMr8s.s:2811   .text:0000000000001050 .L0 
     /tmp/cc6lMr8s.s:2814   .text:0000000000001054 .L0 
     /tmp/cc6lMr8s.s:2818   .text:0000000000001058 .L0 
     /tmp/cc6lMr8s.s:2820   .text:0000000000001058 .L0 
     /tmp/cc6lMr8s.s:2821   .text:0000000000001058 .L0 
     /tmp/cc6lMr8s.s:2825   .text:0000000000001068 .L0 
     /tmp/cc6lMr8s.s:2826   .text:0000000000001068 .L0 
     /tmp/cc6lMr8s.s:2828   .text:0000000000001070 .L0 
     /tmp/cc6lMr8s.s:2834   .text:0000000000001070 _ZN12kmem_cache_t9kmem_initEPvi
     /tmp/cc6lMr8s.s:2837   .text:0000000000001070 .L0 
     /tmp/cc6lMr8s.s:2839   .text:0000000000001070 .L0 
     /tmp/cc6lMr8s.s:2840   .text:0000000000001074 .L0 
     /tmp/cc6lMr8s.s:2845   .text:0000000000001084 .L0 
     /tmp/cc6lMr8s.s:2846   .text:0000000000001084 .L0 
     /tmp/cc6lMr8s.s:2847   .text:0000000000001084 .L0 
     /tmp/cc6lMr8s.s:2848   .text:0000000000001084 .L0 
     /tmp/cc6lMr8s.s:2850   .text:0000000000001088 .L0 
     /tmp/cc6lMr8s.s:2852   .text:0000000000001088 .L0 
     /tmp/cc6lMr8s.s:2853   .text:0000000000001088 .L0 
     /tmp/cc6lMr8s.s:2856   .text:000000000000108c .L0 
     /tmp/cc6lMr8s.s:2859   .text:0000000000001090 .L0 
     /tmp/cc6lMr8s.s:2860   .text:0000000000001090 .L0 
     /tmp/cc6lMr8s.s:2868   .text:00000000000010a8 .L0 
     /tmp/cc6lMr8s.s:2876   .text:00000000000010c0 .L0 
     /tmp/cc6lMr8s.s:2877   .text:00000000000010c0 .L0 
     /tmp/cc6lMr8s.s:2881   .text:00000000000010cc .L0 
     /tmp/cc6lMr8s.s:2882   .text:00000000000010d0 .L0 
     /tmp/cc6lMr8s.s:2884   .text:00000000000010d4 .L0 
     /tmp/cc6lMr8s.s:2885   .text:00000000000010d4 .L0 
     /tmp/cc6lMr8s.s:2887   .text:00000000000010d8 .L0 
     /tmp/cc6lMr8s.s:2890   .text:00000000000010dc .L0 
     /tmp/cc6lMr8s.s:2893   .text:00000000000010e0 .L0 
     /tmp/cc6lMr8s.s:2895   .text:00000000000010e4 .L0 
     /tmp/cc6lMr8s.s:2901   .text:00000000000010e4 _ZN12kmem_cache_t17kmem_cache_createEPKcmPFvPvES4_
GAS LISTING /tmp/cc6lMr8s.s 			page 99


     /tmp/cc6lMr8s.s:2904   .text:00000000000010e4 .L0 
     /tmp/cc6lMr8s.s:2906   .text:00000000000010e4 .L0 
     /tmp/cc6lMr8s.s:2907   .text:00000000000010e8 .L0 
     /tmp/cc6lMr8s.s:2915   .text:0000000000001104 .L0 
     /tmp/cc6lMr8s.s:2916   .text:0000000000001104 .L0 
     /tmp/cc6lMr8s.s:2917   .text:0000000000001104 .L0 
     /tmp/cc6lMr8s.s:2918   .text:0000000000001104 .L0 
     /tmp/cc6lMr8s.s:2919   .text:0000000000001104 .L0 
     /tmp/cc6lMr8s.s:2920   .text:0000000000001104 .L0 
     /tmp/cc6lMr8s.s:2921   .text:0000000000001104 .L0 
     /tmp/cc6lMr8s.s:2923   .text:0000000000001108 .L0 
     /tmp/cc6lMr8s.s:2929   .text:0000000000001118 .L0 
     /tmp/cc6lMr8s.s:2930   .text:0000000000001118 .L0 
     /tmp/cc6lMr8s.s:2935   .text:0000000000001124 .L0 
     /tmp/cc6lMr8s.s:2936   .text:0000000000001124 .L0 
     /tmp/cc6lMr8s.s:2942   .text:0000000000001138 .L0 
     /tmp/cc6lMr8s.s:2951   .text:0000000000001154 .L0 
     /tmp/cc6lMr8s.s:2952   .text:0000000000001154 .L0 
     /tmp/cc6lMr8s.s:2954   .text:000000000000115c .L0 
     /tmp/cc6lMr8s.s:2956   .text:0000000000001160 .L0 
     /tmp/cc6lMr8s.s:2957   .text:0000000000001160 .L0 
     /tmp/cc6lMr8s.s:2959   .text:0000000000001164 .L0 
     /tmp/cc6lMr8s.s:2962   .text:0000000000001168 .L0 
     /tmp/cc6lMr8s.s:2965   .text:000000000000116c .L0 
     /tmp/cc6lMr8s.s:2968   .text:0000000000001170 .L0 
     /tmp/cc6lMr8s.s:2971   .text:0000000000001174 .L0 
     /tmp/cc6lMr8s.s:2974   .text:0000000000001178 .L0 
     /tmp/cc6lMr8s.s:2976   .text:000000000000117c .L0 
     /tmp/cc6lMr8s.s:2982   .text:000000000000117c _ZN12kmem_cache_t17kmem_cache_shrinkEPS_
     /tmp/cc6lMr8s.s:2985   .text:000000000000117c .L0 
     /tmp/cc6lMr8s.s:2987   .text:000000000000117c .L0 
     /tmp/cc6lMr8s.s:2988   .text:0000000000001180 .L0 
     /tmp/cc6lMr8s.s:2991   .text:0000000000001188 .L0 
     /tmp/cc6lMr8s.s:2992   .text:0000000000001188 .L0 
     /tmp/cc6lMr8s.s:2994   .text:000000000000118c .L0 
     /tmp/cc6lMr8s.s:2996   .text:000000000000118c .L0 
     /tmp/cc6lMr8s.s:2997   .text:000000000000118c .L0 
     /tmp/cc6lMr8s.s:3000   .text:0000000000001194 .L0 
     /tmp/cc6lMr8s.s:3001   .text:0000000000001198 .L0 
     /tmp/cc6lMr8s.s:3003   .text:000000000000119c .L0 
     /tmp/cc6lMr8s.s:3004   .text:000000000000119c .L0 
     /tmp/cc6lMr8s.s:3006   .text:00000000000011a0 .L0 
     /tmp/cc6lMr8s.s:3008   .text:00000000000011a4 .L0 
     /tmp/cc6lMr8s.s:3014   .text:00000000000011a4 _ZN12kmem_cache_t16kmem_cache_allocEPS_
     /tmp/cc6lMr8s.s:3017   .text:00000000000011a4 .L0 
     /tmp/cc6lMr8s.s:3019   .text:00000000000011a4 .L0 
     /tmp/cc6lMr8s.s:3020   .text:00000000000011a8 .L0 
     /tmp/cc6lMr8s.s:3023   .text:00000000000011b0 .L0 
     /tmp/cc6lMr8s.s:3024   .text:00000000000011b0 .L0 
     /tmp/cc6lMr8s.s:3026   .text:00000000000011b4 .L0 
     /tmp/cc6lMr8s.s:3028   .text:00000000000011b4 .L0 
     /tmp/cc6lMr8s.s:3029   .text:00000000000011b4 .L0 
     /tmp/cc6lMr8s.s:3032   .text:00000000000011bc .L0 
     /tmp/cc6lMr8s.s:3033   .text:00000000000011c0 .L0 
     /tmp/cc6lMr8s.s:3035   .text:00000000000011c4 .L0 
     /tmp/cc6lMr8s.s:3036   .text:00000000000011c4 .L0 
     /tmp/cc6lMr8s.s:3038   .text:00000000000011c8 .L0 
GAS LISTING /tmp/cc6lMr8s.s 			page 100


     /tmp/cc6lMr8s.s:3040   .text:00000000000011cc .L0 
     /tmp/cc6lMr8s.s:3046   .text:00000000000011cc _ZN12kmem_cache_t15kmem_cache_freeEPS_Pv
     /tmp/cc6lMr8s.s:3049   .text:00000000000011cc .L0 
     /tmp/cc6lMr8s.s:3051   .text:00000000000011cc .L0 
     /tmp/cc6lMr8s.s:3052   .text:00000000000011d0 .L0 
     /tmp/cc6lMr8s.s:3055   .text:00000000000011d8 .L0 
     /tmp/cc6lMr8s.s:3056   .text:00000000000011d8 .L0 
     /tmp/cc6lMr8s.s:3058   .text:00000000000011dc .L0 
     /tmp/cc6lMr8s.s:3060   .text:00000000000011dc .L0 
     /tmp/cc6lMr8s.s:3061   .text:00000000000011dc .L0 
     /tmp/cc6lMr8s.s:3064   .text:00000000000011e4 .L0 
     /tmp/cc6lMr8s.s:3065   .text:00000000000011e8 .L0 
     /tmp/cc6lMr8s.s:3067   .text:00000000000011ec .L0 
     /tmp/cc6lMr8s.s:3068   .text:00000000000011ec .L0 
     /tmp/cc6lMr8s.s:3070   .text:00000000000011f0 .L0 
     /tmp/cc6lMr8s.s:3072   .text:00000000000011f4 .L0 
     /tmp/cc6lMr8s.s:3078   .text:00000000000011f4 _ZN12kmem_cache_t7kmallocEm
     /tmp/cc6lMr8s.s:3081   .text:00000000000011f4 .L0 
     /tmp/cc6lMr8s.s:3083   .text:00000000000011f4 .L0 
     /tmp/cc6lMr8s.s:3084   .text:00000000000011f8 .L0 
     /tmp/cc6lMr8s.s:3087   .text:0000000000001200 .L0 
     /tmp/cc6lMr8s.s:3088   .text:0000000000001200 .L0 
     /tmp/cc6lMr8s.s:3090   .text:0000000000001204 .L0 
     /tmp/cc6lMr8s.s:3092   .text:0000000000001204 .L0 
     /tmp/cc6lMr8s.s:3093   .text:0000000000001204 .L0 
     /tmp/cc6lMr8s.s:3096   .text:000000000000120c .L0 
     /tmp/cc6lMr8s.s:3097   .text:000000000000120c .L0 
     /tmp/cc6lMr8s.s:3100   .text:0000000000001214 .L0 
     /tmp/cc6lMr8s.s:3101   .text:0000000000001218 .L0 
     /tmp/cc6lMr8s.s:3103   .text:000000000000121c .L0 
     /tmp/cc6lMr8s.s:3104   .text:000000000000121c .L0 
     /tmp/cc6lMr8s.s:3106   .text:0000000000001220 .L0 
     /tmp/cc6lMr8s.s:3108   .text:0000000000001224 .L0 
     /tmp/cc6lMr8s.s:3114   .text:0000000000001224 _ZN12kmem_cache_t5kfreeEPKv
     /tmp/cc6lMr8s.s:3117   .text:0000000000001224 .L0 
     /tmp/cc6lMr8s.s:3119   .text:0000000000001224 .L0 
     /tmp/cc6lMr8s.s:3120   .text:0000000000001228 .L0 
     /tmp/cc6lMr8s.s:3123   .text:0000000000001230 .L0 
     /tmp/cc6lMr8s.s:3124   .text:0000000000001230 .L0 
     /tmp/cc6lMr8s.s:3126   .text:0000000000001234 .L0 
     /tmp/cc6lMr8s.s:3129   .text:0000000000001234 .L0 
     /tmp/cc6lMr8s.s:3130   .text:0000000000001234 .L0 
     /tmp/cc6lMr8s.s:3131   .text:0000000000001234 .L0 
     /tmp/cc6lMr8s.s:3134   .text:000000000000123c .L0 
     /tmp/cc6lMr8s.s:3135   .text:0000000000001240 .L0 
     /tmp/cc6lMr8s.s:3137   .text:0000000000001244 .L0 
     /tmp/cc6lMr8s.s:3138   .text:0000000000001244 .L0 
     /tmp/cc6lMr8s.s:3140   .text:0000000000001248 .L0 
     /tmp/cc6lMr8s.s:3142   .text:000000000000124c .L0 
     /tmp/cc6lMr8s.s:3148   .text:000000000000124c _ZN12kmem_cache_t18kmem_cache_destroyEPS_
     /tmp/cc6lMr8s.s:3151   .text:000000000000124c .L0 
     /tmp/cc6lMr8s.s:3153   .text:000000000000124c .L0 
     /tmp/cc6lMr8s.s:3154   .text:0000000000001250 .L0 
     /tmp/cc6lMr8s.s:3158   .text:000000000000125c .L0 
     /tmp/cc6lMr8s.s:3159   .text:000000000000125c .L0 
     /tmp/cc6lMr8s.s:3160   .text:000000000000125c .L0 
     /tmp/cc6lMr8s.s:3162   .text:0000000000001260 .L0 
GAS LISTING /tmp/cc6lMr8s.s 			page 101


     /tmp/cc6lMr8s.s:3165   .text:0000000000001264 .L0 
     /tmp/cc6lMr8s.s:3166   .text:0000000000001264 .L0 
     /tmp/cc6lMr8s.s:3169   .text:000000000000126c .L0 
     /tmp/cc6lMr8s.s:3170   .text:000000000000126c .L0 
     /tmp/cc6lMr8s.s:3174   .text:0000000000001278 .L0 
     /tmp/cc6lMr8s.s:3175   .text:000000000000127c .L0 
     /tmp/cc6lMr8s.s:3177   .text:0000000000001280 .L0 
     /tmp/cc6lMr8s.s:3178   .text:0000000000001280 .L0 
     /tmp/cc6lMr8s.s:3180   .text:0000000000001284 .L0 
     /tmp/cc6lMr8s.s:3183   .text:0000000000001288 .L0 
     /tmp/cc6lMr8s.s:3185   .text:000000000000128c .L0 
     /tmp/cc6lMr8s.s:3191   .text:000000000000128c _ZN12kmem_cache_t15kmem_cache_infoEPS_
     /tmp/cc6lMr8s.s:3194   .text:000000000000128c .L0 
     /tmp/cc6lMr8s.s:3196   .text:000000000000128c .L0 
     /tmp/cc6lMr8s.s:3197   .text:0000000000001290 .L0 
     /tmp/cc6lMr8s.s:3200   .text:0000000000001298 .L0 
     /tmp/cc6lMr8s.s:3201   .text:0000000000001298 .L0 
     /tmp/cc6lMr8s.s:3203   .text:000000000000129c .L0 
     /tmp/cc6lMr8s.s:3205   .text:000000000000129c .L0 
     /tmp/cc6lMr8s.s:3206   .text:000000000000129c .L0 
     /tmp/cc6lMr8s.s:3209   .text:00000000000012a4 .L0 
     /tmp/cc6lMr8s.s:3210   .text:00000000000012a8 .L0 
     /tmp/cc6lMr8s.s:3212   .text:00000000000012ac .L0 
     /tmp/cc6lMr8s.s:3213   .text:00000000000012ac .L0 
     /tmp/cc6lMr8s.s:3215   .text:00000000000012b0 .L0 
     /tmp/cc6lMr8s.s:3217   .text:00000000000012b4 .L0 
     /tmp/cc6lMr8s.s:3223   .text:00000000000012b4 _ZN12kmem_cache_t16kmem_cache_errorEPS_
     /tmp/cc6lMr8s.s:3226   .text:00000000000012b4 .L0 
     /tmp/cc6lMr8s.s:3228   .text:00000000000012b4 .L0 
     /tmp/cc6lMr8s.s:3229   .text:00000000000012b8 .L0 
     /tmp/cc6lMr8s.s:3232   .text:00000000000012c0 .L0 
     /tmp/cc6lMr8s.s:3233   .text:00000000000012c0 .L0 
     /tmp/cc6lMr8s.s:3235   .text:00000000000012c4 .L0 
     /tmp/cc6lMr8s.s:3237   .text:00000000000012c4 .L0 
     /tmp/cc6lMr8s.s:3238   .text:00000000000012c4 .L0 
     /tmp/cc6lMr8s.s:3241   .text:00000000000012cc .L0 
     /tmp/cc6lMr8s.s:3242   .text:00000000000012d0 .L0 
     /tmp/cc6lMr8s.s:3244   .text:00000000000012d4 .L0 
     /tmp/cc6lMr8s.s:3245   .text:00000000000012d4 .L0 
     /tmp/cc6lMr8s.s:3247   .text:00000000000012d8 .L0 
     /tmp/cc6lMr8s.s:3249   .text:00000000000012dc .L0 
     /tmp/cc6lMr8s.s:3255   .text:00000000000012dc _ZN12kmem_cache_t20kmem_cache_info_buffEi
     /tmp/cc6lMr8s.s:3258   .text:00000000000012dc .L0 
     /tmp/cc6lMr8s.s:3260   .text:00000000000012dc .L0 
     /tmp/cc6lMr8s.s:3261   .text:00000000000012dc .L0 
     /tmp/cc6lMr8s.s:3262   .text:00000000000012dc .L0 
     /tmp/cc6lMr8s.s:3264   .text:00000000000012e0 .L0 
     /tmp/cc6lMr8s.s:3269   .text:00000000000012ec .L0 
     /tmp/cc6lMr8s.s:3270   .text:00000000000012f0 .L0 
     /tmp/cc6lMr8s.s:3273   .text:00000000000012f8 .L0 
     /tmp/cc6lMr8s.s:3274   .text:00000000000012f8 .L0 
     /tmp/cc6lMr8s.s:3276   .text:00000000000012fc .L0 
     /tmp/cc6lMr8s.s:3279   .text:00000000000012fc .L0 
     /tmp/cc6lMr8s.s:3280   .text:00000000000012fc .L0 
     /tmp/cc6lMr8s.s:3281   .text:00000000000012fc .L0 
     /tmp/cc6lMr8s.s:3286   .text:0000000000001308 .L0 
     /tmp/cc6lMr8s.s:3291   .text:000000000000131c .L0 
GAS LISTING /tmp/cc6lMr8s.s 			page 102


     /tmp/cc6lMr8s.s:3292   .text:0000000000001320 .L0 
     /tmp/cc6lMr8s.s:3294   .text:0000000000001324 .L0 
     /tmp/cc6lMr8s.s:3295   .text:0000000000001324 .L0 
     /tmp/cc6lMr8s.s:3297   .text:0000000000001328 .L0 
     /tmp/cc6lMr8s.s:3299   .text:000000000000132c .L0 
     /tmp/cc6lMr8s.s:3305   .text:000000000000132c _ZN12kmem_cache_t10buddyAllocEi
     /tmp/cc6lMr8s.s:3308   .text:000000000000132c .L0 
     /tmp/cc6lMr8s.s:3310   .text:000000000000132c .L0 
     /tmp/cc6lMr8s.s:3311   .text:0000000000001330 .L0 
     /tmp/cc6lMr8s.s:3314   .text:0000000000001338 .L0 
     /tmp/cc6lMr8s.s:3315   .text:0000000000001338 .L0 
     /tmp/cc6lMr8s.s:3317   .text:000000000000133c .L0 
     /tmp/cc6lMr8s.s:3320   .text:0000000000001340 .L0 
     /tmp/cc6lMr8s.s:3321   .text:0000000000001340 .L0 
     /tmp/cc6lMr8s.s:3326   .text:0000000000001350 .L0 
     /tmp/cc6lMr8s.s:3327   .text:0000000000001354 .L0 
     /tmp/cc6lMr8s.s:3329   .text:0000000000001358 .L0 
     /tmp/cc6lMr8s.s:3330   .text:0000000000001358 .L0 
     /tmp/cc6lMr8s.s:3332   .text:000000000000135c .L0 
     /tmp/cc6lMr8s.s:3334   .text:0000000000001360 .L0 
     /tmp/cc6lMr8s.s:3340   .text:0000000000001360 _ZN12kmem_cache_t9buddyFreeEPv
     /tmp/cc6lMr8s.s:3343   .text:0000000000001360 .L0 
     /tmp/cc6lMr8s.s:3345   .text:0000000000001360 .L0 
     /tmp/cc6lMr8s.s:3346   .text:0000000000001364 .L0 
     /tmp/cc6lMr8s.s:3349   .text:000000000000136c .L0 
     /tmp/cc6lMr8s.s:3350   .text:000000000000136c .L0 
     /tmp/cc6lMr8s.s:3352   .text:0000000000001370 .L0 
     /tmp/cc6lMr8s.s:3355   .text:0000000000001374 .L0 
     /tmp/cc6lMr8s.s:3356   .text:0000000000001374 .L0 
     /tmp/cc6lMr8s.s:3361   .text:0000000000001384 .L0 
     /tmp/cc6lMr8s.s:3362   .text:0000000000001388 .L0 
     /tmp/cc6lMr8s.s:3364   .text:000000000000138c .L0 
     /tmp/cc6lMr8s.s:3365   .text:000000000000138c .L0 
     /tmp/cc6lMr8s.s:3367   .text:0000000000001390 .L0 
     /tmp/cc6lMr8s.s:3369   .text:0000000000001394 .L0 
     /tmp/cc6lMr8s.s:3375   .text:0000000000001394 _ZN12kmem_cache_t11getBuddyEndEv
     /tmp/cc6lMr8s.s:3378   .text:0000000000001394 .L0 
     /tmp/cc6lMr8s.s:3379   .text:0000000000001394 .L0 
     /tmp/cc6lMr8s.s:3380   .text:0000000000001398 .L0 
     /tmp/cc6lMr8s.s:3382   .text:000000000000139c .L0 
     /tmp/cc6lMr8s.s:3384   .text:00000000000013a0 .L0 
     /tmp/cc6lMr8s.s:3390   .text:00000000000013a0 .L0 
     /tmp/cc6lMr8s.s:3393   .text:00000000000013a0 .L0 
     /tmp/cc6lMr8s.s:3394   .text:00000000000013a0 .L0 
     /tmp/cc6lMr8s.s:3397   .text:00000000000013b0 .L0 
     /tmp/cc6lMr8s.s:3398   .text:00000000000013b0 .L0 
     /tmp/cc6lMr8s.s:3400   .text:00000000000013b4 .L0 
     /tmp/cc6lMr8s.s:3402   .text:00000000000013b8 .L0 
     /tmp/cc6lMr8s.s:3478   .bss:0000000000000008 _ZN12kmem_cache_t12buffSlabHeadE
     /tmp/cc6lMr8s.s:3486   .bss:0000000000000018 _ZN12kmem_cache_t13allocatedHeadE
     /tmp/cc6lMr8s.s:3482   .bss:0000000000000010 _ZN12kmem_cache_t8freeHeadE
     /tmp/cc6lMr8s.s:3490   .bss:0000000000000020 _ZN12kmem_cache_t8cacheMemE
     /tmp/cc6lMr8s.s:3474   .bss:0000000000000000 _ZN12kmem_cache_t5buddyE
     /tmp/cc6lMr8s.s:3459   .rodata:0000000000000000 _ZN12kmem_cache_t10buffPowMaxE
     /tmp/cc6lMr8s.s:3463   .rodata:0000000000000004 _ZN12kmem_cache_t10buffPowMinE
     /tmp/cc6lMr8s.s:3467   .rodata:0000000000000008 _ZN12kmem_cache_t3MAXE
     /tmp/cc6lMr8s.s:3471   .bss:0000000000000000 .LANCHOR0
GAS LISTING /tmp/cc6lMr8s.s 			page 103


     /tmp/cc6lMr8s.s:35     .text._ZN5_Slab17getAllocatedCountEv:000000000000001c .L0 
     /tmp/cc6lMr8s.s:63     .text._ZN5_Slab8containsEPv:000000000000001c .L0 
     /tmp/cc6lMr8s.s:3500   .text:00000000000013b8 .L0 
     /tmp/cc6lMr8s.s:322    .text:0000000000000130 .L0 
     /tmp/cc6lMr8s.s:434    .text:00000000000001c8 .L0 
     /tmp/cc6lMr8s.s:516    .text:0000000000000254 .L0 
     /tmp/cc6lMr8s.s:628    .text:0000000000000300 .L0 
     /tmp/cc6lMr8s.s:693    .text:000000000000035c .L0 
     /tmp/cc6lMr8s.s:707    .text:0000000000000384 .L0 
     /tmp/cc6lMr8s.s:738    .text:00000000000003ac .L0 
     /tmp/cc6lMr8s.s:743    .text:00000000000003b8 .L0 
     /tmp/cc6lMr8s.s:752    .text:00000000000003c8 .L0 
     /tmp/cc6lMr8s.s:772    .text:00000000000003ec .L0 
     /tmp/cc6lMr8s.s:781    .text:00000000000003fc .L0 
     /tmp/cc6lMr8s.s:815    .text:0000000000000424 .L0 
     /tmp/cc6lMr8s.s:846    .text:0000000000000450 .L0 
     /tmp/cc6lMr8s.s:855    .text:0000000000000460 .L0 
     /tmp/cc6lMr8s.s:864    .text:0000000000000470 .L0 
     /tmp/cc6lMr8s.s:924    .text:00000000000004c0 .L0 
     /tmp/cc6lMr8s.s:937    .text:00000000000004d8 .L0 
     /tmp/cc6lMr8s.s:952    .text:00000000000004f0 .L0 
     /tmp/cc6lMr8s.s:1020   .text:000000000000054c .L0 
     /tmp/cc6lMr8s.s:1342   .text:00000000000006e0 .L0 
     /tmp/cc6lMr8s.s:1385   .text:0000000000000728 .L0 
     /tmp/cc6lMr8s.s:1416   .text:0000000000000764 .L0 
     /tmp/cc6lMr8s.s:1450   .text:00000000000007a8 .L0 
     /tmp/cc6lMr8s.s:1476   .text:00000000000007d8 .L0 
     /tmp/cc6lMr8s.s:1315   .rodata.str1.8:0000000000000000 .LC0
     /tmp/cc6lMr8s.s:1487   .text:0000000000000804 .L0 
     /tmp/cc6lMr8s.s:1548   .text:0000000000000860 .L0 
     /tmp/cc6lMr8s.s:1585   .text:0000000000000888 .L0 
     /tmp/cc6lMr8s.s:1731   .text:0000000000000958 .L0 
     /tmp/cc6lMr8s.s:1776   .text:00000000000009b4 .L0 
     /tmp/cc6lMr8s.s:1822   .rodata.str1.8:0000000000000010 .LC1
     /tmp/cc6lMr8s.s:1969   .text:0000000000000b00 .L0 
     /tmp/cc6lMr8s.s:1989   .rodata.str1.8:0000000000000040 .LC2
     /tmp/cc6lMr8s.s:2184   .text:0000000000000c78 .L0 
     /tmp/cc6lMr8s.s:2232   .text:0000000000000cc8 .L0 
     /tmp/cc6lMr8s.s:2571   .rodata.str1.8:0000000000000078 .LC3
     /tmp/cc6lMr8s.s:2630   .text:0000000000000ecc .L0 
     /tmp/cc6lMr8s.s:2574   .rodata.str1.8:0000000000000080 .LC4
     /tmp/cc6lMr8s.s:2645   .text:0000000000000ef4 .L0 
     /tmp/cc6lMr8s.s:2577   .rodata.str1.8:0000000000000090 .LC5
     /tmp/cc6lMr8s.s:2660   .text:0000000000000f1c .L0 
     /tmp/cc6lMr8s.s:2580   .rodata.str1.8:00000000000000a0 .LC6
     /tmp/cc6lMr8s.s:2675   .text:0000000000000f44 .L0 
     /tmp/cc6lMr8s.s:2583   .rodata.str1.8:00000000000000b8 .LC7
     /tmp/cc6lMr8s.s:2690   .text:0000000000000f6c .L0 
     /tmp/cc6lMr8s.s:2586   .rodata.str1.8:00000000000000d0 .LC8
     /tmp/cc6lMr8s.s:2705   .text:0000000000000f94 .L0 
     /tmp/cc6lMr8s.s:2589   .rodata.str1.8:00000000000000f8 .LC9
     /tmp/cc6lMr8s.s:2718   .text:0000000000000fb8 .L0 
     /tmp/cc6lMr8s.s:2759   .rodata.str1.8:0000000000000100 .LC10
     /tmp/cc6lMr8s.s:2821   .text:0000000000001058 .L0 
     /tmp/cc6lMr8s.s:3286   .text:0000000000001308 .L0 
     /tmp/cc6lMr8s.s:3321   .text:0000000000001340 .L0 
     /tmp/cc6lMr8s.s:3356   .text:0000000000001374 .L0 
GAS LISTING /tmp/cc6lMr8s.s 			page 104


     /tmp/cc6lMr8s.s:3394   .text:00000000000013a0 .L0 
     /tmp/cc6lMr8s.s:100    .text:000000000000002c .L5
     /tmp/cc6lMr8s.s:234    .text:00000000000000cc .L16
     /tmp/cc6lMr8s.s:246    .text:00000000000000dc .L17
     /tmp/cc6lMr8s.s:237    .text:00000000000000d0 .L15
     /tmp/cc6lMr8s.s:284    .text:000000000000010c .L21
     /tmp/cc6lMr8s.s:297    .text:000000000000011c .L22
     /tmp/cc6lMr8s.s:287    .text:0000000000000110 .L20
     /tmp/cc6lMr8s.s:390    .text:0000000000000188 .L27
     /tmp/cc6lMr8s.s:366    .text:0000000000000164 .L28
     /tmp/cc6lMr8s.s:610    .text:00000000000002e4 .L35
     /tmp/cc6lMr8s.s:640    .text:0000000000000318 .L36
     /tmp/cc6lMr8s.s:631    .text:000000000000030c .L37
     /tmp/cc6lMr8s.s:604    .text:00000000000002dc .L38
     /tmp/cc6lMr8s.s:647    .text:0000000000000320 .L34
     /tmp/cc6lMr8s.s:714    .text:0000000000000398 .L41
     /tmp/cc6lMr8s.s:756    .text:00000000000003d4 .L53
     /tmp/cc6lMr8s.s:794    .text:0000000000000414 .L49
     /tmp/cc6lMr8s.s:784    .text:0000000000000404 .L44
     /tmp/cc6lMr8s.s:875    .text:0000000000000488 .L56
     /tmp/cc6lMr8s.s:861    .text:0000000000000470 .L58
     /tmp/cc6lMr8s.s:946    .text:00000000000004ec .L61
     /tmp/cc6lMr8s.s:921    .text:00000000000004c0 .L63
     /tmp/cc6lMr8s.s:934    .text:00000000000004d8 .L64
     /tmp/cc6lMr8s.s:910    .text:00000000000004b0 .L62
     /tmp/cc6lMr8s.s:993    .text:0000000000000520 .L67
     /tmp/cc6lMr8s.s:979    .text:0000000000000510 .L68
     /tmp/cc6lMr8s.s:1006   .text:0000000000000538 .L70
     /tmp/cc6lMr8s.s:1010   .text:000000000000053c .L69
     /tmp/cc6lMr8s.s:1097   .text:00000000000005b4 .L74
     /tmp/cc6lMr8s.s:1066   .text:000000000000058c .L76
     /tmp/cc6lMr8s.s:1084   .text:00000000000005a4 .L77
     /tmp/cc6lMr8s.s:1056   .text:0000000000000580 .L75
     /tmp/cc6lMr8s.s:1147   .text:00000000000005f4 .L80
     /tmp/cc6lMr8s.s:1179   .text:0000000000000624 .L79
     /tmp/cc6lMr8s.s:1132   .text:00000000000005dc .L82
     /tmp/cc6lMr8s.s:1163   .text:000000000000060c .L84
     /tmp/cc6lMr8s.s:1158   .text:0000000000000604 .L83
     /tmp/cc6lMr8s.s:1372   .text:0000000000000710 .L94
     /tmp/cc6lMr8s.s:1412   .text:0000000000000764 .L91
     /tmp/cc6lMr8s.s:1398   .text:0000000000000750 .L92
     /tmp/cc6lMr8s.s:1364   .text:0000000000000708 .L93
     /tmp/cc6lMr8s.s:1446   .text:00000000000007a8 .L100
     /tmp/cc6lMr8s.s:1466   .text:00000000000007c4 .L98
     /tmp/cc6lMr8s.s:1438   .text:000000000000079c .L95
     /tmp/cc6lMr8s.s:1491   .text:0000000000000818 .L90
     /tmp/cc6lMr8s.s:1457   .text:00000000000007bc .L97
     /tmp/cc6lMr8s.s:1557   .text:0000000000000874 .L102
     /tmp/cc6lMr8s.s:1596   .text:00000000000008a8 .L101
     /tmp/cc6lMr8s.s:1542   .text:000000000000085c .L104
     /tmp/cc6lMr8s.s:1551   .text:0000000000000870 .L105
     /tmp/cc6lMr8s.s:1770   .text:00000000000009b0 .L110
     /tmp/cc6lMr8s.s:1797   .text:00000000000009f0 .L109
     /tmp/cc6lMr8s.s:1757   .text:000000000000099c .L116
     /tmp/cc6lMr8s.s:1914   .text:0000000000000a9c .L118
     /tmp/cc6lMr8s.s:1903   .text:0000000000000a84 .L125
     /tmp/cc6lMr8s.s:1885   .text:0000000000000a68 .L117
GAS LISTING /tmp/cc6lMr8s.s 			page 105


     /tmp/cc6lMr8s.s:1874   .text:0000000000000a58 .L119
     /tmp/cc6lMr8s.s:1957   .text:0000000000000aec .L126
     /tmp/cc6lMr8s.s:1966   .text:0000000000000b00 .L127
     /tmp/cc6lMr8s.s:1975   .text:0000000000000b10 .L123
     /tmp/cc6lMr8s.s:1920   .text:0000000000000aa4 .L120
     /tmp/cc6lMr8s.s:2029   .text:0000000000000b60 .L129
     /tmp/cc6lMr8s.s:2119   .text:0000000000000c04 .L130
     /tmp/cc6lMr8s.s:2056   .text:0000000000000b8c .L142
     /tmp/cc6lMr8s.s:2034   .text:0000000000000b64 .L135
     /tmp/cc6lMr8s.s:2107   .text:0000000000000bec .L132
     /tmp/cc6lMr8s.s:2083   .text:0000000000000bc8 .L134
     /tmp/cc6lMr8s.s:2176   .text:0000000000000c70 .L136
     /tmp/cc6lMr8s.s:2146   .text:0000000000000c30 .L143
     /tmp/cc6lMr8s.s:2124   .text:0000000000000c08 .L139
     /tmp/cc6lMr8s.s:2187   .text:0000000000000c88 .L140
     /tmp/cc6lMr8s.s:2243   .text:0000000000000ce8 .L147
     /tmp/cc6lMr8s.s:2247   .text:0000000000000cec .L145
     /tmp/cc6lMr8s.s:2221   .text:0000000000000cb0 .L146
     /tmp/cc6lMr8s.s:2285   .text:0000000000000d14 .L156
     /tmp/cc6lMr8s.s:2368   .text:0000000000000d84 .L161
     /tmp/cc6lMr8s.s:2395   .text:0000000000000dac .L158
     /tmp/cc6lMr8s.s:2363   .text:0000000000000d80 .L159
     /tmp/cc6lMr8s.s:2380   .text:0000000000000d9c .L160
     /tmp/cc6lMr8s.s:2448   .text:0000000000000de8 .L164
     /tmp/cc6lMr8s.s:2430   .text:0000000000000dd0 .L165
     /tmp/cc6lMr8s.s:2510   .text:0000000000000e38 .L171
     /tmp/cc6lMr8s.s:2544   .text:0000000000000e70 .L168
     /tmp/cc6lMr8s.s:2505   .text:0000000000000e34 .L169
     /tmp/cc6lMr8s.s:2522   .text:0000000000000e50 .L170
     /tmp/cc6lMr8s.s:2817   .text:0000000000001058 .L176
     /tmp/cc6lMr8s.s:2802   .text:0000000000001044 .L177
     /tmp/cc6lMr8s.s:2874   .text:00000000000010c0 .L180
     /tmp/cc6lMr8s.s:2950   .text:0000000000001154 .L182
     /tmp/cc6lMr8s.s:3267   .text:00000000000012ec .L207
     /tmp/cc6lMr8s.s:8417   .debug_abbrev:0000000000000000 .Ldebug_abbrev0
     /tmp/cc6lMr8s.s:12226  .debug_str:0000000000001111 .LASF305
     /tmp/cc6lMr8s.s:12286  .debug_str:000000000000140c .LASF306
     /tmp/cc6lMr8s.s:12090  .debug_str:0000000000000c35 .LASF307
     /tmp/cc6lMr8s.s:11672  .debug_ranges:0000000000000000 .Ldebug_ranges0
     /tmp/cc6lMr8s.s:11708  .debug_line:0000000000000000 .Ldebug_line0
     /tmp/cc6lMr8s.s:11954  .debug_str:000000000000079c .LASF0
     /tmp/cc6lMr8s.s:11936  .debug_str:0000000000000709 .LASF1
     /tmp/cc6lMr8s.s:11976  .debug_str:000000000000085e .LASF2
     /tmp/cc6lMr8s.s:12130  .debug_str:0000000000000dc6 .LASF3
     /tmp/cc6lMr8s.s:12140  .debug_str:0000000000000e2e .LASF4
     /tmp/cc6lMr8s.s:11730  .debug_str:0000000000000096 .LASF5
     /tmp/cc6lMr8s.s:12080  .debug_str:0000000000000beb .LASF6
     /tmp/cc6lMr8s.s:11966  .debug_str:00000000000007fd .LASF7
     /tmp/cc6lMr8s.s:11892  .debug_str:0000000000000599 .LASF8
     /tmp/cc6lMr8s.s:11906  .debug_str:000000000000062b .LASF9
     /tmp/cc6lMr8s.s:11788  .debug_str:0000000000000260 .LASF10
     /tmp/cc6lMr8s.s:11878  .debug_str:0000000000000539 .LASF11
     /tmp/cc6lMr8s.s:11806  .debug_str:00000000000002d8 .LASF12
     /tmp/cc6lMr8s.s:11786  .debug_str:0000000000000250 .LASF13
     /tmp/cc6lMr8s.s:12184  .debug_str:0000000000000fb6 .LASF14
     /tmp/cc6lMr8s.s:11850  .debug_str:000000000000043d .LASF15
     /tmp/cc6lMr8s.s:12170  .debug_str:0000000000000f36 .LASF16
GAS LISTING /tmp/cc6lMr8s.s 			page 106


     /tmp/cc6lMr8s.s:11736  .debug_str:00000000000000ac .LASF17
     /tmp/cc6lMr8s.s:11726  .debug_str:0000000000000081 .LASF41
     /tmp/cc6lMr8s.s:11972  .debug_str:000000000000084d .LASF67
     /tmp/cc6lMr8s.s:12082  .debug_str:0000000000000bfe .LASF18
     /tmp/cc6lMr8s.s:11910  .debug_str:000000000000064d .LASF19
     /tmp/cc6lMr8s.s:11912  .debug_str:0000000000000656 .LASF20
     /tmp/cc6lMr8s.s:11790  .debug_str:000000000000026f .LASF21
     /tmp/cc6lMr8s.s:11810  .debug_str:00000000000002fc .LASF22
     /tmp/cc6lMr8s.s:12148  .debug_str:0000000000000e61 .LASF23
     /tmp/cc6lMr8s.s:12310  .debug_str:00000000000014b7 .LASF25
     /tmp/cc6lMr8s.s:12036  .debug_str:0000000000000a6c .LASF24
     /tmp/cc6lMr8s.s:12230  .debug_str:00000000000011f3 .LASF26
     /tmp/cc6lMr8s.s:11932  .debug_str:00000000000006fd .LASF27
     /tmp/cc6lMr8s.s:11894  .debug_str:00000000000005a9 .LASF28
     /tmp/cc6lMr8s.s:12002  .debug_str:0000000000000969 .LASF29
     /tmp/cc6lMr8s.s:11714  .debug_str:0000000000000028 .LASF31
     /tmp/cc6lMr8s.s:11956  .debug_str:00000000000007ae .LASF30
     /tmp/cc6lMr8s.s:11852  .debug_str:0000000000000453 .LASF32
     /tmp/cc6lMr8s.s:11842  .debug_str:0000000000000402 .LASF33
     /tmp/cc6lMr8s.s:11768  .debug_str:00000000000001a8 .LASF34
     /tmp/cc6lMr8s.s:11724  .debug_str:0000000000000075 .LASF35
     /tmp/cc6lMr8s.s:12108  .debug_str:0000000000000d00 .LASF36
     /tmp/cc6lMr8s.s:12278  .debug_str:00000000000013b7 .LASF37
     /tmp/cc6lMr8s.s:11832  .debug_str:00000000000003b5 .LASF38
     /tmp/cc6lMr8s.s:12198  .debug_str:0000000000001030 .LASF39
     /tmp/cc6lMr8s.s:11986  .debug_str:00000000000008d5 .LASF40
     /tmp/cc6lMr8s.s:11776  .debug_str:00000000000001ec .LASF42
     /tmp/cc6lMr8s.s:11732  .debug_str:000000000000009d .LASF47
     /tmp/cc6lMr8s.s:12188  .debug_str:0000000000000fcc .LASF49
     /tmp/cc6lMr8s.s:11978  .debug_str:0000000000000871 .LASF43
     /tmp/cc6lMr8s.s:12144  .debug_str:0000000000000e42 .LASF44
     /tmp/cc6lMr8s.s:12248  .debug_str:00000000000012a9 .LASF45
     /tmp/cc6lMr8s.s:12034  .debug_str:0000000000000a51 .LASF46
     /tmp/cc6lMr8s.s:11772  .debug_str:00000000000001c8 .LASF48
     /tmp/cc6lMr8s.s:11996  .debug_str:0000000000000925 .LASF50
     /tmp/cc6lMr8s.s:11740  .debug_str:00000000000000c5 .LASF51
     /tmp/cc6lMr8s.s:12058  .debug_str:0000000000000b22 .LASF52
     /tmp/cc6lMr8s.s:11792  .debug_str:0000000000000276 .LASF53
     /tmp/cc6lMr8s.s:11962  .debug_str:00000000000007e0 .LASF54
     /tmp/cc6lMr8s.s:12156  .debug_str:0000000000000eac .LASF55
     /tmp/cc6lMr8s.s:11896  .debug_str:00000000000005c2 .LASF56
     /tmp/cc6lMr8s.s:11758  .debug_str:0000000000000176 .LASF57
     /tmp/cc6lMr8s.s:11846  .debug_str:0000000000000412 .LASF58
     /tmp/cc6lMr8s.s:12266  .debug_str:0000000000001350 .LASF59
     /tmp/cc6lMr8s.s:12214  .debug_str:00000000000010a3 .LASF60
     /tmp/cc6lMr8s.s:11890  .debug_str:000000000000058d .LASF61
     /tmp/cc6lMr8s.s:12210  .debug_str:0000000000001076 .LASF62
     /tmp/cc6lMr8s.s:11814  .debug_str:000000000000030a .LASF63
     /tmp/cc6lMr8s.s:12084  .debug_str:0000000000000c07 .LASF64
     /tmp/cc6lMr8s.s:12006  .debug_str:0000000000000978 .LASF65
     /tmp/cc6lMr8s.s:12308  .debug_str:00000000000014ac .LASF66
     /tmp/cc6lMr8s.s:12028  .debug_str:0000000000000a34 .LASF68
     /tmp/cc6lMr8s.s:12160  .debug_str:0000000000000ed1 .LASF69
     /tmp/cc6lMr8s.s:12056  .debug_str:0000000000000b19 .LASF70
     /tmp/cc6lMr8s.s:12250  .debug_str:00000000000012b2 .LASF71
     /tmp/cc6lMr8s.s:11742  .debug_str:00000000000000cc .LASF72
     /tmp/cc6lMr8s.s:12280  .debug_str:00000000000013c1 .LASF73
GAS LISTING /tmp/cc6lMr8s.s 			page 107


     /tmp/cc6lMr8s.s:11734  .debug_str:00000000000000a2 .LASF74
     /tmp/cc6lMr8s.s:12162  .debug_str:0000000000000ed7 .LASF75
     /tmp/cc6lMr8s.s:12158  .debug_str:0000000000000eb5 .LASF76
     /tmp/cc6lMr8s.s:12322  .debug_str:000000000000152f .LASF77
     /tmp/cc6lMr8s.s:12104  .debug_str:0000000000000cdd .LASF78
     /tmp/cc6lMr8s.s:11798  .debug_str:000000000000029b .LASF79
     /tmp/cc6lMr8s.s:12270  .debug_str:000000000000136d .LASF80
     /tmp/cc6lMr8s.s:11838  .debug_str:00000000000003f6 .LASF81
     /tmp/cc6lMr8s.s:12024  .debug_str:00000000000009f3 .LASF82
     /tmp/cc6lMr8s.s:11920  .debug_str:00000000000006ab .LASF83
     /tmp/cc6lMr8s.s:11796  .debug_str:0000000000000281 .LASF84
     /tmp/cc6lMr8s.s:11866  .debug_str:00000000000004ff .LASF85
     /tmp/cc6lMr8s.s:11858  .debug_str:00000000000004a3 .LASF86
     /tmp/cc6lMr8s.s:11974  .debug_str:0000000000000852 .LASF87
     /tmp/cc6lMr8s.s:12164  .debug_str:0000000000000ef3 .LASF88
     /tmp/cc6lMr8s.s:11880  .debug_str:0000000000000548 .LASF89
     /tmp/cc6lMr8s.s:11750  .debug_str:000000000000011f .LASF90
     /tmp/cc6lMr8s.s:12094  .debug_str:0000000000000c88 .LASF91
     /tmp/cc6lMr8s.s:12222  .debug_str:0000000000001101 .LASF92
     /tmp/cc6lMr8s.s:12334  .debug_str:0000000000001599 .LASF93
     /tmp/cc6lMr8s.s:11898  .debug_str:00000000000005dd .LASF94
     /tmp/cc6lMr8s.s:12048  .debug_str:0000000000000ad1 .LASF95
     /tmp/cc6lMr8s.s:12008  .debug_str:000000000000097d .LASF96
     /tmp/cc6lMr8s.s:12012  .debug_str:0000000000000991 .LASF97
     /tmp/cc6lMr8s.s:11718  .debug_str:0000000000000049 .LASF98
     /tmp/cc6lMr8s.s:12046  .debug_str:0000000000000ab9 .LASF99
     /tmp/cc6lMr8s.s:11870  .debug_str:0000000000000517 .LASF100
     /tmp/cc6lMr8s.s:12180  .debug_str:0000000000000f80 .LASF101
     /tmp/cc6lMr8s.s:11874  .debug_str:0000000000000524 .LASF102
     /tmp/cc6lMr8s.s:11764  .debug_str:0000000000000190 .LASF103
     /tmp/cc6lMr8s.s:11744  .debug_str:00000000000000de .LASF104
     /tmp/cc6lMr8s.s:12018  .debug_str:00000000000009ce .LASF105
     /tmp/cc6lMr8s.s:11812  .debug_str:0000000000000301 .LASF106
     /tmp/cc6lMr8s.s:12068  .debug_str:0000000000000b95 .LASF107
     /tmp/cc6lMr8s.s:12204  .debug_str:0000000000001049 .LASF111
     /tmp/cc6lMr8s.s:12016  .debug_str:00000000000009b1 .LASF113
     /tmp/cc6lMr8s.s:11864  .debug_str:00000000000004f4 .LASF115
     /tmp/cc6lMr8s.s:11822  .debug_str:0000000000000347 .LASF117
     /tmp/cc6lMr8s.s:11766  .debug_str:000000000000019b .LASF108
     /tmp/cc6lMr8s.s:12218  .debug_str:00000000000010cb .LASF109
     /tmp/cc6lMr8s.s:11984  .debug_str:00000000000008a0 .LASF110
     /tmp/cc6lMr8s.s:12172  .debug_str:0000000000000f4c .LASF308
     /tmp/cc6lMr8s.s:11748  .debug_str:00000000000000f6 .LASF309
     /tmp/cc6lMr8s.s:12000  .debug_str:000000000000095b .LASF112
     /tmp/cc6lMr8s.s:11712  .debug_str:0000000000000005 .LASF114
     /tmp/cc6lMr8s.s:12268  .debug_str:000000000000135d .LASF116
     /tmp/cc6lMr8s.s:12092  .debug_str:0000000000000c59 .LASF118
     /tmp/cc6lMr8s.s:11994  .debug_str:000000000000091b .LASF119
     /tmp/cc6lMr8s.s:12332  .debug_str:000000000000156f .LASF120
     /tmp/cc6lMr8s.s:12030  .debug_str:0000000000000a3a .LASF121
     /tmp/cc6lMr8s.s:11746  .debug_str:00000000000000e9 .LASF122
     /tmp/cc6lMr8s.s:12138  .debug_str:0000000000000e0c .LASF123
     /tmp/cc6lMr8s.s:11794  .debug_str:000000000000027c .LASF124
     /tmp/cc6lMr8s.s:11914  .debug_str:000000000000065d .LASF125
     /tmp/cc6lMr8s.s:12106  .debug_str:0000000000000cf4 .LASF126
     /tmp/cc6lMr8s.s:11882  .debug_str:0000000000000551 .LASF127
     /tmp/cc6lMr8s.s:11948  .debug_str:000000000000076e .LASF128
GAS LISTING /tmp/cc6lMr8s.s 			page 108


     /tmp/cc6lMr8s.s:12242  .debug_str:0000000000001296 .LASF129
     /tmp/cc6lMr8s.s:11952  .debug_str:0000000000000794 .LASF130
     /tmp/cc6lMr8s.s:11964  .debug_str:00000000000007f8 .LASF131
     /tmp/cc6lMr8s.s:11756  .debug_str:000000000000016d .LASF132
     /tmp/cc6lMr8s.s:12062  .debug_str:0000000000000b50 .LASF133
     /tmp/cc6lMr8s.s:12004  .debug_str:0000000000000973 .LASF134
     /tmp/cc6lMr8s.s:11934  .debug_str:0000000000000704 .LASF135
     /tmp/cc6lMr8s.s:12044  .debug_str:0000000000000aaf .LASF136
     /tmp/cc6lMr8s.s:11710  .debug_str:0000000000000000 .LASF137
     /tmp/cc6lMr8s.s:12190  .debug_str:0000000000000fe3 .LASF138
     /tmp/cc6lMr8s.s:11926  .debug_str:00000000000006e0 .LASF139
     /tmp/cc6lMr8s.s:12240  .debug_str:0000000000001274 .LASF140
     /tmp/cc6lMr8s.s:12150  .debug_str:0000000000000e6a .LASF141
     /tmp/cc6lMr8s.s:11970  .debug_str:0000000000000837 .LASF142
     /tmp/cc6lMr8s.s:12298  .debug_str:000000000000146a .LASF143
     /tmp/cc6lMr8s.s:12026  .debug_str:0000000000000a0c .LASF144
     /tmp/cc6lMr8s.s:12316  .debug_str:00000000000014ee .LASF145
     /tmp/cc6lMr8s.s:11900  .debug_str:00000000000005e8 .LASF146
     /tmp/cc6lMr8s.s:12318  .debug_str:00000000000014fc .LASF147
     /tmp/cc6lMr8s.s:11918  .debug_str:000000000000068d .LASF148
     /tmp/cc6lMr8s.s:12118  .debug_str:0000000000000d65 .LASF149
     /tmp/cc6lMr8s.s:12182  .debug_str:0000000000000f99 .LASF150
     /tmp/cc6lMr8s.s:12054  .debug_str:0000000000000b12 .LASF151
     /tmp/cc6lMr8s.s:12038  .debug_str:0000000000000a73 .LASF152
     /tmp/cc6lMr8s.s:11980  .debug_str:0000000000000879 .LASF153
     /tmp/cc6lMr8s.s:12116  .debug_str:0000000000000d49 .LASF154
     /tmp/cc6lMr8s.s:12142  .debug_str:0000000000000e35 .LASF155
     /tmp/cc6lMr8s.s:11824  .debug_str:0000000000000369 .LASF156
     /tmp/cc6lMr8s.s:11830  .debug_str:00000000000003a4 .LASF157
     /tmp/cc6lMr8s.s:12064  .debug_str:0000000000000b59 .LASF158
     /tmp/cc6lMr8s.s:11916  .debug_str:0000000000000683 .LASF159
     /tmp/cc6lMr8s.s:12136  .debug_str:0000000000000dee .LASF160
     /tmp/cc6lMr8s.s:12252  .debug_str:00000000000012bc .LASF161
     /tmp/cc6lMr8s.s:12292  .debug_str:0000000000001436 .LASF162
     /tmp/cc6lMr8s.s:12236  .debug_str:0000000000001246 .LASF163
     /tmp/cc6lMr8s.s:11868  .debug_str:0000000000000505 .LASF164
     /tmp/cc6lMr8s.s:12256  .debug_str:00000000000012de .LASF165
     /tmp/cc6lMr8s.s:12192  .debug_str:0000000000000ffb .LASF166
     /tmp/cc6lMr8s.s:11752  .debug_str:000000000000013b .LASF167
     /tmp/cc6lMr8s.s:11816  .debug_str:0000000000000315 .LASF168
     /tmp/cc6lMr8s.s:12232  .debug_str:000000000000120c .LASF169
     /tmp/cc6lMr8s.s:11778  .debug_str:0000000000000200 .LASF170
     /tmp/cc6lMr8s.s:12320  .debug_str:0000000000001506 .LASF171
     /tmp/cc6lMr8s.s:11884  .debug_str:0000000000000573 .LASF172
     /tmp/cc6lMr8s.s:12076  .debug_str:0000000000000bc7 .LASF173
     /tmp/cc6lMr8s.s:11888  .debug_str:0000000000000587 .LASF174
     /tmp/cc6lMr8s.s:11998  .debug_str:000000000000093f .LASF175
     /tmp/cc6lMr8s.s:11854  .debug_str:000000000000046d .LASF176
     /tmp/cc6lMr8s.s:11860  .debug_str:00000000000004bb .LASF177
     /tmp/cc6lMr8s.s:12132  .debug_str:0000000000000dd4 .LASF178
     /tmp/cc6lMr8s.s:11968  .debug_str:0000000000000810 .LASF179
     /tmp/cc6lMr8s.s:12312  .debug_str:00000000000014d2 .LASF180
     /tmp/cc6lMr8s.s:11944  .debug_str:0000000000000735 .LASF181
     /tmp/cc6lMr8s.s:12328  .debug_str:0000000000001552 .LASF182
     /tmp/cc6lMr8s.s:11802  .debug_str:00000000000002a6 .LASF183
     /tmp/cc6lMr8s.s:12314  .debug_str:00000000000014e3 .LASF184
     /tmp/cc6lMr8s.s:12274  .debug_str:000000000000138a .LASF185
GAS LISTING /tmp/cc6lMr8s.s 			page 109


     /tmp/cc6lMr8s.s:12186  .debug_str:0000000000000fc2 .LASF186
     /tmp/cc6lMr8s.s:12258  .debug_str:0000000000001311 .LASF187
     /tmp/cc6lMr8s.s:12326  .debug_str:0000000000001546 .LASF250
     /tmp/cc6lMr8s.s:11782  .debug_str:0000000000000224 .LASF252
     /tmp/cc6lMr8s.s:12010  .debug_str:0000000000000985 .LASF188
     /tmp/cc6lMr8s.s:12078  .debug_str:0000000000000be3 .LASF189
     /tmp/cc6lMr8s.s:12154  .debug_str:0000000000000ea2 .LASF190
     /tmp/cc6lMr8s.s:11808  .debug_str:00000000000002e8 .LASF191
     /tmp/cc6lMr8s.s:11992  .debug_str:0000000000000906 .LASF192
     /tmp/cc6lMr8s.s:12072  .debug_str:0000000000000bb5 .LASF193
     /tmp/cc6lMr8s.s:12300  .debug_str:0000000000001477 .LASF194
     /tmp/cc6lMr8s.s:12070  .debug_str:0000000000000ba3 .LASF195
     /tmp/cc6lMr8s.s:12124  .debug_str:0000000000000da4 .LASF208
     /tmp/cc6lMr8s.s:11922  .debug_str:00000000000006b3 .LASF209
     /tmp/cc6lMr8s.s:12244  .debug_str:000000000000129b .LASF196
     /tmp/cc6lMr8s.s:12042  .debug_str:0000000000000a97 .LASF197
     /tmp/cc6lMr8s.s:12262  .debug_str:0000000000001339 .LASF198
     /tmp/cc6lMr8s.s:11942  .debug_str:000000000000072e .LASF199
     /tmp/cc6lMr8s.s:12296  .debug_str:000000000000145c .LASF200
     /tmp/cc6lMr8s.s:11988  .debug_str:00000000000008f1 .LASF201
     /tmp/cc6lMr8s.s:11848  .debug_str:000000000000042c .LASF202
     /tmp/cc6lMr8s.s:11886  .debug_str:000000000000057b .LASF310
     /tmp/cc6lMr8s.s:12052  .debug_str:0000000000000b08 .LASF203
     /tmp/cc6lMr8s.s:12120  .debug_str:0000000000000d7f .LASF204
     /tmp/cc6lMr8s.s:12238  .debug_str:0000000000001266 .LASF205
     /tmp/cc6lMr8s.s:11760  .debug_str:000000000000017e .LASF206
     /tmp/cc6lMr8s.s:11946  .debug_str:000000000000075d .LASF207
     /tmp/cc6lMr8s.s:12324  .debug_str:0000000000001534 .LASF210
     /tmp/cc6lMr8s.s:12060  .debug_str:0000000000000b3b .LASF217
     /tmp/cc6lMr8s.s:11844  .debug_str:000000000000040a .LASF211
     /tmp/cc6lMr8s.s:11902  .debug_str:00000000000005fe .LASF212
     /tmp/cc6lMr8s.s:12174  .debug_str:0000000000000f60 .LASF213
     /tmp/cc6lMr8s.s:12022  .debug_str:00000000000009e0 .LASF214
     /tmp/cc6lMr8s.s:12228  .debug_str:00000000000011e1 .LASF215
     /tmp/cc6lMr8s.s:11982  .debug_str:0000000000000881 .LASF216
     /tmp/cc6lMr8s.s:11958  .debug_str:00000000000007b6 .LASF218
     /tmp/cc6lMr8s.s:12202  .debug_str:0000000000001044 .LASF219
     /tmp/cc6lMr8s.s:12074  .debug_str:0000000000000bba .LASF220
     /tmp/cc6lMr8s.s:11762  .debug_str:0000000000000183 .LASF221
     /tmp/cc6lMr8s.s:12288  .debug_str:0000000000001423 .LASF222
     /tmp/cc6lMr8s.s:12134  .debug_str:0000000000000de4 .LASF223
     /tmp/cc6lMr8s.s:12340  .debug_str:00000000000015ca .LASF224
     /tmp/cc6lMr8s.s:12294  .debug_str:0000000000001456 .LASF225
     /tmp/cc6lMr8s.s:12272  .debug_str:0000000000001385 .LASF311
     /tmp/cc6lMr8s.s:12216  .debug_str:00000000000010c3 .LASF226
     /tmp/cc6lMr8s.s:12246  .debug_str:00000000000012a3 .LASF227
     /tmp/cc6lMr8s.s:12146  .debug_str:0000000000000e5c .LASF228
     /tmp/cc6lMr8s.s:11818  .debug_str:0000000000000326 .LASF229
     /tmp/cc6lMr8s.s:11836  .debug_str:00000000000003f0 .LASF230
     /tmp/cc6lMr8s.s:12304  .debug_str:000000000000149f .LASF231
     /tmp/cc6lMr8s.s:12306  .debug_str:00000000000014a6 .LASF232
     /tmp/cc6lMr8s.s:12276  .debug_str:00000000000013aa .LASF233
     /tmp/cc6lMr8s.s:11722  .debug_str:0000000000000065 .LASF234
     /tmp/cc6lMr8s.s:11938  .debug_str:0000000000000716 .LASF235
     /tmp/cc6lMr8s.s:12032  .debug_str:0000000000000a40 .LASF236
     /tmp/cc6lMr8s.s:12196  .debug_str:0000000000001020 .LASF237
     /tmp/cc6lMr8s.s:12234  .debug_str:0000000000001234 .LASF312
GAS LISTING /tmp/cc6lMr8s.s 			page 110


     /tmp/cc6lMr8s.s:12336  .debug_str:00000000000015b1 .LASF313
     /tmp/cc6lMr8s.s:12194  .debug_str:000000000000100d .LASF238
     /tmp/cc6lMr8s.s:11770  .debug_str:00000000000001c2 .LASF239
     /tmp/cc6lMr8s.s:11908  .debug_str:0000000000000639 .LASF240
     /tmp/cc6lMr8s.s:12020  .debug_str:00000000000009d7 .LASF241
     /tmp/cc6lMr8s.s:11738  .debug_str:00000000000000b3 .LASF242
     /tmp/cc6lMr8s.s:11924  .debug_str:00000000000006cd .LASF243
     /tmp/cc6lMr8s.s:11928  .debug_str:00000000000006ed .LASF244
     /tmp/cc6lMr8s.s:11876  .debug_str:0000000000000531 .LASF245
     /tmp/cc6lMr8s.s:12284  .debug_str:0000000000001406 .LASF246
     /tmp/cc6lMr8s.s:12208  .debug_str:0000000000001062 .LASF247
     /tmp/cc6lMr8s.s:12014  .debug_str:00000000000009ac .LASF248
     /tmp/cc6lMr8s.s:11780  .debug_str:0000000000000210 .LASF249
     /tmp/cc6lMr8s.s:12290  .debug_str:0000000000001431 .LASF251
     /tmp/cc6lMr8s.s:11960  .debug_str:00000000000007cc .LASF253
     /tmp/cc6lMr8s.s:12338  .debug_str:00000000000015c3 .LASF254
     /tmp/cc6lMr8s.s:11720  .debug_str:000000000000004f .LASF255
     /tmp/cc6lMr8s.s:12128  .debug_str:0000000000000dbf .LASF256
     /tmp/cc6lMr8s.s:12112  .debug_str:0000000000000d2b .LASF257
     /tmp/cc6lMr8s.s:12110  .debug_str:0000000000000d1f .LASF258
     /tmp/cc6lMr8s.s:12168  .debug_str:0000000000000f18 .LASF259
     /tmp/cc6lMr8s.s:12086  .debug_str:0000000000000c25 .LASF260
     /tmp/cc6lMr8s.s:12102  .debug_str:0000000000000cc5 .LASF261
     /tmp/cc6lMr8s.s:12254  .debug_str:00000000000012c7 .LASF262
     /tmp/cc6lMr8s.s:12282  .debug_str:00000000000013e7 .LASF263
     /tmp/cc6lMr8s.s:11834  .debug_str:00000000000003d1 .LASF264
     /tmp/cc6lMr8s.s:11904  .debug_str:0000000000000612 .LASF265
     /tmp/cc6lMr8s.s:11774  .debug_str:00000000000001d0 .LASF266
     /tmp/cc6lMr8s.s:11820  .debug_str:000000000000032b .LASF267
     /tmp/cc6lMr8s.s:12220  .debug_str:00000000000010df .LASF268
     /tmp/cc6lMr8s.s:11950  .debug_str:0000000000000773 .LASF269
     /tmp/cc6lMr8s.s:11754  .debug_str:0000000000000164 .LASF270
     /tmp/cc6lMr8s.s:12302  .debug_str:000000000000148c .LASF271
     /tmp/cc6lMr8s.s:12176  .debug_str:0000000000000f67 .LASF272
     /tmp/cc6lMr8s.s:12126  .debug_str:0000000000000dad .LASF273
     /tmp/cc6lMr8s.s:12264  .debug_str:000000000000133f .LASF274
     /tmp/cc6lMr8s.s:12050  .debug_str:0000000000000aef .LASF275
     /tmp/cc6lMr8s.s:12206  .debug_str:0000000000001052 .LASF314
     /tmp/cc6lMr8s.s:3376   .text:0000000000001394 .LFB97
     /tmp/cc6lMr8s.s:3403   .text:00000000000013b8 .LFE97
     /tmp/cc6lMr8s.s:3387   .text:00000000000013a0 .LBB50
     /tmp/cc6lMr8s.s:3392   .text:00000000000013a0 .LBE50
     /tmp/cc6lMr8s.s:3341   .text:0000000000001360 .LFB96
     /tmp/cc6lMr8s.s:3370   .text:0000000000001394 .LFE96
     /tmp/cc6lMr8s.s:10164  .debug_loc:0000000000000000 .LLST97
     /tmp/cc6lMr8s.s:3359   .text:0000000000001384 .LVL317
     /tmp/cc6lMr8s.s:3306   .text:000000000000132c .LFB95
     /tmp/cc6lMr8s.s:3335   .text:0000000000001360 .LFE95
     /tmp/cc6lMr8s.s:10182  .debug_loc:000000000000004c .LLST96
     /tmp/cc6lMr8s.s:3324   .text:0000000000001350 .LVL314
     /tmp/cc6lMr8s.s:3256   .text:00000000000012dc .LFB94
     /tmp/cc6lMr8s.s:3300   .text:000000000000132c .LFE94
     /tmp/cc6lMr8s.s:10196  .debug_loc:0000000000000085 .LLST95
     /tmp/cc6lMr8s.s:3289   .text:000000000000131c .LVL311
     /tmp/cc6lMr8s.s:3224   .text:00000000000012b4 .LFB93
     /tmp/cc6lMr8s.s:3250   .text:00000000000012dc .LFE93
     /tmp/cc6lMr8s.s:12088  .debug_str:0000000000000c2e .LASF276
GAS LISTING /tmp/cc6lMr8s.s 			page 111


     /tmp/cc6lMr8s.s:10210  .debug_loc:00000000000000be .LLST94
     /tmp/cc6lMr8s.s:3239   .text:00000000000012cc .LVL307
     /tmp/cc6lMr8s.s:3192   .text:000000000000128c .LFB92
     /tmp/cc6lMr8s.s:3218   .text:00000000000012b4 .LFE92
     /tmp/cc6lMr8s.s:10224  .debug_loc:00000000000000f7 .LLST93
     /tmp/cc6lMr8s.s:3207   .text:00000000000012a4 .LVL305
     /tmp/cc6lMr8s.s:3149   .text:000000000000124c .LFB91
     /tmp/cc6lMr8s.s:3186   .text:000000000000128c .LFE91
     /tmp/cc6lMr8s.s:10238  .debug_loc:0000000000000130 .LLST92
     /tmp/cc6lMr8s.s:3167   .text:000000000000126c .LVL301
     /tmp/cc6lMr8s.s:3172   .text:0000000000001278 .LVL302
     /tmp/cc6lMr8s.s:3115   .text:0000000000001224 .LFB90
     /tmp/cc6lMr8s.s:3143   .text:000000000000124c .LFE90
     /tmp/cc6lMr8s.s:12166  .debug_str:0000000000000f13 .LASF277
     /tmp/cc6lMr8s.s:10256  .debug_loc:000000000000017c .LLST90
     /tmp/cc6lMr8s.s:10270  .debug_loc:00000000000001b5 .LLST91
     /tmp/cc6lMr8s.s:3132   .text:000000000000123c .LVL299
     /tmp/cc6lMr8s.s:3079   .text:00000000000011f4 .LFB89
     /tmp/cc6lMr8s.s:3109   .text:0000000000001224 .LFE89
     /tmp/cc6lMr8s.s:10284  .debug_loc:00000000000001ee .LLST88
     /tmp/cc6lMr8s.s:10298  .debug_loc:0000000000000227 .LLST89
     /tmp/cc6lMr8s.s:3094   .text:000000000000120c .LVL295
     /tmp/cc6lMr8s.s:3098   .text:0000000000001214 .LVL296
     /tmp/cc6lMr8s.s:3047   .text:00000000000011cc .LFB88
     /tmp/cc6lMr8s.s:3073   .text:00000000000011f4 .LFE88
     /tmp/cc6lMr8s.s:10305  .debug_loc:000000000000024a .LLST86
     /tmp/cc6lMr8s.s:10319  .debug_loc:0000000000000283 .LLST87
     /tmp/cc6lMr8s.s:3062   .text:00000000000011e4 .LVL293
     /tmp/cc6lMr8s.s:3015   .text:00000000000011a4 .LFB87
     /tmp/cc6lMr8s.s:3041   .text:00000000000011cc .LFE87
     /tmp/cc6lMr8s.s:10333  .debug_loc:00000000000002bc .LLST85
     /tmp/cc6lMr8s.s:3030   .text:00000000000011bc .LVL291
     /tmp/cc6lMr8s.s:2983   .text:000000000000117c .LFB86
     /tmp/cc6lMr8s.s:3009   .text:00000000000011a4 .LFE86
     /tmp/cc6lMr8s.s:10347  .debug_loc:00000000000002f5 .LLST84
     /tmp/cc6lMr8s.s:2998   .text:0000000000001194 .LVL289
     /tmp/cc6lMr8s.s:2902   .text:00000000000010e4 .LFB85
     /tmp/cc6lMr8s.s:2977   .text:000000000000117c .LFE85
     /tmp/cc6lMr8s.s:10361  .debug_loc:000000000000032e .LLST79
     /tmp/cc6lMr8s.s:10379  .debug_loc:000000000000037a .LLST80
     /tmp/cc6lMr8s.s:10397  .debug_loc:00000000000003c6 .LLST81
     /tmp/cc6lMr8s.s:10415  .debug_loc:0000000000000412 .LLST82
     /tmp/cc6lMr8s.s:10433  .debug_loc:000000000000045e .LLST83
     /tmp/cc6lMr8s.s:2931   .text:0000000000001120 .LVL279
     /tmp/cc6lMr8s.s:2939   .text:0000000000001134 .LVL281
     /tmp/cc6lMr8s.s:2948   .text:0000000000001154 .LVL282
     /tmp/cc6lMr8s.s:2835   .text:0000000000001070 .LFB84
     /tmp/cc6lMr8s.s:2896   .text:00000000000010e4 .LFE84
     /tmp/cc6lMr8s.s:11872  .debug_str:000000000000051e .LASF278
     /tmp/cc6lMr8s.s:10444  .debug_loc:0000000000000494 .LLST75
     /tmp/cc6lMr8s.s:12200  .debug_str:000000000000103a .LASF279
     /tmp/cc6lMr8s.s:10462  .debug_loc:00000000000004e0 .LLST76
     /tmp/cc6lMr8s.s:12096  .debug_str:0000000000000c9f .LASF280
     /tmp/cc6lMr8s.s:10476  .debug_loc:0000000000000519 .LLST77
     /tmp/cc6lMr8s.s:10502  .debug_loc:000000000000055e .LLST78
     /tmp/cc6lMr8s.s:2864   .text:00000000000010a0 .LVL273
     /tmp/cc6lMr8s.s:2873   .text:00000000000010c0 .LVL274
GAS LISTING /tmp/cc6lMr8s.s 			page 112


     /tmp/cc6lMr8s.s:2879   .text:00000000000010cc .LVL275
     /tmp/cc6lMr8s.s:2766   .text:0000000000001008 .LFB83
     /tmp/cc6lMr8s.s:2829   .text:0000000000001070 .LFE83
     /tmp/cc6lMr8s.s:11716  .debug_str:0000000000000044 .LASF281
     /tmp/cc6lMr8s.s:10509  .debug_loc:0000000000000581 .LLST74
     /tmp/cc6lMr8s.s:2790   .text:0000000000001030 .LVL264
     /tmp/cc6lMr8s.s:2795   .text:000000000000103c .LVL265
     /tmp/cc6lMr8s.s:2823   .text:0000000000001068 .LVL268
     /tmp/cc6lMr8s.s:2596   .text:0000000000000e90 .LFB82
     /tmp/cc6lMr8s.s:2755   .text:0000000000001008 .LFE82
     /tmp/cc6lMr8s.s:10531  .debug_loc:00000000000005e0 .LLST71
     /tmp/cc6lMr8s.s:11940  .debug_str:0000000000000726 .LASF282
     /tmp/cc6lMr8s.s:10549  .debug_loc:000000000000062c .LLST72
     /tmp/cc6lMr8s.s:12114  .debug_str:0000000000000d41 .LASF283
     /tmp/cc6lMr8s.s:10556  .debug_loc:000000000000064f .LLST73
     /tmp/cc6lMr8s.s:2618   .text:0000000000000eb8 .LVL233
     /tmp/cc6lMr8s.s:2625   .text:0000000000000ec8 .LVL235
     /tmp/cc6lMr8s.s:2632   .text:0000000000000edc .LVL237
     /tmp/cc6lMr8s.s:2637   .text:0000000000000ee8 .LVL238
     /tmp/cc6lMr8s.s:2642   .text:0000000000000ef4 .LVL239
     /tmp/cc6lMr8s.s:2647   .text:0000000000000f04 .LVL240
     /tmp/cc6lMr8s.s:2652   .text:0000000000000f10 .LVL241
     /tmp/cc6lMr8s.s:2657   .text:0000000000000f1c .LVL242
     /tmp/cc6lMr8s.s:2662   .text:0000000000000f2c .LVL243
     /tmp/cc6lMr8s.s:2667   .text:0000000000000f38 .LVL244
     /tmp/cc6lMr8s.s:2672   .text:0000000000000f44 .LVL245
     /tmp/cc6lMr8s.s:2677   .text:0000000000000f54 .LVL246
     /tmp/cc6lMr8s.s:2682   .text:0000000000000f60 .LVL247
     /tmp/cc6lMr8s.s:2687   .text:0000000000000f6c .LVL248
     /tmp/cc6lMr8s.s:2692   .text:0000000000000f7c .LVL249
     /tmp/cc6lMr8s.s:2697   .text:0000000000000f88 .LVL250
     /tmp/cc6lMr8s.s:2702   .text:0000000000000f94 .LVL251
     /tmp/cc6lMr8s.s:2707   .text:0000000000000fa4 .LVL252
     /tmp/cc6lMr8s.s:2712   .text:0000000000000fb0 .LVL253
     /tmp/cc6lMr8s.s:2715   .text:0000000000000fb8 .LVL254
     /tmp/cc6lMr8s.s:2720   .text:0000000000000fc8 .LVL255
     /tmp/cc6lMr8s.s:2725   .text:0000000000000fd4 .LVL256
     /tmp/cc6lMr8s.s:2730   .text:0000000000000fe0 .LVL257
     /tmp/cc6lMr8s.s:2735   .text:0000000000000fec .LVL258
     /tmp/cc6lMr8s.s:2462   .text:0000000000000df4 .LFB81
     /tmp/cc6lMr8s.s:2567   .text:0000000000000e90 .LFE81
     /tmp/cc6lMr8s.s:10563  .debug_loc:0000000000000672 .LLST67
     /tmp/cc6lMr8s.s:10577  .debug_loc:00000000000006ab .LLST68
     /tmp/cc6lMr8s.s:11800  .debug_str:00000000000002a1 .LASF284
     /tmp/cc6lMr8s.s:10593  .debug_loc:00000000000006f5 .LLST69
     /tmp/cc6lMr8s.s:2514   .text:0000000000000e40 .LBB48
     /tmp/cc6lMr8s.s:2545   .text:0000000000000e70 .LBE48
     /tmp/cc6lMr8s.s:10605  .debug_loc:000000000000072c .LLST70
     /tmp/cc6lMr8s.s:2533   .text:0000000000000e64 .LVL226
     /tmp/cc6lMr8s.s:2413   .text:0000000000000db8 .LFB80
     /tmp/cc6lMr8s.s:2456   .text:0000000000000df4 .LFE80
     /tmp/cc6lMr8s.s:10616  .debug_loc:0000000000000762 .LLST65
     /tmp/cc6lMr8s.s:11784  .debug_str:0000000000000245 .LASF285
     /tmp/cc6lMr8s.s:10634  .debug_loc:00000000000007ae .LLST66
     /tmp/cc6lMr8s.s:2327   .text:0000000000000d50 .LFB79
     /tmp/cc6lMr8s.s:2407   .text:0000000000000db8 .LFE79
     /tmp/cc6lMr8s.s:10641  .debug_loc:00000000000007d1 .LLST61
GAS LISTING /tmp/cc6lMr8s.s 			page 113


     /tmp/cc6lMr8s.s:10655  .debug_loc:000000000000080a .LLST62
     /tmp/cc6lMr8s.s:10671  .debug_loc:0000000000000854 .LLST63
     /tmp/cc6lMr8s.s:2372   .text:0000000000000d8c .LBB45
     /tmp/cc6lMr8s.s:2396   .text:0000000000000dac .LBE45
     /tmp/cc6lMr8s.s:10683  .debug_loc:000000000000088b .LLST64
     /tmp/cc6lMr8s.s:2270   .text:0000000000000d04 .LFB78
     /tmp/cc6lMr8s.s:2321   .text:0000000000000d50 .LFE78
     /tmp/cc6lMr8s.s:10694  .debug_loc:00000000000008c1 .LLST60
     /tmp/cc6lMr8s.s:2301   .text:0000000000000d34 .LVL204
     /tmp/cc6lMr8s.s:1996   .text:0000000000000b28 .LFB77
     /tmp/cc6lMr8s.s:2192   .text:0000000000000c90 .LFE77
     /tmp/cc6lMr8s.s:10723  .debug_loc:0000000000000936 .LLST55
     /tmp/cc6lMr8s.s:10745  .debug_loc:0000000000000995 .LLST56
     /tmp/cc6lMr8s.s:10767  .debug_loc:00000000000009f4 .LLST57
     /tmp/cc6lMr8s.s:2028   .text:0000000000000b60 .LVL175
     /tmp/cc6lMr8s.s:2046   .text:0000000000000b7c .LVL177
     /tmp/cc6lMr8s.s:2065   .text:0000000000000ba0 .LVL179
     /tmp/cc6lMr8s.s:2073   .text:0000000000000bb0 .LVL180
     /tmp/cc6lMr8s.s:2082   .text:0000000000000bc8 .LVL181
     /tmp/cc6lMr8s.s:2115   .text:0000000000000c00 .LVL186
     /tmp/cc6lMr8s.s:2136   .text:0000000000000c20 .LVL188
     /tmp/cc6lMr8s.s:2155   .text:0000000000000c44 .LVL190
     /tmp/cc6lMr8s.s:2163   .text:0000000000000c54 .LVL191
     /tmp/cc6lMr8s.s:2172   .text:0000000000000c6c .LVL192
     /tmp/cc6lMr8s.s:1829   .text:0000000000000a10 .LFB76
     /tmp/cc6lMr8s.s:1985   .text:0000000000000b28 .LFE76
     /tmp/cc6lMr8s.s:10778  .debug_loc:0000000000000a2a .LLST53
     /tmp/cc6lMr8s.s:10800  .debug_loc:0000000000000a89 .LLST54
     /tmp/cc6lMr8s.s:1884   .text:0000000000000a68 .LVL159
     /tmp/cc6lMr8s.s:1911   .text:0000000000000a98 .LVL162
     /tmp/cc6lMr8s.s:1933   .text:0000000000000abc .LVL164
     /tmp/cc6lMr8s.s:1954   .text:0000000000000ae8 .LVL168
     /tmp/cc6lMr8s.s:1962   .text:0000000000000af8 .LVL170
     /tmp/cc6lMr8s.s:1982   .text:0000000000000b24 .LVL172
     /tmp/cc6lMr8s.s:1694   .text:000000000000091c .LFB75
     /tmp/cc6lMr8s.s:1818   .text:0000000000000a10 .LFE75
     /tmp/cc6lMr8s.s:10827  .debug_loc:0000000000000b0b .LLST49
     /tmp/cc6lMr8s.s:1719   .text:0000000000000944 .LBB41
     /tmp/cc6lMr8s.s:1771   .text:00000000000009b0 .LBE41
     /tmp/cc6lMr8s.s:10845  .debug_loc:0000000000000b57 .LLST50
     /tmp/cc6lMr8s.s:12224  .debug_str:0000000000001107 .LASF286
     /tmp/cc6lMr8s.s:10856  .debug_loc:0000000000000b8d .LLST51
     /tmp/cc6lMr8s.s:1723   .text:000000000000094c .LVL134
     /tmp/cc6lMr8s.s:1734   .text:0000000000000968 .LVL137
     /tmp/cc6lMr8s.s:1745   .text:0000000000000980 .LVL140
     /tmp/cc6lMr8s.s:1752   .text:0000000000000998 .LVL141
     /tmp/cc6lMr8s.s:1763   .text:00000000000009a8 .LVL144
     /tmp/cc6lMr8s.s:1772   .text:00000000000009b0 .LBB42
     /tmp/cc6lMr8s.s:1798   .text:00000000000009f0 .LBE42
     /tmp/cc6lMr8s.s:10875  .debug_loc:0000000000000be9 .LLST52
     /tmp/cc6lMr8s.s:1778   .text:00000000000009c4 .LVL147
     /tmp/cc6lMr8s.s:1789   .text:00000000000009dc .LVL150
     /tmp/cc6lMr8s.s:1795   .text:00000000000009f0 .LVL151
     /tmp/cc6lMr8s.s:11728  .debug_str:000000000000008c .LASF287
     /tmp/cc6lMr8s.s:12122  .debug_str:0000000000000d8e .LASF289
     /tmp/cc6lMr8s.s:1623   .text:00000000000008c4 .LFB73
     /tmp/cc6lMr8s.s:1678   .text:000000000000091c .LFE73
GAS LISTING /tmp/cc6lMr8s.s 			page 114


     /tmp/cc6lMr8s.s:10890  .debug_loc:0000000000000c32 .LLST48
     /tmp/cc6lMr8s.s:1645   .text:00000000000008e8 .LVL129
     /tmp/cc6lMr8s.s:1651   .text:00000000000008f8 .LVL130
     /tmp/cc6lMr8s.s:1657   .text:0000000000000908 .LVL131
     /tmp/cc6lMr8s.s:1518   .text:0000000000000834 .LFB71
     /tmp/cc6lMr8s.s:1617   .text:00000000000008c4 .LFE71
     /tmp/cc6lMr8s.s:10908  .debug_loc:0000000000000c7e .LLST43
     /tmp/cc6lMr8s.s:12178  .debug_str:0000000000000f7b .LASF288
     /tmp/cc6lMr8s.s:10926  .debug_loc:0000000000000cca .LLST44
     /tmp/cc6lMr8s.s:10940  .debug_loc:0000000000000d03 .LLST45
     /tmp/cc6lMr8s.s:10963  .debug_loc:0000000000000d72 .LLST46
     /tmp/cc6lMr8s.s:1574   .text:0000000000000884 .LBB34
     /tmp/cc6lMr8s.s:1593   .text:00000000000008a4 .LBE34
     /tmp/cc6lMr8s.s:10974  .debug_loc:0000000000000da8 .LLST47
     /tmp/cc6lMr8s.s:1578   .text:0000000000000884 .LBB35
     /tmp/cc6lMr8s.s:1582   .text:0000000000000884 .LBE35
     /tmp/cc6lMr8s.s:1587   .text:0000000000000898 .LVL123
     /tmp/cc6lMr8s.s:1592   .text:00000000000008a4 .LVL124
     /tmp/cc6lMr8s.s:1550   .text:0000000000000870 .LVL118
     /tmp/cc6lMr8s.s:12066  .debug_str:0000000000000b7f .LASF290
     /tmp/cc6lMr8s.s:1258   .text:000000000000067c .LFB69
     /tmp/cc6lMr8s.s:1309   .text:00000000000006c4 .LFE69
     /tmp/cc6lMr8s.s:11856  .debug_str:0000000000000480 .LASF291
     /tmp/cc6lMr8s.s:1196   .text:0000000000000630 .LFB66
     /tmp/cc6lMr8s.s:1250   .text:000000000000067c .LFE66
     /tmp/cc6lMr8s.s:10981  .debug_loc:0000000000000dcb .LLST31
     /tmp/cc6lMr8s.s:10995  .debug_loc:0000000000000e04 .LLST32
     /tmp/cc6lMr8s.s:11009  .debug_loc:0000000000000e3d .LLST33
     /tmp/cc6lMr8s.s:11023  .debug_loc:0000000000000e76 .LLST34
     /tmp/cc6lMr8s.s:11037  .debug_loc:0000000000000eaf .LLST35
     /tmp/cc6lMr8s.s:11051  .debug_loc:0000000000000ee8 .LLST36
     /tmp/cc6lMr8s.s:1238   .text:000000000000066c .LVL89
     /tmp/cc6lMr8s.s:1112   .text:00000000000005c0 .LFB64
     /tmp/cc6lMr8s.s:1190   .text:0000000000000630 .LFE64
     /tmp/cc6lMr8s.s:1148   .text:00000000000005f4 .LBB25
     /tmp/cc6lMr8s.s:1180   .text:0000000000000624 .LBE25
     /tmp/cc6lMr8s.s:12098  .debug_str:0000000000000ca8 .LASF292
     /tmp/cc6lMr8s.s:11065  .debug_loc:0000000000000f21 .LLST30
     /tmp/cc6lMr8s.s:2198   .text:0000000000000c90 .LFB63
     /tmp/cc6lMr8s.s:2264   .text:0000000000000d04 .LFE63
     /tmp/cc6lMr8s.s:11840  .debug_str:00000000000003fd .LASF293
     /tmp/cc6lMr8s.s:11074  .debug_loc:0000000000000f46 .LLST58
     /tmp/cc6lMr8s.s:2217   .text:0000000000000cac .LBB43
     /tmp/cc6lMr8s.s:2244   .text:0000000000000ce8 .LBE43
     /tmp/cc6lMr8s.s:11092  .debug_loc:0000000000000f92 .LLST59
     /tmp/cc6lMr8s.s:2235   .text:0000000000000cdc .LVL196
     /tmp/cc6lMr8s.s:1035   .text:0000000000000564 .LFB62
     /tmp/cc6lMr8s.s:1106   .text:00000000000005c0 .LFE62
     /tmp/cc6lMr8s.s:12040  .debug_str:0000000000000a8e .LASF294
     /tmp/cc6lMr8s.s:11828  .debug_str:000000000000039d .LASF295
     /tmp/cc6lMr8s.s:11108  .debug_loc:0000000000000fdc .LLST28
     /tmp/cc6lMr8s.s:11119  .debug_loc:0000000000001012 .LLST29
     /tmp/cc6lMr8s.s:961    .text:00000000000004fc .LFB61
     /tmp/cc6lMr8s.s:1029   .text:0000000000000564 .LFE61
     /tmp/cc6lMr8s.s:11126  .debug_loc:0000000000001035 .LLST25
     /tmp/cc6lMr8s.s:11140  .debug_loc:000000000000106e .LLST26
     /tmp/cc6lMr8s.s:12260  .debug_str:0000000000001330 .LASF296
GAS LISTING /tmp/cc6lMr8s.s 			page 115


     /tmp/cc6lMr8s.s:11160  .debug_loc:00000000000010cb .LLST27
     /tmp/cc6lMr8s.s:890    .text:0000000000000494 .LFB60
     /tmp/cc6lMr8s.s:955    .text:00000000000004fc .LFE60
     /tmp/cc6lMr8s.s:835    .text:0000000000000444 .LFB59
     /tmp/cc6lMr8s.s:884    .text:0000000000000494 .LFE59
     /tmp/cc6lMr8s.s:11172  .debug_loc:0000000000001102 .LLST24
     /tmp/cc6lMr8s.s:1322   .text:00000000000006c4 .LFB58
     /tmp/cc6lMr8s.s:1512   .text:0000000000000834 .LFE58
     /tmp/cc6lMr8s.s:11179  .debug_loc:0000000000001125 .LLST37
     /tmp/cc6lMr8s.s:12330  .debug_str:0000000000001567 .LASF297
     /tmp/cc6lMr8s.s:11193  .debug_loc:000000000000115e .LLST38
     /tmp/cc6lMr8s.s:11209  .debug_loc:00000000000011a8 .LLST39
     /tmp/cc6lMr8s.s:11233  .debug_loc:0000000000001218 .LLST40
     /tmp/cc6lMr8s.s:11240  .debug_loc:000000000000123b .LLST41
     /tmp/cc6lMr8s.s:1393   .text:0000000000000744 .LVL100
     /tmp/cc6lMr8s.s:1397   .text:0000000000000750 .LVL101
     /tmp/cc6lMr8s.s:1458   .text:00000000000007bc .LBB31
     /tmp/cc6lMr8s.s:1492   .text:0000000000000818 .LBE31
     /tmp/cc6lMr8s.s:11260  .debug_loc:0000000000001298 .LLST42
     /tmp/cc6lMr8s.s:1480   .text:00000000000007f0 .LVL110
     /tmp/cc6lMr8s.s:1489   .text:0000000000000814 .LVL111
     /tmp/cc6lMr8s.s:1350   .text:00000000000006f8 .LVL93
     /tmp/cc6lMr8s.s:1435   .text:0000000000000798 .LVL103
     /tmp/cc6lMr8s.s:1454   .text:00000000000007b8 .LVL106
     /tmp/cc6lMr8s.s:803    .text:0000000000000418 .LFB57
     /tmp/cc6lMr8s.s:829    .text:0000000000000444 .LFE57
     /tmp/cc6lMr8s.s:733    .text:00000000000003ac .LFB56
     /tmp/cc6lMr8s.s:797    .text:0000000000000418 .LFE56
     /tmp/cc6lMr8s.s:11267  .debug_loc:00000000000012bb .LLST23
     /tmp/cc6lMr8s.s:769    .text:00000000000003ec .LVL61
     /tmp/cc6lMr8s.s:677    .text:0000000000000344 .LFB55
     /tmp/cc6lMr8s.s:727    .text:00000000000003ac .LFE55
     /tmp/cc6lMr8s.s:11930  .debug_str:00000000000006f4 .LASF298
     /tmp/cc6lMr8s.s:11278  .debug_loc:00000000000012f1 .LLST21
     /tmp/cc6lMr8s.s:11990  .debug_str:0000000000000901 .LASF299
     /tmp/cc6lMr8s.s:11289  .debug_loc:0000000000001327 .LLST22
     /tmp/cc6lMr8s.s:695    .text:000000000000036c .LVL56
     /tmp/cc6lMr8s.s:704    .text:0000000000000384 .LVL57
     /tmp/cc6lMr8s.s:574    .text:00000000000002ac .LFB54
     /tmp/cc6lMr8s.s:671    .text:0000000000000344 .LFE54
     /tmp/cc6lMr8s.s:11296  .debug_loc:000000000000134a .LLST16
     /tmp/cc6lMr8s.s:11310  .debug_loc:0000000000001383 .LLST17
     /tmp/cc6lMr8s.s:11328  .debug_loc:00000000000013cf .LLST18
     /tmp/cc6lMr8s.s:11348  .debug_loc:000000000000142c .LLST19
     /tmp/cc6lMr8s.s:625    .text:0000000000000300 .LBB22
     /tmp/cc6lMr8s.s:633    .text:000000000000030c .LBE22
     /tmp/cc6lMr8s.s:11365  .debug_loc:0000000000001477 .LLST20
     /tmp/cc6lMr8s.s:622    .text:00000000000002fc .LVL49
     /tmp/cc6lMr8s.s:258    .text:00000000000000e4 .LFB53
     /tmp/cc6lMr8s.s:304    .text:0000000000000124 .LFE53
     /tmp/cc6lMr8s.s:11372  .debug_loc:000000000000149a .LLST7
     /tmp/cc6lMr8s.s:12152  .debug_str:0000000000000e8d .LASF300
     /tmp/cc6lMr8s.s:488    .text:000000000000021c .LFB51
     /tmp/cc6lMr8s.s:566    .text:00000000000002ac .LFE51
     /tmp/cc6lMr8s.s:11408  .debug_loc:0000000000001525 .LLST12
     /tmp/cc6lMr8s.s:11426  .debug_loc:0000000000001571 .LLST13
     /tmp/cc6lMr8s.s:11444  .debug_loc:00000000000015bd .LLST14
GAS LISTING /tmp/cc6lMr8s.s 			page 116


     /tmp/cc6lMr8s.s:11462  .debug_loc:0000000000001609 .LLST15
     /tmp/cc6lMr8s.s:515    .text:0000000000000254 .LVL38
     /tmp/cc6lMr8s.s:542    .text:000000000000028c .LVL39
     /tmp/cc6lMr8s.s:210    .text:00000000000000a8 .LFB49
     /tmp/cc6lMr8s.s:252    .text:00000000000000e4 .LFE49
     /tmp/cc6lMr8s.s:11480  .debug_loc:0000000000001655 .LLST6
     /tmp/cc6lMr8s.s:11826  .debug_str:000000000000038b .LASF301
     /tmp/cc6lMr8s.s:409    .text:0000000000000198 .LFB47
     /tmp/cc6lMr8s.s:480    .text:000000000000021c .LFE47
     /tmp/cc6lMr8s.s:11505  .debug_loc:00000000000016b7 .LLST9
     /tmp/cc6lMr8s.s:11523  .debug_loc:0000000000001703 .LLST10
     /tmp/cc6lMr8s.s:11541  .debug_loc:000000000000174f .LLST11
     /tmp/cc6lMr8s.s:433    .text:00000000000001c8 .LVL31
     /tmp/cc6lMr8s.s:459    .text:0000000000000200 .LVL33
     /tmp/cc6lMr8s.s:181    .text:0000000000000088 .LFB45
     /tmp/cc6lMr8s.s:204    .text:00000000000000a8 .LFE45
     /tmp/cc6lMr8s.s:11565  .debug_loc:00000000000017b0 .LLST5
     /tmp/cc6lMr8s.s:152    .text:0000000000000068 .LFB44
     /tmp/cc6lMr8s.s:175    .text:0000000000000088 .LFE44
     /tmp/cc6lMr8s.s:11579  .debug_loc:00000000000017e9 .LLST4
     /tmp/cc6lMr8s.s:115    .text:0000000000000038 .LFB43
     /tmp/cc6lMr8s.s:146    .text:0000000000000068 .LFE43
     /tmp/cc6lMr8s.s:68     .text:0000000000000000 .LFB42
     /tmp/cc6lMr8s.s:109    .text:0000000000000038 .LFE42
     /tmp/cc6lMr8s.s:11593  .debug_loc:0000000000001822 .LLST2
     /tmp/cc6lMr8s.s:11604  .debug_loc:0000000000001858 .LLST3
     /tmp/cc6lMr8s.s:347    .text:0000000000000150 .LFB41
     /tmp/cc6lMr8s.s:403    .text:0000000000000198 .LFE41
     /tmp/cc6lMr8s.s:362    .text:0000000000000160 .LBB19
     /tmp/cc6lMr8s.s:391    .text:0000000000000188 .LBE19
     /tmp/cc6lMr8s.s:11611  .debug_loc:000000000000187b .LLST8
     /tmp/cc6lMr8s.s:11862  .debug_str:00000000000004e5 .LASF302
     /tmp/cc6lMr8s.s:310    .text:0000000000000124 .LFB39
     /tmp/cc6lMr8s.s:339    .text:0000000000000150 .LFE39
     /tmp/cc6lMr8s.s:12100  .debug_str:0000000000000cb3 .LASF303
     /tmp/cc6lMr8s.s:40     .text._ZN5_Slab8containsEPv:0000000000000000 .LFB30
     /tmp/cc6lMr8s.s:61     .text._ZN5_Slab8containsEPv:000000000000001c .LFE30
     /tmp/cc6lMr8s.s:11627  .debug_loc:00000000000018c5 .LLST1
     /tmp/cc6lMr8s.s:11     .text._ZN5_Slab17getAllocatedCountEv:0000000000000000 .LFB29
     /tmp/cc6lMr8s.s:33     .text._ZN5_Slab17getAllocatedCountEv:000000000000001c .LFE29
     /tmp/cc6lMr8s.s:11641  .debug_loc:00000000000018fe .LLST0
     /tmp/cc6lMr8s.s:12212  .debug_str:0000000000001095 .LASF304
     /tmp/cc6lMr8s.s:11804  .debug_str:00000000000002d0 .LASF315
     /tmp/cc6lMr8s.s:3344   .text:0000000000001360 .LVL315
     /tmp/cc6lMr8s.s:3357   .text:000000000000137c .LVL316
     /tmp/cc6lMr8s.s:3309   .text:000000000000132c .LVL312
     /tmp/cc6lMr8s.s:3322   .text:0000000000001348 .LVL313
     /tmp/cc6lMr8s.s:3259   .text:00000000000012dc .LVL308
     /tmp/cc6lMr8s.s:3283   .text:0000000000001304 .LVL310
     /tmp/cc6lMr8s.s:3227   .text:00000000000012b4 .LVL306
     /tmp/cc6lMr8s.s:3195   .text:000000000000128c .LVL304
     /tmp/cc6lMr8s.s:3152   .text:000000000000124c .LVL300
     /tmp/cc6lMr8s.s:3181   .text:0000000000001284 .LVL303
     /tmp/cc6lMr8s.s:3118   .text:0000000000001224 .LVL297
     /tmp/cc6lMr8s.s:3128   .text:0000000000001234 .LVL298
     /tmp/cc6lMr8s.s:3082   .text:00000000000011f4 .LVL294
     /tmp/cc6lMr8s.s:3050   .text:00000000000011cc .LVL292
GAS LISTING /tmp/cc6lMr8s.s 			page 117


     /tmp/cc6lMr8s.s:3018   .text:00000000000011a4 .LVL290
     /tmp/cc6lMr8s.s:2986   .text:000000000000117c .LVL288
     /tmp/cc6lMr8s.s:2905   .text:00000000000010e4 .LVL278
     /tmp/cc6lMr8s.s:2963   .text:0000000000001168 .LVL284
     /tmp/cc6lMr8s.s:2966   .text:000000000000116c .LVL285
     /tmp/cc6lMr8s.s:2969   .text:0000000000001170 .LVL286
     /tmp/cc6lMr8s.s:2972   .text:0000000000001174 .LVL287
     /tmp/cc6lMr8s.s:2933   .text:0000000000001124 .LVL280
     /tmp/cc6lMr8s.s:2960   .text:0000000000001164 .LVL283
     /tmp/cc6lMr8s.s:2838   .text:0000000000001070 .LVL269
     /tmp/cc6lMr8s.s:2862   .text:0000000000001098 .LVL272
     /tmp/cc6lMr8s.s:2854   .text:000000000000108c .LVL270
     /tmp/cc6lMr8s.s:2857   .text:0000000000001090 .LVL271
     /tmp/cc6lMr8s.s:2891   .text:00000000000010dc .LVL277
     /tmp/cc6lMr8s.s:2888   .text:00000000000010d8 .LVL276
     /tmp/cc6lMr8s.s:2769   .text:0000000000001008 .LVL262
     /tmp/cc6lMr8s.s:2784   .text:0000000000001024 .LVL263
     /tmp/cc6lMr8s.s:2812   .text:0000000000001050 .LVL266
     /tmp/cc6lMr8s.s:2816   .text:0000000000001058 .LVL267
     /tmp/cc6lMr8s.s:2599   .text:0000000000000e90 .LVL232
     /tmp/cc6lMr8s.s:2744   .text:0000000000000ff8 .LVL259
     /tmp/cc6lMr8s.s:2620   .text:0000000000000ebc .LVL234
     /tmp/cc6lMr8s.s:2750   .text:0000000000001000 .LVL261
     /tmp/cc6lMr8s.s:2627   .text:0000000000000ecc .LVL236
     /tmp/cc6lMr8s.s:2747   .text:0000000000000ffc .LVL260
     /tmp/cc6lMr8s.s:2465   .text:0000000000000df4 .LVL220
     /tmp/cc6lMr8s.s:2504   .text:0000000000000e34 .LVL223
     /tmp/cc6lMr8s.s:2481   .text:0000000000000e10 .LVL221
     /tmp/cc6lMr8s.s:2536   .text:0000000000000e68 .LVL227
     /tmp/cc6lMr8s.s:2543   .text:0000000000000e70 .LVL229
     /tmp/cc6lMr8s.s:2559   .text:0000000000000e84 .LVL230
     /tmp/cc6lMr8s.s:2496   .text:0000000000000e28 .LVL222
     /tmp/cc6lMr8s.s:2562   .text:0000000000000e88 .LVL231
     /tmp/cc6lMr8s.s:2509   .text:0000000000000e38 .LVL224
     /tmp/cc6lMr8s.s:2521   .text:0000000000000e50 .LVL225
     /tmp/cc6lMr8s.s:2416   .text:0000000000000db8 .LVL216
     /tmp/cc6lMr8s.s:2435   .text:0000000000000dd4 .LVL218
     /tmp/cc6lMr8s.s:2447   .text:0000000000000de8 .LVL219
     /tmp/cc6lMr8s.s:2431   .text:0000000000000dd0 .LVL217
     /tmp/cc6lMr8s.s:2330   .text:0000000000000d50 .LVL206
     /tmp/cc6lMr8s.s:2360   .text:0000000000000d7c .LVL209
     /tmp/cc6lMr8s.s:2338   .text:0000000000000d5c .LVL207
     /tmp/cc6lMr8s.s:2362   .text:0000000000000d80 .LVL210
     /tmp/cc6lMr8s.s:2387   .text:0000000000000da4 .LVL213
     /tmp/cc6lMr8s.s:2394   .text:0000000000000dac .LVL215
     /tmp/cc6lMr8s.s:2353   .text:0000000000000d74 .LVL208
     /tmp/cc6lMr8s.s:2367   .text:0000000000000d84 .LVL211
     /tmp/cc6lMr8s.s:2379   .text:0000000000000d9c .LVL212
     /tmp/cc6lMr8s.s:2273   .text:0000000000000d04 .LVL201
     /tmp/cc6lMr8s.s:2281   .text:0000000000000d10 .LVL202
     /tmp/cc6lMr8s.s:2284   .text:0000000000000d14 .LVL203
     /tmp/cc6lMr8s.s:2316   .text:0000000000000d48 .LVL205
     /tmp/cc6lMr8s.s:1999   .text:0000000000000b28 .LVL173
     /tmp/cc6lMr8s.s:2026   .text:0000000000000b5c .LVL174
     /tmp/cc6lMr8s.s:2102   .text:0000000000000be4 .LVL184
     /tmp/cc6lMr8s.s:2106   .text:0000000000000bec .LVL185
     /tmp/cc6lMr8s.s:2099   .text:0000000000000be0 .LVL183
GAS LISTING /tmp/cc6lMr8s.s 			page 118


     /tmp/cc6lMr8s.s:2033   .text:0000000000000b64 .LVL176
     /tmp/cc6lMr8s.s:2096   .text:0000000000000bdc .LVL182
     /tmp/cc6lMr8s.s:1832   .text:0000000000000a10 .LVL153
     /tmp/cc6lMr8s.s:1850   .text:0000000000000a30 .LVL154
     /tmp/cc6lMr8s.s:1896   .text:0000000000000a78 .LVL160
     /tmp/cc6lMr8s.s:1902   .text:0000000000000a84 .LVL161
     /tmp/cc6lMr8s.s:1861   .text:0000000000000a44 .LVL156
     /tmp/cc6lMr8s.s:1865   .text:0000000000000a48 .LVL157
     /tmp/cc6lMr8s.s:1913   .text:0000000000000a9c .LVL163
     /tmp/cc6lMr8s.s:1935   .text:0000000000000ac0 .LVL165
     /tmp/cc6lMr8s.s:1939   .text:0000000000000ac4 .LVL166
     /tmp/cc6lMr8s.s:1956   .text:0000000000000aec .LVL169
     /tmp/cc6lMr8s.s:1974   .text:0000000000000b10 .LVL171
     /tmp/cc6lMr8s.s:1697   .text:000000000000091c .LVL133
     /tmp/cc6lMr8s.s:1809   .text:0000000000000a00 .LVL152
     /tmp/cc6lMr8s.s:1725   .text:0000000000000950 .LVL135
     /tmp/cc6lMr8s.s:1732   .text:0000000000000960 .LVL136
     /tmp/cc6lMr8s.s:1767   .text:00000000000009ac .LVL145
     /tmp/cc6lMr8s.s:1736   .text:000000000000096c .LVL138
     /tmp/cc6lMr8s.s:1743   .text:0000000000000978 .LVL139
     /tmp/cc6lMr8s.s:1756   .text:000000000000099c .LVL142
     /tmp/cc6lMr8s.s:1761   .text:00000000000009a0 .LVL143
     /tmp/cc6lMr8s.s:1769   .text:00000000000009b0 .LVL146
     /tmp/cc6lMr8s.s:1780   .text:00000000000009c8 .LVL148
     /tmp/cc6lMr8s.s:1787   .text:00000000000009d4 .LVL149
     /tmp/cc6lMr8s.s:1628   .text:00000000000008c4 .LVL128
     /tmp/cc6lMr8s.s:1673   .text:0000000000000914 .LVL132
     /tmp/cc6lMr8s.s:1521   .text:0000000000000834 .LVL115
     /tmp/cc6lMr8s.s:1541   .text:000000000000085c .LVL117
     /tmp/cc6lMr8s.s:1612   .text:00000000000008bc .LVL127
     /tmp/cc6lMr8s.s:1539   .text:0000000000000858 .LVL116
     /tmp/cc6lMr8s.s:1556   .text:0000000000000874 .LVL119
     /tmp/cc6lMr8s.s:1567   .text:000000000000087c .LVL121
     /tmp/cc6lMr8s.s:1595   .text:00000000000008a8 .LVL125
     /tmp/cc6lMr8s.s:1607   .text:00000000000008b4 .LVL126
     /tmp/cc6lMr8s.s:1563   .text:0000000000000878 .LVL120
     /tmp/cc6lMr8s.s:1576   .text:0000000000000884 .LVL122
     /tmp/cc6lMr8s.s:1199   .text:0000000000000630 .LVL88
     /tmp/cc6lMr8s.s:1150   .text:00000000000005f4 .LVL86
     /tmp/cc6lMr8s.s:1178   .text:0000000000000624 .LVL87
     /tmp/cc6lMr8s.s:2201   .text:0000000000000c90 .LVL193
     /tmp/cc6lMr8s.s:2220   .text:0000000000000cb0 .LVL195
     /tmp/cc6lMr8s.s:2259   .text:0000000000000cfc .LVL200
     /tmp/cc6lMr8s.s:2216   .text:0000000000000cac .LVL194
     /tmp/cc6lMr8s.s:2240   .text:0000000000000ce4 .LVL197
     /tmp/cc6lMr8s.s:2242   .text:0000000000000ce8 .LVL198
     /tmp/cc6lMr8s.s:2256   .text:0000000000000cf8 .LVL199
     /tmp/cc6lMr8s.s:1048   .text:0000000000000574 .LVL81
     /tmp/cc6lMr8s.s:1070   .text:0000000000000590 .LVL83
     /tmp/cc6lMr8s.s:1096   .text:00000000000005b4 .LVL84
     /tmp/cc6lMr8s.s:1060   .text:0000000000000584 .LVL82
     /tmp/cc6lMr8s.s:964    .text:00000000000004fc .LVL68
     /tmp/cc6lMr8s.s:1014   .text:0000000000000540 .LVL78
     /tmp/cc6lMr8s.s:972    .text:0000000000000508 .LVL69
     /tmp/cc6lMr8s.s:978    .text:0000000000000510 .LVL70
     /tmp/cc6lMr8s.s:986    .text:0000000000000518 .LVL71
     /tmp/cc6lMr8s.s:992    .text:0000000000000520 .LVL73
GAS LISTING /tmp/cc6lMr8s.s 			page 119


     /tmp/cc6lMr8s.s:1003   .text:0000000000000534 .LVL75
     /tmp/cc6lMr8s.s:1005   .text:0000000000000538 .LVL76
     /tmp/cc6lMr8s.s:1016   .text:0000000000000544 .LVL79
     /tmp/cc6lMr8s.s:996    .text:0000000000000524 .LVL74
     /tmp/cc6lMr8s.s:850    .text:000000000000045c .LVL65
     /tmp/cc6lMr8s.s:874    .text:0000000000000488 .LVL66
     /tmp/cc6lMr8s.s:1325   .text:00000000000006c4 .LVL91
     /tmp/cc6lMr8s.s:1354   .text:00000000000006fc .LVL94
     /tmp/cc6lMr8s.s:1363   .text:0000000000000708 .LVL95
     /tmp/cc6lMr8s.s:1371   .text:0000000000000710 .LVL97
     /tmp/cc6lMr8s.s:1377   .text:0000000000000718 .LVL98
     /tmp/cc6lMr8s.s:1411   .text:0000000000000764 .LVL102
     /tmp/cc6lMr8s.s:1387   .text:0000000000000734 .LVL99
     /tmp/cc6lMr8s.s:1507   .text:000000000000082c .LVL114
     /tmp/cc6lMr8s.s:1456   .text:00000000000007bc .LVL107
     /tmp/cc6lMr8s.s:1504   .text:0000000000000828 .LVL113
     /tmp/cc6lMr8s.s:1368   .text:000000000000070c .LVL96
     /tmp/cc6lMr8s.s:1443   .text:00000000000007a4 .LVL104
     /tmp/cc6lMr8s.s:1445   .text:00000000000007a8 .LVL105
     /tmp/cc6lMr8s.s:1501   .text:0000000000000824 .LVL112
     /tmp/cc6lMr8s.s:747    .text:00000000000003c4 .LVL59
     /tmp/cc6lMr8s.s:755    .text:00000000000003d4 .LVL60
     /tmp/cc6lMr8s.s:776    .text:00000000000003f8 .LVL62
     /tmp/cc6lMr8s.s:783    .text:0000000000000404 .LVL63
     /tmp/cc6lMr8s.s:713    .text:0000000000000398 .LVL58
     /tmp/cc6lMr8s.s:577    .text:00000000000002ac .LVL44
     /tmp/cc6lMr8s.s:603    .text:00000000000002dc .LVL46
     /tmp/cc6lMr8s.s:666    .text:000000000000033c .LVL55
     /tmp/cc6lMr8s.s:598    .text:00000000000002d4 .LVL45
     /tmp/cc6lMr8s.s:607    .text:00000000000002e0 .LVL47
     /tmp/cc6lMr8s.s:609    .text:00000000000002e4 .LVL48
     /tmp/cc6lMr8s.s:663    .text:0000000000000338 .LVL54
     /tmp/cc6lMr8s.s:657    .text:0000000000000330 .LVL52
     /tmp/cc6lMr8s.s:660    .text:0000000000000334 .LVL53
     /tmp/cc6lMr8s.s:624    .text:0000000000000300 .LVL50
     /tmp/cc6lMr8s.s:630    .text:000000000000030c .LVL51
     /tmp/cc6lMr8s.s:261    .text:00000000000000e4 .LVL17
     /tmp/cc6lMr8s.s:281    .text:0000000000000108 .LVL18
     /tmp/cc6lMr8s.s:283    .text:000000000000010c .LVL19
     /tmp/cc6lMr8s.s:286    .text:0000000000000110 .LVL20
     /tmp/cc6lMr8s.s:296    .text:000000000000011c .LVL21
     /tmp/cc6lMr8s.s:301    .text:0000000000000120 .LVL22
     /tmp/cc6lMr8s.s:491    .text:000000000000021c .LVL37
     /tmp/cc6lMr8s.s:552    .text:0000000000000298 .LVL40
     /tmp/cc6lMr8s.s:558    .text:00000000000002a0 .LVL42
     /tmp/cc6lMr8s.s:555    .text:000000000000029c .LVL41
     /tmp/cc6lMr8s.s:561    .text:00000000000002a4 .LVL43
     /tmp/cc6lMr8s.s:213    .text:00000000000000a8 .LVL13
     /tmp/cc6lMr8s.s:227    .text:00000000000000c0 .LVL14
     /tmp/cc6lMr8s.s:233    .text:00000000000000cc .LVL15
     /tmp/cc6lMr8s.s:236    .text:00000000000000d0 .LVL16
     /tmp/cc6lMr8s.s:412    .text:0000000000000198 .LVL30
     /tmp/cc6lMr8s.s:469    .text:000000000000020c .LVL34
     /tmp/cc6lMr8s.s:475    .text:0000000000000214 .LVL36
     /tmp/cc6lMr8s.s:452    .text:00000000000001ec .LVL32
     /tmp/cc6lMr8s.s:472    .text:0000000000000210 .LVL35
     /tmp/cc6lMr8s.s:184    .text:0000000000000088 .LVL11
GAS LISTING /tmp/cc6lMr8s.s 			page 120


     /tmp/cc6lMr8s.s:194    .text:0000000000000098 .LVL12
     /tmp/cc6lMr8s.s:155    .text:0000000000000068 .LVL9
     /tmp/cc6lMr8s.s:165    .text:0000000000000078 .LVL10
     /tmp/cc6lMr8s.s:72     .text:0000000000000000 .LVL4
     /tmp/cc6lMr8s.s:83     .text:0000000000000014 .LVL5
     /tmp/cc6lMr8s.s:87     .text:0000000000000018 .LVL6
     /tmp/cc6lMr8s.s:99     .text:000000000000002c .LVL7
     /tmp/cc6lMr8s.s:360    .text:0000000000000160 .LVL25
     /tmp/cc6lMr8s.s:365    .text:0000000000000164 .LVL26
     /tmp/cc6lMr8s.s:387    .text:0000000000000184 .LVL28
     /tmp/cc6lMr8s.s:389    .text:0000000000000188 .LVL29
     /tmp/cc6lMr8s.s:43     .text._ZN5_Slab8containsEPv:0000000000000000 .LVL2
     /tmp/cc6lMr8s.s:53     .text._ZN5_Slab8containsEPv:0000000000000010 .LVL3
     /tmp/cc6lMr8s.s:15     .text._ZN5_Slab17getAllocatedCountEv:0000000000000000 .LVL0
     /tmp/cc6lMr8s.s:25     .text._ZN5_Slab17getAllocatedCountEv:0000000000000010 .LVL1
     /tmp/cc6lMr8s.s:3501   .debug_info:0000000000000000 .Ldebug_info0
     /tmp/cc6lMr8s.s:5      .text:0000000000000000 .Ltext0
     /tmp/cc6lMr8s.s:3493   .text:00000000000013b8 .Letext0
     /tmp/cc6lMr8s.s:1356   .text:00000000000006fc .LBB28
     /tmp/cc6lMr8s.s:1359   .text:0000000000000700 .LBE28
     /tmp/cc6lMr8s.s:1365   .text:0000000000000708 .LBB29
     /tmp/cc6lMr8s.s:1413   .text:0000000000000764 .LBE29
     /tmp/cc6lMr8s.s:1439   .text:000000000000079c .LBB30
     /tmp/cc6lMr8s.s:1447   .text:00000000000007a8 .LBE30
     /tmp/cc6lMr8s.s:1543   .text:000000000000085c .LBB32
     /tmp/cc6lMr8s.s:1553   .text:0000000000000870 .LBE32
     /tmp/cc6lMr8s.s:1561   .text:0000000000000878 .LBB38
     /tmp/cc6lMr8s.s:1598   .text:00000000000008a8 .LBE38
     /tmp/cc6lMr8s.s:2354   .text:0000000000000d74 .LBB44
     /tmp/cc6lMr8s.s:2357   .text:0000000000000d78 .LBE44
     /tmp/cc6lMr8s.s:2364   .text:0000000000000d80 .LBB46
     /tmp/cc6lMr8s.s:2397   .text:0000000000000dac .LBE46
     /tmp/cc6lMr8s.s:2497   .text:0000000000000e28 .LBB47
     /tmp/cc6lMr8s.s:2500   .text:0000000000000e2c .LBE47
     /tmp/cc6lMr8s.s:2506   .text:0000000000000e34 .LBB49
     /tmp/cc6lMr8s.s:2546   .text:0000000000000e70 .LBE49
     /tmp/cc6lMr8s.s:1681   .gcc_except_table:0000000000000000 .LLSDA73

UNDEFINED SYMBOLS
_ZnwmPv
_ZN10_BuddyTree10allocBlockEi
_ZN10_BuddyTree7deallocEPv
__gxx_personality_v0
_ZN10_BuddyTree5allocEm
_ZN8_Console11printStringEPKc
_ZN8_Console4putcEc
_ZN8_Console8printNumEm
_ZN10_BuddyTreeC1EPvmm
