GAS LISTING /tmp/ccYRWKA3.s 			page 1


   1              		.file	"_Sleep.cpp"
   2              		.option pic
   3              		.option norelax
   4              		.text
   5              	.Ltext0:
   6              		.section	.rodata.str1.8,"aMS",@progbits,1
   7              		.align	3
   8              	.LC0:
   9 0000 536C6565 		.string	"Sleep::Node Cache"
   9      703A3A4E 
   9      6F646520 
   9      43616368 
   9      6500
  10              		.text
  11              		.align	2
  12              		.globl	_ZN6_Sleep4NodenwEm
  14              	_ZN6_Sleep4NodenwEm:
  15              	.LFB11:
  16              		.file 1 "src/_Sleep.cpp"
   1:src/_Sleep.cpp **** //
   2:src/_Sleep.cpp **** // Created by os on 5/3/22.
   3:src/_Sleep.cpp **** //
   4:src/_Sleep.cpp **** 
   5:src/_Sleep.cpp **** #include "../h/_Sleep.h"
   6:src/_Sleep.cpp **** #include "../h/_Mem.h"
   7:src/_Sleep.cpp **** #include "../h/_Scheduler.h"
   8:src/_Sleep.cpp **** 
   9:src/_Sleep.cpp **** kmem_cache_t* _Sleep::Node::cache = nullptr;
  10:src/_Sleep.cpp **** 
  11:src/_Sleep.cpp **** void *_Sleep::Node::operator new(size_t size) {
  17              		.loc 1 11 47
  18              		.cfi_startproc
  19              	.LVL0:
  20 0000 130101FF 		addi	sp,sp,-16
  21              		.cfi_def_cfa_offset 16
  22 0004 23341100 		sd	ra,8(sp)
  23 0008 23308100 		sd	s0,0(sp)
  24              		.cfi_offset 1, -8
  25              		.cfi_offset 8, -16
  26 000c 13040101 		addi	s0,sp,16
  27              		.cfi_def_cfa 8, 0
  12:src/_Sleep.cpp ****     if (!cache) cache = kmem_cache_create("Sleep::Node Cache", sizeof(_Sleep::Node), nullptr, nullp
  28              		.loc 1 12 5
  29              		.loc 1 12 9 is_stmt 0
  30 0010 97070000 		ld	a5,.LANCHOR0
  30      83B70700 
  31              		.loc 1 12 5
  32 0018 63820702 		beqz	a5,.L4
  33              	.LVL1:
  34              	.L2:
  13:src/_Sleep.cpp ****     return kmem_cache_alloc(cache);
  35              		.loc 1 13 5 is_stmt 1
  36              		.loc 1 13 28 is_stmt 0
  37 001c 17050000 		ld	a0,.LANCHOR0
  37      03350500 
  38 0024 97000000 		call	_Z16kmem_cache_allocP12kmem_cache_t@plt
  38      E7800000 
GAS LISTING /tmp/ccYRWKA3.s 			page 2


  39              	.LVL2:
  14:src/_Sleep.cpp **** }
  40              		.loc 1 14 1
  41 002c 83308100 		ld	ra,8(sp)
  42              		.cfi_remember_state
  43              		.cfi_restore 1
  44 0030 03340100 		ld	s0,0(sp)
  45              		.cfi_restore 8
  46              		.cfi_def_cfa 2, 16
  47 0034 13010101 		addi	sp,sp,16
  48              		.cfi_def_cfa_offset 0
  49 0038 67800000 		jr	ra
  50              	.LVL3:
  51              	.L4:
  52              		.cfi_restore_state
  12:src/_Sleep.cpp ****     if (!cache) cache = kmem_cache_create("Sleep::Node Cache", sizeof(_Sleep::Node), nullptr, nullp
  53              		.loc 1 12 17 is_stmt 1 discriminator 1
  12:src/_Sleep.cpp ****     if (!cache) cache = kmem_cache_create("Sleep::Node Cache", sizeof(_Sleep::Node), nullptr, nullp
  54              		.loc 1 12 42 is_stmt 0 discriminator 1
  55 003c 93060000 		li	a3,0
  56 0040 13060000 		li	a2,0
  57 0044 93058001 		li	a1,24
  58 0048 17050000 		lla	a0,.LC0
  58      13050500 
  59              	.LVL4:
  60 0050 97000000 		call	_Z17kmem_cache_createPKcmPFvPvES3_@plt
  60      E7800000 
  61              	.LVL5:
  12:src/_Sleep.cpp ****     if (!cache) cache = kmem_cache_create("Sleep::Node Cache", sizeof(_Sleep::Node), nullptr, nullp
  62              		.loc 1 12 23 discriminator 1
  63 0058 97070000 		sd	a0,.LANCHOR0,a5
  63      23B0A700 
  64 0060 6FF0DFFB 		j	.L2
  65              		.cfi_endproc
  66              	.LFE11:
  68              		.align	2
  69              		.globl	_ZN6_Sleep4NodedlEPv
  71              	_ZN6_Sleep4NodedlEPv:
  72              	.LFB12:
  15:src/_Sleep.cpp **** void _Sleep::Node::operator delete(void *adr) {
  73              		.loc 1 15 47 is_stmt 1
  74              		.cfi_startproc
  75              	.LVL6:
  76 0064 130101FF 		addi	sp,sp,-16
  77              		.cfi_def_cfa_offset 16
  78 0068 23341100 		sd	ra,8(sp)
  79 006c 23308100 		sd	s0,0(sp)
  80              		.cfi_offset 1, -8
  81              		.cfi_offset 8, -16
  82 0070 13040101 		addi	s0,sp,16
  83              		.cfi_def_cfa 8, 0
  84 0074 93050500 		mv	a1,a0
  16:src/_Sleep.cpp ****     kmem_cache_free(cache, adr);
  85              		.loc 1 16 5
  86              		.loc 1 16 20 is_stmt 0
  87 0078 17050000 		ld	a0,.LANCHOR0
  87      03350500 
GAS LISTING /tmp/ccYRWKA3.s 			page 3


  88              	.LVL7:
  89 0080 97000000 		call	_Z15kmem_cache_freeP12kmem_cache_tPv@plt
  89      E7800000 
  90              	.LVL8:
  17:src/_Sleep.cpp **** }
  91              		.loc 1 17 1
  92 0088 83308100 		ld	ra,8(sp)
  93              		.cfi_restore 1
  94 008c 03340100 		ld	s0,0(sp)
  95              		.cfi_restore 8
  96              		.cfi_def_cfa 2, 16
  97 0090 13010101 		addi	sp,sp,16
  98              		.cfi_def_cfa_offset 0
  99 0094 67800000 		jr	ra
 100              		.cfi_endproc
 101              	.LFE12:
 103              		.align	2
 104              		.globl	_ZN6_Sleep10wake_firstEv
 106              	_ZN6_Sleep10wake_firstEv:
 107              	.LFB13:
  18:src/_Sleep.cpp **** 
  19:src/_Sleep.cpp **** _Sleep::Node* _Sleep::first = nullptr;
  20:src/_Sleep.cpp **** 
  21:src/_Sleep.cpp **** thread_t _Sleep::wake_first() {
 108              		.loc 1 21 31 is_stmt 1
 109              		.cfi_startproc
 110 0098 130101FE 		addi	sp,sp,-32
 111              		.cfi_def_cfa_offset 32
 112 009c 233C1100 		sd	ra,24(sp)
 113 00a0 23388100 		sd	s0,16(sp)
 114 00a4 23349100 		sd	s1,8(sp)
 115              		.cfi_offset 1, -8
 116              		.cfi_offset 8, -16
 117              		.cfi_offset 9, -24
 118 00a8 13040102 		addi	s0,sp,32
 119              		.cfi_def_cfa 8, 0
  22:src/_Sleep.cpp ****     thread_t ret;
 120              		.loc 1 22 5
  23:src/_Sleep.cpp ****     if (first && first->left == 0) {
 121              		.loc 1 23 5
 122              	.LBB5:
 123              		.loc 1 23 33 is_stmt 0
 124 00ac 17050000 		ld	a0,.LANCHOR0+8
 124      03350500 
 125              		.loc 1 23 5
 126 00b4 63020504 		beqz	a0,.L9
 127              		.loc 1 23 25 discriminator 1
 128 00b8 83378500 		ld	a5,8(a0)
 129              		.loc 1 23 15 discriminator 1
 130 00bc 63800702 		beqz	a5,.L12
 131              	.LBE5:
  24:src/_Sleep.cpp ****         ret = first->thread;
  25:src/_Sleep.cpp ****         Node* old = first;
  26:src/_Sleep.cpp ****         first = first->next;
  27:src/_Sleep.cpp ****         delete old;
  28:src/_Sleep.cpp ****         return ret;
  29:src/_Sleep.cpp ****     }
GAS LISTING /tmp/ccYRWKA3.s 			page 4


  30:src/_Sleep.cpp ****     return nullptr;//nema vise niti za budjenje
 132              		.loc 1 30 12
 133 00c0 93040000 		li	s1,0
 134              	.L7:
  31:src/_Sleep.cpp **** }
 135              		.loc 1 31 1
 136 00c4 13850400 		mv	a0,s1
 137 00c8 83308101 		ld	ra,24(sp)
 138              		.cfi_remember_state
 139              		.cfi_restore 1
 140 00cc 03340101 		ld	s0,16(sp)
 141              		.cfi_restore 8
 142              		.cfi_def_cfa 2, 32
 143 00d0 83348100 		ld	s1,8(sp)
 144              		.cfi_restore 9
 145 00d4 13010102 		addi	sp,sp,32
 146              		.cfi_def_cfa_offset 0
 147 00d8 67800000 		jr	ra
 148              	.L12:
 149              		.cfi_restore_state
 150              	.LBB7:
 151              	.LBB6:
  24:src/_Sleep.cpp ****         ret = first->thread;
 152              		.loc 1 24 9 is_stmt 1
  24:src/_Sleep.cpp ****         ret = first->thread;
 153              		.loc 1 24 13 is_stmt 0
 154 00dc 83340500 		ld	s1,0(a0)
 155              	.LVL9:
  25:src/_Sleep.cpp ****         first = first->next;
 156              		.loc 1 25 9 is_stmt 1
  26:src/_Sleep.cpp ****         delete old;
 157              		.loc 1 26 9
  26:src/_Sleep.cpp ****         delete old;
 158              		.loc 1 26 24 is_stmt 0
 159 00e0 83370501 		ld	a5,16(a0)
  26:src/_Sleep.cpp ****         delete old;
 160              		.loc 1 26 15
 161 00e4 17070000 		sd	a5,.LANCHOR0+8,a4
 161      2330F700 
  27:src/_Sleep.cpp ****         return ret;
 162              		.loc 1 27 9 is_stmt 1
  27:src/_Sleep.cpp ****         return ret;
 163              		.loc 1 27 16 is_stmt 0
 164 00ec 97000000 		call	_ZN6_Sleep4NodedlEPv
 164      E7800000 
 165              	.LVL10:
  28:src/_Sleep.cpp ****     }
 166              		.loc 1 28 9 is_stmt 1
  28:src/_Sleep.cpp ****     }
 167              		.loc 1 28 16 is_stmt 0
 168 00f4 6FF01FFD 		j	.L7
 169              	.LVL11:
 170              	.L9:
 171              	.LBE6:
 172              	.LBE7:
  30:src/_Sleep.cpp **** }
 173              		.loc 1 30 12
GAS LISTING /tmp/ccYRWKA3.s 			page 5


 174 00f8 93040500 		mv	s1,a0
 175 00fc 6FF09FFC 		j	.L7
 176              		.cfi_endproc
 177              	.LFE13:
 179              		.align	2
 180              		.globl	_ZN6_Sleep3putEP7_Threadm
 182              	_ZN6_Sleep3putEP7_Threadm:
 183              	.LFB14:
  32:src/_Sleep.cpp **** int _Sleep::put(thread_t thread, time_t time) {
 184              		.loc 1 32 47 is_stmt 1
 185              		.cfi_startproc
 186              	.LVL12:
 187 0100 130101FD 		addi	sp,sp,-48
 188              		.cfi_def_cfa_offset 48
 189 0104 23341102 		sd	ra,40(sp)
 190 0108 23308102 		sd	s0,32(sp)
 191 010c 233C9100 		sd	s1,24(sp)
 192 0110 23382101 		sd	s2,16(sp)
 193 0114 23343101 		sd	s3,8(sp)
 194 0118 23304101 		sd	s4,0(sp)
 195              		.cfi_offset 1, -8
 196              		.cfi_offset 8, -16
 197              		.cfi_offset 9, -24
 198              		.cfi_offset 18, -32
 199              		.cfi_offset 19, -40
 200              		.cfi_offset 20, -48
 201 011c 13040103 		addi	s0,sp,48
 202              		.cfi_def_cfa 8, 0
 203 0120 130A0500 		mv	s4,a0
 204 0124 13890500 		mv	s2,a1
  33:src/_Sleep.cpp ****     Node* cur = first, *prev = 0;
 205              		.loc 1 33 5
 206              		.loc 1 33 11 is_stmt 0
 207 0128 97040000 		ld	s1,.LANCHOR0+8
 207      83B40400 
 208              	.LVL13:
  34:src/_Sleep.cpp ****     time_t left = time;
 209              		.loc 1 34 5 is_stmt 1
  33:src/_Sleep.cpp ****     Node* cur = first, *prev = 0;
 210              		.loc 1 33 25 is_stmt 0
 211 0130 93090000 		li	s3,0
 212              	.LVL14:
 213              	.L15:
  35:src/_Sleep.cpp ****     while (cur && left >= cur->left) {
 214              		.loc 1 35 5 is_stmt 1
 215              		.loc 1 35 16
 216 0134 638E0400 		beqz	s1,.L14
 217              		.loc 1 35 32 is_stmt 0 discriminator 1
 218 0138 83B78400 		ld	a5,8(s1)
 219              		.loc 1 35 16 discriminator 1
 220 013c 636AF900 		bgtu	a5,s2,.L14
  36:src/_Sleep.cpp ****         left -= cur->left;
 221              		.loc 1 36 9 is_stmt 1
 222              		.loc 1 36 14 is_stmt 0
 223 0140 3309F940 		sub	s2,s2,a5
 224              	.LVL15:
  37:src/_Sleep.cpp ****         prev = cur, cur = cur->next;
GAS LISTING /tmp/ccYRWKA3.s 			page 6


 225              		.loc 1 37 9 is_stmt 1
 226              		.loc 1 37 14 is_stmt 0
 227 0144 93890400 		mv	s3,s1
 228              		.loc 1 37 25
 229 0148 83B40401 		ld	s1,16(s1)
 230              	.LVL16:
  35:src/_Sleep.cpp ****     while (cur && left >= cur->left) {
 231              		.loc 1 35 5
 232 014c 6FF09FFE 		j	.L15
 233              	.L14:
  38:src/_Sleep.cpp ****     }
  39:src/_Sleep.cpp ****     Node* newnode = new Node(thread, left);
 234              		.loc 1 39 5 is_stmt 1
 235              		.loc 1 39 42 is_stmt 0
 236 0150 13058001 		li	a0,24
 237              	.LVL17:
 238 0154 97000000 		call	_ZN6_Sleep4NodenwEm
 238      E7800000 
 239              	.LVL18:
 240 015c 63080500 		beqz	a0,.L16
 241              	.LVL19:
 242              	.LBB8:
 243              	.LBB9:
 244              		.file 2 "src/../h/_Sleep.h"
   1:src/../h/_Sleep.h **** //
   2:src/../h/_Sleep.h **** // Created by os on 5/3/22.
   3:src/../h/_Sleep.h **** //
   4:src/../h/_Sleep.h **** 
   5:src/../h/_Sleep.h **** #ifndef PROJECT_BASE__SLEEP_H
   6:src/../h/_Sleep.h **** #define PROJECT_BASE__SLEEP_H
   7:src/../h/_Sleep.h **** #include "_Thread.h"
   8:src/../h/_Sleep.h **** #include "_slab.h"
   9:src/../h/_Sleep.h **** 
  10:src/../h/_Sleep.h **** class _Sleep {
  11:src/../h/_Sleep.h ****     struct Node {
  12:src/../h/_Sleep.h ****         thread_t thread;
  13:src/../h/_Sleep.h ****         time_t left;
  14:src/../h/_Sleep.h ****         Node* next;
  15:src/../h/_Sleep.h ****         Node(thread_t thread, time_t left) : thread(thread), left(left), next(nullptr) {}
 245              		.loc 2 15 86
 246 0160 23304501 		sd	s4,0(a0)
 247 0164 23342501 		sd	s2,8(a0)
 248 0168 23380500 		sd	zero,16(a0)
 249              	.LVL20:
 250              	.L16:
 251              	.LBE9:
 252              	.LBE8:
  40:src/_Sleep.cpp ****     if (!newnode) return -1; //greska u alokaciji
 253              		.loc 1 40 5 is_stmt 1 discriminator 4
 254 016c 63080504 		beqz	a0,.L20
  41:src/_Sleep.cpp ****     newnode->next = cur;
 255              		.loc 1 41 5
 256              		.loc 1 41 19 is_stmt 0
 257 0170 23389500 		sd	s1,16(a0)
  42:src/_Sleep.cpp ****     if (prev) prev->next = newnode;
 258              		.loc 1 42 5 is_stmt 1
 259 0174 638E0902 		beqz	s3,.L18
GAS LISTING /tmp/ccYRWKA3.s 			page 7


 260              		.loc 1 42 15 discriminator 1
 261              		.loc 1 42 26 is_stmt 0 discriminator 1
 262 0178 23B8A900 		sd	a0,16(s3)
 263              	.L19:
  43:src/_Sleep.cpp ****     else first = newnode;
  44:src/_Sleep.cpp ****     if (cur) cur->left -= left;
 264              		.loc 1 44 5 is_stmt 1
 265 017c 63840404 		beqz	s1,.L21
 266              		.loc 1 44 14 discriminator 1
 267              		.loc 1 44 24 is_stmt 0 discriminator 1
 268 0180 83B58400 		ld	a1,8(s1)
 269 0184 33892541 		sub	s2,a1,s2
 270              	.LVL21:
 271 0188 23B42401 		sd	s2,8(s1)
  45:src/_Sleep.cpp ****     return 0;
 272              		.loc 1 45 12 discriminator 1
 273 018c 13050000 		li	a0,0
 274              	.LVL22:
 275              	.L17:
  46:src/_Sleep.cpp **** }
 276              		.loc 1 46 1
 277 0190 83308102 		ld	ra,40(sp)
 278              		.cfi_remember_state
 279              		.cfi_restore 1
 280 0194 03340102 		ld	s0,32(sp)
 281              		.cfi_restore 8
 282              		.cfi_def_cfa 2, 48
 283 0198 83348101 		ld	s1,24(sp)
 284              		.cfi_restore 9
 285              	.LVL23:
 286 019c 03390101 		ld	s2,16(sp)
 287              		.cfi_restore 18
 288 01a0 83398100 		ld	s3,8(sp)
 289              		.cfi_restore 19
 290              	.LVL24:
 291 01a4 033A0100 		ld	s4,0(sp)
 292              		.cfi_restore 20
 293              	.LVL25:
 294 01a8 13010103 		addi	sp,sp,48
 295              		.cfi_def_cfa_offset 0
 296 01ac 67800000 		jr	ra
 297              	.LVL26:
 298              	.L18:
 299              		.cfi_restore_state
  43:src/_Sleep.cpp ****     else first = newnode;
 300              		.loc 1 43 10 is_stmt 1
  43:src/_Sleep.cpp ****     else first = newnode;
 301              		.loc 1 43 16 is_stmt 0
 302 01b0 97070000 		sd	a0,.LANCHOR0+8,a5
 302      23B0A700 
 303 01b8 6FF05FFC 		j	.L19
 304              	.L20:
  40:src/_Sleep.cpp ****     newnode->next = cur;
 305              		.loc 1 40 27
 306 01bc 1305F0FF 		li	a0,-1
 307              	.LVL27:
 308 01c0 6FF01FFD 		j	.L17
GAS LISTING /tmp/ccYRWKA3.s 			page 8


 309              	.LVL28:
 310              	.L21:
  45:src/_Sleep.cpp ****     return 0;
 311              		.loc 1 45 12
 312 01c4 13050000 		li	a0,0
 313              	.LVL29:
 314 01c8 6FF09FFC 		j	.L17
 315              		.cfi_endproc
 316              	.LFE14:
 318              		.align	2
 319              		.globl	_ZN6_Sleep4tickEv
 321              	_ZN6_Sleep4tickEv:
 322              	.LFB15:
  47:src/_Sleep.cpp **** void _Sleep::tick() {
 323              		.loc 1 47 21 is_stmt 1
 324              		.cfi_startproc
 325 01cc 130101FF 		addi	sp,sp,-16
 326              		.cfi_def_cfa_offset 16
 327 01d0 23341100 		sd	ra,8(sp)
 328 01d4 23308100 		sd	s0,0(sp)
 329              		.cfi_offset 1, -8
 330              		.cfi_offset 8, -16
 331 01d8 13040101 		addi	s0,sp,16
 332              		.cfi_def_cfa 8, 0
  48:src/_Sleep.cpp ****     if (first) first->left--;
 333              		.loc 1 48 5
 334              		.loc 1 48 14 is_stmt 0
 335 01dc 97070000 		ld	a5,.LANCHOR0+8
 335      83B70700 
 336              		.loc 1 48 5
 337 01e4 63880700 		beqz	a5,.L26
 338              		.loc 1 48 16 is_stmt 1 discriminator 1
 339              		.loc 1 48 23 is_stmt 0 discriminator 1
 340 01e8 03B78700 		ld	a4,8(a5)
 341              		.loc 1 48 27 discriminator 1
 342 01ec 1307F7FF 		addi	a4,a4,-1
 343 01f0 23B4E700 		sd	a4,8(a5)
 344              	.L26:
  49:src/_Sleep.cpp ****     thread_t woken;
 345              		.loc 1 49 5 is_stmt 1
  50:src/_Sleep.cpp ****     while ((woken = wake_first())) {
 346              		.loc 1 50 5
 347              		.loc 1 50 33
 348              		.loc 1 50 31 is_stmt 0
 349 01f4 97000000 		call	_ZN6_Sleep10wake_firstEv
 349      E7800000 
 350              	.LVL30:
 351              		.loc 1 50 33
 352 01fc 63080500 		beqz	a0,.L23
  51:src/_Sleep.cpp ****         woken->sleepPass();
 353              		.loc 1 51 9 is_stmt 1
 354              		.loc 1 51 25 is_stmt 0
 355 0200 97000000 		call	_ZN7_Thread9sleepPassEv@plt
 355      E7800000 
 356              	.LVL31:
  50:src/_Sleep.cpp ****     while ((woken = wake_first())) {
 357              		.loc 1 50 5
GAS LISTING /tmp/ccYRWKA3.s 			page 9


 358 0208 6FF0DFFE 		j	.L26
 359              	.LVL32:
 360              	.L23:
  52:src/_Sleep.cpp ****     }
  53:src/_Sleep.cpp **** }
 361              		.loc 1 53 1
 362 020c 83308100 		ld	ra,8(sp)
 363              		.cfi_restore 1
 364 0210 03340100 		ld	s0,0(sp)
 365              		.cfi_restore 8
 366              		.cfi_def_cfa 2, 16
 367 0214 13010101 		addi	sp,sp,16
 368              		.cfi_def_cfa_offset 0
 369 0218 67800000 		jr	ra
 370              		.cfi_endproc
 371              	.LFE15:
 373              		.align	2
 374              		.globl	_ZN6_Sleep6removeEP7_Thread
 376              	_ZN6_Sleep6removeEP7_Thread:
 377              	.LFB16:
  54:src/_Sleep.cpp **** 
  55:src/_Sleep.cpp **** int _Sleep::remove(thread_t thread) {
 378              		.loc 1 55 37 is_stmt 1
 379              		.cfi_startproc
 380              	.LVL33:
 381 021c 13070500 		mv	a4,a0
  56:src/_Sleep.cpp ****     Node* prev = nullptr, *cur = first;
 382              		.loc 1 56 5
 383              	.LVL34:
 384              		.loc 1 56 28 is_stmt 0
 385 0220 17050000 		ld	a0,.LANCHOR0+8
 385      03350500 
 386              	.LVL35:
 387              		.loc 1 56 11
 388 0228 93060000 		li	a3,0
 389              	.LVL36:
 390              	.L30:
  57:src/_Sleep.cpp ****     while (cur && cur->thread != thread) prev = cur, cur = cur->next;
 391              		.loc 1 57 5 is_stmt 1 discriminator 3
 392              		.loc 1 57 16 discriminator 3
 393 022c 630C0500 		beqz	a0,.L29
 394              		.loc 1 57 24 is_stmt 0 discriminator 1
 395 0230 83370500 		ld	a5,0(a0)
 396              		.loc 1 57 16 discriminator 1
 397 0234 6388E700 		beq	a5,a4,.L29
 398              		.loc 1 57 42 is_stmt 1 discriminator 2
 399              	.LVL37:
 400              		.loc 1 57 47 is_stmt 0 discriminator 2
 401 0238 93060500 		mv	a3,a0
 402              		.loc 1 57 58 discriminator 2
 403 023c 03350501 		ld	a0,16(a0)
 404              	.LVL38:
 405              		.loc 1 57 5 discriminator 2
 406 0240 6FF0DFFE 		j	.L30
 407              	.L29:
  58:src/_Sleep.cpp ****     if (!cur) return -1;
 408              		.loc 1 58 5 is_stmt 1
GAS LISTING /tmp/ccYRWKA3.s 			page 10


 409 0244 63020506 		beqz	a0,.L35
  55:src/_Sleep.cpp ****     Node* prev = nullptr, *cur = first;
 410              		.loc 1 55 37 is_stmt 0
 411 0248 130101FF 		addi	sp,sp,-16
 412              		.cfi_def_cfa_offset 16
 413 024c 23341100 		sd	ra,8(sp)
 414 0250 23308100 		sd	s0,0(sp)
 415              		.cfi_offset 1, -8
 416              		.cfi_offset 8, -16
 417 0254 13040101 		addi	s0,sp,16
 418              		.cfi_def_cfa 8, 0
  59:src/_Sleep.cpp ****     if (prev) prev->next = cur->next;
 419              		.loc 1 59 5 is_stmt 1
 420 0258 63800604 		beqz	a3,.L32
 421              		.loc 1 59 15 discriminator 1
 422              		.loc 1 59 33 is_stmt 0 discriminator 1
 423 025c 83370501 		ld	a5,16(a0)
 424              		.loc 1 59 26 discriminator 1
 425 0260 23B8F600 		sd	a5,16(a3)
 426              	.LVL39:
 427              	.L33:
  60:src/_Sleep.cpp ****     else first = cur->next;
  61:src/_Sleep.cpp ****     Node* ret = cur; cur = cur->next;
 428              		.loc 1 61 5 is_stmt 1
 429              		.loc 1 61 22
 430              		.loc 1 61 26 is_stmt 0
 431 0264 83370501 		ld	a5,16(a0)
 432              	.LVL40:
  62:src/_Sleep.cpp ****     if (cur) cur->left += ret->left;
 433              		.loc 1 62 5 is_stmt 1
 434 0268 638A0700 		beqz	a5,.L34
 435              		.loc 1 62 14 discriminator 1
 436              		.loc 1 62 32 is_stmt 0 discriminator 1
 437 026c 83368500 		ld	a3,8(a0)
 438              	.LVL41:
 439              		.loc 1 62 24 discriminator 1
 440 0270 03B78700 		ld	a4,8(a5)
 441 0274 3307D700 		add	a4,a4,a3
 442 0278 23B4E700 		sd	a4,8(a5)
 443              	.L34:
  63:src/_Sleep.cpp ****     delete ret;
 444              		.loc 1 63 5 is_stmt 1
 445              		.loc 1 63 12 is_stmt 0
 446 027c 97000000 		call	_ZN6_Sleep4NodedlEPv
 446      E7800000 
 447              	.LVL42:
  64:src/_Sleep.cpp ****     return 0;
 448              		.loc 1 64 5 is_stmt 1
 449              		.loc 1 64 12 is_stmt 0
 450 0284 13050000 		li	a0,0
  65:src/_Sleep.cpp **** }...
 451              		.loc 1 65 1
 452 0288 83308100 		ld	ra,8(sp)
 453              		.cfi_remember_state
 454              		.cfi_restore 1
 455 028c 03340100 		ld	s0,0(sp)
 456              		.cfi_restore 8
GAS LISTING /tmp/ccYRWKA3.s 			page 11


 457              		.cfi_def_cfa 2, 16
 458 0290 13010101 		addi	sp,sp,16
 459              		.cfi_def_cfa_offset 0
 460 0294 67800000 		jr	ra
 461              	.LVL43:
 462              	.L32:
 463              		.cfi_restore_state
  60:src/_Sleep.cpp ****     else first = cur->next;
 464              		.loc 1 60 10 is_stmt 1
  60:src/_Sleep.cpp ****     else first = cur->next;
 465              		.loc 1 60 23 is_stmt 0
 466 0298 83370501 		ld	a5,16(a0)
  60:src/_Sleep.cpp ****     else first = cur->next;
 467              		.loc 1 60 16
 468 029c 17070000 		sd	a5,.LANCHOR0+8,a4
 468      2330F700 
 469              	.LVL44:
 470 02a4 6FF01FFC 		j	.L33
 471              	.LVL45:
 472              	.L35:
 473              		.cfi_def_cfa_register 2
 474              		.cfi_restore 1
 475              		.cfi_restore 8
  58:src/_Sleep.cpp ****     if (!cur) return -1;
 476              		.loc 1 58 23
 477 02a8 1305F0FF 		li	a0,-1
 478              	.LVL46:
 479              		.loc 1 65 1
 480 02ac 67800000 		ret
 481              		.cfi_endproc
 482              	.LFE16:
 484              		.globl	_ZN6_Sleep5firstE
 485              		.globl	_ZN6_Sleep4Node5cacheE
 486              		.bss
 487              		.align	3
 488              		.set	.LANCHOR0,. + 0
 491              	_ZN6_Sleep4Node5cacheE:
 492 0000 00000000 		.zero	8
 492      00000000 
 495              	_ZN6_Sleep5firstE:
 496 0008 00000000 		.zero	8
 496      00000000 
 497              		.text
 498              	.Letext0:
 499              		.file 3 "src/../h/../lib/hw.h"
 500              		.file 4 "src/../h/types.h"
 501              		.file 5 "src/../h/_Thread.h"
 502              		.file 6 "src/../h/_slab.h"
GAS LISTING /tmp/ccYRWKA3.s 			page 12

