GAS LISTING /tmp/ccK3Ad2o.s 			page 1


   1              		.file	"_ThreadPriorityQueue.cpp"
   2              		.option pic
   3              		.option norelax
   4              		.text
   5              	.Ltext0:
   6              		.section	.rodata.str1.8,"aMS",@progbits,1
   7              		.align	3
   8              	.LC0:
   9 0000 54687265 		.string	"Thread_priority_queue::Node"
   9      61645F70 
   9      72696F72 
   9      6974795F 
   9      71756575 
  10              		.text
  11              		.align	2
  12              		.globl	_ZN20_ThreadPriorityQueue4NodenwEm
  14              	_ZN20_ThreadPriorityQueue4NodenwEm:
  15              	.LFB8:
  16              		.file 1 "src/_ThreadPriorityQueue.cpp"
   1:src/_ThreadPriorityQueue.cpp **** //
   2:src/_ThreadPriorityQueue.cpp **** // Created by os on 5/30/22.
   3:src/_ThreadPriorityQueue.cpp **** //
   4:src/_ThreadPriorityQueue.cpp **** 
   5:src/_ThreadPriorityQueue.cpp **** 
   6:src/_ThreadPriorityQueue.cpp **** #include "../h/_ThreadPriorityQueue.h"
   7:src/_ThreadPriorityQueue.cpp **** #include "../h/_Thread.h"
   8:src/_ThreadPriorityQueue.cpp **** #include "../h/_Mem.h"
   9:src/_ThreadPriorityQueue.cpp **** 
  10:src/_ThreadPriorityQueue.cpp **** kmem_cache_t* _ThreadPriorityQueue::Node::cache = nullptr;
  11:src/_ThreadPriorityQueue.cpp **** void* _ThreadPriorityQueue::Node::operator new(size_t size) {
  17              		.loc 1 11 61
  18              		.cfi_startproc
  19              	.LVL0:
  20 0000 130101FF 		addi	sp,sp,-16
  21              		.cfi_def_cfa_offset 16
  22 0004 23341100 		sd	ra,8(sp)
  23 0008 23308100 		sd	s0,0(sp)
  24              		.cfi_offset 1, -8
  25              		.cfi_offset 8, -16
  26 000c 13040101 		addi	s0,sp,16
  27              		.cfi_def_cfa 8, 0
  12:src/_ThreadPriorityQueue.cpp ****     if (!cache) cache = kmem_cache_create("Thread_priority_queue::Node", sizeof(_ThreadPriorityQueu
  28              		.loc 1 12 5
  29              		.loc 1 12 9 is_stmt 0
  30 0010 97070000 		ld	a5,.LANCHOR0
  30      83B70700 
  31              		.loc 1 12 5
  32 0018 63820702 		beqz	a5,.L4
  33              	.LVL1:
  34              	.L2:
  13:src/_ThreadPriorityQueue.cpp ****     return kmem_cache_alloc(cache);
  35              		.loc 1 13 5 is_stmt 1
  36              		.loc 1 13 28 is_stmt 0
  37 001c 17050000 		ld	a0,.LANCHOR0
  37      03350500 
  38 0024 97000000 		call	_Z16kmem_cache_allocP12kmem_cache_t@plt
  38      E7800000 
GAS LISTING /tmp/ccK3Ad2o.s 			page 2


  39              	.LVL2:
  14:src/_ThreadPriorityQueue.cpp **** }
  40              		.loc 1 14 1
  41 002c 83308100 		ld	ra,8(sp)
  42              		.cfi_remember_state
  43              		.cfi_restore 1
  44 0030 03340100 		ld	s0,0(sp)
  45              		.cfi_restore 8
  46              		.cfi_def_cfa 2, 16
  47 0034 13010101 		addi	sp,sp,16
  48              		.cfi_def_cfa_offset 0
  49 0038 67800000 		jr	ra
  50              	.LVL3:
  51              	.L4:
  52              		.cfi_restore_state
  12:src/_ThreadPriorityQueue.cpp ****     if (!cache) cache = kmem_cache_create("Thread_priority_queue::Node", sizeof(_ThreadPriorityQueu
  53              		.loc 1 12 17 is_stmt 1 discriminator 1
  12:src/_ThreadPriorityQueue.cpp ****     if (!cache) cache = kmem_cache_create("Thread_priority_queue::Node", sizeof(_ThreadPriorityQueu
  54              		.loc 1 12 42 is_stmt 0 discriminator 1
  55 003c 93060000 		li	a3,0
  56 0040 13060000 		li	a2,0
  57 0044 93058001 		li	a1,24
  58 0048 17050000 		lla	a0,.LC0
  58      13050500 
  59              	.LVL4:
  60 0050 97000000 		call	_Z17kmem_cache_createPKcmPFvPvES3_@plt
  60      E7800000 
  61              	.LVL5:
  12:src/_ThreadPriorityQueue.cpp ****     if (!cache) cache = kmem_cache_create("Thread_priority_queue::Node", sizeof(_ThreadPriorityQueu
  62              		.loc 1 12 23 discriminator 1
  63 0058 97070000 		sd	a0,.LANCHOR0,a5
  63      23B0A700 
  64 0060 6FF0DFFB 		j	.L2
  65              		.cfi_endproc
  66              	.LFE8:
  68              		.align	2
  69              		.globl	_ZN20_ThreadPriorityQueue4NodedlEPv
  71              	_ZN20_ThreadPriorityQueue4NodedlEPv:
  72              	.LFB9:
  15:src/_ThreadPriorityQueue.cpp **** void _ThreadPriorityQueue::Node::operator delete(void* addr) {
  73              		.loc 1 15 62 is_stmt 1
  74              		.cfi_startproc
  75              	.LVL6:
  76 0064 130101FF 		addi	sp,sp,-16
  77              		.cfi_def_cfa_offset 16
  78 0068 23341100 		sd	ra,8(sp)
  79 006c 23308100 		sd	s0,0(sp)
  80              		.cfi_offset 1, -8
  81              		.cfi_offset 8, -16
  82 0070 13040101 		addi	s0,sp,16
  83              		.cfi_def_cfa 8, 0
  84 0074 93050500 		mv	a1,a0
  16:src/_ThreadPriorityQueue.cpp ****     kmem_cache_free(cache, addr);
  85              		.loc 1 16 5
  86              		.loc 1 16 20 is_stmt 0
  87 0078 17050000 		ld	a0,.LANCHOR0
  87      03350500 
GAS LISTING /tmp/ccK3Ad2o.s 			page 3


  88              	.LVL7:
  89 0080 97000000 		call	_Z15kmem_cache_freeP12kmem_cache_tPv@plt
  89      E7800000 
  90              	.LVL8:
  17:src/_ThreadPriorityQueue.cpp **** }
  91              		.loc 1 17 1
  92 0088 83308100 		ld	ra,8(sp)
  93              		.cfi_restore 1
  94 008c 03340100 		ld	s0,0(sp)
  95              		.cfi_restore 8
  96              		.cfi_def_cfa 2, 16
  97 0090 13010101 		addi	sp,sp,16
  98              		.cfi_def_cfa_offset 0
  99 0094 67800000 		jr	ra
 100              		.cfi_endproc
 101              	.LFE9:
 103              		.section	.rodata.str1.8
 104 001c 00000000 		.align	3
 105              	.LC1:
 106 0020 54687265 		.string	"Thread_priority_queue Cache"
 106      61645F70 
 106      72696F72 
 106      6974795F 
 106      71756575 
 107              		.text
 108              		.align	2
 109              		.globl	_ZN20_ThreadPriorityQueuenwEm
 111              	_ZN20_ThreadPriorityQueuenwEm:
 112              	.LFB10:
  18:src/_ThreadPriorityQueue.cpp **** 
  19:src/_ThreadPriorityQueue.cpp **** kmem_cache_t* _ThreadPriorityQueue::cache = nullptr;
  20:src/_ThreadPriorityQueue.cpp **** void* _ThreadPriorityQueue::operator new(size_t size) {
 113              		.loc 1 20 55 is_stmt 1
 114              		.cfi_startproc
 115              	.LVL9:
 116 0098 130101FF 		addi	sp,sp,-16
 117              		.cfi_def_cfa_offset 16
 118 009c 23341100 		sd	ra,8(sp)
 119 00a0 23308100 		sd	s0,0(sp)
 120              		.cfi_offset 1, -8
 121              		.cfi_offset 8, -16
 122 00a4 13040101 		addi	s0,sp,16
 123              		.cfi_def_cfa 8, 0
  21:src/_ThreadPriorityQueue.cpp ****     if (!cache) cache = kmem_cache_create("Thread_priority_queue Cache", sizeof(_ThreadPriorityQueu
 124              		.loc 1 21 5
 125              		.loc 1 21 9 is_stmt 0
 126 00a8 97070000 		ld	a5,.LANCHOR0+8
 126      83B70700 
 127              		.loc 1 21 5
 128 00b0 63820702 		beqz	a5,.L10
 129              	.LVL10:
 130              	.L8:
  22:src/_ThreadPriorityQueue.cpp ****     return kmem_cache_alloc(cache);
 131              		.loc 1 22 5 is_stmt 1
 132              		.loc 1 22 28 is_stmt 0
 133 00b4 17050000 		ld	a0,.LANCHOR0+8
 133      03350500 
GAS LISTING /tmp/ccK3Ad2o.s 			page 4


 134 00bc 97000000 		call	_Z16kmem_cache_allocP12kmem_cache_t@plt
 134      E7800000 
 135              	.LVL11:
  23:src/_ThreadPriorityQueue.cpp **** }
 136              		.loc 1 23 1
 137 00c4 83308100 		ld	ra,8(sp)
 138              		.cfi_remember_state
 139              		.cfi_restore 1
 140 00c8 03340100 		ld	s0,0(sp)
 141              		.cfi_restore 8
 142              		.cfi_def_cfa 2, 16
 143 00cc 13010101 		addi	sp,sp,16
 144              		.cfi_def_cfa_offset 0
 145 00d0 67800000 		jr	ra
 146              	.LVL12:
 147              	.L10:
 148              		.cfi_restore_state
  21:src/_ThreadPriorityQueue.cpp ****     if (!cache) cache = kmem_cache_create("Thread_priority_queue Cache", sizeof(_ThreadPriorityQueu
 149              		.loc 1 21 17 is_stmt 1 discriminator 1
  21:src/_ThreadPriorityQueue.cpp ****     if (!cache) cache = kmem_cache_create("Thread_priority_queue Cache", sizeof(_ThreadPriorityQueu
 150              		.loc 1 21 42 is_stmt 0 discriminator 1
 151 00d4 93060000 		li	a3,0
 152 00d8 13060000 		li	a2,0
 153 00dc 93050001 		li	a1,16
 154 00e0 17050000 		lla	a0,.LC1
 154      13050500 
 155              	.LVL13:
 156 00e8 97000000 		call	_Z17kmem_cache_createPKcmPFvPvES3_@plt
 156      E7800000 
 157              	.LVL14:
  21:src/_ThreadPriorityQueue.cpp ****     if (!cache) cache = kmem_cache_create("Thread_priority_queue Cache", sizeof(_ThreadPriorityQueu
 158              		.loc 1 21 23 discriminator 1
 159 00f0 97070000 		sd	a0,.LANCHOR0+8,a5
 159      23B0A700 
 160 00f8 6FF0DFFB 		j	.L8
 161              		.cfi_endproc
 162              	.LFE10:
 164              		.align	2
 165              		.globl	_ZN20_ThreadPriorityQueuedlEPv
 167              	_ZN20_ThreadPriorityQueuedlEPv:
 168              	.LFB11:
  24:src/_ThreadPriorityQueue.cpp **** void _ThreadPriorityQueue::operator delete(void* addr) {
 169              		.loc 1 24 56 is_stmt 1
 170              		.cfi_startproc
 171              	.LVL15:
 172 00fc 130101FF 		addi	sp,sp,-16
 173              		.cfi_def_cfa_offset 16
 174 0100 23341100 		sd	ra,8(sp)
 175 0104 23308100 		sd	s0,0(sp)
 176              		.cfi_offset 1, -8
 177              		.cfi_offset 8, -16
 178 0108 13040101 		addi	s0,sp,16
 179              		.cfi_def_cfa 8, 0
 180 010c 93050500 		mv	a1,a0
  25:src/_ThreadPriorityQueue.cpp ****     kmem_cache_free(cache, addr);
 181              		.loc 1 25 5
 182              		.loc 1 25 20 is_stmt 0
GAS LISTING /tmp/ccK3Ad2o.s 			page 5


 183 0110 17050000 		ld	a0,.LANCHOR0+8
 183      03350500 
 184              	.LVL16:
 185 0118 97000000 		call	_Z15kmem_cache_freeP12kmem_cache_tPv@plt
 185      E7800000 
 186              	.LVL17:
  26:src/_ThreadPriorityQueue.cpp **** }
 187              		.loc 1 26 1
 188 0120 83308100 		ld	ra,8(sp)
 189              		.cfi_restore 1
 190 0124 03340100 		ld	s0,0(sp)
 191              		.cfi_restore 8
 192              		.cfi_def_cfa 2, 16
 193 0128 13010101 		addi	sp,sp,16
 194              		.cfi_def_cfa_offset 0
 195 012c 67800000 		jr	ra
 196              		.cfi_endproc
 197              	.LFE11:
 199              		.align	2
 200              		.globl	_ZN20_ThreadPriorityQueue3addEP7_Thread
 202              	_ZN20_ThreadPriorityQueue3addEP7_Thread:
 203              	.LFB12:
  27:src/_ThreadPriorityQueue.cpp **** 
  28:src/_ThreadPriorityQueue.cpp **** int _ThreadPriorityQueue::add(thread_t thread) {
 204              		.loc 1 28 48 is_stmt 1
 205              		.cfi_startproc
 206              	.LVL18:
 207 0130 130101FD 		addi	sp,sp,-48
 208              		.cfi_def_cfa_offset 48
 209 0134 23341102 		sd	ra,40(sp)
 210 0138 23308102 		sd	s0,32(sp)
 211 013c 233C9100 		sd	s1,24(sp)
 212 0140 23382101 		sd	s2,16(sp)
 213 0144 23343101 		sd	s3,8(sp)
 214              		.cfi_offset 1, -8
 215              		.cfi_offset 8, -16
 216              		.cfi_offset 9, -24
 217              		.cfi_offset 18, -32
 218              		.cfi_offset 19, -40
 219 0148 13040103 		addi	s0,sp,48
 220              		.cfi_def_cfa 8, 0
 221 014c 93090500 		mv	s3,a0
 222 0150 13890500 		mv	s2,a1
  29:src/_ThreadPriorityQueue.cpp ****     Node* cur = new Node(thread);
 223              		.loc 1 29 5
 224              		.loc 1 29 32 is_stmt 0
 225 0154 13058001 		li	a0,24
 226              	.LVL19:
 227 0158 97000000 		call	_ZN20_ThreadPriorityQueue4NodenwEm
 227      E7800000 
 228              	.LVL20:
 229 0160 93040500 		mv	s1,a0
 230 0164 63080500 		beqz	a0,.L14
 231              	.LVL21:
 232              	.LBB9:
 233              	.LBB10:
 234              		.file 2 "src/../h/_ThreadPriorityQueue.h"
GAS LISTING /tmp/ccK3Ad2o.s 			page 6


   1:src/../h/_ThreadPriorityQueue.h **** //
   2:src/../h/_ThreadPriorityQueue.h **** // Created by os on 5/30/22.
   3:src/../h/_ThreadPriorityQueue.h **** //
   4:src/../h/_ThreadPriorityQueue.h **** 
   5:src/../h/_ThreadPriorityQueue.h **** #ifndef PROJECT_BASE__THREAD_PRIORITY_QUEUE_H
   6:src/../h/_ThreadPriorityQueue.h **** #define PROJECT_BASE__THREAD_PRIORITY_QUEUE_H
   7:src/../h/_ThreadPriorityQueue.h **** #include "types.h"
   8:src/../h/_ThreadPriorityQueue.h **** #include "_slab.h"
   9:src/../h/_ThreadPriorityQueue.h **** class _ThreadPriorityQueue {
  10:src/../h/_ThreadPriorityQueue.h ****     struct Node {
  11:src/../h/_ThreadPriorityQueue.h ****         thread_t thread;
  12:src/../h/_ThreadPriorityQueue.h ****         Node* next;
  13:src/../h/_ThreadPriorityQueue.h ****         Node* prev;
  14:src/../h/_ThreadPriorityQueue.h ****         Node(thread_t thread) : thread(thread), next(0), prev(0) {}
 235              		.loc 2 14 64
 236 0168 23302501 		sd	s2,0(a0)
 237 016c 23340500 		sd	zero,8(a0)
 238 0170 23380500 		sd	zero,16(a0)
 239              	.LVL22:
 240              	.L14:
 241              	.LBE10:
 242              	.LBE9:
  30:src/_ThreadPriorityQueue.cpp ****     if (!cur) return -1;
 243              		.loc 1 30 5 is_stmt 1 discriminator 4
 244 0174 638A0408 		beqz	s1,.L22
  31:src/_ThreadPriorityQueue.cpp ****     Node* prev, *next;
 245              		.loc 1 31 5
  32:src/_ThreadPriorityQueue.cpp ****     if (thread->top()) {
 246              		.loc 1 32 5
 247              		.loc 1 32 20 is_stmt 0
 248 0178 13050900 		mv	a0,s2
 249 017c 97000000 		call	_ZN7_Thread3topEv@plt
 249      E7800000 
 250              	.LVL23:
 251              		.loc 1 32 5
 252 0184 63020504 		beqz	a0,.L16
  33:src/_ThreadPriorityQueue.cpp ****         prev = nullptr, next = first;
 253              		.loc 1 33 9 is_stmt 1
 254              	.LVL24:
 255              		.loc 1 33 30 is_stmt 0
 256 0188 03B60900 		ld	a2,0(s3)
 257              	.LVL25:
 258              		.loc 1 33 14
 259 018c 93070000 		li	a5,0
 260              	.LVL26:
 261              	.L17:
  34:src/_ThreadPriorityQueue.cpp ****     }
  35:src/_ThreadPriorityQueue.cpp ****     else {
  36:src/_ThreadPriorityQueue.cpp ****         prev = last, next = nullptr;
  37:src/_ThreadPriorityQueue.cpp ****         while (prev && prev->thread->getPriority() < thread->getPriority()) {
  38:src/_ThreadPriorityQueue.cpp ****             next = prev; prev = prev->prev;
  39:src/_ThreadPriorityQueue.cpp ****         }
  40:src/_ThreadPriorityQueue.cpp ****     }
  41:src/_ThreadPriorityQueue.cpp ****     cur->next = next;
 262              		.loc 1 41 5 is_stmt 1
 263              		.loc 1 41 15 is_stmt 0
 264 0190 23B4C400 		sd	a2,8(s1)
GAS LISTING /tmp/ccK3Ad2o.s 			page 7


  42:src/_ThreadPriorityQueue.cpp ****     if (next) next->prev = cur;
 265              		.loc 1 42 5 is_stmt 1
 266 0194 63000606 		beqz	a2,.L19
 267              		.loc 1 42 15 discriminator 1
 268              		.loc 1 42 26 is_stmt 0 discriminator 1
 269 0198 23389600 		sd	s1,16(a2)
 270              	.L20:
  43:src/_ThreadPriorityQueue.cpp ****     else last = cur;
  44:src/_ThreadPriorityQueue.cpp ****     cur->prev = prev;
 271              		.loc 1 44 5 is_stmt 1
 272              		.loc 1 44 15 is_stmt 0
 273 019c 23B8F400 		sd	a5,16(s1)
  45:src/_ThreadPriorityQueue.cpp ****     if (prev) prev->next = cur;
 274              		.loc 1 45 5 is_stmt 1
 275 01a0 638E0704 		beqz	a5,.L21
 276              		.loc 1 45 15 discriminator 1
 277              		.loc 1 45 26 is_stmt 0 discriminator 1
 278 01a4 23B49700 		sd	s1,8(a5)
  46:src/_ThreadPriorityQueue.cpp ****     else first = cur;
  47:src/_ThreadPriorityQueue.cpp ****     return 0;
 279              		.loc 1 47 12 discriminator 1
 280 01a8 13050000 		li	a0,0
 281              	.LVL27:
 282              	.L15:
  48:src/_ThreadPriorityQueue.cpp **** }
 283              		.loc 1 48 1
 284 01ac 83308102 		ld	ra,40(sp)
 285              		.cfi_remember_state
 286              		.cfi_restore 1
 287 01b0 03340102 		ld	s0,32(sp)
 288              		.cfi_restore 8
 289              		.cfi_def_cfa 2, 48
 290 01b4 83348101 		ld	s1,24(sp)
 291              		.cfi_restore 9
 292              	.LVL28:
 293 01b8 03390101 		ld	s2,16(sp)
 294              		.cfi_restore 18
 295              	.LVL29:
 296 01bc 83398100 		ld	s3,8(sp)
 297              		.cfi_restore 19
 298              	.LVL30:
 299 01c0 13010103 		addi	sp,sp,48
 300              		.cfi_def_cfa_offset 0
 301 01c4 67800000 		jr	ra
 302              	.LVL31:
 303              	.L16:
 304              		.cfi_restore_state
  36:src/_ThreadPriorityQueue.cpp ****         while (prev && prev->thread->getPriority() < thread->getPriority()) {
 305              		.loc 1 36 9 is_stmt 1
  36:src/_ThreadPriorityQueue.cpp ****         while (prev && prev->thread->getPriority() < thread->getPriority()) {
 306              		.loc 1 36 14 is_stmt 0
 307 01c8 83B78900 		ld	a5,8(s3)
 308              	.LVL32:
  36:src/_ThreadPriorityQueue.cpp ****         while (prev && prev->thread->getPriority() < thread->getPriority()) {
 309              		.loc 1 36 27
 310 01cc 13060000 		li	a2,0
 311 01d0 6F00C000 		j	.L18
GAS LISTING /tmp/ccK3Ad2o.s 			page 8


 312              	.LVL33:
 313              	.L24:
  38:src/_ThreadPriorityQueue.cpp ****         }
 314              		.loc 1 38 13 is_stmt 1
  38:src/_ThreadPriorityQueue.cpp ****         }
 315              		.loc 1 38 26
  38:src/_ThreadPriorityQueue.cpp ****         }
 316              		.loc 1 38 18 is_stmt 0
 317 01d4 13860700 		mv	a2,a5
  38:src/_ThreadPriorityQueue.cpp ****         }
 318              		.loc 1 38 31
 319 01d8 83B70701 		ld	a5,16(a5)
 320              	.LVL34:
 321              	.L18:
  37:src/_ThreadPriorityQueue.cpp ****             next = prev; prev = prev->prev;
 322              		.loc 1 37 9 is_stmt 1
  37:src/_ThreadPriorityQueue.cpp ****             next = prev; prev = prev->prev;
 323              		.loc 1 37 21
 324 01dc E38A07FA 		beqz	a5,.L17
  37:src/_ThreadPriorityQueue.cpp ****             next = prev; prev = prev->prev;
 325              		.loc 1 37 30 is_stmt 0 discriminator 1
 326 01e0 03B70700 		ld	a4,0(a5)
 327              	.LVL35:
 328              	.LBB11:
 329              	.LBB12:
 330              		.file 3 "src/../h/_Thread.h"
   1:src/../h/_Thread.h **** //
   2:src/../h/_Thread.h **** // Created by os on 5/2/22.
   3:src/../h/_Thread.h **** //
   4:src/../h/_Thread.h **** 
   5:src/../h/_Thread.h **** #ifndef PROJECT_BASE__THREAD_H
   6:src/../h/_Thread.h **** #define PROJECT_BASE__THREAD_H
   7:src/../h/_Thread.h **** #include "../lib/hw.h"
   8:src/../h/_Thread.h **** #include "types.h"
   9:src/../h/_Thread.h **** #include "_slab.h"
  10:src/../h/_Thread.h **** class _WaitManager;
  11:src/../h/_Thread.h **** 
  12:src/../h/_Thread.h **** class _Thread{
  13:src/../h/_Thread.h ****     void* sp, *ssp, *sptop, *ssptop;//sptop i ssptop pokazuju na adresu vrha (tj. dna) steka, tj. n
  14:src/../h/_Thread.h ****     //vracenu iz mem_alloc
  15:src/../h/_Thread.h ****     uint64 pc;//ovde se cuva pc kad se menja kontekst
  16:src/../h/_Thread.h ****     unsigned flags; //7 - interrupted, 6 - limitReached, 5 - daemon, 4 - parentjoin, 3 - finished, 
  17:src/../h/_Thread.h ****     int priority;
  18:src/../h/_Thread.h ****     thread_t parent;
  19:src/../h/_Thread.h ****     void* returnValue;
  20:src/../h/_Thread.h ****     _WaitManager* waitManager;
  21:src/../h/_Thread.h **** 
  22:src/../h/_Thread.h ****     static kmem_cache_t* cache;
  23:src/../h/_Thread.h **** public:
  24:src/../h/_Thread.h ****     void* operator new(size_t);
  25:src/../h/_Thread.h ****     void operator delete(void* addr);
  26:src/../h/_Thread.h ****     _Thread(void* (*startRoutine)(void*), void* arg, void* sp, size_t stackSize, int priority = NOR
  27:src/../h/_Thread.h ****     _Thread(void* (*startRoutine)(void*), void* arg, size_t stackSize, int priority = NORM_PRIORITY
  28:src/../h/_Thread.h ****     _Thread(void* (*startRoutine)(void*), void* arg, int priority = NORM_PRIORITY, bool daemon = fa
  29:src/../h/_Thread.h ****     _Thread();
  30:src/../h/_Thread.h ****     ~_Thread();
  31:src/../h/_Thread.h **** 
GAS LISTING /tmp/ccK3Ad2o.s 			page 9


  32:src/../h/_Thread.h ****     //OSNOVNE METODE
  33:src/../h/_Thread.h ****     static int create(thread_t* handle, void* (*startRoutine)(void*), void* arg, void* stackSpace, 
  34:src/../h/_Thread.h ****     static int create(thread_t* handle, void* (*startRoutine)(void*), void* arg, size_t stackSize, 
  35:src/../h/_Thread.h ****     static int create(thread_t* handle, void* (*startRoutine)(void*), void* arg, int priority, int 
  36:src/../h/_Thread.h ****     static int create(thread_t* handle, void (*startRoutine)(void*), void* arg, void* stack_space, 
  37:src/../h/_Thread.h ****     static int create(thread_t* handle, void (*startRoutine)(void*), void* arg, size_t stackSize, i
  38:src/../h/_Thread.h ****     static int create(thread_t* handle, void (*startRoutine)(void*), void* arg, int priority, int o
  39:src/../h/_Thread.h ****     static int create(thread_t* handle, void (*startRoutine)(void), void* stack_space, size_t stack
  40:src/../h/_Thread.h ****     static int create(thread_t* handle, void (*startRoutine)(void), size_t stackSize, int priority,
  41:src/../h/_Thread.h ****     static int create(thread_t* handle, void (*startRoutine)(void), int priority, int options);
  42:src/../h/_Thread.h **** 
  43:src/../h/_Thread.h ****     static int exit(void* ret);
  44:src/../h/_Thread.h ****     static void abort();
  45:src/../h/_Thread.h ****     static void dispatch();
  46:src/../h/_Thread.h ****     static void safeDispatch();
  47:src/../h/_Thread.h ****     static int timeSleep(time_t time);
  48:src/../h/_Thread.h ****     int getPriority() { return priority; }
 331              		.loc 3 48 25 is_stmt 1 discriminator 1
 332              		.loc 3 48 32 is_stmt 0 discriminator 1
 333 01e4 8326C702 		lw	a3,44(a4)
 334              	.LVL36:
 335              	.LBE12:
 336              	.LBE11:
 337              	.LBB13:
 338              	.LBB14:
 339              		.loc 3 48 25 is_stmt 1 discriminator 1
 340              		.loc 3 48 32 is_stmt 0 discriminator 1
 341 01e8 0327C902 		lw	a4,44(s2)
 342              	.LVL37:
 343              	.LBE14:
 344              	.LBE13:
  37:src/_ThreadPriorityQueue.cpp ****             next = prev; prev = prev->prev;
 345              		.loc 1 37 21 discriminator 1
 346 01ec E3C4E6FE 		blt	a3,a4,.L24
 347 01f0 6FF01FFA 		j	.L17
 348              	.L19:
  43:src/_ThreadPriorityQueue.cpp ****     cur->prev = prev;
 349              		.loc 1 43 10 is_stmt 1
  43:src/_ThreadPriorityQueue.cpp ****     cur->prev = prev;
 350              		.loc 1 43 15 is_stmt 0
 351 01f4 23B49900 		sd	s1,8(s3)
 352 01f8 6FF05FFA 		j	.L20
 353              	.L21:
  46:src/_ThreadPriorityQueue.cpp ****     return 0;
 354              		.loc 1 46 10 is_stmt 1
  46:src/_ThreadPriorityQueue.cpp ****     return 0;
 355              		.loc 1 46 16 is_stmt 0
 356 01fc 23B09900 		sd	s1,0(s3)
  47:src/_ThreadPriorityQueue.cpp **** }
 357              		.loc 1 47 12
 358 0200 13050000 		li	a0,0
 359 0204 6FF09FFA 		j	.L15
 360              	.LVL38:
 361              	.L22:
  30:src/_ThreadPriorityQueue.cpp ****     Node* prev, *next;
 362              		.loc 1 30 23
 363 0208 1305F0FF 		li	a0,-1
GAS LISTING /tmp/ccK3Ad2o.s 			page 10


 364 020c 6FF01FFA 		j	.L15
 365              		.cfi_endproc
 366              	.LFE12:
 368              		.align	2
 369              		.globl	_ZN20_ThreadPriorityQueue6removeEv
 371              	_ZN20_ThreadPriorityQueue6removeEv:
 372              	.LFB13:
  49:src/_ThreadPriorityQueue.cpp **** thread_t _ThreadPriorityQueue::remove() {
 373              		.loc 1 49 41 is_stmt 1
 374              		.cfi_startproc
 375              	.LVL39:
 376 0210 130101FE 		addi	sp,sp,-32
 377              		.cfi_def_cfa_offset 32
 378 0214 233C1100 		sd	ra,24(sp)
 379 0218 23388100 		sd	s0,16(sp)
 380 021c 23349100 		sd	s1,8(sp)
 381              		.cfi_offset 1, -8
 382              		.cfi_offset 8, -16
 383              		.cfi_offset 9, -24
 384 0220 13040102 		addi	s0,sp,32
 385              		.cfi_def_cfa 8, 0
 386 0224 93070500 		mv	a5,a0
  50:src/_ThreadPriorityQueue.cpp ****     if (!first) return nullptr;
 387              		.loc 1 50 5
 388              		.loc 1 50 10 is_stmt 0
 389 0228 03350500 		ld	a0,0(a0)
 390              	.LVL40:
 391              		.loc 1 50 5
 392 022c 63000504 		beqz	a0,.L29
  51:src/_ThreadPriorityQueue.cpp ****     thread_t ret = first->thread;
 393              		.loc 1 51 5 is_stmt 1
 394              		.loc 1 51 14 is_stmt 0
 395 0230 83340500 		ld	s1,0(a0)
 396              	.LVL41:
  52:src/_ThreadPriorityQueue.cpp ****     Node* node = first;
 397              		.loc 1 52 5 is_stmt 1
  53:src/_ThreadPriorityQueue.cpp ****     first = node->next;
 398              		.loc 1 53 5
 399              		.loc 1 53 19 is_stmt 0
 400 0234 03378500 		ld	a4,8(a0)
 401              		.loc 1 53 11
 402 0238 23B0E700 		sd	a4,0(a5)
  54:src/_ThreadPriorityQueue.cpp ****     if (first) first->prev = nullptr;
 403              		.loc 1 54 5 is_stmt 1
 404 023c 63040702 		beqz	a4,.L27
 405              		.loc 1 54 16 discriminator 1
 406              		.loc 1 54 28 is_stmt 0 discriminator 1
 407 0240 23380700 		sd	zero,16(a4)
 408              	.L28:
  55:src/_ThreadPriorityQueue.cpp ****     else last = nullptr;
  56:src/_ThreadPriorityQueue.cpp ****     delete node;
 409              		.loc 1 56 5 is_stmt 1
 410              		.loc 1 56 12 is_stmt 0
 411 0244 97000000 		call	_ZN20_ThreadPriorityQueue4NodedlEPv
 411      E7800000 
 412              	.LVL42:
  57:src/_ThreadPriorityQueue.cpp ****     return ret;
GAS LISTING /tmp/ccK3Ad2o.s 			page 11


 413              		.loc 1 57 5 is_stmt 1
 414              	.L25:
  58:src/_ThreadPriorityQueue.cpp **** }
 415              		.loc 1 58 1 is_stmt 0
 416 024c 13850400 		mv	a0,s1
 417 0250 83308101 		ld	ra,24(sp)
 418              		.cfi_remember_state
 419              		.cfi_restore 1
 420 0254 03340101 		ld	s0,16(sp)
 421              		.cfi_restore 8
 422              		.cfi_def_cfa 2, 32
 423 0258 83348100 		ld	s1,8(sp)
 424              		.cfi_restore 9
 425 025c 13010102 		addi	sp,sp,32
 426              		.cfi_def_cfa_offset 0
 427 0260 67800000 		jr	ra
 428              	.LVL43:
 429              	.L27:
 430              		.cfi_restore_state
  55:src/_ThreadPriorityQueue.cpp ****     else last = nullptr;
 431              		.loc 1 55 10 is_stmt 1
  55:src/_ThreadPriorityQueue.cpp ****     else last = nullptr;
 432              		.loc 1 55 15 is_stmt 0
 433 0264 23B40700 		sd	zero,8(a5)
 434 0268 6FF0DFFD 		j	.L28
 435              	.LVL44:
 436              	.L29:
  50:src/_ThreadPriorityQueue.cpp ****     thread_t ret = first->thread;
 437              		.loc 1 50 24
 438 026c 93040500 		mv	s1,a0
 439 0270 6FF0DFFD 		j	.L25
 440              		.cfi_endproc
 441              	.LFE13:
 443              		.align	2
 444              		.globl	_ZN20_ThreadPriorityQueue5emptyEv
 446              	_ZN20_ThreadPriorityQueue5emptyEv:
 447              	.LFB14:
  59:src/_ThreadPriorityQueue.cpp **** int _ThreadPriorityQueue::empty() {
 448              		.loc 1 59 35 is_stmt 1
 449              		.cfi_startproc
 450              	.LVL45:
 451 0274 130101FF 		addi	sp,sp,-16
 452              		.cfi_def_cfa_offset 16
 453 0278 23348100 		sd	s0,8(sp)
 454              		.cfi_offset 8, -8
 455 027c 13040101 		addi	s0,sp,16
 456              		.cfi_def_cfa 8, 0
  60:src/_ThreadPriorityQueue.cpp ****     return !first;
 457              		.loc 1 60 5
 458              		.loc 1 60 13 is_stmt 0
 459 0280 03350500 		ld	a0,0(a0)
 460              	.LVL46:
  61:src/_ThreadPriorityQueue.cpp **** }...
 461              		.loc 1 61 1
 462 0284 13351500 		seqz	a0,a0
 463 0288 03348100 		ld	s0,8(sp)
 464              		.cfi_restore 8
GAS LISTING /tmp/ccK3Ad2o.s 			page 12


 465              		.cfi_def_cfa 2, 16
 466 028c 13010101 		addi	sp,sp,16
 467              		.cfi_def_cfa_offset 0
 468 0290 67800000 		jr	ra
 469              		.cfi_endproc
 470              	.LFE14:
 472              		.globl	_ZN20_ThreadPriorityQueue5cacheE
 473              		.globl	_ZN20_ThreadPriorityQueue4Node5cacheE
 474              		.bss
 475              		.align	3
 476              		.set	.LANCHOR0,. + 0
 479              	_ZN20_ThreadPriorityQueue4Node5cacheE:
 480 0000 00000000 		.zero	8
 480      00000000 
 483              	_ZN20_ThreadPriorityQueue5cacheE:
 484 0008 00000000 		.zero	8
 484      00000000 
 485              		.text
 486              	.Letext0:
 487              		.file 4 "src/../h/../lib/hw.h"
 488              		.file 5 "src/../h/types.h"
 489              		.file 6 "src/../h/_slab.h"
GAS LISTING /tmp/ccK3Ad2o.s 			page 13


DEFINED SYMBOLS
                            *ABS*:0000000000000000 _ThreadPriorityQueue.cpp
     /tmp/ccK3Ad2o.s:14     .text:0000000000000000 _ZN20_ThreadPriorityQueue4NodenwEm
     /tmp/ccK3Ad2o.s:18     .text:0000000000000000 .L0 
     /tmp/ccK3Ad2o.s:20     .text:0000000000000000 .L0 
     /tmp/ccK3Ad2o.s:21     .text:0000000000000004 .L0 
     /tmp/ccK3Ad2o.s:24     .text:000000000000000c .L0 
     /tmp/ccK3Ad2o.s:25     .text:000000000000000c .L0 
     /tmp/ccK3Ad2o.s:27     .text:0000000000000010 .L0 
     /tmp/ccK3Ad2o.s:29     .text:0000000000000010 .L0 
     /tmp/ccK3Ad2o.s:30     .text:0000000000000010 .L0 
     /tmp/ccK3Ad2o.s:32     .text:0000000000000018 .L0 
     /tmp/ccK3Ad2o.s:36     .text:000000000000001c .L0 
     /tmp/ccK3Ad2o.s:37     .text:000000000000001c .L0 
     /tmp/ccK3Ad2o.s:41     .text:000000000000002c .L0 
     /tmp/ccK3Ad2o.s:42     .text:0000000000000030 .L0 
     /tmp/ccK3Ad2o.s:43     .text:0000000000000030 .L0 
     /tmp/ccK3Ad2o.s:45     .text:0000000000000034 .L0 
     /tmp/ccK3Ad2o.s:46     .text:0000000000000034 .L0 
     /tmp/ccK3Ad2o.s:48     .text:0000000000000038 .L0 
     /tmp/ccK3Ad2o.s:52     .text:000000000000003c .L0 
     /tmp/ccK3Ad2o.s:54     .text:000000000000003c .L0 
     /tmp/ccK3Ad2o.s:55     .text:000000000000003c .L0 
     /tmp/ccK3Ad2o.s:63     .text:0000000000000058 .L0 
     /tmp/ccK3Ad2o.s:65     .text:0000000000000064 .L0 
     /tmp/ccK3Ad2o.s:71     .text:0000000000000064 _ZN20_ThreadPriorityQueue4NodedlEPv
     /tmp/ccK3Ad2o.s:74     .text:0000000000000064 .L0 
     /tmp/ccK3Ad2o.s:76     .text:0000000000000064 .L0 
     /tmp/ccK3Ad2o.s:77     .text:0000000000000068 .L0 
     /tmp/ccK3Ad2o.s:80     .text:0000000000000070 .L0 
     /tmp/ccK3Ad2o.s:81     .text:0000000000000070 .L0 
     /tmp/ccK3Ad2o.s:83     .text:0000000000000074 .L0 
     /tmp/ccK3Ad2o.s:86     .text:0000000000000078 .L0 
     /tmp/ccK3Ad2o.s:87     .text:0000000000000078 .L0 
     /tmp/ccK3Ad2o.s:92     .text:0000000000000088 .L0 
     /tmp/ccK3Ad2o.s:93     .text:000000000000008c .L0 
     /tmp/ccK3Ad2o.s:95     .text:0000000000000090 .L0 
     /tmp/ccK3Ad2o.s:96     .text:0000000000000090 .L0 
     /tmp/ccK3Ad2o.s:98     .text:0000000000000094 .L0 
     /tmp/ccK3Ad2o.s:100    .text:0000000000000098 .L0 
     /tmp/ccK3Ad2o.s:111    .text:0000000000000098 _ZN20_ThreadPriorityQueuenwEm
     /tmp/ccK3Ad2o.s:114    .text:0000000000000098 .L0 
     /tmp/ccK3Ad2o.s:116    .text:0000000000000098 .L0 
     /tmp/ccK3Ad2o.s:117    .text:000000000000009c .L0 
     /tmp/ccK3Ad2o.s:120    .text:00000000000000a4 .L0 
     /tmp/ccK3Ad2o.s:121    .text:00000000000000a4 .L0 
     /tmp/ccK3Ad2o.s:123    .text:00000000000000a8 .L0 
     /tmp/ccK3Ad2o.s:125    .text:00000000000000a8 .L0 
     /tmp/ccK3Ad2o.s:126    .text:00000000000000a8 .L0 
     /tmp/ccK3Ad2o.s:128    .text:00000000000000b0 .L0 
     /tmp/ccK3Ad2o.s:132    .text:00000000000000b4 .L0 
     /tmp/ccK3Ad2o.s:133    .text:00000000000000b4 .L0 
     /tmp/ccK3Ad2o.s:137    .text:00000000000000c4 .L0 
     /tmp/ccK3Ad2o.s:138    .text:00000000000000c8 .L0 
     /tmp/ccK3Ad2o.s:139    .text:00000000000000c8 .L0 
     /tmp/ccK3Ad2o.s:141    .text:00000000000000cc .L0 
     /tmp/ccK3Ad2o.s:142    .text:00000000000000cc .L0 
GAS LISTING /tmp/ccK3Ad2o.s 			page 14


     /tmp/ccK3Ad2o.s:144    .text:00000000000000d0 .L0 
     /tmp/ccK3Ad2o.s:148    .text:00000000000000d4 .L0 
     /tmp/ccK3Ad2o.s:150    .text:00000000000000d4 .L0 
     /tmp/ccK3Ad2o.s:151    .text:00000000000000d4 .L0 
     /tmp/ccK3Ad2o.s:159    .text:00000000000000f0 .L0 
     /tmp/ccK3Ad2o.s:161    .text:00000000000000fc .L0 
     /tmp/ccK3Ad2o.s:167    .text:00000000000000fc _ZN20_ThreadPriorityQueuedlEPv
     /tmp/ccK3Ad2o.s:170    .text:00000000000000fc .L0 
     /tmp/ccK3Ad2o.s:172    .text:00000000000000fc .L0 
     /tmp/ccK3Ad2o.s:173    .text:0000000000000100 .L0 
     /tmp/ccK3Ad2o.s:176    .text:0000000000000108 .L0 
     /tmp/ccK3Ad2o.s:177    .text:0000000000000108 .L0 
     /tmp/ccK3Ad2o.s:179    .text:000000000000010c .L0 
     /tmp/ccK3Ad2o.s:182    .text:0000000000000110 .L0 
     /tmp/ccK3Ad2o.s:183    .text:0000000000000110 .L0 
     /tmp/ccK3Ad2o.s:188    .text:0000000000000120 .L0 
     /tmp/ccK3Ad2o.s:189    .text:0000000000000124 .L0 
     /tmp/ccK3Ad2o.s:191    .text:0000000000000128 .L0 
     /tmp/ccK3Ad2o.s:192    .text:0000000000000128 .L0 
     /tmp/ccK3Ad2o.s:194    .text:000000000000012c .L0 
     /tmp/ccK3Ad2o.s:196    .text:0000000000000130 .L0 
     /tmp/ccK3Ad2o.s:202    .text:0000000000000130 _ZN20_ThreadPriorityQueue3addEP7_Thread
     /tmp/ccK3Ad2o.s:205    .text:0000000000000130 .L0 
     /tmp/ccK3Ad2o.s:207    .text:0000000000000130 .L0 
     /tmp/ccK3Ad2o.s:208    .text:0000000000000134 .L0 
     /tmp/ccK3Ad2o.s:214    .text:0000000000000148 .L0 
     /tmp/ccK3Ad2o.s:215    .text:0000000000000148 .L0 
     /tmp/ccK3Ad2o.s:216    .text:0000000000000148 .L0 
     /tmp/ccK3Ad2o.s:217    .text:0000000000000148 .L0 
     /tmp/ccK3Ad2o.s:218    .text:0000000000000148 .L0 
     /tmp/ccK3Ad2o.s:220    .text:000000000000014c .L0 
     /tmp/ccK3Ad2o.s:224    .text:0000000000000154 .L0 
     /tmp/ccK3Ad2o.s:225    .text:0000000000000154 .L0 
     /tmp/ccK3Ad2o.s:236    .text:0000000000000168 .L0 
     /tmp/ccK3Ad2o.s:244    .text:0000000000000174 .L0 
     /tmp/ccK3Ad2o.s:246    .text:0000000000000178 .L0 
     /tmp/ccK3Ad2o.s:247    .text:0000000000000178 .L0 
     /tmp/ccK3Ad2o.s:248    .text:0000000000000178 .L0 
     /tmp/ccK3Ad2o.s:252    .text:0000000000000184 .L0 
     /tmp/ccK3Ad2o.s:255    .text:0000000000000188 .L0 
     /tmp/ccK3Ad2o.s:256    .text:0000000000000188 .L0 
     /tmp/ccK3Ad2o.s:259    .text:000000000000018c .L0 
     /tmp/ccK3Ad2o.s:263    .text:0000000000000190 .L0 
     /tmp/ccK3Ad2o.s:264    .text:0000000000000190 .L0 
     /tmp/ccK3Ad2o.s:266    .text:0000000000000194 .L0 
     /tmp/ccK3Ad2o.s:268    .text:0000000000000198 .L0 
     /tmp/ccK3Ad2o.s:269    .text:0000000000000198 .L0 
     /tmp/ccK3Ad2o.s:272    .text:000000000000019c .L0 
     /tmp/ccK3Ad2o.s:273    .text:000000000000019c .L0 
     /tmp/ccK3Ad2o.s:275    .text:00000000000001a0 .L0 
     /tmp/ccK3Ad2o.s:277    .text:00000000000001a4 .L0 
     /tmp/ccK3Ad2o.s:278    .text:00000000000001a4 .L0 
     /tmp/ccK3Ad2o.s:280    .text:00000000000001a8 .L0 
     /tmp/ccK3Ad2o.s:284    .text:00000000000001ac .L0 
     /tmp/ccK3Ad2o.s:285    .text:00000000000001b0 .L0 
     /tmp/ccK3Ad2o.s:286    .text:00000000000001b0 .L0 
     /tmp/ccK3Ad2o.s:288    .text:00000000000001b4 .L0 
GAS LISTING /tmp/ccK3Ad2o.s 			page 15


     /tmp/ccK3Ad2o.s:289    .text:00000000000001b4 .L0 
     /tmp/ccK3Ad2o.s:291    .text:00000000000001b8 .L0 
     /tmp/ccK3Ad2o.s:294    .text:00000000000001bc .L0 
     /tmp/ccK3Ad2o.s:297    .text:00000000000001c0 .L0 
     /tmp/ccK3Ad2o.s:300    .text:00000000000001c4 .L0 
     /tmp/ccK3Ad2o.s:304    .text:00000000000001c8 .L0 
     /tmp/ccK3Ad2o.s:306    .text:00000000000001c8 .L0 
     /tmp/ccK3Ad2o.s:307    .text:00000000000001c8 .L0 
     /tmp/ccK3Ad2o.s:310    .text:00000000000001cc .L0 
     /tmp/ccK3Ad2o.s:315    .text:00000000000001d4 .L0 
     /tmp/ccK3Ad2o.s:316    .text:00000000000001d4 .L0 
     /tmp/ccK3Ad2o.s:317    .text:00000000000001d4 .L0 
     /tmp/ccK3Ad2o.s:319    .text:00000000000001d8 .L0 
     /tmp/ccK3Ad2o.s:323    .text:00000000000001dc .L0 
     /tmp/ccK3Ad2o.s:324    .text:00000000000001dc .L0 
     /tmp/ccK3Ad2o.s:326    .text:00000000000001e0 .L0 
     /tmp/ccK3Ad2o.s:332    .text:00000000000001e4 .L0 
     /tmp/ccK3Ad2o.s:333    .text:00000000000001e4 .L0 
     /tmp/ccK3Ad2o.s:340    .text:00000000000001e8 .L0 
     /tmp/ccK3Ad2o.s:341    .text:00000000000001e8 .L0 
     /tmp/ccK3Ad2o.s:346    .text:00000000000001ec .L0 
     /tmp/ccK3Ad2o.s:350    .text:00000000000001f4 .L0 
     /tmp/ccK3Ad2o.s:351    .text:00000000000001f4 .L0 
     /tmp/ccK3Ad2o.s:355    .text:00000000000001fc .L0 
     /tmp/ccK3Ad2o.s:356    .text:00000000000001fc .L0 
     /tmp/ccK3Ad2o.s:358    .text:0000000000000200 .L0 
     /tmp/ccK3Ad2o.s:363    .text:0000000000000208 .L0 
     /tmp/ccK3Ad2o.s:365    .text:0000000000000210 .L0 
     /tmp/ccK3Ad2o.s:371    .text:0000000000000210 _ZN20_ThreadPriorityQueue6removeEv
     /tmp/ccK3Ad2o.s:374    .text:0000000000000210 .L0 
     /tmp/ccK3Ad2o.s:376    .text:0000000000000210 .L0 
     /tmp/ccK3Ad2o.s:377    .text:0000000000000214 .L0 
     /tmp/ccK3Ad2o.s:381    .text:0000000000000220 .L0 
     /tmp/ccK3Ad2o.s:382    .text:0000000000000220 .L0 
     /tmp/ccK3Ad2o.s:383    .text:0000000000000220 .L0 
     /tmp/ccK3Ad2o.s:385    .text:0000000000000224 .L0 
     /tmp/ccK3Ad2o.s:388    .text:0000000000000228 .L0 
     /tmp/ccK3Ad2o.s:389    .text:0000000000000228 .L0 
     /tmp/ccK3Ad2o.s:392    .text:000000000000022c .L0 
     /tmp/ccK3Ad2o.s:394    .text:0000000000000230 .L0 
     /tmp/ccK3Ad2o.s:395    .text:0000000000000230 .L0 
     /tmp/ccK3Ad2o.s:398    .text:0000000000000234 .L0 
     /tmp/ccK3Ad2o.s:399    .text:0000000000000234 .L0 
     /tmp/ccK3Ad2o.s:400    .text:0000000000000234 .L0 
     /tmp/ccK3Ad2o.s:402    .text:0000000000000238 .L0 
     /tmp/ccK3Ad2o.s:404    .text:000000000000023c .L0 
     /tmp/ccK3Ad2o.s:406    .text:0000000000000240 .L0 
     /tmp/ccK3Ad2o.s:407    .text:0000000000000240 .L0 
     /tmp/ccK3Ad2o.s:410    .text:0000000000000244 .L0 
     /tmp/ccK3Ad2o.s:411    .text:0000000000000244 .L0 
     /tmp/ccK3Ad2o.s:415    .text:000000000000024c .L0 
     /tmp/ccK3Ad2o.s:416    .text:000000000000024c .L0 
     /tmp/ccK3Ad2o.s:418    .text:0000000000000254 .L0 
     /tmp/ccK3Ad2o.s:419    .text:0000000000000254 .L0 
     /tmp/ccK3Ad2o.s:421    .text:0000000000000258 .L0 
     /tmp/ccK3Ad2o.s:422    .text:0000000000000258 .L0 
     /tmp/ccK3Ad2o.s:424    .text:000000000000025c .L0 
GAS LISTING /tmp/ccK3Ad2o.s 			page 16


     /tmp/ccK3Ad2o.s:426    .text:0000000000000260 .L0 
     /tmp/ccK3Ad2o.s:430    .text:0000000000000264 .L0 
     /tmp/ccK3Ad2o.s:432    .text:0000000000000264 .L0 
     /tmp/ccK3Ad2o.s:433    .text:0000000000000264 .L0 
     /tmp/ccK3Ad2o.s:438    .text:000000000000026c .L0 
     /tmp/ccK3Ad2o.s:440    .text:0000000000000274 .L0 
     /tmp/ccK3Ad2o.s:446    .text:0000000000000274 _ZN20_ThreadPriorityQueue5emptyEv
     /tmp/ccK3Ad2o.s:449    .text:0000000000000274 .L0 
     /tmp/ccK3Ad2o.s:451    .text:0000000000000274 .L0 
     /tmp/ccK3Ad2o.s:452    .text:0000000000000278 .L0 
     /tmp/ccK3Ad2o.s:454    .text:000000000000027c .L0 
     /tmp/ccK3Ad2o.s:456    .text:0000000000000280 .L0 
     /tmp/ccK3Ad2o.s:458    .text:0000000000000280 .L0 
     /tmp/ccK3Ad2o.s:459    .text:0000000000000280 .L0 
     /tmp/ccK3Ad2o.s:462    .text:0000000000000284 .L0 
     /tmp/ccK3Ad2o.s:464    .text:000000000000028c .L0 
     /tmp/ccK3Ad2o.s:465    .text:000000000000028c .L0 
     /tmp/ccK3Ad2o.s:467    .text:0000000000000290 .L0 
     /tmp/ccK3Ad2o.s:469    .text:0000000000000294 .L0 
     /tmp/ccK3Ad2o.s:483    .bss:0000000000000008 _ZN20_ThreadPriorityQueue5cacheE
     /tmp/ccK3Ad2o.s:479    .bss:0000000000000000 _ZN20_ThreadPriorityQueue4Node5cacheE
     /tmp/ccK3Ad2o.s:476    .bss:0000000000000000 .LANCHOR0
     /tmp/ccK3Ad2o.s:490    .text:0000000000000294 .L0 
     /tmp/ccK3Ad2o.s:30     .text:0000000000000010 .L0 
     /tmp/ccK3Ad2o.s:37     .text:000000000000001c .L0 
     /tmp/ccK3Ad2o.s:8      .rodata.str1.8:0000000000000000 .LC0
     /tmp/ccK3Ad2o.s:58     .text:0000000000000048 .L0 
     /tmp/ccK3Ad2o.s:63     .text:0000000000000058 .L0 
     /tmp/ccK3Ad2o.s:87     .text:0000000000000078 .L0 
     /tmp/ccK3Ad2o.s:126    .text:00000000000000a8 .L0 
     /tmp/ccK3Ad2o.s:133    .text:00000000000000b4 .L0 
     /tmp/ccK3Ad2o.s:105    .rodata.str1.8:0000000000000020 .LC1
     /tmp/ccK3Ad2o.s:154    .text:00000000000000e0 .L0 
     /tmp/ccK3Ad2o.s:159    .text:00000000000000f0 .L0 
     /tmp/ccK3Ad2o.s:183    .text:0000000000000110 .L0 
     /tmp/ccK3Ad2o.s:51     .text:000000000000003c .L4
     /tmp/ccK3Ad2o.s:34     .text:000000000000001c .L2
     /tmp/ccK3Ad2o.s:147    .text:00000000000000d4 .L10
     /tmp/ccK3Ad2o.s:130    .text:00000000000000b4 .L8
     /tmp/ccK3Ad2o.s:240    .text:0000000000000174 .L14
     /tmp/ccK3Ad2o.s:361    .text:0000000000000208 .L22
     /tmp/ccK3Ad2o.s:303    .text:00000000000001c8 .L16
     /tmp/ccK3Ad2o.s:348    .text:00000000000001f4 .L19
     /tmp/ccK3Ad2o.s:353    .text:00000000000001fc .L21
     /tmp/ccK3Ad2o.s:321    .text:00000000000001dc .L18
     /tmp/ccK3Ad2o.s:261    .text:0000000000000190 .L17
     /tmp/ccK3Ad2o.s:313    .text:00000000000001d4 .L24
     /tmp/ccK3Ad2o.s:270    .text:000000000000019c .L20
     /tmp/ccK3Ad2o.s:282    .text:00000000000001ac .L15
     /tmp/ccK3Ad2o.s:436    .text:000000000000026c .L29
     /tmp/ccK3Ad2o.s:429    .text:0000000000000264 .L27
     /tmp/ccK3Ad2o.s:408    .text:0000000000000244 .L28
     /tmp/ccK3Ad2o.s:414    .text:000000000000024c .L25
     /tmp/ccK3Ad2o.s:2219   .debug_abbrev:0000000000000000 .Ldebug_abbrev0
     /tmp/ccK3Ad2o.s:3753   .debug_str:0000000000000a34 .LASF170
     /tmp/ccK3Ad2o.s:3699   .debug_str:000000000000088c .LASF171
     /tmp/ccK3Ad2o.s:3675   .debug_str:00000000000007cd .LASF172
GAS LISTING /tmp/ccK3Ad2o.s 			page 17


     /tmp/ccK3Ad2o.s:5      .text:0000000000000000 .Ltext0
     /tmp/ccK3Ad2o.s:486    .text:0000000000000294 .Letext0
     /tmp/ccK3Ad2o.s:3467   .debug_line:0000000000000000 .Ldebug_line0
     /tmp/ccK3Ad2o.s:3601   .debug_str:0000000000000504 .LASF0
     /tmp/ccK3Ad2o.s:3615   .debug_str:0000000000000588 .LASF1
     /tmp/ccK3Ad2o.s:3695   .debug_str:0000000000000864 .LASF2
     /tmp/ccK3Ad2o.s:3703   .debug_str:00000000000008b0 .LASF4
     /tmp/ccK3Ad2o.s:3605   .debug_str:0000000000000534 .LASF3
     /tmp/ccK3Ad2o.s:3479   .debug_str:000000000000006c .LASF5
     /tmp/ccK3Ad2o.s:3679   .debug_str:00000000000007f9 .LASF6
     /tmp/ccK3Ad2o.s:3667   .debug_str:0000000000000791 .LASF7
     /tmp/ccK3Ad2o.s:3607   .debug_str:0000000000000546 .LASF8
     /tmp/ccK3Ad2o.s:3585   .debug_str:0000000000000451 .LASF9
     /tmp/ccK3Ad2o.s:3591   .debug_str:0000000000000495 .LASF10
     /tmp/ccK3Ad2o.s:3519   .debug_str:00000000000001f2 .LASF11
     /tmp/ccK3Ad2o.s:3571   .debug_str:00000000000003ce .LASF12
     /tmp/ccK3Ad2o.s:3531   .debug_str:000000000000025d .LASF13
     /tmp/ccK3Ad2o.s:3517   .debug_str:00000000000001e2 .LASF14
     /tmp/ccK3Ad2o.s:3727   .debug_str:0000000000000989 .LASF15
     /tmp/ccK3Ad2o.s:3555   .debug_str:0000000000000338 .LASF16
     /tmp/ccK3Ad2o.s:3723   .debug_str:0000000000000961 .LASF17
     /tmp/ccK3Ad2o.s:3747   .debug_str:0000000000000a1e .LASF18
     /tmp/ccK3Ad2o.s:3529   .debug_str:0000000000000255 .LASF27
     /tmp/ccK3Ad2o.s:3669   .debug_str:00000000000007a4 .LASF19
     /tmp/ccK3Ad2o.s:3751   .debug_str:0000000000000a2d .LASF20
     /tmp/ccK3Ad2o.s:3785   .debug_str:0000000000000bec .LASF21
     /tmp/ccK3Ad2o.s:3627   .debug_str:0000000000000628 .LASF22
     /tmp/ccK3Ad2o.s:3549   .debug_str:00000000000002fa .LASF23
     /tmp/ccK3Ad2o.s:3817   .debug_str:0000000000000cd2 .LASF24
     /tmp/ccK3Ad2o.s:3793   .debug_str:0000000000000c42 .LASF25
     /tmp/ccK3Ad2o.s:3815   .debug_str:0000000000000ccc .LASF115
     /tmp/ccK3Ad2o.s:3813   .debug_str:0000000000000cbf .LASF26
     /tmp/ccK3Ad2o.s:3513   .debug_str:00000000000001b4 .LASF28
     /tmp/ccK3Ad2o.s:3473   .debug_str:0000000000000023 .LASF138
     /tmp/ccK3Ad2o.s:3629   .debug_str:0000000000000631 .LASF140
     /tmp/ccK3Ad2o.s:3617   .debug_str:000000000000059b .LASF29
     /tmp/ccK3Ad2o.s:3659   .debug_str:0000000000000747 .LASF30
     /tmp/ccK3Ad2o.s:3553   .debug_str:000000000000031b .LASF31
     /tmp/ccK3Ad2o.s:3809   .debug_str:0000000000000caa .LASF32
     /tmp/ccK3Ad2o.s:3759   .debug_str:0000000000000b1d .LASF33
     /tmp/ccK3Ad2o.s:3773   .debug_str:0000000000000b80 .LASF34
     /tmp/ccK3Ad2o.s:3821   .debug_str:0000000000000ce3 .LASF35
     /tmp/ccK3Ad2o.s:3691   .debug_str:0000000000000834 .LASF36
     /tmp/ccK3Ad2o.s:3567   .debug_str:000000000000039b .LASF37
     /tmp/ccK3Ad2o.s:3483   .debug_str:0000000000000090 .LASF38
     /tmp/ccK3Ad2o.s:3543   .debug_str:00000000000002c4 .LASF39
     /tmp/ccK3Ad2o.s:3525   .debug_str:0000000000000228 .LASF40
     /tmp/ccK3Ad2o.s:3737   .debug_str:00000000000009cd .LASF41
     /tmp/ccK3Ad2o.s:3523   .debug_str:0000000000000206 .LASF42
     /tmp/ccK3Ad2o.s:3557   .debug_str:000000000000034e .LASF43
     /tmp/ccK3Ad2o.s:3511   .debug_str:0000000000000195 .LASF44
     /tmp/ccK3Ad2o.s:3719   .debug_str:0000000000000953 .LASF45
     /tmp/ccK3Ad2o.s:3797   .debug_str:0000000000000c5c .LASF46
     /tmp/ccK3Ad2o.s:3749   .debug_str:0000000000000a27 .LASF47
     /tmp/ccK3Ad2o.s:3767   .debug_str:0000000000000b4c .LASF49
     /tmp/ccK3Ad2o.s:3545   .debug_str:00000000000002eb .LASF48
     /tmp/ccK3Ad2o.s:3731   .debug_str:00000000000009a5 .LASF50
GAS LISTING /tmp/ccK3Ad2o.s 			page 18


     /tmp/ccK3Ad2o.s:3541   .debug_str:00000000000002b7 .LASF51
     /tmp/ccK3Ad2o.s:3651   .debug_str:00000000000006f4 .LASF52
     /tmp/ccK3Ad2o.s:3755   .debug_str:0000000000000b04 .LASF53
     /tmp/ccK3Ad2o.s:3497   .debug_str:0000000000000125 .LASF54
     /tmp/ccK3Ad2o.s:3561   .debug_str:0000000000000373 .LASF55
     /tmp/ccK3Ad2o.s:3619   .debug_str:00000000000005bc .LASF57
     /tmp/ccK3Ad2o.s:3701   .debug_str:00000000000008a9 .LASF56
     /tmp/ccK3Ad2o.s:3609   .debug_str:0000000000000559 .LASF58
     /tmp/ccK3Ad2o.s:3761   .debug_str:0000000000000b26 .LASF59
     /tmp/ccK3Ad2o.s:3705   .debug_str:00000000000008b7 .LASF60
     /tmp/ccK3Ad2o.s:3491   .debug_str:00000000000000f4 .LASF61
     /tmp/ccK3Ad2o.s:3805   .debug_str:0000000000000c87 .LASF62
     /tmp/ccK3Ad2o.s:3801   .debug_str:0000000000000c7b .LASF63
     /tmp/ccK3Ad2o.s:3597   .debug_str:00000000000004cc .LASF64
     /tmp/ccK3Ad2o.s:3639   .debug_str:0000000000000676 .LASF65
     /tmp/ccK3Ad2o.s:3685   .debug_str:0000000000000813 .LASF66
     /tmp/ccK3Ad2o.s:3721   .debug_str:0000000000000958 .LASF67
     /tmp/ccK3Ad2o.s:3477   .debug_str:0000000000000055 .LASF68
     /tmp/ccK3Ad2o.s:3687   .debug_str:0000000000000828 .LASF69
     /tmp/ccK3Ad2o.s:3645   .debug_str:00000000000006ae .LASF70
     /tmp/ccK3Ad2o.s:3733   .debug_str:00000000000009bc .LASF71
     /tmp/ccK3Ad2o.s:3697   .debug_str:0000000000000872 .LASF72
     /tmp/ccK3Ad2o.s:3611   .debug_str:000000000000056e .LASF73
     /tmp/ccK3Ad2o.s:3787   .debug_str:0000000000000bf2 .LASF74
     /tmp/ccK3Ad2o.s:3757   .debug_str:0000000000000b0e .LASF75
     /tmp/ccK3Ad2o.s:3671   .debug_str:00000000000007aa .LASF76
     /tmp/ccK3Ad2o.s:3509   .debug_str:000000000000018a .LASF77
     /tmp/ccK3Ad2o.s:3711   .debug_str:00000000000008e7 .LASF78
     /tmp/ccK3Ad2o.s:3635   .debug_str:000000000000065d .LASF79
     /tmp/ccK3Ad2o.s:3593   .debug_str:00000000000004a3 .LASF80
     /tmp/ccK3Ad2o.s:3583   .debug_str:0000000000000447 .LASF81
     /tmp/ccK3Ad2o.s:3489   .debug_str:00000000000000dc .LASF82
     /tmp/ccK3Ad2o.s:3613   .debug_str:000000000000057c .LASF83
     /tmp/ccK3Ad2o.s:3499   .debug_str:000000000000013d .LASF84
     /tmp/ccK3Ad2o.s:3779   .debug_str:0000000000000bd4 .LASF85
     /tmp/ccK3Ad2o.s:3481   .debug_str:0000000000000073 .LASF86
     /tmp/ccK3Ad2o.s:3725   .debug_str:0000000000000977 .LASF148
     /tmp/ccK3Ad2o.s:3741   .debug_str:00000000000009fa .LASF87
     /tmp/ccK3Ad2o.s:3589   .debug_str:0000000000000480 .LASF88
     /tmp/ccK3Ad2o.s:3739   .debug_str:00000000000009f0 .LASF89
     /tmp/ccK3Ad2o.s:3713   .debug_str:0000000000000901 .LASF90
     /tmp/ccK3Ad2o.s:3655   .debug_str:0000000000000733 .LASF91
     /tmp/ccK3Ad2o.s:3649   .debug_str:00000000000006cc .LASF92
     /tmp/ccK3Ad2o.s:3657   .debug_str:000000000000073e .LASF93
     /tmp/ccK3Ad2o.s:3495   .debug_str:0000000000000109 .LASF94
     /tmp/ccK3Ad2o.s:3663   .debug_str:000000000000077a .LASF95
     /tmp/ccK3Ad2o.s:3577   .debug_str:000000000000040c .LASF96
     /tmp/ccK3Ad2o.s:3537   .debug_str:0000000000000283 .LASF97
     /tmp/ccK3Ad2o.s:3743   .debug_str:00000000000009ff .LASF98
     /tmp/ccK3Ad2o.s:3527   .debug_str:000000000000024c .LASF99
     /tmp/ccK3Ad2o.s:3469   .debug_str:0000000000000000 .LASF100
     /tmp/ccK3Ad2o.s:3799   .debug_str:0000000000000c70 .LASF101
     /tmp/ccK3Ad2o.s:3551   .debug_str:0000000000000301 .LASF102
     /tmp/ccK3Ad2o.s:3795   .debug_str:0000000000000c4e .LASF103
     /tmp/ccK3Ad2o.s:3575   .debug_str:00000000000003ef .LASF104
     /tmp/ccK3Ad2o.s:3771   .debug_str:0000000000000b78 .LASF173
     /tmp/ccK3Ad2o.s:3765   .debug_str:0000000000000b36 .LASF174
GAS LISTING /tmp/ccK3Ad2o.s 			page 19


     /tmp/ccK3Ad2o.s:3565   .debug_str:0000000000000396 .LASF105
     /tmp/ccK3Ad2o.s:3707   .debug_str:00000000000008ca .LASF106
     /tmp/ccK3Ad2o.s:3709   .debug_str:00000000000008dd .LASF107
     /tmp/ccK3Ad2o.s:3769   .debug_str:0000000000000b60 .LASF108
     /tmp/ccK3Ad2o.s:3745   .debug_str:0000000000000a16 .LASF109
     /tmp/ccK3Ad2o.s:3811   .debug_str:0000000000000cba .LASF110
     /tmp/ccK3Ad2o.s:3729   .debug_str:0000000000000995 .LASF111
     /tmp/ccK3Ad2o.s:3485   .debug_str:00000000000000b5 .LASF113
     /tmp/ccK3Ad2o.s:3681   .debug_str:0000000000000800 .LASF112
     /tmp/ccK3Ad2o.s:3507   .debug_str:0000000000000173 .LASF114
     /tmp/ccK3Ad2o.s:3673   .debug_str:00000000000007c8 .LASF116
     /tmp/ccK3Ad2o.s:3803   .debug_str:0000000000000c81 .LASF117
     /tmp/ccK3Ad2o.s:3643   .debug_str:00000000000006a8 .LASF118
     /tmp/ccK3Ad2o.s:3689   .debug_str:000000000000082f .LASF119
     /tmp/ccK3Ad2o.s:3677   .debug_str:00000000000007f1 .LASF120
     /tmp/ccK3Ad2o.s:3631   .debug_str:0000000000000642 .LASF121
     /tmp/ccK3Ad2o.s:3647   .debug_str:00000000000006c3 .LASF122
     /tmp/ccK3Ad2o.s:3563   .debug_str:000000000000037f .LASF123
     /tmp/ccK3Ad2o.s:3715   .debug_str:000000000000091c .LASF124
     /tmp/ccK3Ad2o.s:3493   .debug_str:00000000000000fc .LASF125
     /tmp/ccK3Ad2o.s:3665   .debug_str:0000000000000784 .LASF126
     /tmp/ccK3Ad2o.s:3595   .debug_str:00000000000004bf .LASF127
     /tmp/ccK3Ad2o.s:3791   .debug_str:0000000000000c34 .LASF128
     /tmp/ccK3Ad2o.s:3763   .debug_str:0000000000000b2b .LASF129
     /tmp/ccK3Ad2o.s:3683   .debug_str:0000000000000809 .LASF130
     /tmp/ccK3Ad2o.s:3503   .debug_str:000000000000015d .LASF131
     /tmp/ccK3Ad2o.s:3559   .debug_str:000000000000036e .LASF154
     /tmp/ccK3Ad2o.s:3637   .debug_str:000000000000066a .LASF132
     /tmp/ccK3Ad2o.s:3487   .debug_str:00000000000000d4 .LASF133
     /tmp/ccK3Ad2o.s:3661   .debug_str:0000000000000765 .LASF134
     /tmp/ccK3Ad2o.s:3781   .debug_str:0000000000000be2 .LASF139
     /tmp/ccK3Ad2o.s:3693   .debug_str:000000000000085d .LASF135
     /tmp/ccK3Ad2o.s:3521   .debug_str:0000000000000201 .LASF136
     /tmp/ccK3Ad2o.s:3783   .debug_str:0000000000000be7 .LASF137
     /tmp/ccK3Ad2o.s:3641   .debug_str:000000000000067d .LASF141
     /tmp/ccK3Ad2o.s:3603   .debug_str:0000000000000511 .LASF142
     /tmp/ccK3Ad2o.s:3625   .debug_str:0000000000000604 .LASF175
     /tmp/ccK3Ad2o.s:3735   .debug_str:00000000000009c7 .LASF143
     /tmp/ccK3Ad2o.s:3623   .debug_str:00000000000005ff .LASF144
     /tmp/ccK3Ad2o.s:3515   .debug_str:00000000000001c4 .LASF145
     /tmp/ccK3Ad2o.s:3581   .debug_str:0000000000000429 .LASF146
     /tmp/ccK3Ad2o.s:3587   .debug_str:0000000000000461 .LASF147
     /tmp/ccK3Ad2o.s:3621   .debug_str:00000000000005d7 .LASF149
     /tmp/ccK3Ad2o.s:3471   .debug_str:000000000000001c .LASF150
     /tmp/ccK3Ad2o.s:3653   .debug_str:0000000000000710 .LASF151
     /tmp/ccK3Ad2o.s:3547   .debug_str:00000000000002f4 .LASF152
     /tmp/ccK3Ad2o.s:3475   .debug_str:0000000000000033 .LASF153
     /tmp/ccK3Ad2o.s:3569   .debug_str:00000000000003c1 .LASF155
     /tmp/ccK3Ad2o.s:3807   .debug_str:0000000000000c9d .LASF156
     /tmp/ccK3Ad2o.s:3633   .debug_str:0000000000000658 .LASF157
     /tmp/ccK3Ad2o.s:3717   .debug_str:000000000000092d .LASF158
     /tmp/ccK3Ad2o.s:3775   .debug_str:0000000000000b90 .LASF159
     /tmp/ccK3Ad2o.s:447    .text:0000000000000274 .LFB14
     /tmp/ccK3Ad2o.s:470    .text:0000000000000294 .LFE14
     /tmp/ccK3Ad2o.s:3579   .debug_str:0000000000000424 .LASF160
     /tmp/ccK3Ad2o.s:3182   .debug_loc:0000000000000000 .LLST16
     /tmp/ccK3Ad2o.s:372    .text:0000000000000210 .LFB13
GAS LISTING /tmp/ccK3Ad2o.s 			page 20


     /tmp/ccK3Ad2o.s:441    .text:0000000000000274 .LFE13
     /tmp/ccK3Ad2o.s:3196   .debug_loc:0000000000000039 .LLST13
     /tmp/ccK3Ad2o.s:3218   .debug_loc:0000000000000098 .LLST14
     /tmp/ccK3Ad2o.s:3819   .debug_str:0000000000000cde .LASF161
     /tmp/ccK3Ad2o.s:3229   .debug_loc:00000000000000ce .LLST15
     /tmp/ccK3Ad2o.s:412    .text:000000000000024c .LVL42
     /tmp/ccK3Ad2o.s:203    .text:0000000000000130 .LFB12
     /tmp/ccK3Ad2o.s:366    .text:0000000000000210 .LFE12
     /tmp/ccK3Ad2o.s:3240   .debug_loc:0000000000000104 .LLST4
     /tmp/ccK3Ad2o.s:3262   .debug_loc:0000000000000163 .LLST5
     /tmp/ccK3Ad2o.s:3284   .debug_loc:00000000000001c2 .LLST6
     /tmp/ccK3Ad2o.s:3295   .debug_loc:00000000000001f8 .LLST7
     /tmp/ccK3Ad2o.s:3320   .debug_loc:0000000000000269 .LLST8
     /tmp/ccK3Ad2o.s:232    .text:0000000000000168 .LBB9
     /tmp/ccK3Ad2o.s:242    .text:0000000000000174 .LBE9
     /tmp/ccK3Ad2o.s:3340   .debug_loc:00000000000002c6 .LLST9
     /tmp/ccK3Ad2o.s:3347   .debug_loc:00000000000002e9 .LLST10
     /tmp/ccK3Ad2o.s:328    .text:00000000000001e4 .LBB11
     /tmp/ccK3Ad2o.s:336    .text:00000000000001e8 .LBE11
     /tmp/ccK3Ad2o.s:3354   .debug_loc:000000000000030c .LLST11
     /tmp/ccK3Ad2o.s:337    .text:00000000000001e8 .LBB13
     /tmp/ccK3Ad2o.s:344    .text:00000000000001ec .LBE13
     /tmp/ccK3Ad2o.s:3361   .debug_loc:000000000000032f .LLST12
     /tmp/ccK3Ad2o.s:228    .text:0000000000000160 .LVL20
     /tmp/ccK3Ad2o.s:250    .text:0000000000000184 .LVL23
     /tmp/ccK3Ad2o.s:168    .text:00000000000000fc .LFB11
     /tmp/ccK3Ad2o.s:197    .text:0000000000000130 .LFE11
     /tmp/ccK3Ad2o.s:3501   .debug_str:0000000000000158 .LASF162
     /tmp/ccK3Ad2o.s:3368   .debug_loc:0000000000000352 .LLST3
     /tmp/ccK3Ad2o.s:186    .text:0000000000000120 .LVL17
     /tmp/ccK3Ad2o.s:112    .text:0000000000000098 .LFB10
     /tmp/ccK3Ad2o.s:162    .text:00000000000000fc .LFE10
     /tmp/ccK3Ad2o.s:3535   .debug_str:000000000000027e .LASF163
     /tmp/ccK3Ad2o.s:3386   .debug_loc:000000000000039e .LLST2
     /tmp/ccK3Ad2o.s:135    .text:00000000000000c4 .LVL11
     /tmp/ccK3Ad2o.s:157    .text:00000000000000f0 .LVL14
     /tmp/ccK3Ad2o.s:72     .text:0000000000000064 .LFB9
     /tmp/ccK3Ad2o.s:101    .text:0000000000000098 .LFE9
     /tmp/ccK3Ad2o.s:3411   .debug_loc:0000000000000400 .LLST1
     /tmp/ccK3Ad2o.s:90     .text:0000000000000088 .LVL8
     /tmp/ccK3Ad2o.s:15     .text:0000000000000000 .LFB8
     /tmp/ccK3Ad2o.s:66     .text:0000000000000064 .LFE8
     /tmp/ccK3Ad2o.s:3429   .debug_loc:000000000000044c .LLST0
     /tmp/ccK3Ad2o.s:39     .text:000000000000002c .LVL2
     /tmp/ccK3Ad2o.s:61     .text:0000000000000058 .LVL5
     /tmp/ccK3Ad2o.s:3539   .debug_str:000000000000028c .LASF176
     /tmp/ccK3Ad2o.s:3789   .debug_str:0000000000000c0f .LASF164
     /tmp/ccK3Ad2o.s:3505   .debug_str:0000000000000163 .LASF166
     /tmp/ccK3Ad2o.s:3599   .debug_str:00000000000004e0 .LASF165
     /tmp/ccK3Ad2o.s:3533   .debug_str:000000000000026d .LASF167
     /tmp/ccK3Ad2o.s:3777   .debug_str:0000000000000bb1 .LASF168
     /tmp/ccK3Ad2o.s:3573   .debug_str:00000000000003dd .LASF169
     /tmp/ccK3Ad2o.s:450    .text:0000000000000274 .LVL45
     /tmp/ccK3Ad2o.s:460    .text:0000000000000284 .LVL46
     /tmp/ccK3Ad2o.s:375    .text:0000000000000210 .LVL39
     /tmp/ccK3Ad2o.s:390    .text:000000000000022c .LVL40
     /tmp/ccK3Ad2o.s:428    .text:0000000000000264 .LVL43
GAS LISTING /tmp/ccK3Ad2o.s 			page 21


     /tmp/ccK3Ad2o.s:396    .text:0000000000000234 .LVL41
     /tmp/ccK3Ad2o.s:435    .text:000000000000026c .LVL44
     /tmp/ccK3Ad2o.s:206    .text:0000000000000130 .LVL18
     /tmp/ccK3Ad2o.s:226    .text:0000000000000158 .LVL19
     /tmp/ccK3Ad2o.s:298    .text:00000000000001c0 .LVL30
     /tmp/ccK3Ad2o.s:302    .text:00000000000001c8 .LVL31
     /tmp/ccK3Ad2o.s:295    .text:00000000000001bc .LVL29
     /tmp/ccK3Ad2o.s:239    .text:0000000000000174 .LVL22
     /tmp/ccK3Ad2o.s:292    .text:00000000000001b8 .LVL28
     /tmp/ccK3Ad2o.s:254    .text:0000000000000188 .LVL24
     /tmp/ccK3Ad2o.s:260    .text:0000000000000190 .LVL26
     /tmp/ccK3Ad2o.s:281    .text:00000000000001ac .LVL27
     /tmp/ccK3Ad2o.s:308    .text:00000000000001cc .LVL32
     /tmp/ccK3Ad2o.s:312    .text:00000000000001d4 .LVL33
     /tmp/ccK3Ad2o.s:320    .text:00000000000001dc .LVL34
     /tmp/ccK3Ad2o.s:360    .text:0000000000000208 .LVL38
     /tmp/ccK3Ad2o.s:257    .text:000000000000018c .LVL25
     /tmp/ccK3Ad2o.s:231    .text:0000000000000168 .LVL21
     /tmp/ccK3Ad2o.s:327    .text:00000000000001e4 .LVL35
     /tmp/ccK3Ad2o.s:334    .text:00000000000001e8 .LVL36
     /tmp/ccK3Ad2o.s:342    .text:00000000000001ec .LVL37
     /tmp/ccK3Ad2o.s:171    .text:00000000000000fc .LVL15
     /tmp/ccK3Ad2o.s:184    .text:0000000000000118 .LVL16
     /tmp/ccK3Ad2o.s:115    .text:0000000000000098 .LVL9
     /tmp/ccK3Ad2o.s:129    .text:00000000000000b4 .LVL10
     /tmp/ccK3Ad2o.s:146    .text:00000000000000d4 .LVL12
     /tmp/ccK3Ad2o.s:155    .text:00000000000000e8 .LVL13
     /tmp/ccK3Ad2o.s:75     .text:0000000000000064 .LVL6
     /tmp/ccK3Ad2o.s:88     .text:0000000000000080 .LVL7
     /tmp/ccK3Ad2o.s:19     .text:0000000000000000 .LVL0
     /tmp/ccK3Ad2o.s:33     .text:000000000000001c .LVL1
     /tmp/ccK3Ad2o.s:50     .text:000000000000003c .LVL3
     /tmp/ccK3Ad2o.s:59     .text:0000000000000050 .LVL4
     /tmp/ccK3Ad2o.s:491    .debug_info:0000000000000000 .Ldebug_info0

UNDEFINED SYMBOLS
_Z16kmem_cache_allocP12kmem_cache_t
_Z17kmem_cache_createPKcmPFvPvES3_
_Z15kmem_cache_freeP12kmem_cache_tPv
_ZN7_Thread3topEv
