GAS LISTING /tmp/ccl1Ltrc.s 			page 1


   1              		.file	"_Thread.cpp"
   2              		.option pic
   3              		.option norelax
   4              		.text
   5              	.Ltext0:
   6              		.section	.rodata.str1.8,"aMS",@progbits,1
   7              		.align	3
   8              	.LC0:
   9 0000 54687265 		.string	"Thread Cache"
   9      61642043 
   9      61636865 
   9      00
  10              		.text
  11              		.align	2
  12              		.globl	_ZN7_ThreadnwEm
  14              	_ZN7_ThreadnwEm:
  15              	.LFB33:
  16              		.file 1 "src/_Thread.cpp"
   1:src/_Thread.cpp **** //
   2:src/_Thread.cpp **** // Created by os on 5/2/22.
   3:src/_Thread.cpp **** //
   4:src/_Thread.cpp **** 
   5:src/_Thread.cpp **** #include "../h/_Thread.h"
   6:src/_Thread.cpp **** #include "../h/_Mem.h"
   7:src/_Thread.cpp **** #include "../h/_Scheduler.h"
   8:src/_Thread.cpp **** #include "../h/_Sleep.h"
   9:src/_Thread.cpp **** #include "../h/_SBIT.h"
  10:src/_Thread.cpp **** #include "../h/_Sem.h"
  11:src/_Thread.cpp **** #include "../h/_Console.h"
  12:src/_Thread.cpp **** #include "../h/_WaitManager.h"
  13:src/_Thread.cpp **** 
  14:src/_Thread.cpp **** thread_t _Thread::running = nullptr;//globalna promenljiva koja ukazuje ne pcb trenutno izvrsavane 
  15:src/_Thread.cpp **** int _Thread::total = 0;//ukupan broj startovanih niti (ukljucujuci uspavane)
  16:src/_Thread.cpp **** int _Thread::user = 0;//ukupan broj nedemonskih niti
  17:src/_Thread.cpp **** time_t _Thread::time = DEFAULT_TIME_SLICE;
  18:src/_Thread.cpp **** time_t _Thread::clock = 0;
  19:src/_Thread.cpp **** const size_t _Thread::DEFAULT_SSP_SIZE = 4096*2;
  20:src/_Thread.cpp **** thread_t _Thread::main;
  21:src/_Thread.cpp **** 
  22:src/_Thread.cpp **** kmem_cache_t* _Thread::cache = nullptr;
  23:src/_Thread.cpp **** 
  24:src/_Thread.cpp **** void* _Thread::operator new(size_t) {
  17              		.loc 1 24 37
  18              		.cfi_startproc
  19 0000 130101FF 		addi	sp,sp,-16
  20              		.cfi_def_cfa_offset 16
  21 0004 23341100 		sd	ra,8(sp)
  22 0008 23308100 		sd	s0,0(sp)
  23              		.cfi_offset 1, -8
  24              		.cfi_offset 8, -16
  25 000c 13040101 		addi	s0,sp,16
  26              		.cfi_def_cfa 8, 0
  25:src/_Thread.cpp ****     if (!cache) cache = kmem_cache_create("Thread Cache", sizeof(_Thread), nullptr, nullptr);
  27              		.loc 1 25 5
  28              		.loc 1 25 9 is_stmt 0
  29 0010 97070000 		ld	a5,.LANCHOR0
  29      83B70700 
GAS LISTING /tmp/ccl1Ltrc.s 			page 2


  30              		.loc 1 25 5
  31 0018 63820702 		beqz	a5,.L4
  32              	.L2:
  26:src/_Thread.cpp ****     return kmem_cache_alloc(cache);
  33              		.loc 1 26 5 is_stmt 1
  34              		.loc 1 26 28 is_stmt 0
  35 001c 17050000 		ld	a0,.LANCHOR0
  35      03350500 
  36 0024 97000000 		call	_Z16kmem_cache_allocP12kmem_cache_t@plt
  36      E7800000 
  37              	.LVL0:
  27:src/_Thread.cpp **** }
  38              		.loc 1 27 1
  39 002c 83308100 		ld	ra,8(sp)
  40              		.cfi_remember_state
  41              		.cfi_restore 1
  42 0030 03340100 		ld	s0,0(sp)
  43              		.cfi_restore 8
  44              		.cfi_def_cfa 2, 16
  45 0034 13010101 		addi	sp,sp,16
  46              		.cfi_def_cfa_offset 0
  47 0038 67800000 		jr	ra
  48              	.L4:
  49              		.cfi_restore_state
  25:src/_Thread.cpp ****     if (!cache) cache = kmem_cache_create("Thread Cache", sizeof(_Thread), nullptr, nullptr);
  50              		.loc 1 25 17 is_stmt 1 discriminator 1
  25:src/_Thread.cpp ****     if (!cache) cache = kmem_cache_create("Thread Cache", sizeof(_Thread), nullptr, nullptr);
  51              		.loc 1 25 42 is_stmt 0 discriminator 1
  52 003c 93060000 		li	a3,0
  53 0040 13060000 		li	a2,0
  54 0044 93058004 		li	a1,72
  55 0048 17050000 		lla	a0,.LC0
  55      13050500 
  56 0050 97000000 		call	_Z17kmem_cache_createPKcmPFvPvES3_@plt
  56      E7800000 
  57              	.LVL1:
  25:src/_Thread.cpp ****     if (!cache) cache = kmem_cache_create("Thread Cache", sizeof(_Thread), nullptr, nullptr);
  58              		.loc 1 25 23 discriminator 1
  59 0058 97070000 		sd	a0,.LANCHOR0,a5
  59      23B0A700 
  60 0060 6FF0DFFB 		j	.L2
  61              		.cfi_endproc
  62              	.LFE33:
  64              		.align	2
  65              		.globl	_ZN7_ThreaddlEPv
  67              	_ZN7_ThreaddlEPv:
  68              	.LFB34:
  28:src/_Thread.cpp **** void _Thread::operator delete(void* addr) {
  69              		.loc 1 28 43 is_stmt 1
  70              		.cfi_startproc
  71              	.LVL2:
  72 0064 130101FF 		addi	sp,sp,-16
  73              		.cfi_def_cfa_offset 16
  74 0068 23341100 		sd	ra,8(sp)
  75 006c 23308100 		sd	s0,0(sp)
  76              		.cfi_offset 1, -8
  77              		.cfi_offset 8, -16
GAS LISTING /tmp/ccl1Ltrc.s 			page 3


  78 0070 13040101 		addi	s0,sp,16
  79              		.cfi_def_cfa 8, 0
  80 0074 93050500 		mv	a1,a0
  29:src/_Thread.cpp ****     kmem_cache_free(cache, addr);
  81              		.loc 1 29 5
  82              		.loc 1 29 20 is_stmt 0
  83 0078 17050000 		ld	a0,.LANCHOR0
  83      03350500 
  84              	.LVL3:
  85 0080 97000000 		call	_Z15kmem_cache_freeP12kmem_cache_tPv@plt
  85      E7800000 
  86              	.LVL4:
  30:src/_Thread.cpp **** }
  87              		.loc 1 30 1
  88 0088 83308100 		ld	ra,8(sp)
  89              		.cfi_restore 1
  90 008c 03340100 		ld	s0,0(sp)
  91              		.cfi_restore 8
  92              		.cfi_def_cfa 2, 16
  93 0090 13010101 		addi	sp,sp,16
  94              		.cfi_def_cfa_offset 0
  95 0094 67800000 		jr	ra
  96              		.cfi_endproc
  97              	.LFE34:
  99              		.align	2
 100              		.globl	_ZN7_ThreadD2Ev
 102              	_ZN7_ThreadD2Ev:
 103              	.LFB36:
  31:src/_Thread.cpp **** _Thread::~_Thread() {}
 104              		.loc 1 31 1 is_stmt 1
 105              		.cfi_startproc
 106              	.LVL5:
 107 0098 130101FF 		addi	sp,sp,-16
 108              		.cfi_def_cfa_offset 16
 109 009c 23348100 		sd	s0,8(sp)
 110              		.cfi_offset 8, -8
 111 00a0 13040101 		addi	s0,sp,16
 112              		.cfi_def_cfa 8, 0
 113              		.loc 1 31 22 is_stmt 0
 114 00a4 03348100 		ld	s0,8(sp)
 115              		.cfi_restore 8
 116              		.cfi_def_cfa 2, 16
 117 00a8 13010101 		addi	sp,sp,16
 118              		.cfi_def_cfa_offset 0
 119 00ac 67800000 		jr	ra
 120              		.cfi_endproc
 121              	.LFE36:
 123              		.globl	_ZN7_ThreadD1Ev
 124              		.set	_ZN7_ThreadD1Ev,_ZN7_ThreadD2Ev
 125              		.align	2
 126              		.globl	_ZN7_ThreadC2EPFPvS0_ES0_S0_mibb
 128              	_ZN7_ThreadC2EPFPvS0_ES0_S0_mibb:
 129              	.LFB39:
  32:src/_Thread.cpp **** _Thread::_Thread(void* (*startRoutine)(void*), void* arg, void* stackSpace, size_t stackSize, int p
 130              		.loc 1 32 1 is_stmt 1
 131              		.cfi_startproc
 132              	.LVL6:
GAS LISTING /tmp/ccl1Ltrc.s 			page 4


 133 00b0 130101FD 		addi	sp,sp,-48
 134              		.cfi_def_cfa_offset 48
 135 00b4 23341102 		sd	ra,40(sp)
 136 00b8 23308102 		sd	s0,32(sp)
 137 00bc 233C9100 		sd	s1,24(sp)
 138 00c0 23382101 		sd	s2,16(sp)
 139 00c4 23343101 		sd	s3,8(sp)
 140              		.cfi_offset 1, -8
 141              		.cfi_offset 8, -16
 142              		.cfi_offset 9, -24
 143              		.cfi_offset 18, -32
 144              		.cfi_offset 19, -40
 145 00c8 13040103 		addi	s0,sp,48
 146              		.cfi_def_cfa 8, 0
 147 00cc 93040500 		mv	s1,a0
 148 00d0 93890500 		mv	s3,a1
 149 00d4 13090600 		mv	s2,a2
 150              	.LBB14:
  33:src/_Thread.cpp ****     flags = 0u;
 151              		.loc 1 33 5
 152              		.loc 1 33 11 is_stmt 0
 153 00d8 23240502 		sw	zero,40(a0)
  34:src/_Thread.cpp ****     if (daemon) flags |= 32u;
 154              		.loc 1 34 5 is_stmt 1
 155 00dc 63060800 		beqz	a6,.L10
 156              		.loc 1 34 17 discriminator 1
 157              		.loc 1 34 23 is_stmt 0 discriminator 1
 158 00e0 13060002 		li	a2,32
 159              	.LVL7:
 160 00e4 2324C502 		sw	a2,40(a0)
 161              	.L10:
  35:src/_Thread.cpp ****     this->priority = priority;
 162              		.loc 1 35 5 is_stmt 1
 163              		.loc 1 35 20 is_stmt 0
 164 00e8 23A6F402 		sw	a5,44(s1)
  36:src/_Thread.cpp ****     parent = running;
 165              		.loc 1 36 5 is_stmt 1
 166              		.loc 1 36 12 is_stmt 0
 167 00ec 97070000 		ld	a5,.LANCHOR0+8
 167      83B70700 
 168              	.LVL8:
 169 00f4 23B8F402 		sd	a5,48(s1)
  37:src/_Thread.cpp ****     waitManager = nullptr;
 170              		.loc 1 37 5 is_stmt 1
 171              		.loc 1 37 17 is_stmt 0
 172 00f8 23B00404 		sd	zero,64(s1)
  38:src/_Thread.cpp ****     if (isVoid) returnValue = nullptr;
 173              		.loc 1 38 5 is_stmt 1
 174 00fc 63860806 		beqz	a7,.L11
 175              		.loc 1 38 17 discriminator 1
 176              		.loc 1 38 29 is_stmt 0 discriminator 1
 177 0100 23BC0402 		sd	zero,56(s1)
 178              	.L12:
  39:src/_Thread.cpp ****     else returnValue = (void*)1;
  40:src/_Thread.cpp **** 
  41:src/_Thread.cpp ****     sp = stackSpace;
 179              		.loc 1 41 5 is_stmt 1
GAS LISTING /tmp/ccl1Ltrc.s 			page 5


  42:src/_Thread.cpp ****     sptop = (void *) ((char *) sp - stackSize);
 180              		.loc 1 42 5
 181              		.loc 1 42 13 is_stmt 0
 182 0104 3387E640 		sub	a4,a3,a4
 183              	.LVL9:
 184              		.loc 1 42 11
 185 0108 23B8E400 		sd	a4,16(s1)
  43:src/_Thread.cpp ****     sp = (void *) ((uint64) sp - (uint64) sp % 16);
 186              		.loc 1 43 5 is_stmt 1
 187              		.loc 1 43 32 is_stmt 0
 188 010c 93F606FF 		andi	a3,a3,-16
 189              	.LVL10:
 190              		.loc 1 43 8
 191 0110 23B0D400 		sd	a3,0(s1)
  44:src/_Thread.cpp ****     ssptop = _Mem::allocate((_Thread::DEFAULT_SSP_SIZE));
 192              		.loc 1 44 5 is_stmt 1
 193              		.loc 1 44 28 is_stmt 0
 194 0114 37250000 		li	a0,8192
 195              	.LVL11:
 196 0118 97000000 		call	_ZN4_Mem8allocateEm@plt
 196      E7800000 
 197              	.LVL12:
 198              		.loc 1 44 12
 199 0120 23BCA400 		sd	a0,24(s1)
  45:src/_Thread.cpp ****     ssp = (char*)ssptop + _Thread::DEFAULT_SSP_SIZE;
 200              		.loc 1 45 5 is_stmt 1
 201              		.loc 1 45 25 is_stmt 0
 202 0124 B7270000 		li	a5,8192
 203 0128 3305F500 		add	a0,a0,a5
  46:src/_Thread.cpp ****     ssp = (void*)((uint64)ssp - (uint64)ssp%16); //sp i ssp moraju biti deljivi sa 16
 204              		.loc 1 46 5 is_stmt 1
 205              		.loc 1 46 31 is_stmt 0
 206 012c 137505FF 		andi	a0,a0,-16
 207              		.loc 1 46 9
 208 0130 23B4A400 		sd	a0,8(s1)
  47:src/_Thread.cpp ****     //stavljam na sstek start_routine i arg kako be starter mogao da zapocne nit
  48:src/_Thread.cpp ****     __asm__ volatile("mv t5, %0": : "r"(ssp));
 209              		.loc 1 48 5 is_stmt 1
 210              		.loc 1 48 46 is_stmt 0
 211              	#APP
 212              	# 48 "src/_Thread.cpp" 1
  49              	    __asm__ volatile("sd %0, -8(t5)" : : "r"(startRoutine));
 213              		mv t5, a0
 214              	# 0 "" 2
 215              		.loc 1 49 5 is_stmt 1
 216              		.loc 1 49 60 is_stmt 0
 217              	# 49 "src/_Thread.cpp" 1
  50              	    __asm__ volatile("sd %0, -16(t5)" : : "r"(arg));
 218              		sd s3, -8(t5)
 219              	# 0 "" 2
 220              		.loc 1 50 5 is_stmt 1
 221              		.loc 1 50 52 is_stmt 0
 222              	# 50 "src/_Thread.cpp" 1
  51              	    pc = (uint64) &starter;
 223              		sd s2, -16(t5)
 224              	# 0 "" 2
 225              		.loc 1 51 5 is_stmt 1
GAS LISTING /tmp/ccl1Ltrc.s 			page 6


 226              		.loc 1 51 8 is_stmt 0
 227              	#NO_APP
 228 0140 97070000 		la	a5,_ZN7_Thread7starterEv
 228      83B70700 
 229 0148 23B0F402 		sd	a5,32(s1)
 230              	.LBE14:
  52:src/_Thread.cpp **** }
 231              		.loc 1 52 1
 232 014c 83308102 		ld	ra,40(sp)
 233              		.cfi_remember_state
 234              		.cfi_restore 1
 235 0150 03340102 		ld	s0,32(sp)
 236              		.cfi_restore 8
 237              		.cfi_def_cfa 2, 48
 238 0154 83348101 		ld	s1,24(sp)
 239              		.cfi_restore 9
 240              	.LVL13:
 241 0158 03390101 		ld	s2,16(sp)
 242              		.cfi_restore 18
 243              	.LVL14:
 244 015c 83398100 		ld	s3,8(sp)
 245              		.cfi_restore 19
 246              	.LVL15:
 247 0160 13010103 		addi	sp,sp,48
 248              		.cfi_def_cfa_offset 0
 249 0164 67800000 		jr	ra
 250              	.LVL16:
 251              	.L11:
 252              		.cfi_restore_state
 253              	.LBB15:
  39:src/_Thread.cpp **** 
 254              		.loc 1 39 10 is_stmt 1
  39:src/_Thread.cpp **** 
 255              		.loc 1 39 22 is_stmt 0
 256 0168 93071000 		li	a5,1
 257 016c 23BCF402 		sd	a5,56(s1)
 258 0170 6FF05FF9 		j	.L12
 259              	.LBE15:
 260              		.cfi_endproc
 261              	.LFE39:
 263              		.globl	_ZN7_ThreadC1EPFPvS0_ES0_S0_mibb
 264              		.set	_ZN7_ThreadC1EPFPvS0_ES0_S0_mibb,_ZN7_ThreadC2EPFPvS0_ES0_S0_mibb
 265              		.align	2
 266              		.globl	_ZN7_ThreadC2EPFPvS0_ES0_mibb
 268              	_ZN7_ThreadC2EPFPvS0_ES0_mibb:
 269              	.LFB42:
  53:src/_Thread.cpp **** _Thread::_Thread(void* (*startRoutine)(void*), void* arg, size_t stackSize, int priority, bool daem
 270              		.loc 1 53 1 is_stmt 1
 271              		.cfi_startproc
 272              	.LVL17:
 273 0174 130101FB 		addi	sp,sp,-80
 274              		.cfi_def_cfa_offset 80
 275 0178 23341104 		sd	ra,72(sp)
 276 017c 23308104 		sd	s0,64(sp)
 277 0180 233C9102 		sd	s1,56(sp)
 278 0184 23382103 		sd	s2,48(sp)
 279 0188 23343103 		sd	s3,40(sp)
GAS LISTING /tmp/ccl1Ltrc.s 			page 7


 280 018c 23304103 		sd	s4,32(sp)
 281 0190 233C5101 		sd	s5,24(sp)
 282 0194 23386101 		sd	s6,16(sp)
 283 0198 23347101 		sd	s7,8(sp)
 284              		.cfi_offset 1, -8
 285              		.cfi_offset 8, -16
 286              		.cfi_offset 9, -24
 287              		.cfi_offset 18, -32
 288              		.cfi_offset 19, -40
 289              		.cfi_offset 20, -48
 290              		.cfi_offset 21, -56
 291              		.cfi_offset 22, -64
 292              		.cfi_offset 23, -72
 293 019c 13040105 		addi	s0,sp,80
 294              		.cfi_def_cfa 8, 0
 295 01a0 13090500 		mv	s2,a0
 296 01a4 93890500 		mv	s3,a1
 297 01a8 130A0600 		mv	s4,a2
 298 01ac 93840600 		mv	s1,a3
 299 01b0 930A0700 		mv	s5,a4
 300 01b4 138B0700 		mv	s6,a5
 301 01b8 930B0800 		mv	s7,a6
 302              	.LBB16:
  54:src/_Thread.cpp **** _Thread(startRoutine, arg, (char*)_Mem::allocate(stackSize) + stackSize, stackSize, priority, daemo
 303              		.loc 1 54 49 is_stmt 0
 304 01bc 13850600 		mv	a0,a3
 305              	.LVL18:
 306 01c0 97000000 		call	_ZN4_Mem8allocateEm@plt
 306      E7800000 
 307              	.LVL19:
 308              		.loc 1 54 109
 309 01c8 93880B00 		mv	a7,s7
 310 01cc 13080B00 		mv	a6,s6
 311 01d0 93870A00 		mv	a5,s5
 312 01d4 13870400 		mv	a4,s1
 313 01d8 B3069500 		add	a3,a0,s1
 314 01dc 13060A00 		mv	a2,s4
 315 01e0 93850900 		mv	a1,s3
 316 01e4 13050900 		mv	a0,s2
 317 01e8 97000000 		call	_ZN7_ThreadC1EPFPvS0_ES0_S0_mibb
 317      E7800000 
 318              	.LVL20:
 319              	.LBE16:
 320              		.loc 1 54 112
 321 01f0 83308104 		ld	ra,72(sp)
 322              		.cfi_restore 1
 323 01f4 03340104 		ld	s0,64(sp)
 324              		.cfi_restore 8
 325              		.cfi_def_cfa 2, 80
 326 01f8 83348103 		ld	s1,56(sp)
 327              		.cfi_restore 9
 328              	.LVL21:
 329 01fc 03390103 		ld	s2,48(sp)
 330              		.cfi_restore 18
 331              	.LVL22:
 332 0200 83398102 		ld	s3,40(sp)
 333              		.cfi_restore 19
GAS LISTING /tmp/ccl1Ltrc.s 			page 8


 334              	.LVL23:
 335 0204 033A0102 		ld	s4,32(sp)
 336              		.cfi_restore 20
 337              	.LVL24:
 338 0208 833A8101 		ld	s5,24(sp)
 339              		.cfi_restore 21
 340 020c 033B0101 		ld	s6,16(sp)
 341              		.cfi_restore 22
 342 0210 833B8100 		ld	s7,8(sp)
 343              		.cfi_restore 23
 344 0214 13010105 		addi	sp,sp,80
 345              		.cfi_def_cfa_offset 0
 346 0218 67800000 		jr	ra
 347              		.cfi_endproc
 348              	.LFE42:
 350              		.globl	_ZN7_ThreadC1EPFPvS0_ES0_mibb
 351              		.set	_ZN7_ThreadC1EPFPvS0_ES0_mibb,_ZN7_ThreadC2EPFPvS0_ES0_mibb
 352              		.align	2
 353              		.globl	_ZN7_ThreadC2EPFPvS0_ES0_ibb
 355              	_ZN7_ThreadC2EPFPvS0_ES0_ibb:
 356              	.LFB45:
  55:src/_Thread.cpp **** _Thread::_Thread(void* (*startRoutine)(void*), void* arg, int priority, bool daemon, bool isVoid) :
 357              		.loc 1 55 1 is_stmt 1
 358              		.cfi_startproc
 359              	.LVL25:
 360 021c 130101FE 		addi	sp,sp,-32
 361              		.cfi_def_cfa_offset 32
 362 0220 233C1100 		sd	ra,24(sp)
 363 0224 23388100 		sd	s0,16(sp)
 364 0228 23349100 		sd	s1,8(sp)
 365              		.cfi_offset 1, -8
 366              		.cfi_offset 8, -16
 367              		.cfi_offset 9, -24
 368 022c 13040102 		addi	s0,sp,32
 369              		.cfi_def_cfa 8, 0
 370 0230 93040500 		mv	s1,a0
 371              	.LBB17:
  56:src/_Thread.cpp **** _Thread(startRoutine, arg, nullptr, 0, priority, daemon, isVoid) { pc = (uint64) &sstarter; }
 372              		.loc 1 56 64 is_stmt 0
 373 0234 93880700 		mv	a7,a5
 374 0238 13080700 		mv	a6,a4
 375 023c 93870600 		mv	a5,a3
 376              	.LVL26:
 377 0240 13070000 		li	a4,0
 378              	.LVL27:
 379 0244 93060000 		li	a3,0
 380              	.LVL28:
 381 0248 97000000 		call	_ZN7_ThreadC1EPFPvS0_ES0_S0_mibb
 381      E7800000 
 382              	.LVL29:
 383              		.loc 1 56 68 is_stmt 1
 384              		.loc 1 56 71 is_stmt 0
 385 0250 97070000 		la	a5,_ZN7_Thread8sstarterEv
 385      83B70700 
 386 0258 23B0F402 		sd	a5,32(s1)
 387              	.LBE17:
 388              		.loc 1 56 93
GAS LISTING /tmp/ccl1Ltrc.s 			page 9


 389 025c 83308101 		ld	ra,24(sp)
 390              		.cfi_restore 1
 391 0260 03340101 		ld	s0,16(sp)
 392              		.cfi_restore 8
 393              		.cfi_def_cfa 2, 32
 394 0264 83348100 		ld	s1,8(sp)
 395              		.cfi_restore 9
 396              	.LVL30:
 397 0268 13010102 		addi	sp,sp,32
 398              		.cfi_def_cfa_offset 0
 399 026c 67800000 		jr	ra
 400              		.cfi_endproc
 401              	.LFE45:
 403              		.globl	_ZN7_ThreadC1EPFPvS0_ES0_ibb
 404              		.set	_ZN7_ThreadC1EPFPvS0_ES0_ibb,_ZN7_ThreadC2EPFPvS0_ES0_ibb
 405              		.align	2
 406              		.globl	_ZN7_ThreadC2Ev
 408              	_ZN7_ThreadC2Ev:
 409              	.LFB48:
  57:src/_Thread.cpp **** _Thread::_Thread() {
 410              		.loc 1 57 1 is_stmt 1
 411              		.cfi_startproc
 412              	.LVL31:
 413 0270 130101FF 		addi	sp,sp,-16
 414              		.cfi_def_cfa_offset 16
 415 0274 23348100 		sd	s0,8(sp)
 416              		.cfi_offset 8, -8
 417 0278 13040101 		addi	s0,sp,16
 418              		.cfi_def_cfa 8, 0
 419              	.LBB18:
  58:src/_Thread.cpp ****     sp = ssp = sptop = ssptop = nullptr;
 420              		.loc 1 58 5
 421              		.loc 1 58 31 is_stmt 0
 422 027c 233C0500 		sd	zero,24(a0)
 423              		.loc 1 58 22
 424 0280 23380500 		sd	zero,16(a0)
 425              		.loc 1 58 14
 426 0284 23340500 		sd	zero,8(a0)
 427              		.loc 1 58 8
 428 0288 23300500 		sd	zero,0(a0)
  59:src/_Thread.cpp ****     flags =  4;
 429              		.loc 1 59 5 is_stmt 1
 430              		.loc 1 59 11 is_stmt 0
 431 028c 93074000 		li	a5,4
 432 0290 2324F502 		sw	a5,40(a0)
  60:src/_Thread.cpp ****     parent = nullptr; waitManager =  nullptr; priority = TOP_PRIORITY; returnValue = nullptr; pc = 
 433              		.loc 1 60 5 is_stmt 1
 434              		.loc 1 60 12 is_stmt 0
 435 0294 23380502 		sd	zero,48(a0)
 436              		.loc 1 60 23 is_stmt 1
 437              		.loc 1 60 35 is_stmt 0
 438 0298 23300504 		sd	zero,64(a0)
 439              		.loc 1 60 47 is_stmt 1
 440              		.loc 1 60 56 is_stmt 0
 441 029c 9307803E 		li	a5,1000
 442 02a0 2326F502 		sw	a5,44(a0)
 443              		.loc 1 60 72 is_stmt 1
GAS LISTING /tmp/ccl1Ltrc.s 			page 10


 444              		.loc 1 60 84 is_stmt 0
 445 02a4 233C0502 		sd	zero,56(a0)
 446              		.loc 1 60 95 is_stmt 1
 447              		.loc 1 60 98 is_stmt 0
 448 02a8 23300502 		sd	zero,32(a0)
 449              	.LBE18:
  61:src/_Thread.cpp **** }
 450              		.loc 1 61 1
 451 02ac 03348100 		ld	s0,8(sp)
 452              		.cfi_restore 8
 453              		.cfi_def_cfa 2, 16
 454 02b0 13010101 		addi	sp,sp,16
 455              		.cfi_def_cfa_offset 0
 456 02b4 67800000 		jr	ra
 457              		.cfi_endproc
 458              	.LFE48:
 460              		.globl	_ZN7_ThreadC1Ev
 461              		.set	_ZN7_ThreadC1Ev,_ZN7_ThreadC2Ev
 462              		.align	2
 463              		.globl	_ZN7_Thread8busyWaitEv
 465              	_ZN7_Thread8busyWaitEv:
 466              	.LFB59:
  62:src/_Thread.cpp **** 
  63:src/_Thread.cpp **** /*Za kreiranje niti postoje 3*3 opcije:
  64:src/_Thread.cpp ****  * vrsta rutine (void* void*, void void*, void void)
  65:src/_Thread.cpp ****  * alociranje steka : vec alociran, nije alociran i prosledjena je velicina, ne treba alocirati (si
  66:src/_Thread.cpp **** */
  67:src/_Thread.cpp **** int _Thread::create(thread_t* handle, void* (*startRoutine)(void*), void* arg, void* stackSpace, si
  68:src/_Thread.cpp ****     thread_t t = new _Thread(startRoutine, arg, stackSpace, stackSize, priority, (options & SET_DAE
  69:src/_Thread.cpp ****     if (!t || !t->ssptop) return -1; //greska u alokaciji
  70:src/_Thread.cpp ****     if (handle) *handle = t;
  71:src/_Thread.cpp ****     if (options & SET_START) return t->start();
  72:src/_Thread.cpp ****     return 0;
  73:src/_Thread.cpp **** }
  74:src/_Thread.cpp **** int _Thread::create(thread_t* handle, void* (*startRoutine)(void*), void* arg, size_t stackSize, in
  75:src/_Thread.cpp ****     thread_t t = new _Thread(startRoutine, arg, stackSize, priority, (options & SET_DAEMON) || runn
  76:src/_Thread.cpp ****     if (!t || !t->ssptop) return -1; //greska u alokaciji
  77:src/_Thread.cpp ****     if (handle) *handle = t;
  78:src/_Thread.cpp ****     if (options & SET_START) return t->start();
  79:src/_Thread.cpp ****     return 0;
  80:src/_Thread.cpp **** }
  81:src/_Thread.cpp **** int _Thread::create(thread_t* handle, void* (*startRoutine)(void*), void* arg, int priority, int op
  82:src/_Thread.cpp ****     thread_t t = new _Thread(startRoutine, arg, priority, (options & SET_DAEMON) || running->daemon
  83:src/_Thread.cpp ****     if (!t || !t->ssptop) return -1; //greska u alokaciji
  84:src/_Thread.cpp ****     if (handle) *handle = t;
  85:src/_Thread.cpp ****     if (options & SET_START) return t->start();
  86:src/_Thread.cpp ****     return 0;
  87:src/_Thread.cpp **** }
  88:src/_Thread.cpp **** int _Thread::create(thread_t* handle, void (*startRoutine)(void*), void* arg, void* stackSpace, siz
  89:src/_Thread.cpp ****     thread_t t = new _Thread((void*(*)(void*))startRoutine, arg, stackSpace, stackSize, priority, (
  90:src/_Thread.cpp ****     if (!t) return -1; //greska u alokaciji
  91:src/_Thread.cpp ****     if (handle) *handle = t;
  92:src/_Thread.cpp ****     if (options & SET_START) return t->start();
  93:src/_Thread.cpp ****     return 0;
  94:src/_Thread.cpp **** }
  95:src/_Thread.cpp **** int _Thread::create(thread_t* handle, void (*startRoutine)(void*), void* arg, size_t stackSize, int
  96:src/_Thread.cpp ****     thread_t t = new _Thread((void*(*)(void*))startRoutine, arg, stackSize, priority, (options & SE
GAS LISTING /tmp/ccl1Ltrc.s 			page 11


  97:src/_Thread.cpp ****     if (!t) return -1; //greska u alokaciji
  98:src/_Thread.cpp ****     if (handle) *handle = t;
  99:src/_Thread.cpp ****     if (options & SET_START) return t->start();
 100:src/_Thread.cpp ****     return 0;
 101:src/_Thread.cpp **** }
 102:src/_Thread.cpp **** int _Thread::create(thread_t* handle, void (*startRoutine)(void*), void* arg, int priority, int opt
 103:src/_Thread.cpp ****     thread_t t = new _Thread((void*(*)(void*))startRoutine, arg, priority, (options & SET_DAEMON) |
 104:src/_Thread.cpp ****     if (!t || !t->ssptop) return -1; //greska u alokaciji
 105:src/_Thread.cpp ****     if (handle) *handle = t;
 106:src/_Thread.cpp ****     if (options & SET_START) return t->start();
 107:src/_Thread.cpp ****     return 0;
 108:src/_Thread.cpp **** }
 109:src/_Thread.cpp **** int _Thread::create(thread_t* handle, void (*startRoutine)(void), void* stackSpace, size_t stackSiz
 110:src/_Thread.cpp ****     return create(handle, (void(*)(void*))startRoutine, nullptr, stackSpace, stackSize, priority, o
 111:src/_Thread.cpp **** }
 112:src/_Thread.cpp **** int _Thread::create(thread_t* handle, void (*startRoutine)(void), size_t stackSize, int priority, i
 113:src/_Thread.cpp ****     return create(handle, (void(*)(void*))startRoutine, nullptr, stackSize, priority, options);
 114:src/_Thread.cpp **** }
 115:src/_Thread.cpp **** int _Thread::create(thread_t* handle, void (*startRoutine)(void), int priority, int options) {
 116:src/_Thread.cpp ****     return create(handle, (void(*)(void*))startRoutine, nullptr, priority, options);
 117:src/_Thread.cpp **** }
 118:src/_Thread.cpp **** //cekanje da se probudi neka nit (ili da prodje buffer semafor)
 119:src/_Thread.cpp **** //pritom moraju da budu dozvoljeni prekidi tajmera da bi tajmer mogao da radi svoj posao
 120:src/_Thread.cpp **** //kao i hardvera u slucaju da sve niti npr cekaju da ucitaju karakter
 121:src/_Thread.cpp **** void _Thread::busyWait() {
 467              		.loc 1 121 26 is_stmt 1
 468              		.cfi_startproc
 469 02b8 130101FF 		addi	sp,sp,-16
 470              		.cfi_def_cfa_offset 16
 471 02bc 23341100 		sd	ra,8(sp)
 472 02c0 23308100 		sd	s0,0(sp)
 473              		.cfi_offset 1, -8
 474              		.cfi_offset 8, -16
 475 02c4 13040101 		addi	s0,sp,16
 476              		.cfi_def_cfa 8, 0
 122:src/_Thread.cpp ****     time = 1000;
 477              		.loc 1 122 5
 478              		.loc 1 122 10 is_stmt 0
 479 02c8 9307803E 		li	a5,1000
 480 02cc 17070000 		sd	a5,.LANCHOR1,a4
 480      2330F700 
 123:src/_Thread.cpp ****     _SBIT::SIEenable();//dozvola prekida (tajmera)
 481              		.loc 1 123 5 is_stmt 1
 482              		.loc 1 123 21 is_stmt 0
 483 02d4 97000000 		call	_ZN5_SBIT9SIEenableEv@plt
 483      E7800000 
 484              	.LVL32:
 485              	.L22:
 124:src/_Thread.cpp ****     while (_Scheduler::empty()) time = 1000;
 486              		.loc 1 124 5 is_stmt 1 discriminator 2
 487              		.loc 1 124 30 discriminator 2
 488              		.loc 1 124 29 is_stmt 0 discriminator 2
 489 02dc 97000000 		call	_ZN10_Scheduler5emptyEv@plt
 489      E7800000 
 490              	.LVL33:
 491              		.loc 1 124 30 discriminator 2
 492 02e4 630A0500 		beqz	a0,.L21
GAS LISTING /tmp/ccl1Ltrc.s 			page 12


 493              		.loc 1 124 33 is_stmt 1 discriminator 1
 494              		.loc 1 124 38 is_stmt 0 discriminator 1
 495 02e8 9307803E 		li	a5,1000
 496 02ec 17070000 		sd	a5,.LANCHOR1,a4
 496      2330F700 
 497              		.loc 1 124 5 discriminator 1
 498 02f4 6FF09FFE 		j	.L22
 499              	.L21:
 125:src/_Thread.cpp ****     _SBIT::SIEdisable();
 500              		.loc 1 125 5 is_stmt 1
 501              		.loc 1 125 22 is_stmt 0
 502 02f8 97000000 		call	_ZN5_SBIT10SIEdisableEv@plt
 502      E7800000 
 503              	.LVL34:
 126:src/_Thread.cpp ****     time = DEFAULT_TIME_SLICE;
 504              		.loc 1 126 5 is_stmt 1
 505              		.loc 1 126 10 is_stmt 0
 506 0300 93072000 		li	a5,2
 507 0304 17070000 		sd	a5,.LANCHOR1,a4
 507      2330F700 
 127:src/_Thread.cpp **** }
 508              		.loc 1 127 1
 509 030c 83308100 		ld	ra,8(sp)
 510              		.cfi_restore 1
 511 0310 03340100 		ld	s0,0(sp)
 512              		.cfi_restore 8
 513              		.cfi_def_cfa 2, 16
 514 0314 13010101 		addi	sp,sp,16
 515              		.cfi_def_cfa_offset 0
 516 0318 67800000 		jr	ra
 517              		.cfi_endproc
 518              	.LFE59:
 520              		.align	2
 521              		.globl	_ZN7_Thread5abortEv
 523              	_ZN7_Thread5abortEv:
 524              	.LFB61:
 128:src/_Thread.cpp **** 
 129:src/_Thread.cpp **** int _Thread::exit(void* ret) {
 130:src/_Thread.cpp ****     _SBIT::SIEdisable();
 131:src/_Thread.cpp ****     //ako jos ima niti, ali su sve uspavane, cekam da se neka probudi (ne racunajuci putter)
 132:src/_Thread.cpp ****     total--; if (!running->daemon()) user--;
 133:src/_Thread.cpp ****     if (running->returnValue) running->returnValue = ret;
 134:src/_Thread.cpp ****     running->finish();
 135:src/_Thread.cpp ****     if (running->parentWaiting()) running->parent->joinPass();//_Scheduler::put(running->parent);
 136:src/_Thread.cpp ****     if (user == 1) _Console::go->signal(); //signalizira se putter niti da su sve korisnicke niti z
 137:src/_Thread.cpp **** 
 138:src/_Thread.cpp ****     if (user > 0) busyWait();
 139:src/_Thread.cpp ****     //delete running;
 140:src/_Thread.cpp ****     _Mem::free(running->sptop); _Mem::free(running->ssptop);
 141:src/_Thread.cpp ****     //Odavde nadalje se i dalje koristi prostor koji je bio namenjen dealociranom ssp-u. To je u re
 142:src/_Thread.cpp ****     //1) sigurno do prelaska na kontekst sledece niti nece se alocirati taj, ni bilo koji drugi deo
 143:src/_Thread.cpp ****     //2) sigurno se nece menjati header oslobodjenog bloka - to bi se desilo samo u slucaju prekora
 144:src/_Thread.cpp ****     if (!user) {
 145:src/_Thread.cpp ****         running = main;
 146:src/_Thread.cpp ****     }
 147:src/_Thread.cpp ****     else _Scheduler::get(); //siguran sam da ce moci jer readyFirst != 0
 148:src/_Thread.cpp ****     __asm__ volatile("mv ra, %0" : : "r"(running->pc));
GAS LISTING /tmp/ccl1Ltrc.s 			page 13


 149:src/_Thread.cpp ****     __asm__ volatile("ret");
 150:src/_Thread.cpp ****     return 0;
 151:src/_Thread.cpp **** }
 152:src/_Thread.cpp **** void _Thread::abort() {
 525              		.loc 1 152 23 is_stmt 1
 526              		.cfi_startproc
 527 031c 130101FF 		addi	sp,sp,-16
 528              		.cfi_def_cfa_offset 16
 529 0320 23348100 		sd	s0,8(sp)
 530              		.cfi_offset 8, -8
 531 0324 13040101 		addi	s0,sp,16
 532              		.cfi_def_cfa 8, 0
 153:src/_Thread.cpp ****     running = main;
 533              		.loc 1 153 5
 534              		.loc 1 153 13 is_stmt 0
 535 0328 17070000 		lla	a4,.LANCHOR0
 535      13070700 
 536 0330 83370701 		ld	a5,16(a4)
 537 0334 2334F700 		sd	a5,8(a4)
 154:src/_Thread.cpp ****     __asm__ volatile("mv ra, %0" : : "r"(running->pc));
 538              		.loc 1 154 5 is_stmt 1
 539              		.loc 1 154 51 is_stmt 0
 540 0338 83B70702 		ld	a5,32(a5)
 541              		.loc 1 154 55
 542              	#APP
 543              	# 154 "src/_Thread.cpp" 1
 155              	    __asm__ volatile("ret");
 544              		mv ra, a5
 545              	# 0 "" 2
 546              		.loc 1 155 5 is_stmt 1
 547              		.loc 1 155 28 is_stmt 0
 548              	# 155 "src/_Thread.cpp" 1
 156              	}
 549              		ret
 550              	# 0 "" 2
 551              		.loc 1 156 1
 552              	#NO_APP
 553 0344 03348100 		ld	s0,8(sp)
 554              		.cfi_restore 8
 555              		.cfi_def_cfa 2, 16
 556 0348 13010101 		addi	sp,sp,16
 557              		.cfi_def_cfa_offset 0
 558 034c 67800000 		jr	ra
 559              		.cfi_endproc
 560              	.LFE61:
 562              		.align	2
 563              		.globl	_ZN7_Thread4tickEv
 565              	_ZN7_Thread4tickEv:
 566              	.LFB62:
 157:src/_Thread.cpp **** 
 158:src/_Thread.cpp **** void _Thread::tick() {
 567              		.loc 1 158 22 is_stmt 1
 568              		.cfi_startproc
 569 0350 130101FF 		addi	sp,sp,-16
 570              		.cfi_def_cfa_offset 16
 571 0354 23341100 		sd	ra,8(sp)
 572 0358 23308100 		sd	s0,0(sp)
GAS LISTING /tmp/ccl1Ltrc.s 			page 14


 573              		.cfi_offset 1, -8
 574              		.cfi_offset 8, -16
 575 035c 13040101 		addi	s0,sp,16
 576              		.cfi_def_cfa 8, 0
 159:src/_Thread.cpp ****     _Sleep::tick();
 577              		.loc 1 159 5
 578              		.loc 1 159 17 is_stmt 0
 579 0360 97000000 		call	_ZN6_Sleep4tickEv@plt
 579      E7800000 
 580              	.LVL35:
 160:src/_Thread.cpp ****     time--;
 581              		.loc 1 160 5 is_stmt 1
 582              		.loc 1 160 9 is_stmt 0
 583 0368 17070000 		lla	a4,.LANCHOR1
 583      13070700 
 584 0370 83370700 		ld	a5,0(a4)
 585 0374 9387F7FF 		addi	a5,a5,-1
 586 0378 2330F700 		sd	a5,0(a4)
 161:src/_Thread.cpp ****     clock++;
 587              		.loc 1 161 5 is_stmt 1
 588              		.loc 1 161 10 is_stmt 0
 589 037c 97060000 		lla	a3,.LANCHOR0
 589      93860600 
 590 0384 03B78601 		ld	a4,24(a3)
 591 0388 13071700 		addi	a4,a4,1
 592 038c 23BCE600 		sd	a4,24(a3)
 162:src/_Thread.cpp ****     if (time <= 0) {
 593              		.loc 1 162 5 is_stmt 1
 594 0390 638A0700 		beqz	a5,.L29
 595              	.L26:
 163:src/_Thread.cpp ****         _Scheduler::put(running); //stavljam _running u ready
 164:src/_Thread.cpp ****         time = DEFAULT_TIME_SLICE;
 165:src/_Thread.cpp ****         thread_dispatch();
 166:src/_Thread.cpp ****     }
 167:src/_Thread.cpp **** }
 596              		.loc 1 167 1 is_stmt 0
 597 0394 83308100 		ld	ra,8(sp)
 598              		.cfi_remember_state
 599              		.cfi_restore 1
 600 0398 03340100 		ld	s0,0(sp)
 601              		.cfi_restore 8
 602              		.cfi_def_cfa 2, 16
 603 039c 13010101 		addi	sp,sp,16
 604              		.cfi_def_cfa_offset 0
 605 03a0 67800000 		jr	ra
 606              	.L29:
 607              		.cfi_restore_state
 163:src/_Thread.cpp ****         _Scheduler::put(running); //stavljam _running u ready
 608              		.loc 1 163 9 is_stmt 1
 163:src/_Thread.cpp ****         _Scheduler::put(running); //stavljam _running u ready
 609              		.loc 1 163 24 is_stmt 0
 610 03a4 17050000 		ld	a0,.LANCHOR0+8
 610      03350500 
 611 03ac 97000000 		call	_ZN10_Scheduler3putEP7_Thread@plt
 611      E7800000 
 612              	.LVL36:
 164:src/_Thread.cpp ****         thread_dispatch();
GAS LISTING /tmp/ccl1Ltrc.s 			page 15


 613              		.loc 1 164 9 is_stmt 1
 164:src/_Thread.cpp ****         thread_dispatch();
 614              		.loc 1 164 14 is_stmt 0
 615 03b4 93072000 		li	a5,2
 616 03b8 17070000 		sd	a5,.LANCHOR1,a4
 616      2330F700 
 165:src/_Thread.cpp ****     }
 617              		.loc 1 165 9 is_stmt 1
 165:src/_Thread.cpp ****     }
 618              		.loc 1 165 24 is_stmt 0
 619 03c0 97000000 		call	_ZN7_Thread15thread_dispatchEv@plt
 619      E7800000 
 620              	.LVL37:
 621              		.loc 1 167 1
 622 03c8 6FF0DFFC 		j	.L26
 623              		.cfi_endproc
 624              	.LFE62:
 626              		.align	2
 627              		.globl	_ZN7_Thread8dispatchEv
 629              	_ZN7_Thread8dispatchEv:
 630              	.LFB64:
 168:src/_Thread.cpp **** 
 169:src/_Thread.cpp **** int _Thread::timeSleep(time_t time) {
 170:src/_Thread.cpp ****     if (_Thread::running->isInterrupted()) return 2; //prekinuta nit se automatski izbacuje
 171:src/_Thread.cpp ****     int ret;
 172:src/_Thread.cpp ****     //za time = 0 radi se samo dispatch
 173:src/_Thread.cpp ****     if (!time) {
 174:src/_Thread.cpp ****         ret = _Scheduler::put(running);
 175:src/_Thread.cpp ****         if (ret) return ret;
 176:src/_Thread.cpp ****     }
 177:src/_Thread.cpp ****     else {
 178:src/_Thread.cpp ****         ret = _Sleep::put(running, time);
 179:src/_Thread.cpp ****         if (ret) return ret;
 180:src/_Thread.cpp ****         _WaitManager* manager = new _SleepManager(_Thread::running);
 181:src/_Thread.cpp ****         if (!manager) return -1;
 182:src/_Thread.cpp ****         _Thread::running->setManager(manager);
 183:src/_Thread.cpp ****     }
 184:src/_Thread.cpp ****     safeDispatch();
 185:src/_Thread.cpp ****     return 0;
 186:src/_Thread.cpp **** }
 187:src/_Thread.cpp **** 
 188:src/_Thread.cpp **** void _Thread::dispatch() {
 631              		.loc 1 188 26 is_stmt 1
 632              		.cfi_startproc
 633 03cc 130101FF 		addi	sp,sp,-16
 634              		.cfi_def_cfa_offset 16
 635 03d0 23341100 		sd	ra,8(sp)
 636 03d4 23308100 		sd	s0,0(sp)
 637              		.cfi_offset 1, -8
 638              		.cfi_offset 8, -16
 639 03d8 13040101 		addi	s0,sp,16
 640              		.cfi_def_cfa 8, 0
 189:src/_Thread.cpp ****     _Scheduler::put(running);
 641              		.loc 1 189 5
 642              		.loc 1 189 20 is_stmt 0
 643 03dc 17050000 		ld	a0,.LANCHOR0+8
 643      03350500 
GAS LISTING /tmp/ccl1Ltrc.s 			page 16


 644 03e4 97000000 		call	_ZN10_Scheduler3putEP7_Thread@plt
 644      E7800000 
 645              	.LVL38:
 190:src/_Thread.cpp ****     time = DEFAULT_TIME_SLICE;
 646              		.loc 1 190 5 is_stmt 1
 647              		.loc 1 190 10 is_stmt 0
 648 03ec 93072000 		li	a5,2
 649 03f0 17070000 		sd	a5,.LANCHOR1,a4
 649      2330F700 
 191:src/_Thread.cpp ****     thread_dispatch();
 650              		.loc 1 191 5 is_stmt 1
 651              		.loc 1 191 20 is_stmt 0
 652 03f8 97000000 		call	_ZN7_Thread15thread_dispatchEv@plt
 652      E7800000 
 653              	.LVL39:
 192:src/_Thread.cpp **** }
 654              		.loc 1 192 1
 655 0400 83308100 		ld	ra,8(sp)
 656              		.cfi_restore 1
 657 0404 03340100 		ld	s0,0(sp)
 658              		.cfi_restore 8
 659              		.cfi_def_cfa 2, 16
 660 0408 13010101 		addi	sp,sp,16
 661              		.cfi_def_cfa_offset 0
 662 040c 67800000 		jr	ra
 663              		.cfi_endproc
 664              	.LFE64:
 666              		.align	2
 667              		.globl	_ZN7_Thread6kickedEv
 669              	_ZN7_Thread6kickedEv:
 670              	.LFB65:
 193:src/_Thread.cpp **** 
 194:src/_Thread.cpp **** int _Thread::kicked() {
 671              		.loc 1 194 23 is_stmt 1
 672              		.cfi_startproc
 673              	.LVL40:
 674 0410 130101FF 		addi	sp,sp,-16
 675              		.cfi_def_cfa_offset 16
 676 0414 23348100 		sd	s0,8(sp)
 677              		.cfi_offset 8, -8
 678 0418 13040101 		addi	s0,sp,16
 679              		.cfi_def_cfa 8, 0
 195:src/_Thread.cpp ****     if (flags & 1ul) {
 680              		.loc 1 195 5
 681              		.loc 1 195 9 is_stmt 0
 682 041c 83278502 		lw	a5,40(a0)
 683              		.loc 1 195 15
 684 0420 13F71700 		andi	a4,a5,1
 685              		.loc 1 195 5
 686 0424 631A0700 		bnez	a4,.L36
 196:src/_Thread.cpp ****         flags = flags & ~1ul;
 197:src/_Thread.cpp ****         return 1;
 198:src/_Thread.cpp ****     }
 199:src/_Thread.cpp ****     return 0;
 687              		.loc 1 199 12
 688 0428 13050000 		li	a0,0
 689              	.LVL41:
GAS LISTING /tmp/ccl1Ltrc.s 			page 17


 690              	.L33:
 200:src/_Thread.cpp **** }
 691              		.loc 1 200 1
 692 042c 03348100 		ld	s0,8(sp)
 693              		.cfi_remember_state
 694              		.cfi_restore 8
 695              		.cfi_def_cfa 2, 16
 696 0430 13010101 		addi	sp,sp,16
 697              		.cfi_def_cfa_offset 0
 698 0434 67800000 		jr	ra
 699              	.LVL42:
 700              	.L36:
 701              		.cfi_restore_state
 196:src/_Thread.cpp ****         flags = flags & ~1ul;
 702              		.loc 1 196 9 is_stmt 1
 196:src/_Thread.cpp ****         flags = flags & ~1ul;
 703              		.loc 1 196 23 is_stmt 0
 704 0438 93F7E7FF 		andi	a5,a5,-2
 196:src/_Thread.cpp ****         flags = flags & ~1ul;
 705              		.loc 1 196 15
 706 043c 2324F502 		sw	a5,40(a0)
 197:src/_Thread.cpp ****     }
 707              		.loc 1 197 9 is_stmt 1
 197:src/_Thread.cpp ****     }
 708              		.loc 1 197 16 is_stmt 0
 709 0440 13051000 		li	a0,1
 710              	.LVL43:
 711 0444 6FF09FFE 		j	.L33
 712              		.cfi_endproc
 713              	.LFE65:
 715              		.align	2
 716              		.globl	_ZN7_Thread4kickEv
 718              	_ZN7_Thread4kickEv:
 719              	.LFB66:
 201:src/_Thread.cpp **** void _Thread::kick() {
 720              		.loc 1 201 22 is_stmt 1
 721              		.cfi_startproc
 722              	.LVL44:
 723 0448 130101FF 		addi	sp,sp,-16
 724              		.cfi_def_cfa_offset 16
 725 044c 23348100 		sd	s0,8(sp)
 726              		.cfi_offset 8, -8
 727 0450 13040101 		addi	s0,sp,16
 728              		.cfi_def_cfa 8, 0
 202:src/_Thread.cpp ****     flags = flags | 1ul;
 729              		.loc 1 202 5
 730              		.loc 1 202 13 is_stmt 0
 731 0454 83278502 		lw	a5,40(a0)
 732              		.loc 1 202 19
 733 0458 93E71700 		ori	a5,a5,1
 734              		.loc 1 202 11
 735 045c 2324F502 		sw	a5,40(a0)
 203:src/_Thread.cpp **** }
 736              		.loc 1 203 1
 737 0460 03348100 		ld	s0,8(sp)
 738              		.cfi_restore 8
 739              		.cfi_def_cfa 2, 16
GAS LISTING /tmp/ccl1Ltrc.s 			page 18


 740 0464 13010101 		addi	sp,sp,16
 741              		.cfi_def_cfa_offset 0
 742 0468 67800000 		jr	ra
 743              		.cfi_endproc
 744              	.LFE66:
 746              		.align	2
 747              		.globl	_ZN7_Thread3topEv
 749              	_ZN7_Thread3topEv:
 750              	.LFB67:
 204:src/_Thread.cpp **** int _Thread::top() {
 751              		.loc 1 204 20 is_stmt 1
 752              		.cfi_startproc
 753              	.LVL45:
 754 046c 130101FF 		addi	sp,sp,-16
 755              		.cfi_def_cfa_offset 16
 756 0470 23348100 		sd	s0,8(sp)
 757              		.cfi_offset 8, -8
 758 0474 13040101 		addi	s0,sp,16
 759              		.cfi_def_cfa 8, 0
 205:src/_Thread.cpp ****     return priority == TOP_PRIORITY;
 760              		.loc 1 205 5
 761              		.loc 1 205 12 is_stmt 0
 762 0478 0325C502 		lw	a0,44(a0)
 763              	.LVL46:
 764              		.loc 1 205 21
 765 047c 130585C1 		addi	a0,a0,-1000
 206:src/_Thread.cpp **** }
 766              		.loc 1 206 1
 767 0480 13351500 		seqz	a0,a0
 768 0484 03348100 		ld	s0,8(sp)
 769              		.cfi_restore 8
 770              		.cfi_def_cfa 2, 16
 771 0488 13010101 		addi	sp,sp,16
 772              		.cfi_def_cfa_offset 0
 773 048c 67800000 		jr	ra
 774              		.cfi_endproc
 775              	.LFE67:
 777              		.align	2
 778              		.globl	_ZN7_Thread7startedEv
 780              	_ZN7_Thread7startedEv:
 781              	.LFB69:
 207:src/_Thread.cpp **** int _Thread::start() {
 208:src/_Thread.cpp ****     if (started()) return 1;
 209:src/_Thread.cpp ****     flags = flags | 4u;
 210:src/_Thread.cpp ****     int ret = _Scheduler::put(this);
 211:src/_Thread.cpp ****     if (ret < 0) {
 212:src/_Thread.cpp ****         return ret; //greska u put (alokacija)
 213:src/_Thread.cpp ****     }
 214:src/_Thread.cpp ****     total++;
 215:src/_Thread.cpp ****     if (!daemon()) user++;
 216:src/_Thread.cpp ****     return 0;
 217:src/_Thread.cpp **** }
 218:src/_Thread.cpp **** int _Thread::started() {
 782              		.loc 1 218 24 is_stmt 1
 783              		.cfi_startproc
 784              	.LVL47:
 785 0490 130101FF 		addi	sp,sp,-16
GAS LISTING /tmp/ccl1Ltrc.s 			page 19


 786              		.cfi_def_cfa_offset 16
 787 0494 23348100 		sd	s0,8(sp)
 788              		.cfi_offset 8, -8
 789 0498 13040101 		addi	s0,sp,16
 790              		.cfi_def_cfa 8, 0
 219:src/_Thread.cpp ****     return (flags & 4u) != 0;
 791              		.loc 1 219 5
 792              		.loc 1 219 13 is_stmt 0
 793 049c 03258502 		lw	a0,40(a0)
 794              	.LVL48:
 795              		.loc 1 219 19
 796 04a0 13754500 		andi	a0,a0,4
 220:src/_Thread.cpp **** }
 797              		.loc 1 220 1
 798 04a4 3335A000 		snez	a0,a0
 799 04a8 03348100 		ld	s0,8(sp)
 800              		.cfi_restore 8
 801              		.cfi_def_cfa 2, 16
 802 04ac 13010101 		addi	sp,sp,16
 803              		.cfi_def_cfa_offset 0
 804 04b0 67800000 		jr	ra
 805              		.cfi_endproc
 806              	.LFE69:
 808              		.align	2
 809              		.globl	_ZN7_Thread6finishEv
 811              	_ZN7_Thread6finishEv:
 812              	.LFB70:
 221:src/_Thread.cpp **** void _Thread::finish() {
 813              		.loc 1 221 24 is_stmt 1
 814              		.cfi_startproc
 815              	.LVL49:
 816 04b4 130101FF 		addi	sp,sp,-16
 817              		.cfi_def_cfa_offset 16
 818 04b8 23348100 		sd	s0,8(sp)
 819              		.cfi_offset 8, -8
 820 04bc 13040101 		addi	s0,sp,16
 821              		.cfi_def_cfa 8, 0
 222:src/_Thread.cpp ****     flags = flags | 8u;
 822              		.loc 1 222 5
 823              		.loc 1 222 13 is_stmt 0
 824 04c0 83278502 		lw	a5,40(a0)
 825              		.loc 1 222 19
 826 04c4 93E78700 		ori	a5,a5,8
 827              		.loc 1 222 11
 828 04c8 2324F502 		sw	a5,40(a0)
 223:src/_Thread.cpp **** }
 829              		.loc 1 223 1
 830 04cc 03348100 		ld	s0,8(sp)
 831              		.cfi_restore 8
 832              		.cfi_def_cfa 2, 16
 833 04d0 13010101 		addi	sp,sp,16
 834              		.cfi_def_cfa_offset 0
 835 04d4 67800000 		jr	ra
 836              		.cfi_endproc
 837              	.LFE70:
 839              		.align	2
 840              		.globl	_ZN7_Thread8finishedEv
GAS LISTING /tmp/ccl1Ltrc.s 			page 20


 842              	_ZN7_Thread8finishedEv:
 843              	.LFB71:
 224:src/_Thread.cpp **** int _Thread::finished() {
 844              		.loc 1 224 25 is_stmt 1
 845              		.cfi_startproc
 846              	.LVL50:
 847 04d8 130101FF 		addi	sp,sp,-16
 848              		.cfi_def_cfa_offset 16
 849 04dc 23348100 		sd	s0,8(sp)
 850              		.cfi_offset 8, -8
 851 04e0 13040101 		addi	s0,sp,16
 852              		.cfi_def_cfa 8, 0
 225:src/_Thread.cpp ****     return (flags & 8u) != 0u;
 853              		.loc 1 225 5
 854              		.loc 1 225 13 is_stmt 0
 855 04e4 03258502 		lw	a0,40(a0)
 856              	.LVL51:
 857              		.loc 1 225 19
 858 04e8 13758500 		andi	a0,a0,8
 226:src/_Thread.cpp **** }
 859              		.loc 1 226 1
 860 04ec 3335A000 		snez	a0,a0
 861 04f0 03348100 		ld	s0,8(sp)
 862              		.cfi_restore 8
 863              		.cfi_def_cfa 2, 16
 864 04f4 13010101 		addi	sp,sp,16
 865              		.cfi_def_cfa_offset 0
 866 04f8 67800000 		jr	ra
 867              		.cfi_endproc
 868              	.LFE71:
 870              		.align	2
 871              		.globl	_ZN7_Thread10parentWaitEv
 873              	_ZN7_Thread10parentWaitEv:
 874              	.LFB72:
 227:src/_Thread.cpp **** void _Thread::parentWait() {
 875              		.loc 1 227 28 is_stmt 1
 876              		.cfi_startproc
 877              	.LVL52:
 878 04fc 130101FF 		addi	sp,sp,-16
 879              		.cfi_def_cfa_offset 16
 880 0500 23348100 		sd	s0,8(sp)
 881              		.cfi_offset 8, -8
 882 0504 13040101 		addi	s0,sp,16
 883              		.cfi_def_cfa 8, 0
 228:src/_Thread.cpp ****     flags = flags | 16u;
 884              		.loc 1 228 5
 885              		.loc 1 228 13 is_stmt 0
 886 0508 83278502 		lw	a5,40(a0)
 887              		.loc 1 228 19
 888 050c 93E70701 		ori	a5,a5,16
 889              		.loc 1 228 11
 890 0510 2324F502 		sw	a5,40(a0)
 229:src/_Thread.cpp **** }
 891              		.loc 1 229 1
 892 0514 03348100 		ld	s0,8(sp)
 893              		.cfi_restore 8
 894              		.cfi_def_cfa 2, 16
GAS LISTING /tmp/ccl1Ltrc.s 			page 21


 895 0518 13010101 		addi	sp,sp,16
 896              		.cfi_def_cfa_offset 0
 897 051c 67800000 		jr	ra
 898              		.cfi_endproc
 899              	.LFE72:
 901              		.align	2
 902              		.globl	_ZN7_Thread13parentWaitingEv
 904              	_ZN7_Thread13parentWaitingEv:
 905              	.LFB73:
 230:src/_Thread.cpp **** int _Thread::parentWaiting() {
 906              		.loc 1 230 30 is_stmt 1
 907              		.cfi_startproc
 908              	.LVL53:
 909 0520 130101FF 		addi	sp,sp,-16
 910              		.cfi_def_cfa_offset 16
 911 0524 23348100 		sd	s0,8(sp)
 912              		.cfi_offset 8, -8
 913 0528 13040101 		addi	s0,sp,16
 914              		.cfi_def_cfa 8, 0
 231:src/_Thread.cpp ****     return (flags & 16u) != 0u;
 915              		.loc 1 231 5
 916              		.loc 1 231 13 is_stmt 0
 917 052c 03258502 		lw	a0,40(a0)
 918              	.LVL54:
 919              		.loc 1 231 19
 920 0530 13750501 		andi	a0,a0,16
 232:src/_Thread.cpp **** }
 921              		.loc 1 232 1
 922 0534 3335A000 		snez	a0,a0
 923 0538 03348100 		ld	s0,8(sp)
 924              		.cfi_restore 8
 925              		.cfi_def_cfa 2, 16
 926 053c 13010101 		addi	sp,sp,16
 927              		.cfi_def_cfa_offset 0
 928 0540 67800000 		jr	ra
 929              		.cfi_endproc
 930              	.LFE73:
 932              		.align	2
 933              		.globl	_ZN7_Thread14parentWaitStopEv
 935              	_ZN7_Thread14parentWaitStopEv:
 936              	.LFB74:
 233:src/_Thread.cpp **** void _Thread::parentWaitStop() {
 937              		.loc 1 233 32 is_stmt 1
 938              		.cfi_startproc
 939              	.LVL55:
 940 0544 130101FF 		addi	sp,sp,-16
 941              		.cfi_def_cfa_offset 16
 942 0548 23348100 		sd	s0,8(sp)
 943              		.cfi_offset 8, -8
 944 054c 13040101 		addi	s0,sp,16
 945              		.cfi_def_cfa 8, 0
 234:src/_Thread.cpp ****     flags &= ~(16u);
 946              		.loc 1 234 5
 947              		.loc 1 234 11 is_stmt 0
 948 0550 83278502 		lw	a5,40(a0)
 949 0554 93F7F7FE 		andi	a5,a5,-17
 950 0558 2324F502 		sw	a5,40(a0)
GAS LISTING /tmp/ccl1Ltrc.s 			page 22


 235:src/_Thread.cpp **** }
 951              		.loc 1 235 1
 952 055c 03348100 		ld	s0,8(sp)
 953              		.cfi_restore 8
 954              		.cfi_def_cfa 2, 16
 955 0560 13010101 		addi	sp,sp,16
 956              		.cfi_def_cfa_offset 0
 957 0564 67800000 		jr	ra
 958              		.cfi_endproc
 959              	.LFE74:
 961              		.align	2
 962              		.globl	_ZN7_Thread6daemonEv
 964              	_ZN7_Thread6daemonEv:
 965              	.LFB75:
 236:src/_Thread.cpp **** int _Thread::daemon() {
 966              		.loc 1 236 23 is_stmt 1
 967              		.cfi_startproc
 968              	.LVL56:
 969 0568 130101FF 		addi	sp,sp,-16
 970              		.cfi_def_cfa_offset 16
 971 056c 23348100 		sd	s0,8(sp)
 972              		.cfi_offset 8, -8
 973 0570 13040101 		addi	s0,sp,16
 974              		.cfi_def_cfa 8, 0
 237:src/_Thread.cpp ****     return (flags & 32u) != 0u;
 975              		.loc 1 237 5
 976              		.loc 1 237 13 is_stmt 0
 977 0574 03258502 		lw	a0,40(a0)
 978              	.LVL57:
 979              		.loc 1 237 19
 980 0578 13750502 		andi	a0,a0,32
 238:src/_Thread.cpp **** }
 981              		.loc 1 238 1
 982 057c 3335A000 		snez	a0,a0
 983 0580 03348100 		ld	s0,8(sp)
 984              		.cfi_restore 8
 985              		.cfi_def_cfa 2, 16
 986 0584 13010101 		addi	sp,sp,16
 987              		.cfi_def_cfa_offset 0
 988 0588 67800000 		jr	ra
 989              		.cfi_endproc
 990              	.LFE75:
 992              		.align	2
 993              		.globl	_ZN7_Thread5startEv
 995              	_ZN7_Thread5startEv:
 996              	.LFB68:
 207:src/_Thread.cpp ****     if (started()) return 1;
 997              		.loc 1 207 22 is_stmt 1
 998              		.cfi_startproc
 999              	.LVL58:
 1000 058c 130101FE 		addi	sp,sp,-32
 1001              		.cfi_def_cfa_offset 32
 1002 0590 233C1100 		sd	ra,24(sp)
 1003 0594 23388100 		sd	s0,16(sp)
 1004 0598 23349100 		sd	s1,8(sp)
 1005 059c 23302101 		sd	s2,0(sp)
 1006              		.cfi_offset 1, -8
GAS LISTING /tmp/ccl1Ltrc.s 			page 23


 1007              		.cfi_offset 8, -16
 1008              		.cfi_offset 9, -24
 1009              		.cfi_offset 18, -32
 1010 05a0 13040102 		addi	s0,sp,32
 1011              		.cfi_def_cfa 8, 0
 1012 05a4 13090500 		mv	s2,a0
 208:src/_Thread.cpp ****     flags = flags | 4u;
 1013              		.loc 1 208 5
 208:src/_Thread.cpp ****     flags = flags | 4u;
 1014              		.loc 1 208 16 is_stmt 0
 1015 05a8 97000000 		call	_ZN7_Thread7startedEv
 1015      E7800000 
 1016              	.LVL59:
 208:src/_Thread.cpp ****     flags = flags | 4u;
 1017              		.loc 1 208 5
 1018 05b0 63020502 		beqz	a0,.L60
 208:src/_Thread.cpp ****     flags = flags | 4u;
 1019              		.loc 1 208 27
 1020 05b4 93041000 		li	s1,1
 1021              	.L56:
 217:src/_Thread.cpp **** int _Thread::started() {
 1022              		.loc 1 217 1
 1023 05b8 13850400 		mv	a0,s1
 1024 05bc 83308101 		ld	ra,24(sp)
 1025              		.cfi_remember_state
 1026              		.cfi_restore 1
 1027 05c0 03340101 		ld	s0,16(sp)
 1028              		.cfi_restore 8
 1029              		.cfi_def_cfa 2, 32
 1030 05c4 83348100 		ld	s1,8(sp)
 1031              		.cfi_restore 9
 1032 05c8 03390100 		ld	s2,0(sp)
 1033              		.cfi_restore 18
 1034              	.LVL60:
 1035 05cc 13010102 		addi	sp,sp,32
 1036              		.cfi_def_cfa_offset 0
 1037 05d0 67800000 		jr	ra
 1038              	.LVL61:
 1039              	.L60:
 1040              		.cfi_restore_state
 1041 05d4 93040500 		mv	s1,a0
 209:src/_Thread.cpp ****     int ret = _Scheduler::put(this);
 1042              		.loc 1 209 5 is_stmt 1
 209:src/_Thread.cpp ****     int ret = _Scheduler::put(this);
 1043              		.loc 1 209 13 is_stmt 0
 1044 05d8 83278902 		lw	a5,40(s2)
 209:src/_Thread.cpp ****     int ret = _Scheduler::put(this);
 1045              		.loc 1 209 19
 1046 05dc 93E74700 		ori	a5,a5,4
 209:src/_Thread.cpp ****     int ret = _Scheduler::put(this);
 1047              		.loc 1 209 11
 1048 05e0 2324F902 		sw	a5,40(s2)
 210:src/_Thread.cpp ****     if (ret < 0) {
 1049              		.loc 1 210 5 is_stmt 1
 210:src/_Thread.cpp ****     if (ret < 0) {
 1050              		.loc 1 210 30 is_stmt 0
 1051 05e4 13050900 		mv	a0,s2
GAS LISTING /tmp/ccl1Ltrc.s 			page 24


 1052 05e8 97000000 		call	_ZN10_Scheduler3putEP7_Thread@plt
 1052      E7800000 
 1053              	.LVL62:
 211:src/_Thread.cpp ****         return ret; //greska u put (alokacija)
 1054              		.loc 1 211 5 is_stmt 1
 1055 05f0 63420504 		bltz	a0,.L58
 214:src/_Thread.cpp ****     if (!daemon()) user++;
 1056              		.loc 1 214 5
 214:src/_Thread.cpp ****     if (!daemon()) user++;
 1057              		.loc 1 214 10 is_stmt 0
 1058 05f4 17070000 		lla	a4,.LANCHOR0
 1058      13070700 
 1059 05fc 83270702 		lw	a5,32(a4)
 1060 0600 9B871700 		addiw	a5,a5,1
 1061 0604 2320F702 		sw	a5,32(a4)
 215:src/_Thread.cpp ****     return 0;
 1062              		.loc 1 215 5 is_stmt 1
 215:src/_Thread.cpp ****     return 0;
 1063              		.loc 1 215 16 is_stmt 0
 1064 0608 13050900 		mv	a0,s2
 1065              	.LVL63:
 1066 060c 97000000 		call	_ZN7_Thread6daemonEv
 1066      E7800000 
 1067              	.LVL64:
 215:src/_Thread.cpp ****     return 0;
 1068              		.loc 1 215 5
 1069 0614 E31205FA 		bnez	a0,.L56
 215:src/_Thread.cpp ****     return 0;
 1070              		.loc 1 215 20 is_stmt 1 discriminator 1
 215:src/_Thread.cpp ****     return 0;
 1071              		.loc 1 215 24 is_stmt 0 discriminator 1
 1072 0618 17070000 		lla	a4,.LANCHOR0
 1072      13070700 
 1073 0620 83274702 		lw	a5,36(a4)
 1074 0624 9B871700 		addiw	a5,a5,1
 1075 0628 2322F702 		sw	a5,36(a4)
 216:src/_Thread.cpp **** }
 1076              		.loc 1 216 12 discriminator 1
 1077 062c 93040500 		mv	s1,a0
 1078 0630 6FF09FF8 		j	.L56
 1079              	.LVL65:
 1080              	.L58:
 212:src/_Thread.cpp ****     }
 1081              		.loc 1 212 16
 1082 0634 93040500 		mv	s1,a0
 1083 0638 6FF01FF8 		j	.L56
 1084              		.cfi_endproc
 1085              	.LFE68:
 1087              		.align	2
 1088              		.globl	_ZN7_Thread6createEPPS_PFPvS2_ES2_S2_mii
 1090              	_ZN7_Thread6createEPPS_PFPvS2_ES2_S2_mii:
 1091              	.LFB50:
  67:src/_Thread.cpp ****     thread_t t = new _Thread(startRoutine, arg, stackSpace, stackSize, priority, (options & SET_DAE
 1092              		.loc 1 67 143 is_stmt 1
 1093              		.cfi_startproc
 1094              		.cfi_personality 0x9b,DW.ref.__gxx_personality_v0
 1095              		.cfi_lsda 0x1b,.LLSDA50
GAS LISTING /tmp/ccl1Ltrc.s 			page 25


 1096              	.LVL66:
 1097 063c 130101FA 		addi	sp,sp,-96
 1098              		.cfi_def_cfa_offset 96
 1099 0640 233C1104 		sd	ra,88(sp)
 1100 0644 23388104 		sd	s0,80(sp)
 1101 0648 23349104 		sd	s1,72(sp)
 1102 064c 23302105 		sd	s2,64(sp)
 1103 0650 233C3103 		sd	s3,56(sp)
 1104 0654 23384103 		sd	s4,48(sp)
 1105 0658 23345103 		sd	s5,40(sp)
 1106 065c 23306103 		sd	s6,32(sp)
 1107 0660 233C7101 		sd	s7,24(sp)
 1108 0664 23388101 		sd	s8,16(sp)
 1109 0668 23349101 		sd	s9,8(sp)
 1110              		.cfi_offset 1, -8
 1111              		.cfi_offset 8, -16
 1112              		.cfi_offset 9, -24
 1113              		.cfi_offset 18, -32
 1114              		.cfi_offset 19, -40
 1115              		.cfi_offset 20, -48
 1116              		.cfi_offset 21, -56
 1117              		.cfi_offset 22, -64
 1118              		.cfi_offset 23, -72
 1119              		.cfi_offset 24, -80
 1120              		.cfi_offset 25, -88
 1121 066c 13040106 		addi	s0,sp,96
 1122              		.cfi_def_cfa 8, 0
 1123 0670 93090500 		mv	s3,a0
 1124 0674 138A0500 		mv	s4,a1
 1125 0678 930A0600 		mv	s5,a2
 1126 067c 138B0600 		mv	s6,a3
 1127 0680 930B0700 		mv	s7,a4
 1128 0684 138C0700 		mv	s8,a5
 1129 0688 13090800 		mv	s2,a6
  68:src/_Thread.cpp ****     if (!t || !t->ssptop) return -1; //greska u alokaciji
 1130              		.loc 1 68 5
  68:src/_Thread.cpp ****     if (!t || !t->ssptop) return -1; //greska u alokaciji
 1131              		.loc 1 68 91 is_stmt 0
 1132 068c 13782800 		andi	a6,a6,2
 1133              	.LVL67:
  68:src/_Thread.cpp ****     if (!t || !t->ssptop) return -1; //greska u alokaciji
 1134              		.loc 1 68 105
 1135 0690 63100802 		bnez	a6,.L67
  68:src/_Thread.cpp ****     if (!t || !t->ssptop) return -1; //greska u alokaciji
 1136              		.loc 1 68 123 discriminator 2
 1137 0694 17050000 		ld	a0,.LANCHOR0+8
 1137      03350500 
 1138              	.LVL68:
 1139 069c 97000000 		call	_ZN7_Thread6daemonEv
 1139      E7800000 
 1140              	.LVL69:
  68:src/_Thread.cpp ****     if (!t || !t->ssptop) return -1; //greska u alokaciji
 1141              		.loc 1 68 105 discriminator 2
 1142 06a4 63160504 		bnez	a0,.L68
  68:src/_Thread.cpp ****     if (!t || !t->ssptop) return -1; //greska u alokaciji
 1143              		.loc 1 68 105
 1144 06a8 930C0000 		li	s9,0
GAS LISTING /tmp/ccl1Ltrc.s 			page 26


 1145 06ac 6F008000 		j	.L62
 1146              	.LVL70:
 1147              	.L67:
 1148 06b0 930C1000 		li	s9,1
 1149              	.LVL71:
 1150              	.L62:
  68:src/_Thread.cpp ****     if (!t || !t->ssptop) return -1; //greska u alokaciji
 1151              		.loc 1 68 125 discriminator 6
 1152 06b4 13058004 		li	a0,72
 1153              	.LEHB0:
 1154 06b8 97000000 		call	_ZN7_ThreadnwEm
 1154      E7800000 
 1155              	.LVL72:
 1156              	.LEHE0:
 1157 06c0 93040500 		mv	s1,a0
 1158 06c4 630A0502 		beqz	a0,.L63
  68:src/_Thread.cpp ****     if (!t || !t->ssptop) return -1; //greska u alokaciji
 1159              		.loc 1 68 125 discriminator 7
 1160 06c8 93080000 		li	a7,0
 1161 06cc 13880C00 		mv	a6,s9
 1162 06d0 93070C00 		mv	a5,s8
 1163 06d4 13870B00 		mv	a4,s7
 1164 06d8 93060B00 		mv	a3,s6
 1165 06dc 13860A00 		mv	a2,s5
 1166 06e0 93050A00 		mv	a1,s4
 1167              	.LEHB1:
 1168 06e4 97000000 		call	_ZN7_ThreadC1EPFPvS0_ES0_S0_mibb
 1168      E7800000 
 1169              	.LVL73:
 1170              	.LEHE1:
 1171 06ec 6F00C000 		j	.L63
 1172              	.L68:
  68:src/_Thread.cpp ****     if (!t || !t->ssptop) return -1; //greska u alokaciji
 1173              		.loc 1 68 105
 1174 06f0 930C1000 		li	s9,1
 1175 06f4 6FF01FFC 		j	.L62
 1176              	.L63:
 1177              	.LVL74:
  69:src/_Thread.cpp ****     if (handle) *handle = t;
 1178              		.loc 1 69 5 is_stmt 1 discriminator 12
 1179 06f8 63800406 		beqz	s1,.L69
  69:src/_Thread.cpp ****     if (handle) *handle = t;
 1180              		.loc 1 69 19 is_stmt 0 discriminator 2
 1181 06fc 83B78401 		ld	a5,24(s1)
  69:src/_Thread.cpp ****     if (handle) *handle = t;
 1182              		.loc 1 69 12 discriminator 2
 1183 0700 63800706 		beqz	a5,.L70
  70:src/_Thread.cpp ****     if (options & SET_START) return t->start();
 1184              		.loc 1 70 5 is_stmt 1
 1185 0704 63840900 		beqz	s3,.L65
  70:src/_Thread.cpp ****     if (options & SET_START) return t->start();
 1186              		.loc 1 70 17 discriminator 1
  70:src/_Thread.cpp ****     if (options & SET_START) return t->start();
 1187              		.loc 1 70 25 is_stmt 0 discriminator 1
 1188 0708 23B09900 		sd	s1,0(s3)
 1189              	.L65:
  71:src/_Thread.cpp ****     return 0;
GAS LISTING /tmp/ccl1Ltrc.s 			page 27


 1190              		.loc 1 71 5 is_stmt 1
  71:src/_Thread.cpp ****     return 0;
 1191              		.loc 1 71 17 is_stmt 0
 1192 070c 13751900 		andi	a0,s2,1
  71:src/_Thread.cpp ****     return 0;
 1193              		.loc 1 71 5
 1194 0710 631C0502 		bnez	a0,.L74
 1195              	.L72:
  73:src/_Thread.cpp **** int _Thread::create(thread_t* handle, void* (*startRoutine)(void*), void* arg, size_t stackSize, in
 1196              		.loc 1 73 1
 1197 0714 83308105 		ld	ra,88(sp)
 1198              		.cfi_remember_state
 1199              		.cfi_restore 1
 1200 0718 03340105 		ld	s0,80(sp)
 1201              		.cfi_restore 8
 1202              		.cfi_def_cfa 2, 96
 1203 071c 83348104 		ld	s1,72(sp)
 1204              		.cfi_restore 9
 1205              	.LVL75:
 1206 0720 03390104 		ld	s2,64(sp)
 1207              		.cfi_restore 18
 1208 0724 83398103 		ld	s3,56(sp)
 1209              		.cfi_restore 19
 1210              	.LVL76:
 1211 0728 033A0103 		ld	s4,48(sp)
 1212              		.cfi_restore 20
 1213              	.LVL77:
 1214 072c 833A8102 		ld	s5,40(sp)
 1215              		.cfi_restore 21
 1216              	.LVL78:
 1217 0730 033B0102 		ld	s6,32(sp)
 1218              		.cfi_restore 22
 1219              	.LVL79:
 1220 0734 833B8101 		ld	s7,24(sp)
 1221              		.cfi_restore 23
 1222              	.LVL80:
 1223 0738 033C0101 		ld	s8,16(sp)
 1224              		.cfi_restore 24
 1225 073c 833C8100 		ld	s9,8(sp)
 1226              		.cfi_restore 25
 1227 0740 13010106 		addi	sp,sp,96
 1228              		.cfi_def_cfa_offset 0
 1229 0744 67800000 		jr	ra
 1230              	.LVL81:
 1231              	.L74:
 1232              		.cfi_restore_state
  71:src/_Thread.cpp ****     return 0;
 1233              		.loc 1 71 30 is_stmt 1 discriminator 1
  71:src/_Thread.cpp ****     return 0;
 1234              		.loc 1 71 45 is_stmt 0 discriminator 1
 1235 0748 13850400 		mv	a0,s1
 1236              	.LEHB2:
 1237 074c 97000000 		call	_ZN7_Thread5startEv
 1237      E7800000 
 1238              	.LVL82:
 1239              	.LEHE2:
  71:src/_Thread.cpp ****     return 0;
GAS LISTING /tmp/ccl1Ltrc.s 			page 28


 1240              		.loc 1 71 46 discriminator 1
 1241 0754 6FF01FFC 		j	.L72
 1242              	.L69:
  69:src/_Thread.cpp ****     if (handle) *handle = t;
 1243              		.loc 1 69 35
 1244 0758 1305F0FF 		li	a0,-1
 1245 075c 6FF09FFB 		j	.L72
 1246              	.L70:
 1247 0760 1305F0FF 		li	a0,-1
 1248 0764 6FF01FFB 		j	.L72
 1249              	.LVL83:
 1250              	.L71:
 1251 0768 13090500 		mv	s2,a0
  68:src/_Thread.cpp ****     if (!t || !t->ssptop) return -1; //greska u alokaciji
 1252              		.loc 1 68 125
 1253 076c 13850400 		mv	a0,s1
 1254 0770 97000000 		call	_ZN7_ThreaddlEPv
 1254      E7800000 
 1255              	.LVL84:
 1256 0778 13050900 		mv	a0,s2
 1257              	.LEHB3:
 1258 077c 97000000 		call	_Unwind_Resume@plt
 1258      E7800000 
 1259              	.LVL85:
 1260              	.LEHE3:
 1261              		.cfi_endproc
 1262              	.LFE50:
 1263              		.globl	__gxx_personality_v0
 1264              		.section	.gcc_except_table,"a",@progbits
 1265              	.LLSDA50:
 1266 0000 FF       		.byte	0xff
 1267 0001 FF       		.byte	0xff
 1268 0002 03       		.byte	0x3
 1269 0003 34       		.byte	0x34
 1270 0004 00000000 		.4byte	.LEHB0-.LFB50
 1271 0008 00000000 		.4byte	.LEHE0-.LEHB0
 1272 000c 00000000 		.4byte	0
 1273 0010 00       		.byte	0
 1274 0011 00000000 		.4byte	.LEHB1-.LFB50
 1275 0015 00000000 		.4byte	.LEHE1-.LEHB1
 1276 0019 00000000 		.4byte	.L71-.LFB50
 1277 001d 00       		.byte	0
 1278 001e 00000000 		.4byte	.LEHB2-.LFB50
 1279 0022 00000000 		.4byte	.LEHE2-.LEHB2
 1280 0026 00000000 		.4byte	0
 1281 002a 00       		.byte	0
 1282 002b 00000000 		.4byte	.LEHB3-.LFB50
 1283 002f 00000000 		.4byte	.LEHE3-.LEHB3
 1284 0033 00000000 		.4byte	0
 1285 0037 00       		.byte	0
 1286              		.text
 1288              		.align	2
 1289              		.globl	_ZN7_Thread6createEPPS_PFPvS2_ES2_mii
 1291              	_ZN7_Thread6createEPPS_PFPvS2_ES2_mii:
 1292              	.LFB51:
  74:src/_Thread.cpp ****     thread_t t = new _Thread(startRoutine, arg, stackSize, priority, (options & SET_DAEMON) || runn
 1293              		.loc 1 74 125 is_stmt 1
GAS LISTING /tmp/ccl1Ltrc.s 			page 29


 1294              		.cfi_startproc
 1295              		.cfi_personality 0x9b,DW.ref.__gxx_personality_v0
 1296              		.cfi_lsda 0x1b,.LLSDA51
 1297              	.LVL86:
 1298 0784 130101FB 		addi	sp,sp,-80
 1299              		.cfi_def_cfa_offset 80
 1300 0788 23341104 		sd	ra,72(sp)
 1301 078c 23308104 		sd	s0,64(sp)
 1302 0790 233C9102 		sd	s1,56(sp)
 1303 0794 23382103 		sd	s2,48(sp)
 1304 0798 23343103 		sd	s3,40(sp)
 1305 079c 23304103 		sd	s4,32(sp)
 1306 07a0 233C5101 		sd	s5,24(sp)
 1307 07a4 23386101 		sd	s6,16(sp)
 1308 07a8 23347101 		sd	s7,8(sp)
 1309 07ac 23308101 		sd	s8,0(sp)
 1310              		.cfi_offset 1, -8
 1311              		.cfi_offset 8, -16
 1312              		.cfi_offset 9, -24
 1313              		.cfi_offset 18, -32
 1314              		.cfi_offset 19, -40
 1315              		.cfi_offset 20, -48
 1316              		.cfi_offset 21, -56
 1317              		.cfi_offset 22, -64
 1318              		.cfi_offset 23, -72
 1319              		.cfi_offset 24, -80
 1320 07b0 13040105 		addi	s0,sp,80
 1321              		.cfi_def_cfa 8, 0
 1322 07b4 93090500 		mv	s3,a0
 1323 07b8 138A0500 		mv	s4,a1
 1324 07bc 930A0600 		mv	s5,a2
 1325 07c0 938B0600 		mv	s7,a3
 1326 07c4 130B0700 		mv	s6,a4
 1327 07c8 13890700 		mv	s2,a5
  75:src/_Thread.cpp ****     if (!t || !t->ssptop) return -1; //greska u alokaciji
 1328              		.loc 1 75 5
  75:src/_Thread.cpp ****     if (!t || !t->ssptop) return -1; //greska u alokaciji
 1329              		.loc 1 75 79 is_stmt 0
 1330 07cc 93F72700 		andi	a5,a5,2
 1331              	.LVL87:
  75:src/_Thread.cpp ****     if (!t || !t->ssptop) return -1; //greska u alokaciji
 1332              		.loc 1 75 93
 1333 07d0 63900702 		bnez	a5,.L81
  75:src/_Thread.cpp ****     if (!t || !t->ssptop) return -1; //greska u alokaciji
 1334              		.loc 1 75 111 discriminator 2
 1335 07d4 17050000 		ld	a0,.LANCHOR0+8
 1335      03350500 
 1336              	.LVL88:
 1337 07dc 97000000 		call	_ZN7_Thread6daemonEv
 1337      E7800000 
 1338              	.LVL89:
  75:src/_Thread.cpp ****     if (!t || !t->ssptop) return -1; //greska u alokaciji
 1339              		.loc 1 75 93 discriminator 2
 1340 07e4 63140504 		bnez	a0,.L82
  75:src/_Thread.cpp ****     if (!t || !t->ssptop) return -1; //greska u alokaciji
 1341              		.loc 1 75 93
 1342 07e8 130C0000 		li	s8,0
GAS LISTING /tmp/ccl1Ltrc.s 			page 30


 1343 07ec 6F008000 		j	.L76
 1344              	.LVL90:
 1345              	.L81:
 1346 07f0 130C1000 		li	s8,1
 1347              	.LVL91:
 1348              	.L76:
  75:src/_Thread.cpp ****     if (!t || !t->ssptop) return -1; //greska u alokaciji
 1349              		.loc 1 75 113 discriminator 6
 1350 07f4 13058004 		li	a0,72
 1351              	.LEHB4:
 1352 07f8 97000000 		call	_ZN7_ThreadnwEm
 1352      E7800000 
 1353              	.LVL92:
 1354              	.LEHE4:
 1355 0800 93040500 		mv	s1,a0
 1356 0804 63080502 		beqz	a0,.L77
  75:src/_Thread.cpp ****     if (!t || !t->ssptop) return -1; //greska u alokaciji
 1357              		.loc 1 75 113 discriminator 7
 1358 0808 13080000 		li	a6,0
 1359 080c 93070C00 		mv	a5,s8
 1360 0810 13070B00 		mv	a4,s6
 1361 0814 93860B00 		mv	a3,s7
 1362 0818 13860A00 		mv	a2,s5
 1363 081c 93050A00 		mv	a1,s4
 1364              	.LEHB5:
 1365 0820 97000000 		call	_ZN7_ThreadC1EPFPvS0_ES0_mibb
 1365      E7800000 
 1366              	.LVL93:
 1367              	.LEHE5:
 1368 0828 6F00C000 		j	.L77
 1369              	.L82:
  75:src/_Thread.cpp ****     if (!t || !t->ssptop) return -1; //greska u alokaciji
 1370              		.loc 1 75 93
 1371 082c 130C1000 		li	s8,1
 1372 0830 6FF05FFC 		j	.L76
 1373              	.L77:
 1374              	.LVL94:
  76:src/_Thread.cpp ****     if (handle) *handle = t;
 1375              		.loc 1 76 5 is_stmt 1 discriminator 12
 1376 0834 638E0404 		beqz	s1,.L83
  76:src/_Thread.cpp ****     if (handle) *handle = t;
 1377              		.loc 1 76 19 is_stmt 0 discriminator 2
 1378 0838 83B78401 		ld	a5,24(s1)
  76:src/_Thread.cpp ****     if (handle) *handle = t;
 1379              		.loc 1 76 12 discriminator 2
 1380 083c 638E0704 		beqz	a5,.L84
  77:src/_Thread.cpp ****     if (options & SET_START) return t->start();
 1381              		.loc 1 77 5 is_stmt 1
 1382 0840 63840900 		beqz	s3,.L79
  77:src/_Thread.cpp ****     if (options & SET_START) return t->start();
 1383              		.loc 1 77 17 discriminator 1
  77:src/_Thread.cpp ****     if (options & SET_START) return t->start();
 1384              		.loc 1 77 25 is_stmt 0 discriminator 1
 1385 0844 23B09900 		sd	s1,0(s3)
 1386              	.L79:
  78:src/_Thread.cpp ****     return 0;
 1387              		.loc 1 78 5 is_stmt 1
GAS LISTING /tmp/ccl1Ltrc.s 			page 31


  78:src/_Thread.cpp ****     return 0;
 1388              		.loc 1 78 17 is_stmt 0
 1389 0848 13751900 		andi	a0,s2,1
  78:src/_Thread.cpp ****     return 0;
 1390              		.loc 1 78 5
 1391 084c 631A0502 		bnez	a0,.L88
 1392              	.L86:
  80:src/_Thread.cpp **** int _Thread::create(thread_t* handle, void* (*startRoutine)(void*), void* arg, int priority, int op
 1393              		.loc 1 80 1
 1394 0850 83308104 		ld	ra,72(sp)
 1395              		.cfi_remember_state
 1396              		.cfi_restore 1
 1397 0854 03340104 		ld	s0,64(sp)
 1398              		.cfi_restore 8
 1399              		.cfi_def_cfa 2, 80
 1400 0858 83348103 		ld	s1,56(sp)
 1401              		.cfi_restore 9
 1402              	.LVL95:
 1403 085c 03390103 		ld	s2,48(sp)
 1404              		.cfi_restore 18
 1405 0860 83398102 		ld	s3,40(sp)
 1406              		.cfi_restore 19
 1407              	.LVL96:
 1408 0864 033A0102 		ld	s4,32(sp)
 1409              		.cfi_restore 20
 1410              	.LVL97:
 1411 0868 833A8101 		ld	s5,24(sp)
 1412              		.cfi_restore 21
 1413              	.LVL98:
 1414 086c 033B0101 		ld	s6,16(sp)
 1415              		.cfi_restore 22
 1416 0870 833B8100 		ld	s7,8(sp)
 1417              		.cfi_restore 23
 1418              	.LVL99:
 1419 0874 033C0100 		ld	s8,0(sp)
 1420              		.cfi_restore 24
 1421 0878 13010105 		addi	sp,sp,80
 1422              		.cfi_def_cfa_offset 0
 1423 087c 67800000 		jr	ra
 1424              	.LVL100:
 1425              	.L88:
 1426              		.cfi_restore_state
  78:src/_Thread.cpp ****     return 0;
 1427              		.loc 1 78 30 is_stmt 1 discriminator 1
  78:src/_Thread.cpp ****     return 0;
 1428              		.loc 1 78 45 is_stmt 0 discriminator 1
 1429 0880 13850400 		mv	a0,s1
 1430              	.LEHB6:
 1431 0884 97000000 		call	_ZN7_Thread5startEv
 1431      E7800000 
 1432              	.LVL101:
 1433              	.LEHE6:
  78:src/_Thread.cpp ****     return 0;
 1434              		.loc 1 78 46 discriminator 1
 1435 088c 6FF05FFC 		j	.L86
 1436              	.L83:
  76:src/_Thread.cpp ****     if (handle) *handle = t;
GAS LISTING /tmp/ccl1Ltrc.s 			page 32


 1437              		.loc 1 76 35
 1438 0890 1305F0FF 		li	a0,-1
 1439 0894 6FF0DFFB 		j	.L86
 1440              	.L84:
 1441 0898 1305F0FF 		li	a0,-1
 1442 089c 6FF05FFB 		j	.L86
 1443              	.LVL102:
 1444              	.L85:
 1445 08a0 13090500 		mv	s2,a0
  75:src/_Thread.cpp ****     if (!t || !t->ssptop) return -1; //greska u alokaciji
 1446              		.loc 1 75 113
 1447 08a4 13850400 		mv	a0,s1
 1448 08a8 97000000 		call	_ZN7_ThreaddlEPv
 1448      E7800000 
 1449              	.LVL103:
 1450 08b0 13050900 		mv	a0,s2
 1451              	.LEHB7:
 1452 08b4 97000000 		call	_Unwind_Resume@plt
 1452      E7800000 
 1453              	.LVL104:
 1454              	.LEHE7:
 1455              		.cfi_endproc
 1456              	.LFE51:
 1457              		.section	.gcc_except_table
 1458              	.LLSDA51:
 1459 0038 FF       		.byte	0xff
 1460 0039 FF       		.byte	0xff
 1461 003a 03       		.byte	0x3
 1462 003b 34       		.byte	0x34
 1463 003c 00000000 		.4byte	.LEHB4-.LFB51
 1464 0040 00000000 		.4byte	.LEHE4-.LEHB4
 1465 0044 00000000 		.4byte	0
 1466 0048 00       		.byte	0
 1467 0049 00000000 		.4byte	.LEHB5-.LFB51
 1468 004d 00000000 		.4byte	.LEHE5-.LEHB5
 1469 0051 00000000 		.4byte	.L85-.LFB51
 1470 0055 00       		.byte	0
 1471 0056 00000000 		.4byte	.LEHB6-.LFB51
 1472 005a 00000000 		.4byte	.LEHE6-.LEHB6
 1473 005e 00000000 		.4byte	0
 1474 0062 00       		.byte	0
 1475 0063 00000000 		.4byte	.LEHB7-.LFB51
 1476 0067 00000000 		.4byte	.LEHE7-.LEHB7
 1477 006b 00000000 		.4byte	0
 1478 006f 00       		.byte	0
 1479              		.text
 1481              		.align	2
 1482              		.globl	_ZN7_Thread6createEPPS_PFPvS2_ES2_ii
 1484              	_ZN7_Thread6createEPPS_PFPvS2_ES2_ii:
 1485              	.LFB52:
  81:src/_Thread.cpp ****     thread_t t = new _Thread(startRoutine, arg, priority, (options & SET_DAEMON) || running->daemon
 1486              		.loc 1 81 107 is_stmt 1
 1487              		.cfi_startproc
 1488              		.cfi_personality 0x9b,DW.ref.__gxx_personality_v0
 1489              		.cfi_lsda 0x1b,.LLSDA52
 1490              	.LVL105:
 1491 08bc 130101FB 		addi	sp,sp,-80
GAS LISTING /tmp/ccl1Ltrc.s 			page 33


 1492              		.cfi_def_cfa_offset 80
 1493 08c0 23341104 		sd	ra,72(sp)
 1494 08c4 23308104 		sd	s0,64(sp)
 1495 08c8 233C9102 		sd	s1,56(sp)
 1496 08cc 23382103 		sd	s2,48(sp)
 1497 08d0 23343103 		sd	s3,40(sp)
 1498 08d4 23304103 		sd	s4,32(sp)
 1499 08d8 233C5101 		sd	s5,24(sp)
 1500 08dc 23386101 		sd	s6,16(sp)
 1501 08e0 23347101 		sd	s7,8(sp)
 1502              		.cfi_offset 1, -8
 1503              		.cfi_offset 8, -16
 1504              		.cfi_offset 9, -24
 1505              		.cfi_offset 18, -32
 1506              		.cfi_offset 19, -40
 1507              		.cfi_offset 20, -48
 1508              		.cfi_offset 21, -56
 1509              		.cfi_offset 22, -64
 1510              		.cfi_offset 23, -72
 1511 08e4 13040105 		addi	s0,sp,80
 1512              		.cfi_def_cfa 8, 0
 1513 08e8 93090500 		mv	s3,a0
 1514 08ec 138B0500 		mv	s6,a1
 1515 08f0 930A0600 		mv	s5,a2
 1516 08f4 138A0600 		mv	s4,a3
 1517 08f8 93040700 		mv	s1,a4
  82:src/_Thread.cpp ****     if (!t || !t->ssptop) return -1; //greska u alokaciji
 1518              		.loc 1 82 5
  82:src/_Thread.cpp ****     if (!t || !t->ssptop) return -1; //greska u alokaciji
 1519              		.loc 1 82 68 is_stmt 0
 1520 08fc 93772700 		andi	a5,a4,2
  82:src/_Thread.cpp ****     if (!t || !t->ssptop) return -1; //greska u alokaciji
 1521              		.loc 1 82 82
 1522 0900 63900702 		bnez	a5,.L95
  82:src/_Thread.cpp ****     if (!t || !t->ssptop) return -1; //greska u alokaciji
 1523              		.loc 1 82 100 discriminator 2
 1524 0904 17050000 		ld	a0,.LANCHOR0+8
 1524      03350500 
 1525              	.LVL106:
 1526 090c 97000000 		call	_ZN7_Thread6daemonEv
 1526      E7800000 
 1527              	.LVL107:
  82:src/_Thread.cpp ****     if (!t || !t->ssptop) return -1; //greska u alokaciji
 1528              		.loc 1 82 82 discriminator 2
 1529 0914 63120504 		bnez	a0,.L96
  82:src/_Thread.cpp ****     if (!t || !t->ssptop) return -1; //greska u alokaciji
 1530              		.loc 1 82 82
 1531 0918 930B0000 		li	s7,0
 1532 091c 6F008000 		j	.L90
 1533              	.LVL108:
 1534              	.L95:
 1535 0920 930B1000 		li	s7,1
 1536              	.LVL109:
 1537              	.L90:
  82:src/_Thread.cpp ****     if (!t || !t->ssptop) return -1; //greska u alokaciji
 1538              		.loc 1 82 102 discriminator 6
 1539 0924 13058004 		li	a0,72
GAS LISTING /tmp/ccl1Ltrc.s 			page 34


 1540              	.LEHB8:
 1541 0928 97000000 		call	_ZN7_ThreadnwEm
 1541      E7800000 
 1542              	.LVL110:
 1543              	.LEHE8:
 1544 0930 13090500 		mv	s2,a0
 1545 0934 63060502 		beqz	a0,.L91
  82:src/_Thread.cpp ****     if (!t || !t->ssptop) return -1; //greska u alokaciji
 1546              		.loc 1 82 102 discriminator 7
 1547 0938 93070000 		li	a5,0
 1548 093c 13870B00 		mv	a4,s7
 1549 0940 93060A00 		mv	a3,s4
 1550 0944 13860A00 		mv	a2,s5
 1551 0948 93050B00 		mv	a1,s6
 1552              	.LEHB9:
 1553 094c 97000000 		call	_ZN7_ThreadC1EPFPvS0_ES0_ibb
 1553      E7800000 
 1554              	.LVL111:
 1555              	.LEHE9:
 1556 0954 6F00C000 		j	.L91
 1557              	.L96:
  82:src/_Thread.cpp ****     if (!t || !t->ssptop) return -1; //greska u alokaciji
 1558              		.loc 1 82 82
 1559 0958 930B1000 		li	s7,1
 1560 095c 6FF09FFC 		j	.L90
 1561              	.L91:
 1562              	.LVL112:
  83:src/_Thread.cpp ****     if (handle) *handle = t;
 1563              		.loc 1 83 5 is_stmt 1 discriminator 12
 1564 0960 630C0904 		beqz	s2,.L97
  83:src/_Thread.cpp ****     if (handle) *handle = t;
 1565              		.loc 1 83 19 is_stmt 0 discriminator 2
 1566 0964 83378901 		ld	a5,24(s2)
  83:src/_Thread.cpp ****     if (handle) *handle = t;
 1567              		.loc 1 83 12 discriminator 2
 1568 0968 638C0704 		beqz	a5,.L98
  84:src/_Thread.cpp ****     if (options & SET_START) return t->start();
 1569              		.loc 1 84 5 is_stmt 1
 1570 096c 63840900 		beqz	s3,.L93
  84:src/_Thread.cpp ****     if (options & SET_START) return t->start();
 1571              		.loc 1 84 17 discriminator 1
  84:src/_Thread.cpp ****     if (options & SET_START) return t->start();
 1572              		.loc 1 84 25 is_stmt 0 discriminator 1
 1573 0970 23B02901 		sd	s2,0(s3)
 1574              	.L93:
  85:src/_Thread.cpp ****     return 0;
 1575              		.loc 1 85 5 is_stmt 1
  85:src/_Thread.cpp ****     return 0;
 1576              		.loc 1 85 17 is_stmt 0
 1577 0974 13F51400 		andi	a0,s1,1
  85:src/_Thread.cpp ****     return 0;
 1578              		.loc 1 85 5
 1579 0978 63180502 		bnez	a0,.L102
 1580              	.L100:
  87:src/_Thread.cpp **** int _Thread::create(thread_t* handle, void (*startRoutine)(void*), void* arg, void* stackSpace, siz
 1581              		.loc 1 87 1
 1582 097c 83308104 		ld	ra,72(sp)
GAS LISTING /tmp/ccl1Ltrc.s 			page 35


 1583              		.cfi_remember_state
 1584              		.cfi_restore 1
 1585 0980 03340104 		ld	s0,64(sp)
 1586              		.cfi_restore 8
 1587              		.cfi_def_cfa 2, 80
 1588 0984 83348103 		ld	s1,56(sp)
 1589              		.cfi_restore 9
 1590 0988 03390103 		ld	s2,48(sp)
 1591              		.cfi_restore 18
 1592              	.LVL113:
 1593 098c 83398102 		ld	s3,40(sp)
 1594              		.cfi_restore 19
 1595              	.LVL114:
 1596 0990 033A0102 		ld	s4,32(sp)
 1597              		.cfi_restore 20
 1598 0994 833A8101 		ld	s5,24(sp)
 1599              		.cfi_restore 21
 1600              	.LVL115:
 1601 0998 033B0101 		ld	s6,16(sp)
 1602              		.cfi_restore 22
 1603              	.LVL116:
 1604 099c 833B8100 		ld	s7,8(sp)
 1605              		.cfi_restore 23
 1606 09a0 13010105 		addi	sp,sp,80
 1607              		.cfi_def_cfa_offset 0
 1608 09a4 67800000 		jr	ra
 1609              	.LVL117:
 1610              	.L102:
 1611              		.cfi_restore_state
  85:src/_Thread.cpp ****     return 0;
 1612              		.loc 1 85 30 is_stmt 1 discriminator 1
  85:src/_Thread.cpp ****     return 0;
 1613              		.loc 1 85 45 is_stmt 0 discriminator 1
 1614 09a8 13050900 		mv	a0,s2
 1615              	.LEHB10:
 1616 09ac 97000000 		call	_ZN7_Thread5startEv
 1616      E7800000 
 1617              	.LVL118:
 1618              	.LEHE10:
  85:src/_Thread.cpp ****     return 0;
 1619              		.loc 1 85 46 discriminator 1
 1620 09b4 6FF09FFC 		j	.L100
 1621              	.L97:
  83:src/_Thread.cpp ****     if (handle) *handle = t;
 1622              		.loc 1 83 35
 1623 09b8 1305F0FF 		li	a0,-1
 1624 09bc 6FF01FFC 		j	.L100
 1625              	.L98:
 1626 09c0 1305F0FF 		li	a0,-1
 1627 09c4 6FF09FFB 		j	.L100
 1628              	.LVL119:
 1629              	.L99:
 1630 09c8 93040500 		mv	s1,a0
  82:src/_Thread.cpp ****     if (!t || !t->ssptop) return -1; //greska u alokaciji
 1631              		.loc 1 82 102
 1632 09cc 13050900 		mv	a0,s2
 1633 09d0 97000000 		call	_ZN7_ThreaddlEPv
GAS LISTING /tmp/ccl1Ltrc.s 			page 36


 1633      E7800000 
 1634              	.LVL120:
 1635 09d8 13850400 		mv	a0,s1
 1636              	.LEHB11:
 1637 09dc 97000000 		call	_Unwind_Resume@plt
 1637      E7800000 
 1638              	.LVL121:
 1639              	.LEHE11:
 1640              		.cfi_endproc
 1641              	.LFE52:
 1642              		.section	.gcc_except_table
 1643              	.LLSDA52:
 1644 0070 FF       		.byte	0xff
 1645 0071 FF       		.byte	0xff
 1646 0072 03       		.byte	0x3
 1647 0073 34       		.byte	0x34
 1648 0074 00000000 		.4byte	.LEHB8-.LFB52
 1649 0078 00000000 		.4byte	.LEHE8-.LEHB8
 1650 007c 00000000 		.4byte	0
 1651 0080 00       		.byte	0
 1652 0081 00000000 		.4byte	.LEHB9-.LFB52
 1653 0085 00000000 		.4byte	.LEHE9-.LEHB9
 1654 0089 00000000 		.4byte	.L99-.LFB52
 1655 008d 00       		.byte	0
 1656 008e 00000000 		.4byte	.LEHB10-.LFB52
 1657 0092 00000000 		.4byte	.LEHE10-.LEHB10
 1658 0096 00000000 		.4byte	0
 1659 009a 00       		.byte	0
 1660 009b 00000000 		.4byte	.LEHB11-.LFB52
 1661 009f 00000000 		.4byte	.LEHE11-.LEHB11
 1662 00a3 00000000 		.4byte	0
 1663 00a7 00       		.byte	0
 1664              		.text
 1666              		.align	2
 1667              		.globl	_ZN7_Thread6createEPPS_PFvPvES2_S2_mii
 1669              	_ZN7_Thread6createEPPS_PFvPvES2_S2_mii:
 1670              	.LFB53:
  88:src/_Thread.cpp ****     thread_t t = new _Thread((void*(*)(void*))startRoutine, arg, stackSpace, stackSize, priority, (
 1671              		.loc 1 88 142 is_stmt 1
 1672              		.cfi_startproc
 1673              		.cfi_personality 0x9b,DW.ref.__gxx_personality_v0
 1674              		.cfi_lsda 0x1b,.LLSDA53
 1675              	.LVL122:
 1676 09e4 130101FA 		addi	sp,sp,-96
 1677              		.cfi_def_cfa_offset 96
 1678 09e8 233C1104 		sd	ra,88(sp)
 1679 09ec 23388104 		sd	s0,80(sp)
 1680 09f0 23349104 		sd	s1,72(sp)
 1681 09f4 23302105 		sd	s2,64(sp)
 1682 09f8 233C3103 		sd	s3,56(sp)
 1683 09fc 23384103 		sd	s4,48(sp)
 1684 0a00 23345103 		sd	s5,40(sp)
 1685 0a04 23306103 		sd	s6,32(sp)
 1686 0a08 233C7101 		sd	s7,24(sp)
 1687 0a0c 23388101 		sd	s8,16(sp)
 1688 0a10 23349101 		sd	s9,8(sp)
 1689              		.cfi_offset 1, -8
GAS LISTING /tmp/ccl1Ltrc.s 			page 37


 1690              		.cfi_offset 8, -16
 1691              		.cfi_offset 9, -24
 1692              		.cfi_offset 18, -32
 1693              		.cfi_offset 19, -40
 1694              		.cfi_offset 20, -48
 1695              		.cfi_offset 21, -56
 1696              		.cfi_offset 22, -64
 1697              		.cfi_offset 23, -72
 1698              		.cfi_offset 24, -80
 1699              		.cfi_offset 25, -88
 1700 0a14 13040106 		addi	s0,sp,96
 1701              		.cfi_def_cfa 8, 0
 1702 0a18 93090500 		mv	s3,a0
 1703 0a1c 138A0500 		mv	s4,a1
 1704 0a20 930A0600 		mv	s5,a2
 1705 0a24 138B0600 		mv	s6,a3
 1706 0a28 930B0700 		mv	s7,a4
 1707 0a2c 138C0700 		mv	s8,a5
 1708 0a30 13090800 		mv	s2,a6
  89:src/_Thread.cpp ****     if (!t) return -1; //greska u alokaciji
 1709              		.loc 1 89 5
  89:src/_Thread.cpp ****     if (!t) return -1; //greska u alokaciji
 1710              		.loc 1 89 108 is_stmt 0
 1711 0a34 13782800 		andi	a6,a6,2
 1712              	.LVL123:
  89:src/_Thread.cpp ****     if (!t) return -1; //greska u alokaciji
 1713              		.loc 1 89 122
 1714 0a38 63100802 		bnez	a6,.L109
  89:src/_Thread.cpp ****     if (!t) return -1; //greska u alokaciji
 1715              		.loc 1 89 140 discriminator 2
 1716 0a3c 17050000 		ld	a0,.LANCHOR0+8
 1716      03350500 
 1717              	.LVL124:
 1718 0a44 97000000 		call	_ZN7_Thread6daemonEv
 1718      E7800000 
 1719              	.LVL125:
  89:src/_Thread.cpp ****     if (!t) return -1; //greska u alokaciji
 1720              		.loc 1 89 122 discriminator 2
 1721 0a4c 63160504 		bnez	a0,.L110
  89:src/_Thread.cpp ****     if (!t) return -1; //greska u alokaciji
 1722              		.loc 1 89 122
 1723 0a50 930C0000 		li	s9,0
 1724 0a54 6F008000 		j	.L104
 1725              	.LVL126:
 1726              	.L109:
 1727 0a58 930C1000 		li	s9,1
 1728              	.LVL127:
 1729              	.L104:
  89:src/_Thread.cpp ****     if (!t) return -1; //greska u alokaciji
 1730              		.loc 1 89 148 discriminator 6
 1731 0a5c 13058004 		li	a0,72
 1732              	.LEHB12:
 1733 0a60 97000000 		call	_ZN7_ThreadnwEm
 1733      E7800000 
 1734              	.LVL128:
 1735              	.LEHE12:
 1736 0a68 93040500 		mv	s1,a0
GAS LISTING /tmp/ccl1Ltrc.s 			page 38


 1737 0a6c 630A0502 		beqz	a0,.L105
  89:src/_Thread.cpp ****     if (!t) return -1; //greska u alokaciji
 1738              		.loc 1 89 148 discriminator 7
 1739 0a70 93081000 		li	a7,1
 1740 0a74 13880C00 		mv	a6,s9
 1741 0a78 93070C00 		mv	a5,s8
 1742 0a7c 13870B00 		mv	a4,s7
 1743 0a80 93060B00 		mv	a3,s6
 1744 0a84 13860A00 		mv	a2,s5
 1745 0a88 93050A00 		mv	a1,s4
 1746              	.LEHB13:
 1747 0a8c 97000000 		call	_ZN7_ThreadC1EPFPvS0_ES0_S0_mibb
 1747      E7800000 
 1748              	.LVL129:
 1749              	.LEHE13:
 1750 0a94 6F00C000 		j	.L105
 1751              	.L110:
  89:src/_Thread.cpp ****     if (!t) return -1; //greska u alokaciji
 1752              		.loc 1 89 122
 1753 0a98 930C1000 		li	s9,1
 1754 0a9c 6FF01FFC 		j	.L104
 1755              	.L105:
 1756              	.LVL130:
  90:src/_Thread.cpp ****     if (handle) *handle = t;
 1757              		.loc 1 90 5 is_stmt 1 discriminator 12
 1758 0aa0 638C0404 		beqz	s1,.L111
  91:src/_Thread.cpp ****     if (options & SET_START) return t->start();
 1759              		.loc 1 91 5
 1760 0aa4 63840900 		beqz	s3,.L107
  91:src/_Thread.cpp ****     if (options & SET_START) return t->start();
 1761              		.loc 1 91 17 discriminator 1
  91:src/_Thread.cpp ****     if (options & SET_START) return t->start();
 1762              		.loc 1 91 25 is_stmt 0 discriminator 1
 1763 0aa8 23B09900 		sd	s1,0(s3)
 1764              	.L107:
  92:src/_Thread.cpp ****     return 0;
 1765              		.loc 1 92 5 is_stmt 1
  92:src/_Thread.cpp ****     return 0;
 1766              		.loc 1 92 17 is_stmt 0
 1767 0aac 13751900 		andi	a0,s2,1
  92:src/_Thread.cpp ****     return 0;
 1768              		.loc 1 92 5
 1769 0ab0 631C0502 		bnez	a0,.L115
 1770              	.L113:
  94:src/_Thread.cpp **** int _Thread::create(thread_t* handle, void (*startRoutine)(void*), void* arg, size_t stackSize, int
 1771              		.loc 1 94 1
 1772 0ab4 83308105 		ld	ra,88(sp)
 1773              		.cfi_remember_state
 1774              		.cfi_restore 1
 1775 0ab8 03340105 		ld	s0,80(sp)
 1776              		.cfi_restore 8
 1777              		.cfi_def_cfa 2, 96
 1778 0abc 83348104 		ld	s1,72(sp)
 1779              		.cfi_restore 9
 1780              	.LVL131:
 1781 0ac0 03390104 		ld	s2,64(sp)
 1782              		.cfi_restore 18
GAS LISTING /tmp/ccl1Ltrc.s 			page 39


 1783 0ac4 83398103 		ld	s3,56(sp)
 1784              		.cfi_restore 19
 1785              	.LVL132:
 1786 0ac8 033A0103 		ld	s4,48(sp)
 1787              		.cfi_restore 20
 1788              	.LVL133:
 1789 0acc 833A8102 		ld	s5,40(sp)
 1790              		.cfi_restore 21
 1791              	.LVL134:
 1792 0ad0 033B0102 		ld	s6,32(sp)
 1793              		.cfi_restore 22
 1794              	.LVL135:
 1795 0ad4 833B8101 		ld	s7,24(sp)
 1796              		.cfi_restore 23
 1797              	.LVL136:
 1798 0ad8 033C0101 		ld	s8,16(sp)
 1799              		.cfi_restore 24
 1800 0adc 833C8100 		ld	s9,8(sp)
 1801              		.cfi_restore 25
 1802 0ae0 13010106 		addi	sp,sp,96
 1803              		.cfi_def_cfa_offset 0
 1804 0ae4 67800000 		jr	ra
 1805              	.LVL137:
 1806              	.L115:
 1807              		.cfi_restore_state
  92:src/_Thread.cpp ****     return 0;
 1808              		.loc 1 92 30 is_stmt 1 discriminator 1
  92:src/_Thread.cpp ****     return 0;
 1809              		.loc 1 92 45 is_stmt 0 discriminator 1
 1810 0ae8 13850400 		mv	a0,s1
 1811              	.LEHB14:
 1812 0aec 97000000 		call	_ZN7_Thread5startEv
 1812      E7800000 
 1813              	.LVL138:
 1814              	.LEHE14:
  92:src/_Thread.cpp ****     return 0;
 1815              		.loc 1 92 46 discriminator 1
 1816 0af4 6FF01FFC 		j	.L113
 1817              	.L111:
  90:src/_Thread.cpp ****     if (handle) *handle = t;
 1818              		.loc 1 90 21
 1819 0af8 1305F0FF 		li	a0,-1
 1820 0afc 6FF09FFB 		j	.L113
 1821              	.LVL139:
 1822              	.L112:
 1823 0b00 13090500 		mv	s2,a0
  89:src/_Thread.cpp ****     if (!t) return -1; //greska u alokaciji
 1824              		.loc 1 89 148
 1825 0b04 13850400 		mv	a0,s1
 1826 0b08 97000000 		call	_ZN7_ThreaddlEPv
 1826      E7800000 
 1827              	.LVL140:
 1828 0b10 13050900 		mv	a0,s2
 1829              	.LEHB15:
 1830 0b14 97000000 		call	_Unwind_Resume@plt
 1830      E7800000 
 1831              	.LVL141:
GAS LISTING /tmp/ccl1Ltrc.s 			page 40


 1832              	.LEHE15:
 1833              		.cfi_endproc
 1834              	.LFE53:
 1835              		.section	.gcc_except_table
 1836              	.LLSDA53:
 1837 00a8 FF       		.byte	0xff
 1838 00a9 FF       		.byte	0xff
 1839 00aa 03       		.byte	0x3
 1840 00ab 34       		.byte	0x34
 1841 00ac 00000000 		.4byte	.LEHB12-.LFB53
 1842 00b0 00000000 		.4byte	.LEHE12-.LEHB12
 1843 00b4 00000000 		.4byte	0
 1844 00b8 00       		.byte	0
 1845 00b9 00000000 		.4byte	.LEHB13-.LFB53
 1846 00bd 00000000 		.4byte	.LEHE13-.LEHB13
 1847 00c1 00000000 		.4byte	.L112-.LFB53
 1848 00c5 00       		.byte	0
 1849 00c6 00000000 		.4byte	.LEHB14-.LFB53
 1850 00ca 00000000 		.4byte	.LEHE14-.LEHB14
 1851 00ce 00000000 		.4byte	0
 1852 00d2 00       		.byte	0
 1853 00d3 00000000 		.4byte	.LEHB15-.LFB53
 1854 00d7 00000000 		.4byte	.LEHE15-.LEHB15
 1855 00db 00000000 		.4byte	0
 1856 00df 00       		.byte	0
 1857              		.text
 1859              		.align	2
 1860              		.globl	_ZN7_Thread6createEPPS_PFvvEPvmii
 1862              	_ZN7_Thread6createEPPS_PFvvEPvmii:
 1863              	.LFB56:
 109:src/_Thread.cpp ****     return create(handle, (void(*)(void*))startRoutine, nullptr, stackSpace, stackSize, priority, o
 1864              		.loc 1 109 130 is_stmt 1
 1865              		.cfi_startproc
 1866              	.LVL142:
 1867 0b1c 130101FF 		addi	sp,sp,-16
 1868              		.cfi_def_cfa_offset 16
 1869 0b20 23341100 		sd	ra,8(sp)
 1870 0b24 23308100 		sd	s0,0(sp)
 1871              		.cfi_offset 1, -8
 1872              		.cfi_offset 8, -16
 1873 0b28 13040101 		addi	s0,sp,16
 1874              		.cfi_def_cfa 8, 0
 110:src/_Thread.cpp **** }
 1875              		.loc 1 110 5
 110:src/_Thread.cpp **** }
 1876              		.loc 1 110 18 is_stmt 0
 1877 0b2c 13880700 		mv	a6,a5
 1878 0b30 93070700 		mv	a5,a4
 1879              	.LVL143:
 1880 0b34 13870600 		mv	a4,a3
 1881              	.LVL144:
 1882 0b38 93060600 		mv	a3,a2
 1883              	.LVL145:
 1884 0b3c 13060000 		li	a2,0
 1885              	.LVL146:
 1886 0b40 97000000 		call	_ZN7_Thread6createEPPS_PFvPvES2_S2_mii
 1886      E7800000 
GAS LISTING /tmp/ccl1Ltrc.s 			page 41


 1887              	.LVL147:
 111:src/_Thread.cpp **** int _Thread::create(thread_t* handle, void (*startRoutine)(void), size_t stackSize, int priority, i
 1888              		.loc 1 111 1
 1889 0b48 83308100 		ld	ra,8(sp)
 1890              		.cfi_restore 1
 1891 0b4c 03340100 		ld	s0,0(sp)
 1892              		.cfi_restore 8
 1893              		.cfi_def_cfa 2, 16
 1894 0b50 13010101 		addi	sp,sp,16
 1895              		.cfi_def_cfa_offset 0
 1896 0b54 67800000 		jr	ra
 1897              		.cfi_endproc
 1898              	.LFE56:
 1900              		.align	2
 1901              		.globl	_ZN7_Thread6createEPPS_PFvPvES2_mii
 1903              	_ZN7_Thread6createEPPS_PFvPvES2_mii:
 1904              	.LFB54:
  95:src/_Thread.cpp ****     thread_t t = new _Thread((void*(*)(void*))startRoutine, arg, stackSize, priority, (options & SE
 1905              		.loc 1 95 124 is_stmt 1
 1906              		.cfi_startproc
 1907              		.cfi_personality 0x9b,DW.ref.__gxx_personality_v0
 1908              		.cfi_lsda 0x1b,.LLSDA54
 1909              	.LVL148:
 1910 0b58 130101FB 		addi	sp,sp,-80
 1911              		.cfi_def_cfa_offset 80
 1912 0b5c 23341104 		sd	ra,72(sp)
 1913 0b60 23308104 		sd	s0,64(sp)
 1914 0b64 233C9102 		sd	s1,56(sp)
 1915 0b68 23382103 		sd	s2,48(sp)
 1916 0b6c 23343103 		sd	s3,40(sp)
 1917 0b70 23304103 		sd	s4,32(sp)
 1918 0b74 233C5101 		sd	s5,24(sp)
 1919 0b78 23386101 		sd	s6,16(sp)
 1920 0b7c 23347101 		sd	s7,8(sp)
 1921 0b80 23308101 		sd	s8,0(sp)
 1922              		.cfi_offset 1, -8
 1923              		.cfi_offset 8, -16
 1924              		.cfi_offset 9, -24
 1925              		.cfi_offset 18, -32
 1926              		.cfi_offset 19, -40
 1927              		.cfi_offset 20, -48
 1928              		.cfi_offset 21, -56
 1929              		.cfi_offset 22, -64
 1930              		.cfi_offset 23, -72
 1931              		.cfi_offset 24, -80
 1932 0b84 13040105 		addi	s0,sp,80
 1933              		.cfi_def_cfa 8, 0
 1934 0b88 93090500 		mv	s3,a0
 1935 0b8c 138A0500 		mv	s4,a1
 1936 0b90 930A0600 		mv	s5,a2
 1937 0b94 938B0600 		mv	s7,a3
 1938 0b98 130B0700 		mv	s6,a4
 1939 0b9c 93840700 		mv	s1,a5
  96:src/_Thread.cpp ****     if (!t) return -1; //greska u alokaciji
 1940              		.loc 1 96 5
  96:src/_Thread.cpp ****     if (!t) return -1; //greska u alokaciji
 1941              		.loc 1 96 96 is_stmt 0
GAS LISTING /tmp/ccl1Ltrc.s 			page 42


 1942 0ba0 93F72700 		andi	a5,a5,2
 1943              	.LVL149:
  96:src/_Thread.cpp ****     if (!t) return -1; //greska u alokaciji
 1944              		.loc 1 96 110
 1945 0ba4 63900702 		bnez	a5,.L124
  96:src/_Thread.cpp ****     if (!t) return -1; //greska u alokaciji
 1946              		.loc 1 96 128 discriminator 2
 1947 0ba8 17050000 		ld	a0,.LANCHOR0+8
 1947      03350500 
 1948              	.LVL150:
 1949 0bb0 97000000 		call	_ZN7_Thread6daemonEv
 1949      E7800000 
 1950              	.LVL151:
  96:src/_Thread.cpp ****     if (!t) return -1; //greska u alokaciji
 1951              		.loc 1 96 110 discriminator 2
 1952 0bb8 63140504 		bnez	a0,.L125
  96:src/_Thread.cpp ****     if (!t) return -1; //greska u alokaciji
 1953              		.loc 1 96 110
 1954 0bbc 130C0000 		li	s8,0
 1955 0bc0 6F008000 		j	.L119
 1956              	.LVL152:
 1957              	.L124:
 1958 0bc4 130C1000 		li	s8,1
 1959              	.LVL153:
 1960              	.L119:
  96:src/_Thread.cpp ****     if (!t) return -1; //greska u alokaciji
 1961              		.loc 1 96 136 discriminator 6
 1962 0bc8 13058004 		li	a0,72
 1963              	.LEHB16:
 1964 0bcc 97000000 		call	_ZN7_ThreadnwEm
 1964      E7800000 
 1965              	.LVL154:
 1966              	.LEHE16:
 1967 0bd4 13090500 		mv	s2,a0
 1968 0bd8 63080502 		beqz	a0,.L120
  96:src/_Thread.cpp ****     if (!t) return -1; //greska u alokaciji
 1969              		.loc 1 96 136 discriminator 7
 1970 0bdc 13081000 		li	a6,1
 1971 0be0 93070C00 		mv	a5,s8
 1972 0be4 13070B00 		mv	a4,s6
 1973 0be8 93860B00 		mv	a3,s7
 1974 0bec 13860A00 		mv	a2,s5
 1975 0bf0 93050A00 		mv	a1,s4
 1976              	.LEHB17:
 1977 0bf4 97000000 		call	_ZN7_ThreadC1EPFPvS0_ES0_mibb
 1977      E7800000 
 1978              	.LVL155:
 1979              	.LEHE17:
 1980 0bfc 6F00C000 		j	.L120
 1981              	.L125:
  96:src/_Thread.cpp ****     if (!t) return -1; //greska u alokaciji
 1982              		.loc 1 96 110
 1983 0c00 130C1000 		li	s8,1
 1984 0c04 6FF05FFC 		j	.L119
 1985              	.L120:
 1986              	.LVL156:
  97:src/_Thread.cpp ****     if (handle) *handle = t;
GAS LISTING /tmp/ccl1Ltrc.s 			page 43


 1987              		.loc 1 97 5 is_stmt 1 discriminator 12
 1988 0c08 630A0904 		beqz	s2,.L126
  98:src/_Thread.cpp ****     if (options & SET_START) return t->start();
 1989              		.loc 1 98 5
 1990 0c0c 63840900 		beqz	s3,.L122
  98:src/_Thread.cpp ****     if (options & SET_START) return t->start();
 1991              		.loc 1 98 17 discriminator 1
  98:src/_Thread.cpp ****     if (options & SET_START) return t->start();
 1992              		.loc 1 98 25 is_stmt 0 discriminator 1
 1993 0c10 23B02901 		sd	s2,0(s3)
 1994              	.L122:
  99:src/_Thread.cpp ****     return 0;
 1995              		.loc 1 99 5 is_stmt 1
  99:src/_Thread.cpp ****     return 0;
 1996              		.loc 1 99 17 is_stmt 0
 1997 0c14 13F51400 		andi	a0,s1,1
  99:src/_Thread.cpp ****     return 0;
 1998              		.loc 1 99 5
 1999 0c18 631A0502 		bnez	a0,.L130
 2000              	.L128:
 101:src/_Thread.cpp **** int _Thread::create(thread_t* handle, void (*startRoutine)(void*), void* arg, int priority, int opt
 2001              		.loc 1 101 1
 2002 0c1c 83308104 		ld	ra,72(sp)
 2003              		.cfi_remember_state
 2004              		.cfi_restore 1
 2005 0c20 03340104 		ld	s0,64(sp)
 2006              		.cfi_restore 8
 2007              		.cfi_def_cfa 2, 80
 2008 0c24 83348103 		ld	s1,56(sp)
 2009              		.cfi_restore 9
 2010 0c28 03390103 		ld	s2,48(sp)
 2011              		.cfi_restore 18
 2012              	.LVL157:
 2013 0c2c 83398102 		ld	s3,40(sp)
 2014              		.cfi_restore 19
 2015              	.LVL158:
 2016 0c30 033A0102 		ld	s4,32(sp)
 2017              		.cfi_restore 20
 2018              	.LVL159:
 2019 0c34 833A8101 		ld	s5,24(sp)
 2020              		.cfi_restore 21
 2021              	.LVL160:
 2022 0c38 033B0101 		ld	s6,16(sp)
 2023              		.cfi_restore 22
 2024 0c3c 833B8100 		ld	s7,8(sp)
 2025              		.cfi_restore 23
 2026              	.LVL161:
 2027 0c40 033C0100 		ld	s8,0(sp)
 2028              		.cfi_restore 24
 2029 0c44 13010105 		addi	sp,sp,80
 2030              		.cfi_def_cfa_offset 0
 2031 0c48 67800000 		jr	ra
 2032              	.LVL162:
 2033              	.L130:
 2034              		.cfi_restore_state
  99:src/_Thread.cpp ****     return 0;
 2035              		.loc 1 99 30 is_stmt 1 discriminator 1
GAS LISTING /tmp/ccl1Ltrc.s 			page 44


  99:src/_Thread.cpp ****     return 0;
 2036              		.loc 1 99 45 is_stmt 0 discriminator 1
 2037 0c4c 13050900 		mv	a0,s2
 2038              	.LEHB18:
 2039 0c50 97000000 		call	_ZN7_Thread5startEv
 2039      E7800000 
 2040              	.LVL163:
 2041              	.LEHE18:
  99:src/_Thread.cpp ****     return 0;
 2042              		.loc 1 99 46 discriminator 1
 2043 0c58 6FF05FFC 		j	.L128
 2044              	.L126:
  97:src/_Thread.cpp ****     if (handle) *handle = t;
 2045              		.loc 1 97 21
 2046 0c5c 1305F0FF 		li	a0,-1
 2047 0c60 6FF0DFFB 		j	.L128
 2048              	.LVL164:
 2049              	.L127:
 2050 0c64 93040500 		mv	s1,a0
  96:src/_Thread.cpp ****     if (!t) return -1; //greska u alokaciji
 2051              		.loc 1 96 136
 2052 0c68 13050900 		mv	a0,s2
 2053 0c6c 97000000 		call	_ZN7_ThreaddlEPv
 2053      E7800000 
 2054              	.LVL165:
 2055 0c74 13850400 		mv	a0,s1
 2056              	.LEHB19:
 2057 0c78 97000000 		call	_Unwind_Resume@plt
 2057      E7800000 
 2058              	.LVL166:
 2059              	.LEHE19:
 2060              		.cfi_endproc
 2061              	.LFE54:
 2062              		.section	.gcc_except_table
 2063              	.LLSDA54:
 2064 00e0 FF       		.byte	0xff
 2065 00e1 FF       		.byte	0xff
 2066 00e2 03       		.byte	0x3
 2067 00e3 34       		.byte	0x34
 2068 00e4 00000000 		.4byte	.LEHB16-.LFB54
 2069 00e8 00000000 		.4byte	.LEHE16-.LEHB16
 2070 00ec 00000000 		.4byte	0
 2071 00f0 00       		.byte	0
 2072 00f1 00000000 		.4byte	.LEHB17-.LFB54
 2073 00f5 00000000 		.4byte	.LEHE17-.LEHB17
 2074 00f9 00000000 		.4byte	.L127-.LFB54
 2075 00fd 00       		.byte	0
 2076 00fe 00000000 		.4byte	.LEHB18-.LFB54
 2077 0102 00000000 		.4byte	.LEHE18-.LEHB18
 2078 0106 00000000 		.4byte	0
 2079 010a 00       		.byte	0
 2080 010b 00000000 		.4byte	.LEHB19-.LFB54
 2081 010f 00000000 		.4byte	.LEHE19-.LEHB19
 2082 0113 00000000 		.4byte	0
 2083 0117 00       		.byte	0
 2084              		.text
 2086              		.align	2
GAS LISTING /tmp/ccl1Ltrc.s 			page 45


 2087              		.globl	_ZN7_Thread6createEPPS_PFvvEmii
 2089              	_ZN7_Thread6createEPPS_PFvvEmii:
 2090              	.LFB57:
 112:src/_Thread.cpp ****     return create(handle, (void(*)(void*))startRoutine, nullptr, stackSize, priority, options);
 2091              		.loc 1 112 112 is_stmt 1
 2092              		.cfi_startproc
 2093              	.LVL167:
 2094 0c80 130101FF 		addi	sp,sp,-16
 2095              		.cfi_def_cfa_offset 16
 2096 0c84 23341100 		sd	ra,8(sp)
 2097 0c88 23308100 		sd	s0,0(sp)
 2098              		.cfi_offset 1, -8
 2099              		.cfi_offset 8, -16
 2100 0c8c 13040101 		addi	s0,sp,16
 2101              		.cfi_def_cfa 8, 0
 2102 0c90 93070700 		mv	a5,a4
 113:src/_Thread.cpp **** }
 2103              		.loc 1 113 5
 113:src/_Thread.cpp **** }
 2104              		.loc 1 113 18 is_stmt 0
 2105 0c94 13870600 		mv	a4,a3
 2106              	.LVL168:
 2107 0c98 93060600 		mv	a3,a2
 2108              	.LVL169:
 2109 0c9c 13060000 		li	a2,0
 2110              	.LVL170:
 2111 0ca0 97000000 		call	_ZN7_Thread6createEPPS_PFvPvES2_mii
 2111      E7800000 
 2112              	.LVL171:
 114:src/_Thread.cpp **** int _Thread::create(thread_t* handle, void (*startRoutine)(void), int priority, int options) {
 2113              		.loc 1 114 1
 2114 0ca8 83308100 		ld	ra,8(sp)
 2115              		.cfi_restore 1
 2116 0cac 03340100 		ld	s0,0(sp)
 2117              		.cfi_restore 8
 2118              		.cfi_def_cfa 2, 16
 2119 0cb0 13010101 		addi	sp,sp,16
 2120              		.cfi_def_cfa_offset 0
 2121 0cb4 67800000 		jr	ra
 2122              		.cfi_endproc
 2123              	.LFE57:
 2125              		.align	2
 2126              		.globl	_ZN7_Thread6createEPPS_PFvPvES2_ii
 2128              	_ZN7_Thread6createEPPS_PFvPvES2_ii:
 2129              	.LFB55:
 102:src/_Thread.cpp ****     thread_t t = new _Thread((void*(*)(void*))startRoutine, arg, priority, (options & SET_DAEMON) |
 2130              		.loc 1 102 106 is_stmt 1
 2131              		.cfi_startproc
 2132              		.cfi_personality 0x9b,DW.ref.__gxx_personality_v0
 2133              		.cfi_lsda 0x1b,.LLSDA55
 2134              	.LVL172:
 2135 0cb8 130101FB 		addi	sp,sp,-80
 2136              		.cfi_def_cfa_offset 80
 2137 0cbc 23341104 		sd	ra,72(sp)
 2138 0cc0 23308104 		sd	s0,64(sp)
 2139 0cc4 233C9102 		sd	s1,56(sp)
 2140 0cc8 23382103 		sd	s2,48(sp)
GAS LISTING /tmp/ccl1Ltrc.s 			page 46


 2141 0ccc 23343103 		sd	s3,40(sp)
 2142 0cd0 23304103 		sd	s4,32(sp)
 2143 0cd4 233C5101 		sd	s5,24(sp)
 2144 0cd8 23386101 		sd	s6,16(sp)
 2145 0cdc 23347101 		sd	s7,8(sp)
 2146              		.cfi_offset 1, -8
 2147              		.cfi_offset 8, -16
 2148              		.cfi_offset 9, -24
 2149              		.cfi_offset 18, -32
 2150              		.cfi_offset 19, -40
 2151              		.cfi_offset 20, -48
 2152              		.cfi_offset 21, -56
 2153              		.cfi_offset 22, -64
 2154              		.cfi_offset 23, -72
 2155 0ce0 13040105 		addi	s0,sp,80
 2156              		.cfi_def_cfa 8, 0
 2157 0ce4 93090500 		mv	s3,a0
 2158 0ce8 138B0500 		mv	s6,a1
 2159 0cec 930A0600 		mv	s5,a2
 2160 0cf0 138A0600 		mv	s4,a3
 2161 0cf4 93040700 		mv	s1,a4
 103:src/_Thread.cpp ****     if (!t || !t->ssptop) return -1; //greska u alokaciji
 2162              		.loc 1 103 5
 103:src/_Thread.cpp ****     if (!t || !t->ssptop) return -1; //greska u alokaciji
 2163              		.loc 1 103 85 is_stmt 0
 2164 0cf8 93772700 		andi	a5,a4,2
 103:src/_Thread.cpp ****     if (!t || !t->ssptop) return -1; //greska u alokaciji
 2165              		.loc 1 103 99
 2166 0cfc 63900702 		bnez	a5,.L139
 103:src/_Thread.cpp ****     if (!t || !t->ssptop) return -1; //greska u alokaciji
 2167              		.loc 1 103 117 discriminator 2
 2168 0d00 17050000 		ld	a0,.LANCHOR0+8
 2168      03350500 
 2169              	.LVL173:
 2170 0d08 97000000 		call	_ZN7_Thread6daemonEv
 2170      E7800000 
 2171              	.LVL174:
 103:src/_Thread.cpp ****     if (!t || !t->ssptop) return -1; //greska u alokaciji
 2172              		.loc 1 103 99 discriminator 2
 2173 0d10 63120504 		bnez	a0,.L140
 103:src/_Thread.cpp ****     if (!t || !t->ssptop) return -1; //greska u alokaciji
 2174              		.loc 1 103 99
 2175 0d14 930B0000 		li	s7,0
 2176 0d18 6F008000 		j	.L134
 2177              	.LVL175:
 2178              	.L139:
 2179 0d1c 930B1000 		li	s7,1
 2180              	.LVL176:
 2181              	.L134:
 103:src/_Thread.cpp ****     if (!t || !t->ssptop) return -1; //greska u alokaciji
 2182              		.loc 1 103 125 discriminator 6
 2183 0d20 13058004 		li	a0,72
 2184              	.LEHB20:
 2185 0d24 97000000 		call	_ZN7_ThreadnwEm
 2185      E7800000 
 2186              	.LVL177:
 2187              	.LEHE20:
GAS LISTING /tmp/ccl1Ltrc.s 			page 47


 2188 0d2c 13090500 		mv	s2,a0
 2189 0d30 63060502 		beqz	a0,.L135
 103:src/_Thread.cpp ****     if (!t || !t->ssptop) return -1; //greska u alokaciji
 2190              		.loc 1 103 125 discriminator 7
 2191 0d34 93071000 		li	a5,1
 2192 0d38 13870B00 		mv	a4,s7
 2193 0d3c 93060A00 		mv	a3,s4
 2194 0d40 13860A00 		mv	a2,s5
 2195 0d44 93050B00 		mv	a1,s6
 2196              	.LEHB21:
 2197 0d48 97000000 		call	_ZN7_ThreadC1EPFPvS0_ES0_ibb
 2197      E7800000 
 2198              	.LVL178:
 2199              	.LEHE21:
 2200 0d50 6F00C000 		j	.L135
 2201              	.L140:
 103:src/_Thread.cpp ****     if (!t || !t->ssptop) return -1; //greska u alokaciji
 2202              		.loc 1 103 99
 2203 0d54 930B1000 		li	s7,1
 2204 0d58 6FF09FFC 		j	.L134
 2205              	.L135:
 2206              	.LVL179:
 104:src/_Thread.cpp ****     if (handle) *handle = t;
 2207              		.loc 1 104 5 is_stmt 1 discriminator 12
 2208 0d5c 630C0904 		beqz	s2,.L141
 104:src/_Thread.cpp ****     if (handle) *handle = t;
 2209              		.loc 1 104 19 is_stmt 0 discriminator 2
 2210 0d60 83378901 		ld	a5,24(s2)
 104:src/_Thread.cpp ****     if (handle) *handle = t;
 2211              		.loc 1 104 12 discriminator 2
 2212 0d64 638C0704 		beqz	a5,.L142
 105:src/_Thread.cpp ****     if (options & SET_START) return t->start();
 2213              		.loc 1 105 5 is_stmt 1
 2214 0d68 63840900 		beqz	s3,.L137
 105:src/_Thread.cpp ****     if (options & SET_START) return t->start();
 2215              		.loc 1 105 17 discriminator 1
 105:src/_Thread.cpp ****     if (options & SET_START) return t->start();
 2216              		.loc 1 105 25 is_stmt 0 discriminator 1
 2217 0d6c 23B02901 		sd	s2,0(s3)
 2218              	.L137:
 106:src/_Thread.cpp ****     return 0;
 2219              		.loc 1 106 5 is_stmt 1
 106:src/_Thread.cpp ****     return 0;
 2220              		.loc 1 106 17 is_stmt 0
 2221 0d70 13F51400 		andi	a0,s1,1
 106:src/_Thread.cpp ****     return 0;
 2222              		.loc 1 106 5
 2223 0d74 63180502 		bnez	a0,.L146
 2224              	.L144:
 108:src/_Thread.cpp **** int _Thread::create(thread_t* handle, void (*startRoutine)(void), void* stackSpace, size_t stackSiz
 2225              		.loc 1 108 1
 2226 0d78 83308104 		ld	ra,72(sp)
 2227              		.cfi_remember_state
 2228              		.cfi_restore 1
 2229 0d7c 03340104 		ld	s0,64(sp)
 2230              		.cfi_restore 8
 2231              		.cfi_def_cfa 2, 80
GAS LISTING /tmp/ccl1Ltrc.s 			page 48


 2232 0d80 83348103 		ld	s1,56(sp)
 2233              		.cfi_restore 9
 2234 0d84 03390103 		ld	s2,48(sp)
 2235              		.cfi_restore 18
 2236              	.LVL180:
 2237 0d88 83398102 		ld	s3,40(sp)
 2238              		.cfi_restore 19
 2239              	.LVL181:
 2240 0d8c 033A0102 		ld	s4,32(sp)
 2241              		.cfi_restore 20
 2242 0d90 833A8101 		ld	s5,24(sp)
 2243              		.cfi_restore 21
 2244              	.LVL182:
 2245 0d94 033B0101 		ld	s6,16(sp)
 2246              		.cfi_restore 22
 2247              	.LVL183:
 2248 0d98 833B8100 		ld	s7,8(sp)
 2249              		.cfi_restore 23
 2250 0d9c 13010105 		addi	sp,sp,80
 2251              		.cfi_def_cfa_offset 0
 2252 0da0 67800000 		jr	ra
 2253              	.LVL184:
 2254              	.L146:
 2255              		.cfi_restore_state
 106:src/_Thread.cpp ****     return 0;
 2256              		.loc 1 106 30 is_stmt 1 discriminator 1
 106:src/_Thread.cpp ****     return 0;
 2257              		.loc 1 106 45 is_stmt 0 discriminator 1
 2258 0da4 13050900 		mv	a0,s2
 2259              	.LEHB22:
 2260 0da8 97000000 		call	_ZN7_Thread5startEv
 2260      E7800000 
 2261              	.LVL185:
 2262              	.LEHE22:
 106:src/_Thread.cpp ****     return 0;
 2263              		.loc 1 106 46 discriminator 1
 2264 0db0 6FF09FFC 		j	.L144
 2265              	.L141:
 104:src/_Thread.cpp ****     if (handle) *handle = t;
 2266              		.loc 1 104 35
 2267 0db4 1305F0FF 		li	a0,-1
 2268 0db8 6FF01FFC 		j	.L144
 2269              	.L142:
 2270 0dbc 1305F0FF 		li	a0,-1
 2271 0dc0 6FF09FFB 		j	.L144
 2272              	.LVL186:
 2273              	.L143:
 2274 0dc4 93040500 		mv	s1,a0
 103:src/_Thread.cpp ****     if (!t || !t->ssptop) return -1; //greska u alokaciji
 2275              		.loc 1 103 125
 2276 0dc8 13050900 		mv	a0,s2
 2277 0dcc 97000000 		call	_ZN7_ThreaddlEPv
 2277      E7800000 
 2278              	.LVL187:
 2279 0dd4 13850400 		mv	a0,s1
 2280              	.LEHB23:
 2281 0dd8 97000000 		call	_Unwind_Resume@plt
GAS LISTING /tmp/ccl1Ltrc.s 			page 49


 2281      E7800000 
 2282              	.LVL188:
 2283              	.LEHE23:
 2284              		.cfi_endproc
 2285              	.LFE55:
 2286              		.section	.gcc_except_table
 2287              	.LLSDA55:
 2288 0118 FF       		.byte	0xff
 2289 0119 FF       		.byte	0xff
 2290 011a 03       		.byte	0x3
 2291 011b 34       		.byte	0x34
 2292 011c 00000000 		.4byte	.LEHB20-.LFB55
 2293 0120 00000000 		.4byte	.LEHE20-.LEHB20
 2294 0124 00000000 		.4byte	0
 2295 0128 00       		.byte	0
 2296 0129 00000000 		.4byte	.LEHB21-.LFB55
 2297 012d 00000000 		.4byte	.LEHE21-.LEHB21
 2298 0131 00000000 		.4byte	.L143-.LFB55
 2299 0135 00       		.byte	0
 2300 0136 00000000 		.4byte	.LEHB22-.LFB55
 2301 013a 00000000 		.4byte	.LEHE22-.LEHB22
 2302 013e 00000000 		.4byte	0
 2303 0142 00       		.byte	0
 2304 0143 00000000 		.4byte	.LEHB23-.LFB55
 2305 0147 00000000 		.4byte	.LEHE23-.LEHB23
 2306 014b 00000000 		.4byte	0
 2307 014f 00       		.byte	0
 2308              		.text
 2310              		.align	2
 2311              		.globl	_ZN7_Thread6createEPPS_PFvvEii
 2313              	_ZN7_Thread6createEPPS_PFvvEii:
 2314              	.LFB58:
 115:src/_Thread.cpp ****     return create(handle, (void(*)(void*))startRoutine, nullptr, priority, options);
 2315              		.loc 1 115 94 is_stmt 1
 2316              		.cfi_startproc
 2317              	.LVL189:
 2318 0de0 130101FF 		addi	sp,sp,-16
 2319              		.cfi_def_cfa_offset 16
 2320 0de4 23341100 		sd	ra,8(sp)
 2321 0de8 23308100 		sd	s0,0(sp)
 2322              		.cfi_offset 1, -8
 2323              		.cfi_offset 8, -16
 2324 0dec 13040101 		addi	s0,sp,16
 2325              		.cfi_def_cfa 8, 0
 2326 0df0 13870600 		mv	a4,a3
 116:src/_Thread.cpp **** }
 2327              		.loc 1 116 5
 116:src/_Thread.cpp **** }
 2328              		.loc 1 116 18 is_stmt 0
 2329 0df4 93060600 		mv	a3,a2
 2330              	.LVL190:
 2331 0df8 13060000 		li	a2,0
 2332              	.LVL191:
 2333 0dfc 97000000 		call	_ZN7_Thread6createEPPS_PFvPvES2_ii
 2333      E7800000 
 2334              	.LVL192:
 117:src/_Thread.cpp **** //cekanje da se probudi neka nit (ili da prodje buffer semafor)
GAS LISTING /tmp/ccl1Ltrc.s 			page 50


 2335              		.loc 1 117 1
 2336 0e04 83308100 		ld	ra,8(sp)
 2337              		.cfi_restore 1
 2338 0e08 03340100 		ld	s0,0(sp)
 2339              		.cfi_restore 8
 2340              		.cfi_def_cfa 2, 16
 2341 0e0c 13010101 		addi	sp,sp,16
 2342              		.cfi_def_cfa_offset 0
 2343 0e10 67800000 		jr	ra
 2344              		.cfi_endproc
 2345              	.LFE58:
 2347              		.align	2
 2348              		.globl	_ZN7_Thread10limitReachEv
 2350              	_ZN7_Thread10limitReachEv:
 2351              	.LFB76:
 239:src/_Thread.cpp **** void _Thread::limitReach() {
 2352              		.loc 1 239 28 is_stmt 1
 2353              		.cfi_startproc
 2354              	.LVL193:
 2355 0e14 130101FF 		addi	sp,sp,-16
 2356              		.cfi_def_cfa_offset 16
 2357 0e18 23348100 		sd	s0,8(sp)
 2358              		.cfi_offset 8, -8
 2359 0e1c 13040101 		addi	s0,sp,16
 2360              		.cfi_def_cfa 8, 0
 240:src/_Thread.cpp ****     flags = flags | 64u;
 2361              		.loc 1 240 5
 2362              		.loc 1 240 13 is_stmt 0
 2363 0e20 83278502 		lw	a5,40(a0)
 2364              		.loc 1 240 19
 2365 0e24 93E70704 		ori	a5,a5,64
 2366              		.loc 1 240 11
 2367 0e28 2324F502 		sw	a5,40(a0)
 241:src/_Thread.cpp **** }
 2368              		.loc 1 241 1
 2369 0e2c 03348100 		ld	s0,8(sp)
 2370              		.cfi_restore 8
 2371              		.cfi_def_cfa 2, 16
 2372 0e30 13010101 		addi	sp,sp,16
 2373              		.cfi_def_cfa_offset 0
 2374 0e34 67800000 		jr	ra
 2375              		.cfi_endproc
 2376              	.LFE76:
 2378              		.align	2
 2379              		.globl	_ZN7_Thread12limitReachedEv
 2381              	_ZN7_Thread12limitReachedEv:
 2382              	.LFB77:
 242:src/_Thread.cpp **** int _Thread::limitReached() {
 2383              		.loc 1 242 29 is_stmt 1
 2384              		.cfi_startproc
 2385              	.LVL194:
 2386 0e38 130101FF 		addi	sp,sp,-16
 2387              		.cfi_def_cfa_offset 16
 2388 0e3c 23348100 		sd	s0,8(sp)
 2389              		.cfi_offset 8, -8
 2390 0e40 13040101 		addi	s0,sp,16
 2391              		.cfi_def_cfa 8, 0
GAS LISTING /tmp/ccl1Ltrc.s 			page 51


 243:src/_Thread.cpp ****     int ret = flags & 64u ? 1 : 0;
 2392              		.loc 1 243 5
 2393              		.loc 1 243 15 is_stmt 0
 2394 0e44 83278502 		lw	a5,40(a0)
 2395              		.loc 1 243 27
 2396 0e48 1BD76700 		srliw	a4,a5,6
 2397              	.LVL195:
 244:src/_Thread.cpp ****     flags = flags & ~64u;
 2398              		.loc 1 244 5 is_stmt 1
 2399              		.loc 1 244 19 is_stmt 0
 2400 0e4c 93F7F7FB 		andi	a5,a5,-65
 2401              		.loc 1 244 11
 2402 0e50 2324F502 		sw	a5,40(a0)
 245:src/_Thread.cpp ****     return ret;
 2403              		.loc 1 245 5 is_stmt 1
 246:src/_Thread.cpp **** }
 2404              		.loc 1 246 1 is_stmt 0
 2405 0e54 13751700 		andi	a0,a4,1
 2406              	.LVL196:
 2407 0e58 03348100 		ld	s0,8(sp)
 2408              		.cfi_restore 8
 2409              		.cfi_def_cfa 2, 16
 2410 0e5c 13010101 		addi	sp,sp,16
 2411              		.cfi_def_cfa_offset 0
 2412 0e60 67800000 		jr	ra
 2413              		.cfi_endproc
 2414              	.LFE77:
 2416              		.align	2
 2417              		.globl	_ZN7_Thread11interruptedEv
 2419              	_ZN7_Thread11interruptedEv:
 2420              	.LFB79:
 247:src/_Thread.cpp **** int _Thread::interrupt() {
 248:src/_Thread.cpp ****     if (finished()) return 0;
 249:src/_Thread.cpp ****     flags |= 128u;
 250:src/_Thread.cpp ****     if (waitManager) {
 251:src/_Thread.cpp ****         int ret = waitManager->interrupt();
 252:src/_Thread.cpp ****         return check_wait(ret);
 253:src/_Thread.cpp ****     }
 254:src/_Thread.cpp ****     return 0;
 255:src/_Thread.cpp **** }
 256:src/_Thread.cpp **** int _Thread::interrupted() {
 2421              		.loc 1 256 28 is_stmt 1
 2422              		.cfi_startproc
 2423              	.LVL197:
 2424 0e64 130101FF 		addi	sp,sp,-16
 2425              		.cfi_def_cfa_offset 16
 2426 0e68 23348100 		sd	s0,8(sp)
 2427              		.cfi_offset 8, -8
 2428 0e6c 13040101 		addi	s0,sp,16
 2429              		.cfi_def_cfa 8, 0
 257:src/_Thread.cpp ****     int ret = flags & 128u ? 1 : 0;
 2430              		.loc 1 257 5
 2431              		.loc 1 257 15 is_stmt 0
 2432 0e70 83278502 		lw	a5,40(a0)
 2433              		.loc 1 257 28
 2434 0e74 1BD77700 		srliw	a4,a5,7
 2435              	.LVL198:
GAS LISTING /tmp/ccl1Ltrc.s 			page 52


 258:src/_Thread.cpp ****     flags &= ~128u;
 2436              		.loc 1 258 5 is_stmt 1
 2437              		.loc 1 258 11 is_stmt 0
 2438 0e78 93F7F7F7 		andi	a5,a5,-129
 2439 0e7c 2324F502 		sw	a5,40(a0)
 259:src/_Thread.cpp ****     return ret;
 2440              		.loc 1 259 5 is_stmt 1
 260:src/_Thread.cpp **** }
 2441              		.loc 1 260 1 is_stmt 0
 2442 0e80 13751700 		andi	a0,a4,1
 2443              	.LVL199:
 2444 0e84 03348100 		ld	s0,8(sp)
 2445              		.cfi_restore 8
 2446              		.cfi_def_cfa 2, 16
 2447 0e88 13010101 		addi	sp,sp,16
 2448              		.cfi_def_cfa_offset 0
 2449 0e8c 67800000 		jr	ra
 2450              		.cfi_endproc
 2451              	.LFE79:
 2453              		.align	2
 2454              		.globl	_ZN7_Thread13isInterruptedEv
 2456              	_ZN7_Thread13isInterruptedEv:
 2457              	.LFB80:
 261:src/_Thread.cpp **** int _Thread::isInterrupted() {
 2458              		.loc 1 261 30 is_stmt 1
 2459              		.cfi_startproc
 2460              	.LVL200:
 2461 0e90 130101FF 		addi	sp,sp,-16
 2462              		.cfi_def_cfa_offset 16
 2463 0e94 23348100 		sd	s0,8(sp)
 2464              		.cfi_offset 8, -8
 2465 0e98 13040101 		addi	s0,sp,16
 2466              		.cfi_def_cfa 8, 0
 262:src/_Thread.cpp ****     return (flags & 128u ? 1 : 0);
 2467              		.loc 1 262 5
 2468              		.loc 1 262 13 is_stmt 0
 2469 0e9c 03258502 		lw	a0,40(a0)
 2470              	.LVL201:
 2471              		.loc 1 262 26
 2472 0ea0 1B557500 		srliw	a0,a0,7
 263:src/_Thread.cpp **** }
 2473              		.loc 1 263 1
 2474 0ea4 13751500 		andi	a0,a0,1
 2475 0ea8 03348100 		ld	s0,8(sp)
 2476              		.cfi_restore 8
 2477              		.cfi_def_cfa 2, 16
 2478 0eac 13010101 		addi	sp,sp,16
 2479              		.cfi_def_cfa_offset 0
 2480 0eb0 67800000 		jr	ra
 2481              		.cfi_endproc
 2482              	.LFE80:
 2484              		.align	2
 2485              		.globl	_ZN7_Thread12safeDispatchEv
 2487              	_ZN7_Thread12safeDispatchEv:
 2488              	.LFB83:
 264:src/_Thread.cpp **** int _Thread::join(void** pret) {
 265:src/_Thread.cpp ****     if (running != parent) return -1; //join moze da pozove samo roditeljska nit
GAS LISTING /tmp/ccl1Ltrc.s 			page 53


 266:src/_Thread.cpp ****     if (running->isInterrupted()) return 0; //prekinuta nit se automatski izbacuje
 267:src/_Thread.cpp ****     if (!finished()) {
 268:src/_Thread.cpp ****         _WaitManager* manager = new _JoinManager(_Thread::running, this);
 269:src/_Thread.cpp ****         if (!manager) return -1;
 270:src/_Thread.cpp ****         parentWait();
 271:src/_Thread.cpp ****         safeDispatch();
 272:src/_Thread.cpp ****     }
 273:src/_Thread.cpp ****     if (pret) *pret = returnValue;
 274:src/_Thread.cpp ****     return 0;
 275:src/_Thread.cpp **** }
 276:src/_Thread.cpp **** int _Thread::joinLimit(void** pret, time_t limit) {
 277:src/_Thread.cpp ****     if (running != parent) return -1;
 278:src/_Thread.cpp ****     if (_Thread::running->isInterrupted()) return 0; //prekinuta nit se automatski izbacuje
 279:src/_Thread.cpp ****     if (!finished()) {
 280:src/_Thread.cpp ****         if (!limit) return 1;
 281:src/_Thread.cpp ****         _WaitManager* manager = new _JoinSleepManager(_Thread::running, this);
 282:src/_Thread.cpp ****         if (!manager) return -1;
 283:src/_Thread.cpp ****         int ret = _Sleep::put(running, limit);
 284:src/_Thread.cpp ****         if (ret) { running->removeManager(); return ret;}
 285:src/_Thread.cpp ****         parentWait();
 286:src/_Thread.cpp ****         safeDispatch();
 287:src/_Thread.cpp ****     }
 288:src/_Thread.cpp ****     if (running->limitReached()) return 1;
 289:src/_Thread.cpp ****     if (pret) *pret = returnValue;
 290:src/_Thread.cpp ****     return 0;
 291:src/_Thread.cpp **** }
 292:src/_Thread.cpp **** void _Thread::safeDispatch() {
 2489              		.loc 1 292 30 is_stmt 1
 2490              		.cfi_startproc
 2491 0eb4 130101FF 		addi	sp,sp,-16
 2492              		.cfi_def_cfa_offset 16
 2493 0eb8 23341100 		sd	ra,8(sp)
 2494 0ebc 23308100 		sd	s0,0(sp)
 2495              		.cfi_offset 1, -8
 2496              		.cfi_offset 8, -16
 2497 0ec0 13040101 		addi	s0,sp,16
 2498              		.cfi_def_cfa 8, 0
 293:src/_Thread.cpp ****     busyWait();
 2499              		.loc 1 293 5
 2500              		.loc 1 293 13 is_stmt 0
 2501 0ec4 97000000 		call	_ZN7_Thread8busyWaitEv
 2501      E7800000 
 2502              	.LVL202:
 294:src/_Thread.cpp ****     time = DEFAULT_TIME_SLICE;
 2503              		.loc 1 294 5 is_stmt 1
 2504              		.loc 1 294 10 is_stmt 0
 2505 0ecc 93072000 		li	a5,2
 2506 0ed0 17070000 		sd	a5,.LANCHOR1,a4
 2506      2330F700 
 295:src/_Thread.cpp ****     thread_dispatch();
 2507              		.loc 1 295 5 is_stmt 1
 2508              		.loc 1 295 20 is_stmt 0
 2509 0ed8 97000000 		call	_ZN7_Thread15thread_dispatchEv@plt
 2509      E7800000 
 2510              	.LVL203:
 296:src/_Thread.cpp **** }
 2511              		.loc 1 296 1
GAS LISTING /tmp/ccl1Ltrc.s 			page 54


 2512 0ee0 83308100 		ld	ra,8(sp)
 2513              		.cfi_restore 1
 2514 0ee4 03340100 		ld	s0,0(sp)
 2515              		.cfi_restore 8
 2516              		.cfi_def_cfa 2, 16
 2517 0ee8 13010101 		addi	sp,sp,16
 2518              		.cfi_def_cfa_offset 0
 2519 0eec 67800000 		jr	ra
 2520              		.cfi_endproc
 2521              	.LFE83:
 2523              		.section	.rodata.str1.8
 2524 000d 000000   		.align	3
 2525              	.LC1:
 2526 0010 4A6F696E 		.string	"Join_manager Cache"
 2526      5F6D616E 
 2526      61676572 
 2526      20436163 
 2526      686500
 2527              		.text
 2528              		.align	2
 2529              		.globl	_ZN7_Thread4joinEPPv
 2531              	_ZN7_Thread4joinEPPv:
 2532              	.LFB81:
 264:src/_Thread.cpp ****     if (running != parent) return -1; //join moze da pozove samo roditeljska nit
 2533              		.loc 1 264 32 is_stmt 1
 2534              		.cfi_startproc
 2535              		.cfi_personality 0x9b,DW.ref.__gxx_personality_v0
 2536              		.cfi_lsda 0x1b,.LLSDA81
 2537              	.LVL204:
 2538 0ef0 130101FD 		addi	sp,sp,-48
 2539              		.cfi_def_cfa_offset 48
 2540 0ef4 23341102 		sd	ra,40(sp)
 2541 0ef8 23308102 		sd	s0,32(sp)
 2542 0efc 233C9100 		sd	s1,24(sp)
 2543 0f00 23382101 		sd	s2,16(sp)
 2544 0f04 23343101 		sd	s3,8(sp)
 2545 0f08 23304101 		sd	s4,0(sp)
 2546              		.cfi_offset 1, -8
 2547              		.cfi_offset 8, -16
 2548              		.cfi_offset 9, -24
 2549              		.cfi_offset 18, -32
 2550              		.cfi_offset 19, -40
 2551              		.cfi_offset 20, -48
 2552 0f0c 13040103 		addi	s0,sp,48
 2553              		.cfi_def_cfa 8, 0
 2554 0f10 93040500 		mv	s1,a0
 265:src/_Thread.cpp ****     if (running->isInterrupted()) return 0; //prekinuta nit se automatski izbacuje
 2555              		.loc 1 265 5
 265:src/_Thread.cpp ****     if (running->isInterrupted()) return 0; //prekinuta nit se automatski izbacuje
 2556              		.loc 1 265 20 is_stmt 0
 2557 0f14 83370503 		ld	a5,48(a0)
 265:src/_Thread.cpp ****     if (running->isInterrupted()) return 0; //prekinuta nit se automatski izbacuje
 2558              		.loc 1 265 17
 2559 0f18 17050000 		ld	a0,.LANCHOR0+8
 2559      03350500 
 2560              	.LVL205:
 265:src/_Thread.cpp ****     if (running->isInterrupted()) return 0; //prekinuta nit se automatski izbacuje
GAS LISTING /tmp/ccl1Ltrc.s 			page 55


 2561              		.loc 1 265 5
 2562 0f20 6392A70E 		bne	a5,a0,.L165
 2563 0f24 93890500 		mv	s3,a1
 266:src/_Thread.cpp ****     if (!finished()) {
 2564              		.loc 1 266 5 is_stmt 1
 266:src/_Thread.cpp ****     if (!finished()) {
 2565              		.loc 1 266 31 is_stmt 0
 2566 0f28 97000000 		call	_ZN7_Thread13isInterruptedEv
 2566      E7800000 
 2567              	.LVL206:
 2568 0f30 13090500 		mv	s2,a0
 266:src/_Thread.cpp ****     if (!finished()) {
 2569              		.loc 1 266 5
 2570 0f34 631C050C 		bnez	a0,.L166
 267:src/_Thread.cpp ****         _WaitManager* manager = new _JoinManager(_Thread::running, this);
 2571              		.loc 1 267 5 is_stmt 1
 2572              	.LBB25:
 267:src/_Thread.cpp ****         _WaitManager* manager = new _JoinManager(_Thread::running, this);
 2573              		.loc 1 267 18 is_stmt 0
 2574 0f38 13850400 		mv	a0,s1
 2575 0f3c 97000000 		call	_ZN7_Thread8finishedEv
 2575      E7800000 
 2576              	.LVL207:
 267:src/_Thread.cpp ****         _WaitManager* manager = new _JoinManager(_Thread::running, this);
 2577              		.loc 1 267 5
 2578 0f44 630A0502 		beqz	a0,.L171
 2579              	.L161:
 2580              	.LBE25:
 273:src/_Thread.cpp ****     return 0;
 2581              		.loc 1 273 5 is_stmt 1
 2582 0f48 63860900 		beqz	s3,.L169
 273:src/_Thread.cpp ****     return 0;
 2583              		.loc 1 273 15 discriminator 1
 273:src/_Thread.cpp ****     return 0;
 2584              		.loc 1 273 23 is_stmt 0 discriminator 1
 2585 0f4c 83B78403 		ld	a5,56(s1)
 273:src/_Thread.cpp ****     return 0;
 2586              		.loc 1 273 21 discriminator 1
 2587 0f50 23B0F900 		sd	a5,0(s3)
 2588              	.LVL208:
 2589              	.L169:
 275:src/_Thread.cpp **** int _Thread::joinLimit(void** pret, time_t limit) {
 2590              		.loc 1 275 1
 2591 0f54 13050900 		mv	a0,s2
 2592 0f58 83308102 		ld	ra,40(sp)
 2593              		.cfi_remember_state
 2594              		.cfi_restore 1
 2595 0f5c 03340102 		ld	s0,32(sp)
 2596              		.cfi_restore 8
 2597              		.cfi_def_cfa 2, 48
 2598 0f60 83348101 		ld	s1,24(sp)
 2599              		.cfi_restore 9
 2600              	.LVL209:
 2601 0f64 03390101 		ld	s2,16(sp)
 2602              		.cfi_restore 18
 2603 0f68 83398100 		ld	s3,8(sp)
 2604              		.cfi_restore 19
GAS LISTING /tmp/ccl1Ltrc.s 			page 56


 2605 0f6c 033A0100 		ld	s4,0(sp)
 2606              		.cfi_restore 20
 2607 0f70 13010103 		addi	sp,sp,48
 2608              		.cfi_def_cfa_offset 0
 2609 0f74 67800000 		jr	ra
 2610              	.LVL210:
 2611              	.L171:
 2612              		.cfi_restore_state
 2613              	.LBB34:
 2614              	.LBB26:
 268:src/_Thread.cpp ****         if (!manager) return -1;
 2615              		.loc 1 268 9 is_stmt 1
 2616              	.LBB27:
 2617              	.LBB28:
 2618              		.file 2 "src/../h/_WaitManager.h"
   1:src/../h/_WaitManager.h **** //
   2:src/../h/_WaitManager.h **** // Created by os on 6/1/22.
   3:src/../h/_WaitManager.h **** //
   4:src/../h/_WaitManager.h **** 
   5:src/../h/_WaitManager.h **** #ifndef PROJECT_BASE__WAIT_MANAGER_H
   6:src/../h/_WaitManager.h **** #define PROJECT_BASE__WAIT_MANAGER_H
   7:src/../h/_WaitManager.h **** 
   8:src/../h/_WaitManager.h **** #include "types.h"
   9:src/../h/_WaitManager.h **** #include "_Mem.h"
  10:src/../h/_WaitManager.h **** #include "_slab.h"
  11:src/../h/_WaitManager.h **** 
  12:src/../h/_WaitManager.h **** class _WaitManager {
  13:src/../h/_WaitManager.h **** public:
  14:src/../h/_WaitManager.h ****     _WaitManager(thread_t my_thread);
  15:src/../h/_WaitManager.h ****     virtual int sem_pass(sem_t);
  16:src/../h/_WaitManager.h ****     virtual int sleep_pass();
  17:src/../h/_WaitManager.h ****     virtual int join_pass();
  18:src/../h/_WaitManager.h ****     virtual int interrupt();
  19:src/../h/_WaitManager.h ****     virtual ~_WaitManager();// = 0;
  20:src/../h/_WaitManager.h **** 
  21:src/../h/_WaitManager.h **** protected:
  22:src/../h/_WaitManager.h ****     thread_t myThread;
  23:src/../h/_WaitManager.h **** };
  24:src/../h/_WaitManager.h **** 
  25:src/../h/_WaitManager.h **** class _SemManager : public _WaitManager {
  26:src/../h/_WaitManager.h **** public:
  27:src/../h/_WaitManager.h ****     _SemManager(thread_t my_thread, sem_t sem);
  28:src/../h/_WaitManager.h ****     static kmem_cache_t* cache;
  29:src/../h/_WaitManager.h ****     void*  operator new(size_t size) {
  30:src/../h/_WaitManager.h ****         if (!cache) cache = kmem_cache_create("Sem_manager Cache", sizeof(_SemManager), nullptr, nu
  31:src/../h/_WaitManager.h ****         return kmem_cache_alloc(cache);
  32:src/../h/_WaitManager.h ****     }
  33:src/../h/_WaitManager.h ****     void operator delete(void* adr) { kmem_cache_free(cache, adr);}
  34:src/../h/_WaitManager.h ****     int sem_pass(sem_t sem) override;
  35:src/../h/_WaitManager.h ****     virtual int interrupt() override;
  36:src/../h/_WaitManager.h **** 
  37:src/../h/_WaitManager.h **** private:
  38:src/../h/_WaitManager.h ****     sem_t sem;
  39:src/../h/_WaitManager.h **** };
  40:src/../h/_WaitManager.h **** 
  41:src/../h/_WaitManager.h **** class _SleepManager : public _WaitManager {
  42:src/../h/_WaitManager.h **** public:
GAS LISTING /tmp/ccl1Ltrc.s 			page 57


  43:src/../h/_WaitManager.h ****     _SleepManager(thread_t my_thread);
  44:src/../h/_WaitManager.h ****     static kmem_cache_t* cache;
  45:src/../h/_WaitManager.h ****     void*  operator new(size_t size) {
  46:src/../h/_WaitManager.h ****         if (!cache) cache = kmem_cache_create("Sleep_manager Cache", sizeof(_SleepManager), nullptr
  47:src/../h/_WaitManager.h ****         return kmem_cache_alloc(cache);
  48:src/../h/_WaitManager.h ****     }
  49:src/../h/_WaitManager.h ****     void operator delete(void* adr) { kmem_cache_free(cache, adr);}
  50:src/../h/_WaitManager.h ****     int sleep_pass() override;
  51:src/../h/_WaitManager.h ****     virtual int interrupt() override;
  52:src/../h/_WaitManager.h **** };
  53:src/../h/_WaitManager.h **** 
  54:src/../h/_WaitManager.h **** class _JoinManager : public _WaitManager {
  55:src/../h/_WaitManager.h **** public:
  56:src/../h/_WaitManager.h ****     _JoinManager(thread_t my_thread, thread_t join_thread);
  57:src/../h/_WaitManager.h ****     static kmem_cache_t* cache;
  58:src/../h/_WaitManager.h ****     void*  operator new(size_t size) {
  59:src/../h/_WaitManager.h ****         if (!cache) cache = kmem_cache_create("Join_manager Cache", sizeof(_JoinManager), nullptr, 
 2619              		.loc 2 59 9
 2620              		.loc 2 59 13 is_stmt 0
 2621 0f78 97070000 		la	a5,_ZN12_JoinManager5cacheE
 2621      83B70700 
 2622 0f80 83B70700 		ld	a5,0(a5)
 2623              		.loc 2 59 9
 2624 0f84 638C0702 		beqz	a5,.L172
 2625              	.L162:
  60:src/../h/_WaitManager.h ****         return kmem_cache_alloc(cache);
 2626              		.loc 2 60 9 is_stmt 1
 2627              		.loc 2 60 32 is_stmt 0
 2628 0f88 97070000 		la	a5,_ZN12_JoinManager5cacheE
 2628      83B70700 
 2629 0f90 03B50700 		ld	a0,0(a5)
 2630              	.LEHB24:
 2631 0f94 97000000 		call	_Z16kmem_cache_allocP12kmem_cache_t@plt
 2631      E7800000 
 2632              	.LVL211:
 2633              	.LEHE24:
 2634 0f9c 130A0500 		mv	s4,a0
 2635              	.LVL212:
 2636              	.LBE28:
 2637              	.LBE27:
 268:src/_Thread.cpp ****         if (!manager) return -1;
 2638              		.loc 1 268 72
 2639 0fa0 63040504 		beqz	a0,.L163
 268:src/_Thread.cpp ****         if (!manager) return -1;
 2640              		.loc 1 268 72 discriminator 1
 2641 0fa4 13860400 		mv	a2,s1
 2642 0fa8 97050000 		ld	a1,.LANCHOR0+8
 2642      83B50500 
 2643              	.LEHB25:
 2644 0fb0 97000000 		call	_ZN12_JoinManagerC1EP7_ThreadS1_@plt
 2644      E7800000 
 2645              	.LVL213:
 2646              	.LEHE25:
 2647 0fb8 6F000003 		j	.L163
 2648              	.LVL214:
 2649              	.L172:
 2650              	.LBB30:
GAS LISTING /tmp/ccl1Ltrc.s 			page 58


 2651              	.LBB29:
  59:src/../h/_WaitManager.h ****         return kmem_cache_alloc(cache);
 2652              		.loc 2 59 21 is_stmt 1
  59:src/../h/_WaitManager.h ****         return kmem_cache_alloc(cache);
 2653              		.loc 2 59 46 is_stmt 0
 2654 0fbc 93060000 		li	a3,0
 2655 0fc0 13060000 		li	a2,0
 2656 0fc4 93058001 		li	a1,24
 2657 0fc8 17050000 		lla	a0,.LC1
 2657      13050500 
 2658              	.LEHB26:
 2659 0fd0 97000000 		call	_Z17kmem_cache_createPKcmPFvPvES3_@plt
 2659      E7800000 
 2660              	.LVL215:
  59:src/../h/_WaitManager.h ****         return kmem_cache_alloc(cache);
 2661              		.loc 2 59 27
 2662 0fd8 97070000 		la	a5,_ZN12_JoinManager5cacheE
 2662      83B70700 
 2663 0fe0 23B0A700 		sd	a0,0(a5)
 2664 0fe4 6FF05FFA 		j	.L162
 2665              	.LVL216:
 2666              	.L163:
 2667              	.LBE29:
 2668              	.LBE30:
 269:src/_Thread.cpp ****         parentWait();
 2669              		.loc 1 269 9 is_stmt 1 discriminator 6
 2670 0fe8 63060A02 		beqz	s4,.L167
 270:src/_Thread.cpp ****         safeDispatch();
 2671              		.loc 1 270 9
 270:src/_Thread.cpp ****         safeDispatch();
 2672              		.loc 1 270 19 is_stmt 0
 2673 0fec 13850400 		mv	a0,s1
 2674 0ff0 97000000 		call	_ZN7_Thread10parentWaitEv
 2674      E7800000 
 2675              	.LVL217:
 271:src/_Thread.cpp ****     }
 2676              		.loc 1 271 9 is_stmt 1
 271:src/_Thread.cpp ****     }
 2677              		.loc 1 271 21 is_stmt 0
 2678 0ff8 97000000 		call	_ZN7_Thread12safeDispatchEv
 2678      E7800000 
 2679              	.LVL218:
 2680              	.LEHE26:
 2681              	.LBE26:
 2682 1000 6FF09FF4 		j	.L161
 2683              	.LVL219:
 2684              	.L165:
 2685              	.LBE34:
 265:src/_Thread.cpp ****     if (running->isInterrupted()) return 0; //prekinuta nit se automatski izbacuje
 2686              		.loc 1 265 36
 2687 1004 1309F0FF 		li	s2,-1
 2688 1008 6FF0DFF4 		j	.L169
 2689              	.LVL220:
 2690              	.L166:
 266:src/_Thread.cpp ****     if (!finished()) {
 2691              		.loc 1 266 42
 2692 100c 13090000 		li	s2,0
GAS LISTING /tmp/ccl1Ltrc.s 			page 59


 2693 1010 6FF05FF4 		j	.L169
 2694              	.LVL221:
 2695              	.L167:
 2696              	.LBB35:
 2697              	.LBB33:
 269:src/_Thread.cpp ****         parentWait();
 2698              		.loc 1 269 31
 2699 1014 1309F0FF 		li	s2,-1
 2700 1018 6FF0DFF3 		j	.L169
 2701              	.LVL222:
 2702              	.L168:
 2703 101c 93040500 		mv	s1,a0
 2704              	.LVL223:
 2705              	.LBB31:
 2706              	.LBB32:
  61:src/../h/_WaitManager.h ****     }
  62:src/../h/_WaitManager.h ****     void operator delete(void* adr) { kmem_cache_free(cache, adr);}
 2707              		.loc 2 62 39 is_stmt 1
 2708              		.loc 2 62 54 is_stmt 0
 2709 1020 93050A00 		mv	a1,s4
 2710 1024 97070000 		la	a5,_ZN12_JoinManager5cacheE
 2710      83B70700 
 2711 102c 03B50700 		ld	a0,0(a5)
 2712 1030 97000000 		call	_Z15kmem_cache_freeP12kmem_cache_tPv@plt
 2712      E7800000 
 2713              	.LVL224:
 2714 1038 13850400 		mv	a0,s1
 2715              	.LEHB27:
 2716 103c 97000000 		call	_Unwind_Resume@plt
 2716      E7800000 
 2717              	.LVL225:
 2718              	.LEHE27:
 2719              	.LBE32:
 2720              	.LBE31:
 2721              	.LBE33:
 2722              	.LBE35:
 2723              		.cfi_endproc
 2724              	.LFE81:
 2725              		.section	.gcc_except_table
 2726              	.LLSDA81:
 2727 0150 FF       		.byte	0xff
 2728 0151 FF       		.byte	0xff
 2729 0152 03       		.byte	0x3
 2730 0153 34       		.byte	0x34
 2731 0154 00000000 		.4byte	.LEHB24-.LFB81
 2732 0158 00000000 		.4byte	.LEHE24-.LEHB24
 2733 015c 00000000 		.4byte	0
 2734 0160 00       		.byte	0
 2735 0161 00000000 		.4byte	.LEHB25-.LFB81
 2736 0165 00000000 		.4byte	.LEHE25-.LEHB25
 2737 0169 00000000 		.4byte	.L168-.LFB81
 2738 016d 00       		.byte	0
 2739 016e 00000000 		.4byte	.LEHB26-.LFB81
 2740 0172 00000000 		.4byte	.LEHE26-.LEHB26
 2741 0176 00000000 		.4byte	0
 2742 017a 00       		.byte	0
 2743 017b 00000000 		.4byte	.LEHB27-.LFB81
GAS LISTING /tmp/ccl1Ltrc.s 			page 60


 2744 017f 00000000 		.4byte	.LEHE27-.LEHB27
 2745 0183 00000000 		.4byte	0
 2746 0187 00       		.byte	0
 2747              		.text
 2749              		.align	2
 2750              		.globl	_ZN7_Thread9normalizeEi
 2752              	_ZN7_Thread9normalizeEi:
 2753              	.LFB84:
 297:src/_Thread.cpp **** 
 298:src/_Thread.cpp **** int _Thread::normalize(int priority) {
 2754              		.loc 1 298 38 is_stmt 1
 2755              		.cfi_startproc
 2756              	.LVL226:
 2757 1044 130101FF 		addi	sp,sp,-16
 2758              		.cfi_def_cfa_offset 16
 2759 1048 23348100 		sd	s0,8(sp)
 2760              		.cfi_offset 8, -8
 2761 104c 13040101 		addi	s0,sp,16
 2762              		.cfi_def_cfa 8, 0
 299:src/_Thread.cpp ****     if (priority > 100) priority = 100;
 2763              		.loc 1 299 5
 2764 1050 93074006 		li	a5,100
 2765 1054 63CCA700 		bgt	a0,a5,.L175
 300:src/_Thread.cpp ****     else if (priority < -100) priority = -100;
 2766              		.loc 1 300 10
 2767 1058 9307C0F9 		li	a5,-100
 2768 105c 634CF500 		blt	a0,a5,.L176
 2769              	.LVL227:
 2770              	.L174:
 301:src/_Thread.cpp ****     return priority;
 2771              		.loc 1 301 5
 302:src/_Thread.cpp **** }
 2772              		.loc 1 302 1 is_stmt 0
 2773 1060 03348100 		ld	s0,8(sp)
 2774              		.cfi_remember_state
 2775              		.cfi_restore 8
 2776              		.cfi_def_cfa 2, 16
 2777 1064 13010101 		addi	sp,sp,16
 2778              		.cfi_def_cfa_offset 0
 2779 1068 67800000 		jr	ra
 2780              	.L175:
 2781              		.cfi_restore_state
 299:src/_Thread.cpp ****     else if (priority < -100) priority = -100;
 2782              		.loc 1 299 34
 2783 106c 13054006 		li	a0,100
 2784              	.LVL228:
 2785 1070 6FF01FFF 		j	.L174
 2786              	.LVL229:
 2787              	.L176:
 300:src/_Thread.cpp ****     return priority;
 2788              		.loc 1 300 40
 2789 1074 1305C0F9 		li	a0,-100
 2790              	.LVL230:
 2791 1078 6FF09FFE 		j	.L174
 2792              		.cfi_endproc
 2793              	.LFE84:
 2795              		.align	2
GAS LISTING /tmp/ccl1Ltrc.s 			page 61


 2796              		.globl	_ZN7_Thread10setManagerEP12_WaitManager
 2798              	_ZN7_Thread10setManagerEP12_WaitManager:
 2799              	.LFB85:
 303:src/_Thread.cpp **** 
 304:src/_Thread.cpp **** void _Thread::setManager(_WaitManager* manager) {
 2800              		.loc 1 304 49 is_stmt 1
 2801              		.cfi_startproc
 2802              	.LVL231:
 2803 107c 130101FF 		addi	sp,sp,-16
 2804              		.cfi_def_cfa_offset 16
 2805 1080 23348100 		sd	s0,8(sp)
 2806              		.cfi_offset 8, -8
 2807 1084 13040101 		addi	s0,sp,16
 2808              		.cfi_def_cfa 8, 0
 305:src/_Thread.cpp ****     waitManager = manager;
 2809              		.loc 1 305 5
 2810              		.loc 1 305 17 is_stmt 0
 2811 1088 2330B504 		sd	a1,64(a0)
 306:src/_Thread.cpp **** }
 2812              		.loc 1 306 1
 2813 108c 03348100 		ld	s0,8(sp)
 2814              		.cfi_restore 8
 2815              		.cfi_def_cfa 2, 16
 2816 1090 13010101 		addi	sp,sp,16
 2817              		.cfi_def_cfa_offset 0
 2818 1094 67800000 		jr	ra
 2819              		.cfi_endproc
 2820              	.LFE85:
 2822              		.section	.rodata.str1.8
 2823 0023 00000000 		.align	3
 2823      00
 2824              	.LC2:
 2825 0028 536C6565 		.string	"Sleep_manager Cache"
 2825      705F6D61 
 2825      6E616765 
 2825      72204361 
 2825      63686500 
 2826              		.text
 2827              		.align	2
 2828              		.globl	_ZN7_Thread9timeSleepEm
 2830              	_ZN7_Thread9timeSleepEm:
 2831              	.LFB63:
 169:src/_Thread.cpp ****     if (_Thread::running->isInterrupted()) return 2; //prekinuta nit se automatski izbacuje
 2832              		.loc 1 169 37 is_stmt 1
 2833              		.cfi_startproc
 2834              		.cfi_personality 0x9b,DW.ref.__gxx_personality_v0
 2835              		.cfi_lsda 0x1b,.LLSDA63
 2836              	.LVL232:
 2837 1098 130101FD 		addi	sp,sp,-48
 2838              		.cfi_def_cfa_offset 48
 2839 109c 23341102 		sd	ra,40(sp)
 2840 10a0 23308102 		sd	s0,32(sp)
 2841 10a4 233C9100 		sd	s1,24(sp)
 2842 10a8 23382101 		sd	s2,16(sp)
 2843 10ac 23343101 		sd	s3,8(sp)
 2844              		.cfi_offset 1, -8
 2845              		.cfi_offset 8, -16
GAS LISTING /tmp/ccl1Ltrc.s 			page 62


 2846              		.cfi_offset 9, -24
 2847              		.cfi_offset 18, -32
 2848              		.cfi_offset 19, -40
 2849 10b0 13040103 		addi	s0,sp,48
 2850              		.cfi_def_cfa 8, 0
 2851 10b4 13090500 		mv	s2,a0
 170:src/_Thread.cpp ****     int ret;
 2852              		.loc 1 170 5
 170:src/_Thread.cpp ****     int ret;
 2853              		.loc 1 170 40 is_stmt 0
 2854 10b8 97090000 		ld	s3,.LANCHOR0+8
 2854      83B90900 
 2855 10c0 13850900 		mv	a0,s3
 2856              	.LVL233:
 2857 10c4 97000000 		call	_ZN7_Thread13isInterruptedEv
 2857      E7800000 
 2858              	.LVL234:
 170:src/_Thread.cpp ****     int ret;
 2859              		.loc 1 170 5
 2860 10cc 6314050E 		bnez	a0,.L187
 2861 10d0 93040500 		mv	s1,a0
 171:src/_Thread.cpp ****     //za time = 0 radi se samo dispatch
 2862              		.loc 1 171 5 is_stmt 1
 173:src/_Thread.cpp ****         ret = _Scheduler::put(running);
 2863              		.loc 1 173 5
 2864              	.LBB42:
 2865 10d4 631E0902 		bnez	s2,.L182
 174:src/_Thread.cpp ****         if (ret) return ret;
 2866              		.loc 1 174 9
 174:src/_Thread.cpp ****         if (ret) return ret;
 2867              		.loc 1 174 30 is_stmt 0
 2868 10d8 13850900 		mv	a0,s3
 2869              	.LEHB28:
 2870 10dc 97000000 		call	_ZN10_Scheduler3putEP7_Thread@plt
 2870      E7800000 
 2871              	.LVL235:
 175:src/_Thread.cpp ****     }
 2872              		.loc 1 175 9 is_stmt 1
 2873 10e4 631C050C 		bnez	a0,.L194
 2874              	.LVL236:
 2875              	.L183:
 2876              	.LBE42:
 184:src/_Thread.cpp ****     return 0;
 2877              		.loc 1 184 5
 184:src/_Thread.cpp ****     return 0;
 2878              		.loc 1 184 17 is_stmt 0
 2879 10e8 97000000 		call	_ZN7_Thread12safeDispatchEv
 2879      E7800000 
 2880              	.LVL237:
 185:src/_Thread.cpp **** }
 2881              		.loc 1 185 5 is_stmt 1
 2882              	.L192:
 186:src/_Thread.cpp **** 
 2883              		.loc 1 186 1 is_stmt 0
 2884 10f0 13850400 		mv	a0,s1
 2885 10f4 83308102 		ld	ra,40(sp)
 2886              		.cfi_remember_state
GAS LISTING /tmp/ccl1Ltrc.s 			page 63


 2887              		.cfi_restore 1
 2888 10f8 03340102 		ld	s0,32(sp)
 2889              		.cfi_restore 8
 2890              		.cfi_def_cfa 2, 48
 2891 10fc 83348101 		ld	s1,24(sp)
 2892              		.cfi_restore 9
 2893 1100 03390101 		ld	s2,16(sp)
 2894              		.cfi_restore 18
 2895 1104 83398100 		ld	s3,8(sp)
 2896              		.cfi_restore 19
 2897 1108 13010103 		addi	sp,sp,48
 2898              		.cfi_def_cfa_offset 0
 2899 110c 67800000 		jr	ra
 2900              	.LVL238:
 2901              	.L182:
 2902              		.cfi_restore_state
 2903              	.LBB51:
 2904              	.LBB43:
 178:src/_Thread.cpp ****         if (ret) return ret;
 2905              		.loc 1 178 9 is_stmt 1
 178:src/_Thread.cpp ****         if (ret) return ret;
 2906              		.loc 1 178 26 is_stmt 0
 2907 1110 93050900 		mv	a1,s2
 2908 1114 13850900 		mv	a0,s3
 2909 1118 97000000 		call	_ZN6_Sleep3putEP7_Threadm@plt
 2909      E7800000 
 2910              	.LVL239:
 179:src/_Thread.cpp ****         _WaitManager* manager = new _SleepManager(_Thread::running);
 2911              		.loc 1 179 9 is_stmt 1
 2912 1120 63060500 		beqz	a0,.L195
 179:src/_Thread.cpp ****         _WaitManager* manager = new _SleepManager(_Thread::running);
 2913              		.loc 1 179 25 is_stmt 0
 2914 1124 93040500 		mv	s1,a0
 2915 1128 6FF09FFC 		j	.L192
 2916              	.L195:
 180:src/_Thread.cpp ****         if (!manager) return -1;
 2917              		.loc 1 180 9 is_stmt 1
 2918              	.LVL240:
 2919              	.LBB44:
 2920              	.LBB45:
  46:src/../h/_WaitManager.h ****         return kmem_cache_alloc(cache);
 2921              		.loc 2 46 9
  46:src/../h/_WaitManager.h ****         return kmem_cache_alloc(cache);
 2922              		.loc 2 46 13 is_stmt 0
 2923 112c 97070000 		la	a5,_ZN13_SleepManager5cacheE
 2923      83B70700 
 2924 1134 83B70700 		ld	a5,0(a5)
  46:src/../h/_WaitManager.h ****         return kmem_cache_alloc(cache);
 2925              		.loc 2 46 9
 2926 1138 638A0702 		beqz	a5,.L196
 2927              	.LVL241:
 2928              	.L184:
  47:src/../h/_WaitManager.h ****     }
 2929              		.loc 2 47 9 is_stmt 1
  47:src/../h/_WaitManager.h ****     }
 2930              		.loc 2 47 32 is_stmt 0
 2931 113c 97070000 		la	a5,_ZN13_SleepManager5cacheE
GAS LISTING /tmp/ccl1Ltrc.s 			page 64


 2931      83B70700 
 2932 1144 03B50700 		ld	a0,0(a5)
 2933 1148 97000000 		call	_Z16kmem_cache_allocP12kmem_cache_t@plt
 2933      E7800000 
 2934              	.LVL242:
 2935              	.LEHE28:
 2936 1150 13090500 		mv	s2,a0
 2937              	.LVL243:
 2938              	.LBE45:
 2939              	.LBE44:
 180:src/_Thread.cpp ****         if (!manager) return -1;
 2940              		.loc 1 180 67
 2941 1154 63020504 		beqz	a0,.L185
 180:src/_Thread.cpp ****         if (!manager) return -1;
 2942              		.loc 1 180 67 discriminator 1
 2943 1158 97050000 		ld	a1,.LANCHOR0+8
 2943      83B50500 
 2944              	.LEHB29:
 2945 1160 97000000 		call	_ZN13_SleepManagerC1EP7_Thread@plt
 2945      E7800000 
 2946              	.LVL244:
 2947              	.LEHE29:
 2948 1168 6F000003 		j	.L185
 2949              	.LVL245:
 2950              	.L196:
 2951              	.LBB47:
 2952              	.LBB46:
  46:src/../h/_WaitManager.h ****         return kmem_cache_alloc(cache);
 2953              		.loc 2 46 21 is_stmt 1
  46:src/../h/_WaitManager.h ****         return kmem_cache_alloc(cache);
 2954              		.loc 2 46 46 is_stmt 0
 2955 116c 93060000 		li	a3,0
 2956 1170 13060000 		li	a2,0
 2957 1174 93050001 		li	a1,16
 2958 1178 17050000 		lla	a0,.LC2
 2958      13050500 
 2959              	.LVL246:
 2960              	.LEHB30:
 2961 1180 97000000 		call	_Z17kmem_cache_createPKcmPFvPvES3_@plt
 2961      E7800000 
 2962              	.LVL247:
 2963              	.LEHE30:
  46:src/../h/_WaitManager.h ****         return kmem_cache_alloc(cache);
 2964              		.loc 2 46 27
 2965 1188 97070000 		la	a5,_ZN13_SleepManager5cacheE
 2965      83B70700 
 2966 1190 23B0A700 		sd	a0,0(a5)
 2967 1194 6FF09FFA 		j	.L184
 2968              	.LVL248:
 2969              	.L185:
 2970              	.LBE46:
 2971              	.LBE47:
 181:src/_Thread.cpp ****         _Thread::running->setManager(manager);
 2972              		.loc 1 181 9 is_stmt 1 discriminator 6
 2973 1198 63060902 		beqz	s2,.L190
 182:src/_Thread.cpp ****     }
 2974              		.loc 1 182 9
GAS LISTING /tmp/ccl1Ltrc.s 			page 65


 182:src/_Thread.cpp ****     }
 2975              		.loc 1 182 37 is_stmt 0
 2976 119c 93050900 		mv	a1,s2
 2977 11a0 17050000 		ld	a0,.LANCHOR0+8
 2977      03350500 
 2978 11a8 97000000 		call	_ZN7_Thread10setManagerEP12_WaitManager
 2978      E7800000 
 2979              	.LVL249:
 2980 11b0 6FF09FF3 		j	.L183
 2981              	.LVL250:
 2982              	.L187:
 2983              	.LBE43:
 2984              	.LBE51:
 170:src/_Thread.cpp ****     int ret;
 2985              		.loc 1 170 51
 2986 11b4 93042000 		li	s1,2
 2987 11b8 6FF09FF3 		j	.L192
 2988              	.LVL251:
 2989              	.L194:
 2990              	.LBB52:
 175:src/_Thread.cpp ****     }
 2991              		.loc 1 175 25
 2992 11bc 93040500 		mv	s1,a0
 2993 11c0 6FF01FF3 		j	.L192
 2994              	.LVL252:
 2995              	.L190:
 2996              	.LBB50:
 181:src/_Thread.cpp ****         _Thread::running->setManager(manager);
 2997              		.loc 1 181 31
 2998 11c4 9304F0FF 		li	s1,-1
 2999 11c8 6FF09FF2 		j	.L192
 3000              	.LVL253:
 3001              	.L191:
 3002 11cc 93040500 		mv	s1,a0
 3003              	.LVL254:
 3004              	.LBB48:
 3005              	.LBB49:
  49:src/../h/_WaitManager.h ****     int sleep_pass() override;
 3006              		.loc 2 49 39 is_stmt 1
  49:src/../h/_WaitManager.h ****     int sleep_pass() override;
 3007              		.loc 2 49 54 is_stmt 0
 3008 11d0 93050900 		mv	a1,s2
 3009 11d4 97070000 		la	a5,_ZN13_SleepManager5cacheE
 3009      83B70700 
 3010 11dc 03B50700 		ld	a0,0(a5)
 3011 11e0 97000000 		call	_Z15kmem_cache_freeP12kmem_cache_tPv@plt
 3011      E7800000 
 3012              	.LVL255:
 3013 11e8 13850400 		mv	a0,s1
 3014              	.LEHB31:
 3015 11ec 97000000 		call	_Unwind_Resume@plt
 3015      E7800000 
 3016              	.LVL256:
 3017              	.LEHE31:
 3018              	.LBE49:
 3019              	.LBE48:
 3020              	.LBE50:
GAS LISTING /tmp/ccl1Ltrc.s 			page 66


 3021              	.LBE52:
 3022              		.cfi_endproc
 3023              	.LFE63:
 3024              		.section	.gcc_except_table
 3025              	.LLSDA63:
 3026 0188 FF       		.byte	0xff
 3027 0189 FF       		.byte	0xff
 3028 018a 03       		.byte	0x3
 3029 018b 34       		.byte	0x34
 3030 018c 00000000 		.4byte	.LEHB28-.LFB63
 3031 0190 00000000 		.4byte	.LEHE28-.LEHB28
 3032 0194 00000000 		.4byte	0
 3033 0198 00       		.byte	0
 3034 0199 00000000 		.4byte	.LEHB29-.LFB63
 3035 019d 00000000 		.4byte	.LEHE29-.LEHB29
 3036 01a1 00000000 		.4byte	.L191-.LFB63
 3037 01a5 00       		.byte	0
 3038 01a6 00000000 		.4byte	.LEHB30-.LFB63
 3039 01aa 00000000 		.4byte	.LEHE30-.LEHB30
 3040 01ae 00000000 		.4byte	0
 3041 01b2 00       		.byte	0
 3042 01b3 00000000 		.4byte	.LEHB31-.LFB63
 3043 01b7 00000000 		.4byte	.LEHE31-.LEHB31
 3044 01bb 00000000 		.4byte	0
 3045 01bf 00       		.byte	0
 3046              		.text
 3048              		.align	2
 3049              		.globl	_ZN7_Thread13removeManagerEv
 3051              	_ZN7_Thread13removeManagerEv:
 3052              	.LFB91:
 307:src/_Thread.cpp **** int _Thread::sem_pass(sem_t s) {
 308:src/_Thread.cpp ****     int ret = waitManager->sem_pass(s);
 309:src/_Thread.cpp ****     return check_wait(ret);
 310:src/_Thread.cpp **** }
 311:src/_Thread.cpp **** int _Thread::sleepPass() {
 312:src/_Thread.cpp ****     int ret = waitManager->sleep_pass();
 313:src/_Thread.cpp ****     return check_wait(ret);
 314:src/_Thread.cpp **** }
 315:src/_Thread.cpp **** int _Thread::joinPass() {
 316:src/_Thread.cpp ****     int ret = waitManager->join_pass();
 317:src/_Thread.cpp ****     return check_wait(ret);
 318:src/_Thread.cpp **** }
 319:src/_Thread.cpp **** int _Thread::sem_kick(sem_t sem) {
 320:src/_Thread.cpp ****     kick();
 321:src/_Thread.cpp ****     int ret = waitManager->sem_pass(sem);
 322:src/_Thread.cpp ****     return check_wait(ret);
 323:src/_Thread.cpp **** }
 324:src/_Thread.cpp **** int _Thread::check_wait(int ret) {
 325:src/_Thread.cpp ****     if (!ret) return 0;
 326:src/_Thread.cpp ****     removeManager();
 327:src/_Thread.cpp ****     return _Scheduler::put(this);
 328:src/_Thread.cpp **** }
 329:src/_Thread.cpp **** void _Thread::removeManager() {
 3053              		.loc 1 329 31 is_stmt 1
 3054              		.cfi_startproc
 3055              	.LVL257:
 3056 11f4 130101FE 		addi	sp,sp,-32
GAS LISTING /tmp/ccl1Ltrc.s 			page 67


 3057              		.cfi_def_cfa_offset 32
 3058 11f8 233C1100 		sd	ra,24(sp)
 3059 11fc 23388100 		sd	s0,16(sp)
 3060 1200 23349100 		sd	s1,8(sp)
 3061              		.cfi_offset 1, -8
 3062              		.cfi_offset 8, -16
 3063              		.cfi_offset 9, -24
 3064 1204 13040102 		addi	s0,sp,32
 3065              		.cfi_def_cfa 8, 0
 3066 1208 93040500 		mv	s1,a0
 330:src/_Thread.cpp ****     if (waitManager) {
 3067              		.loc 1 330 5
 3068              		.loc 1 330 9 is_stmt 0
 3069 120c 03350504 		ld	a0,64(a0)
 3070              	.LVL258:
 3071              		.loc 1 330 5
 3072 1210 630A0500 		beqz	a0,.L197
 331:src/_Thread.cpp ****         delete waitManager;
 3073              		.loc 1 331 9 is_stmt 1 discriminator 1
 3074              		.loc 1 331 16 is_stmt 0 discriminator 1
 3075 1214 83370500 		ld	a5,0(a0)
 3076 1218 83B78702 		ld	a5,40(a5)
 3077 121c E7800700 		jalr	a5
 3078              	.LVL259:
 332:src/_Thread.cpp ****         waitManager = nullptr;
 3079              		.loc 1 332 9 is_stmt 1 discriminator 1
 3080              		.loc 1 332 21 is_stmt 0 discriminator 1
 3081 1220 23B00404 		sd	zero,64(s1)
 3082              	.L197:
 333:src/_Thread.cpp ****     }
 334:src/_Thread.cpp **** }...
 3083              		.loc 1 334 1
 3084 1224 83308101 		ld	ra,24(sp)
 3085              		.cfi_restore 1
 3086 1228 03340101 		ld	s0,16(sp)
 3087              		.cfi_restore 8
 3088              		.cfi_def_cfa 2, 32
 3089 122c 83348100 		ld	s1,8(sp)
 3090              		.cfi_restore 9
 3091              	.LVL260:
 3092 1230 13010102 		addi	sp,sp,32
 3093              		.cfi_def_cfa_offset 0
 3094 1234 67800000 		jr	ra
 3095              		.cfi_endproc
 3096              	.LFE91:
 3098              		.section	.rodata.str1.8
 3099 003c 00000000 		.align	3
 3100              	.LC3:
 3101 0040 4A6F696E 		.string	"JoinSleep_manager Cache"
 3101      536C6565 
 3101      705F6D61 
 3101      6E616765 
 3101      72204361 
 3102              		.text
 3103              		.align	2
 3104              		.globl	_ZN7_Thread9joinLimitEPPvm
 3106              	_ZN7_Thread9joinLimitEPPvm:
GAS LISTING /tmp/ccl1Ltrc.s 			page 68


 3107              	.LFB82:
 276:src/_Thread.cpp **** int _Thread::joinLimit(void** pret, time_t limit) {
 3108              		.loc 1 276 51 is_stmt 1
 3109              		.cfi_startproc
 3110              		.cfi_personality 0x9b,DW.ref.__gxx_personality_v0
 3111              		.cfi_lsda 0x1b,.LLSDA82
 3112              	.LVL261:
 3113 1238 130101FD 		addi	sp,sp,-48
 3114              		.cfi_def_cfa_offset 48
 3115 123c 23341102 		sd	ra,40(sp)
 3116 1240 23308102 		sd	s0,32(sp)
 3117 1244 233C9100 		sd	s1,24(sp)
 3118 1248 23382101 		sd	s2,16(sp)
 3119 124c 23343101 		sd	s3,8(sp)
 3120 1250 23304101 		sd	s4,0(sp)
 3121              		.cfi_offset 1, -8
 3122              		.cfi_offset 8, -16
 3123              		.cfi_offset 9, -24
 3124              		.cfi_offset 18, -32
 3125              		.cfi_offset 19, -40
 3126              		.cfi_offset 20, -48
 3127 1254 13040103 		addi	s0,sp,48
 3128              		.cfi_def_cfa 8, 0
 3129 1258 93040500 		mv	s1,a0
 277:src/_Thread.cpp ****     if (running != parent) return -1;
 3130              		.loc 1 277 5
 277:src/_Thread.cpp ****     if (running != parent) return -1;
 3131              		.loc 1 277 20 is_stmt 0
 3132 125c 83370503 		ld	a5,48(a0)
 277:src/_Thread.cpp ****     if (running != parent) return -1;
 3133              		.loc 1 277 17
 3134 1260 17050000 		ld	a0,.LANCHOR0+8
 3134      03350500 
 3135              	.LVL262:
 277:src/_Thread.cpp ****     if (running != parent) return -1;
 3136              		.loc 1 277 5
 3137 1268 639AA710 		bne	a5,a0,.L207
 3138 126c 93890500 		mv	s3,a1
 3139 1270 13090600 		mv	s2,a2
 278:src/_Thread.cpp ****     if (_Thread::running->isInterrupted()) return 0; //prekinuta nit se automatski izbacuje
 3140              		.loc 1 278 5 is_stmt 1
 278:src/_Thread.cpp ****     if (_Thread::running->isInterrupted()) return 0; //prekinuta nit se automatski izbacuje
 3141              		.loc 1 278 40 is_stmt 0
 3142 1274 97000000 		call	_ZN7_Thread13isInterruptedEv
 3142      E7800000 
 3143              	.LVL263:
 278:src/_Thread.cpp ****     if (_Thread::running->isInterrupted()) return 0; //prekinuta nit se automatski izbacuje
 3144              		.loc 1 278 5
 3145 127c 63140510 		bnez	a0,.L208
 279:src/_Thread.cpp ****     if (!finished()) {
 3146              		.loc 1 279 5 is_stmt 1
 3147              	.LBB59:
 279:src/_Thread.cpp ****     if (!finished()) {
 3148              		.loc 1 279 18 is_stmt 0
 3149 1280 13850400 		mv	a0,s1
 3150 1284 97000000 		call	_ZN7_Thread8finishedEv
 3150      E7800000 
GAS LISTING /tmp/ccl1Ltrc.s 			page 69


 3151              	.LVL264:
 279:src/_Thread.cpp ****     if (!finished()) {
 3152              		.loc 1 279 5
 3153 128c 631A050A 		bnez	a0,.L202
 3154              	.LBB60:
 280:src/_Thread.cpp ****         if (!limit) return 1;
 3155              		.loc 1 280 9 is_stmt 1
 3156 1290 63160900 		bnez	s2,.L215
 280:src/_Thread.cpp ****         if (!limit) return 1;
 3157              		.loc 1 280 28 is_stmt 0
 3158 1294 13091000 		li	s2,1
 3159              	.LVL265:
 3160 1298 6F00000F 		j	.L213
 3161              	.LVL266:
 3162              	.L215:
 281:src/_Thread.cpp ****         _WaitManager* manager = new _JoinSleepManager(_Thread::running, this);
 3163              		.loc 1 281 9 is_stmt 1
 3164              	.LBB61:
 3165              	.LBB62:
  63:src/../h/_WaitManager.h **** 
  64:src/../h/_WaitManager.h ****     int join_pass() override;
  65:src/../h/_WaitManager.h ****     virtual int interrupt() override;
  66:src/../h/_WaitManager.h **** 
  67:src/../h/_WaitManager.h **** private:
  68:src/../h/_WaitManager.h ****     thread_t join_thread;
  69:src/../h/_WaitManager.h **** };
  70:src/../h/_WaitManager.h **** 
  71:src/../h/_WaitManager.h **** class _SemORManager : public _WaitManager {
  72:src/../h/_WaitManager.h **** public:
  73:src/../h/_WaitManager.h ****     _SemORManager(thread_t my_thread, sem_t sem1, sem_t sem2);
  74:src/../h/_WaitManager.h ****     static kmem_cache_t* cache;
  75:src/../h/_WaitManager.h ****     void*  operator new(size_t size) {
  76:src/../h/_WaitManager.h ****         if (!cache) cache = kmem_cache_create("SemOR_manager Cache", sizeof(_SemORManager), nullptr
  77:src/../h/_WaitManager.h ****         return kmem_cache_alloc(cache);
  78:src/../h/_WaitManager.h ****     }
  79:src/../h/_WaitManager.h ****     void operator delete(void* adr) { kmem_cache_free(cache, adr);}
  80:src/../h/_WaitManager.h **** 
  81:src/../h/_WaitManager.h ****     int sem_pass(sem_t sem) override;
  82:src/../h/_WaitManager.h ****     virtual int interrupt() override;
  83:src/../h/_WaitManager.h **** 
  84:src/../h/_WaitManager.h **** private:
  85:src/../h/_WaitManager.h ****     sem_t sem1, sem2;
  86:src/../h/_WaitManager.h **** };
  87:src/../h/_WaitManager.h **** 
  88:src/../h/_WaitManager.h **** class _SemANDManager : public _WaitManager {
  89:src/../h/_WaitManager.h **** public:
  90:src/../h/_WaitManager.h ****     _SemANDManager(thread_t my_thread, sem_t sem1, sem_t sem2);
  91:src/../h/_WaitManager.h ****     static kmem_cache_t* cache;
  92:src/../h/_WaitManager.h ****     void*  operator new(size_t size) {
  93:src/../h/_WaitManager.h ****         if (!cache) cache = kmem_cache_create("SemAND_manager Cache", sizeof(_SemANDManager), nullp
  94:src/../h/_WaitManager.h ****         return kmem_cache_alloc(cache);
  95:src/../h/_WaitManager.h ****     }
  96:src/../h/_WaitManager.h ****     void operator delete(void* adr) { kmem_cache_free(cache, adr);}
  97:src/../h/_WaitManager.h **** 
  98:src/../h/_WaitManager.h ****     int sem_pass(sem_t sem) override;
  99:src/../h/_WaitManager.h ****     virtual int interrupt() override;
 100:src/../h/_WaitManager.h **** 
GAS LISTING /tmp/ccl1Ltrc.s 			page 70


 101:src/../h/_WaitManager.h **** private:
 102:src/../h/_WaitManager.h ****     sem_t sem1, sem2;
 103:src/../h/_WaitManager.h **** };
 104:src/../h/_WaitManager.h **** 
 105:src/../h/_WaitManager.h **** class _SemSleepManager : public _WaitManager {
 106:src/../h/_WaitManager.h **** public:
 107:src/../h/_WaitManager.h ****     _SemSleepManager(thread_t my_thread, sem_t sem);
 108:src/../h/_WaitManager.h ****     static kmem_cache_t* cache;
 109:src/../h/_WaitManager.h ****     void*  operator new(size_t size) {
 110:src/../h/_WaitManager.h ****         if (!cache) cache = kmem_cache_create("SemSleep_manager Cache", sizeof(_SemSleepManager), n
 111:src/../h/_WaitManager.h ****         return kmem_cache_alloc(cache);
 112:src/../h/_WaitManager.h ****     }
 113:src/../h/_WaitManager.h ****     void operator delete(void* adr) { kmem_cache_free(cache, adr);}
 114:src/../h/_WaitManager.h **** 
 115:src/../h/_WaitManager.h ****     int sem_pass(sem_t sem) override;
 116:src/../h/_WaitManager.h ****     int sleep_pass() override;
 117:src/../h/_WaitManager.h ****     virtual int interrupt() override;
 118:src/../h/_WaitManager.h **** 
 119:src/../h/_WaitManager.h **** private:
 120:src/../h/_WaitManager.h ****     sem_t sem;
 121:src/../h/_WaitManager.h **** };
 122:src/../h/_WaitManager.h **** 
 123:src/../h/_WaitManager.h **** class _JoinSleepManager : public _WaitManager {
 124:src/../h/_WaitManager.h **** public:
 125:src/../h/_WaitManager.h ****     _JoinSleepManager(thread_t my_thread, thread_t join_thread);
 126:src/../h/_WaitManager.h ****     static kmem_cache_t* cache;
 127:src/../h/_WaitManager.h ****     void*  operator new(size_t size) {
 128:src/../h/_WaitManager.h ****         if (!cache) cache = kmem_cache_create("JoinSleep_manager Cache", sizeof(_JoinSleepManager),
 3166              		.loc 2 128 9
 3167              		.loc 2 128 13 is_stmt 0
 3168 129c 97070000 		la	a5,_ZN17_JoinSleepManager5cacheE
 3168      83B70700 
 3169 12a4 83B70700 		ld	a5,0(a5)
 3170              		.loc 2 128 9
 3171 12a8 638C0702 		beqz	a5,.L216
 3172              	.L203:
 129:src/../h/_WaitManager.h ****         return kmem_cache_alloc(cache);
 3173              		.loc 2 129 9 is_stmt 1
 3174              		.loc 2 129 32 is_stmt 0
 3175 12ac 97070000 		la	a5,_ZN17_JoinSleepManager5cacheE
 3175      83B70700 
 3176 12b4 03B50700 		ld	a0,0(a5)
 3177              	.LEHB32:
 3178 12b8 97000000 		call	_Z16kmem_cache_allocP12kmem_cache_t@plt
 3178      E7800000 
 3179              	.LVL267:
 3180              	.LEHE32:
 3181 12c0 130A0500 		mv	s4,a0
 3182              	.LVL268:
 3183              	.LBE62:
 3184              	.LBE61:
 281:src/_Thread.cpp ****         _WaitManager* manager = new _JoinSleepManager(_Thread::running, this);
 3185              		.loc 1 281 77
 3186 12c4 63040504 		beqz	a0,.L204
 281:src/_Thread.cpp ****         _WaitManager* manager = new _JoinSleepManager(_Thread::running, this);
 3187              		.loc 1 281 77 discriminator 1
 3188 12c8 13860400 		mv	a2,s1
GAS LISTING /tmp/ccl1Ltrc.s 			page 71


 3189 12cc 97050000 		ld	a1,.LANCHOR0+8
 3189      83B50500 
 3190              	.LEHB33:
 3191 12d4 97000000 		call	_ZN17_JoinSleepManagerC1EP7_ThreadS1_@plt
 3191      E7800000 
 3192              	.LVL269:
 3193              	.LEHE33:
 3194 12dc 6F000003 		j	.L204
 3195              	.LVL270:
 3196              	.L216:
 3197              	.LBB64:
 3198              	.LBB63:
 128:src/../h/_WaitManager.h ****         return kmem_cache_alloc(cache);
 3199              		.loc 2 128 21 is_stmt 1
 128:src/../h/_WaitManager.h ****         return kmem_cache_alloc(cache);
 3200              		.loc 2 128 46 is_stmt 0
 3201 12e0 93060000 		li	a3,0
 3202 12e4 13060000 		li	a2,0
 3203 12e8 93058001 		li	a1,24
 3204 12ec 17050000 		lla	a0,.LC3
 3204      13050500 
 3205              	.LEHB34:
 3206 12f4 97000000 		call	_Z17kmem_cache_createPKcmPFvPvES3_@plt
 3206      E7800000 
 3207              	.LVL271:
 128:src/../h/_WaitManager.h ****         return kmem_cache_alloc(cache);
 3208              		.loc 2 128 27
 3209 12fc 97070000 		la	a5,_ZN17_JoinSleepManager5cacheE
 3209      83B70700 
 3210 1304 23B0A700 		sd	a0,0(a5)
 3211 1308 6FF05FFA 		j	.L203
 3212              	.LVL272:
 3213              	.L204:
 3214              	.LBE63:
 3215              	.LBE64:
 282:src/_Thread.cpp ****         if (!manager) return -1;
 3216              		.loc 1 282 9 is_stmt 1 discriminator 6
 3217 130c 63000A0A 		beqz	s4,.L210
 283:src/_Thread.cpp ****         int ret = _Sleep::put(running, limit);
 3218              		.loc 1 283 9
 283:src/_Thread.cpp ****         int ret = _Sleep::put(running, limit);
 3219              		.loc 1 283 30 is_stmt 0
 3220 1310 93050900 		mv	a1,s2
 3221 1314 17050000 		ld	a0,.LANCHOR0+8
 3221      03350500 
 3222 131c 97000000 		call	_ZN6_Sleep3putEP7_Threadm@plt
 3222      E7800000 
 3223              	.LVL273:
 3224 1324 13090500 		mv	s2,a0
 3225              	.LVL274:
 284:src/_Thread.cpp ****         if (ret) { running->removeManager(); return ret;}
 3226              		.loc 1 284 9 is_stmt 1
 3227 1328 63100504 		bnez	a0,.L217
 285:src/_Thread.cpp ****         parentWait();
 3228              		.loc 1 285 9
 285:src/_Thread.cpp ****         parentWait();
 3229              		.loc 1 285 19 is_stmt 0
GAS LISTING /tmp/ccl1Ltrc.s 			page 72


 3230 132c 13850400 		mv	a0,s1
 3231              	.LVL275:
 3232 1330 97000000 		call	_ZN7_Thread10parentWaitEv
 3232      E7800000 
 3233              	.LVL276:
 286:src/_Thread.cpp ****         safeDispatch();
 3234              		.loc 1 286 9 is_stmt 1
 286:src/_Thread.cpp ****         safeDispatch();
 3235              		.loc 1 286 21 is_stmt 0
 3236 1338 97000000 		call	_ZN7_Thread12safeDispatchEv
 3236      E7800000 
 3237              	.LVL277:
 3238              	.LEHE34:
 3239              	.L202:
 3240              	.LBE60:
 3241              	.LBE59:
 288:src/_Thread.cpp ****     if (running->limitReached()) return 1;
 3242              		.loc 1 288 5 is_stmt 1
 288:src/_Thread.cpp ****     if (running->limitReached()) return 1;
 3243              		.loc 1 288 30 is_stmt 0
 3244 1340 17050000 		ld	a0,.LANCHOR0+8
 3244      03350500 
 3245 1348 97000000 		call	_ZN7_Thread12limitReachedEv
 3245      E7800000 
 3246              	.LVL278:
 3247 1350 13090500 		mv	s2,a0
 288:src/_Thread.cpp ****     if (running->limitReached()) return 1;
 3248              		.loc 1 288 5
 3249 1354 63100506 		bnez	a0,.L211
 289:src/_Thread.cpp ****     if (pret) *pret = returnValue;
 3250              		.loc 1 289 5 is_stmt 1
 3251 1358 63880902 		beqz	s3,.L213
 289:src/_Thread.cpp ****     if (pret) *pret = returnValue;
 3252              		.loc 1 289 15 discriminator 1
 289:src/_Thread.cpp ****     if (pret) *pret = returnValue;
 3253              		.loc 1 289 23 is_stmt 0 discriminator 1
 3254 135c 83B78403 		ld	a5,56(s1)
 289:src/_Thread.cpp ****     if (pret) *pret = returnValue;
 3255              		.loc 1 289 21 discriminator 1
 3256 1360 23B0F900 		sd	a5,0(s3)
 3257 1364 6F004002 		j	.L213
 3258              	.LVL279:
 3259              	.L217:
 3260              	.LBB70:
 3261              	.LBB67:
 284:src/_Thread.cpp ****         if (ret) { running->removeManager(); return ret;}
 3262              		.loc 1 284 20 is_stmt 1 discriminator 1
 284:src/_Thread.cpp ****         if (ret) { running->removeManager(); return ret;}
 3263              		.loc 1 284 42 is_stmt 0 discriminator 1
 3264 1368 17050000 		ld	a0,.LANCHOR0+8
 3264      03350500 
 3265              	.LVL280:
 3266 1370 97000000 		call	_ZN7_Thread13removeManagerEv
 3266      E7800000 
 3267              	.LVL281:
 284:src/_Thread.cpp ****         if (ret) { running->removeManager(); return ret;}
 3268              		.loc 1 284 46 is_stmt 1 discriminator 1
GAS LISTING /tmp/ccl1Ltrc.s 			page 73


 284:src/_Thread.cpp ****         if (ret) { running->removeManager(); return ret;}
 3269              		.loc 1 284 53 is_stmt 0 discriminator 1
 3270 1378 6F000001 		j	.L213
 3271              	.LVL282:
 3272              	.L207:
 3273              	.LBE67:
 3274              	.LBE70:
 277:src/_Thread.cpp ****     if (running != parent) return -1;
 3275              		.loc 1 277 36
 3276 137c 1309F0FF 		li	s2,-1
 3277 1380 6F008000 		j	.L213
 3278              	.LVL283:
 3279              	.L208:
 278:src/_Thread.cpp ****     if (_Thread::running->isInterrupted()) return 0; //prekinuta nit se automatski izbacuje
 3280              		.loc 1 278 51
 3281 1384 13090000 		li	s2,0
 3282              	.LVL284:
 3283              	.L213:
 291:src/_Thread.cpp **** }
 3284              		.loc 1 291 1
 3285 1388 13050900 		mv	a0,s2
 3286 138c 83308102 		ld	ra,40(sp)
 3287              		.cfi_remember_state
 3288              		.cfi_restore 1
 3289 1390 03340102 		ld	s0,32(sp)
 3290              		.cfi_restore 8
 3291              		.cfi_def_cfa 2, 48
 3292 1394 83348101 		ld	s1,24(sp)
 3293              		.cfi_restore 9
 3294              	.LVL285:
 3295 1398 03390101 		ld	s2,16(sp)
 3296              		.cfi_restore 18
 3297 139c 83398100 		ld	s3,8(sp)
 3298              		.cfi_restore 19
 3299 13a0 033A0100 		ld	s4,0(sp)
 3300              		.cfi_restore 20
 3301 13a4 13010103 		addi	sp,sp,48
 3302              		.cfi_def_cfa_offset 0
 3303 13a8 67800000 		jr	ra
 3304              	.LVL286:
 3305              	.L210:
 3306              		.cfi_restore_state
 3307              	.LBB71:
 3308              	.LBB68:
 282:src/_Thread.cpp ****         if (!manager) return -1;
 3309              		.loc 1 282 31
 3310 13ac 1309F0FF 		li	s2,-1
 3311              	.LVL287:
 3312 13b0 6FF09FFD 		j	.L213
 3313              	.LVL288:
 3314              	.L211:
 3315              	.LBE68:
 3316              	.LBE71:
 288:src/_Thread.cpp ****     if (running->limitReached()) return 1;
 3317              		.loc 1 288 41
 3318 13b4 13091000 		li	s2,1
 3319 13b8 6FF01FFD 		j	.L213
GAS LISTING /tmp/ccl1Ltrc.s 			page 74


 3320              	.LVL289:
 3321              	.L212:
 3322 13bc 93040500 		mv	s1,a0
 3323              	.LVL290:
 3324              	.LBB72:
 3325              	.LBB69:
 3326              	.LBB65:
 3327              	.LBB66:
 130:src/../h/_WaitManager.h ****     }
 131:src/../h/_WaitManager.h ****     void operator delete(void* adr) { kmem_cache_free(cache, adr);}
 3328              		.loc 2 131 39 is_stmt 1
 3329              		.loc 2 131 54 is_stmt 0
 3330 13c0 93050A00 		mv	a1,s4
 3331 13c4 97070000 		la	a5,_ZN17_JoinSleepManager5cacheE
 3331      83B70700 
 3332 13cc 03B50700 		ld	a0,0(a5)
 3333 13d0 97000000 		call	_Z15kmem_cache_freeP12kmem_cache_tPv@plt
 3333      E7800000 
 3334              	.LVL291:
 3335 13d8 13850400 		mv	a0,s1
 3336              	.LEHB35:
 3337 13dc 97000000 		call	_Unwind_Resume@plt
 3337      E7800000 
 3338              	.LVL292:
 3339              	.LEHE35:
 3340              	.LBE66:
 3341              	.LBE65:
 3342              	.LBE69:
 3343              	.LBE72:
 3344              		.cfi_endproc
 3345              	.LFE82:
 3346              		.section	.gcc_except_table
 3347              	.LLSDA82:
 3348 01c0 FF       		.byte	0xff
 3349 01c1 FF       		.byte	0xff
 3350 01c2 03       		.byte	0x3
 3351 01c3 34       		.byte	0x34
 3352 01c4 00000000 		.4byte	.LEHB32-.LFB82
 3353 01c8 00000000 		.4byte	.LEHE32-.LEHB32
 3354 01cc 00000000 		.4byte	0
 3355 01d0 00       		.byte	0
 3356 01d1 00000000 		.4byte	.LEHB33-.LFB82
 3357 01d5 00000000 		.4byte	.LEHE33-.LEHB33
 3358 01d9 00000000 		.4byte	.L212-.LFB82
 3359 01dd 00       		.byte	0
 3360 01de 00000000 		.4byte	.LEHB34-.LFB82
 3361 01e2 00000000 		.4byte	.LEHE34-.LEHB34
 3362 01e6 00000000 		.4byte	0
 3363 01ea 00       		.byte	0
 3364 01eb 00000000 		.4byte	.LEHB35-.LFB82
 3365 01ef 00000000 		.4byte	.LEHE35-.LEHB35
 3366 01f3 00000000 		.4byte	0
 3367 01f7 00       		.byte	0
 3368              		.text
 3370              		.align	2
 3371              		.globl	_ZN7_Thread10check_waitEi
 3373              	_ZN7_Thread10check_waitEi:
GAS LISTING /tmp/ccl1Ltrc.s 			page 75


 3374              	.LFB90:
 324:src/_Thread.cpp **** int _Thread::check_wait(int ret) {
 3375              		.loc 1 324 34 is_stmt 1
 3376              		.cfi_startproc
 3377              	.LVL293:
 3378 13e4 130101FE 		addi	sp,sp,-32
 3379              		.cfi_def_cfa_offset 32
 3380 13e8 233C1100 		sd	ra,24(sp)
 3381 13ec 23388100 		sd	s0,16(sp)
 3382 13f0 23349100 		sd	s1,8(sp)
 3383              		.cfi_offset 1, -8
 3384              		.cfi_offset 8, -16
 3385              		.cfi_offset 9, -24
 3386 13f4 13040102 		addi	s0,sp,32
 3387              		.cfi_def_cfa 8, 0
 3388 13f8 93040500 		mv	s1,a0
 3389 13fc 13850500 		mv	a0,a1
 3390              	.LVL294:
 325:src/_Thread.cpp ****     if (!ret) return 0;
 3391              		.loc 1 325 5
 3392 1400 639C0500 		bnez	a1,.L221
 3393              	.LVL295:
 3394              	.L219:
 328:src/_Thread.cpp **** }
 3395              		.loc 1 328 1 is_stmt 0
 3396 1404 83308101 		ld	ra,24(sp)
 3397              		.cfi_remember_state
 3398              		.cfi_restore 1
 3399 1408 03340101 		ld	s0,16(sp)
 3400              		.cfi_restore 8
 3401              		.cfi_def_cfa 2, 32
 3402 140c 83348100 		ld	s1,8(sp)
 3403              		.cfi_restore 9
 3404              	.LVL296:
 3405 1410 13010102 		addi	sp,sp,32
 3406              		.cfi_def_cfa_offset 0
 3407 1414 67800000 		jr	ra
 3408              	.LVL297:
 3409              	.L221:
 3410              		.cfi_restore_state
 326:src/_Thread.cpp ****     removeManager();
 3411              		.loc 1 326 5 is_stmt 1
 326:src/_Thread.cpp ****     removeManager();
 3412              		.loc 1 326 18 is_stmt 0
 3413 1418 13850400 		mv	a0,s1
 3414 141c 97000000 		call	_ZN7_Thread13removeManagerEv
 3414      E7800000 
 3415              	.LVL298:
 327:src/_Thread.cpp ****     return _Scheduler::put(this);
 3416              		.loc 1 327 5 is_stmt 1
 327:src/_Thread.cpp ****     return _Scheduler::put(this);
 3417              		.loc 1 327 27 is_stmt 0
 3418 1424 13850400 		mv	a0,s1
 3419 1428 97000000 		call	_ZN10_Scheduler3putEP7_Thread@plt
 3419      E7800000 
 3420              	.LVL299:
 327:src/_Thread.cpp ****     return _Scheduler::put(this);
GAS LISTING /tmp/ccl1Ltrc.s 			page 76


 3421              		.loc 1 327 32
 3422 1430 6FF05FFD 		j	.L219
 3423              		.cfi_endproc
 3424              	.LFE90:
 3426              		.align	2
 3427              		.globl	_ZN7_Thread9interruptEv
 3429              	_ZN7_Thread9interruptEv:
 3430              	.LFB78:
 247:src/_Thread.cpp **** int _Thread::interrupt() {
 3431              		.loc 1 247 26 is_stmt 1
 3432              		.cfi_startproc
 3433              	.LVL300:
 3434 1434 130101FE 		addi	sp,sp,-32
 3435              		.cfi_def_cfa_offset 32
 3436 1438 233C1100 		sd	ra,24(sp)
 3437 143c 23388100 		sd	s0,16(sp)
 3438 1440 23349100 		sd	s1,8(sp)
 3439              		.cfi_offset 1, -8
 3440              		.cfi_offset 8, -16
 3441              		.cfi_offset 9, -24
 3442 1444 13040102 		addi	s0,sp,32
 3443              		.cfi_def_cfa 8, 0
 3444 1448 93040500 		mv	s1,a0
 248:src/_Thread.cpp ****     if (finished()) return 0;
 3445              		.loc 1 248 5
 248:src/_Thread.cpp ****     if (finished()) return 0;
 3446              		.loc 1 248 17 is_stmt 0
 3447 144c 97000000 		call	_ZN7_Thread8finishedEv
 3447      E7800000 
 3448              	.LVL301:
 248:src/_Thread.cpp ****     if (finished()) return 0;
 3449              		.loc 1 248 5
 3450 1454 63160504 		bnez	a0,.L224
 249:src/_Thread.cpp ****     flags |= 128u;
 3451              		.loc 1 249 5 is_stmt 1
 249:src/_Thread.cpp ****     flags |= 128u;
 3452              		.loc 1 249 11 is_stmt 0
 3453 1458 83A78402 		lw	a5,40(s1)
 3454 145c 93E70708 		ori	a5,a5,128
 3455 1460 23A4F402 		sw	a5,40(s1)
 250:src/_Thread.cpp ****     if (waitManager) {
 3456              		.loc 1 250 5 is_stmt 1
 3457              	.LBB73:
 250:src/_Thread.cpp ****     if (waitManager) {
 3458              		.loc 1 250 9 is_stmt 0
 3459 1464 83B70404 		ld	a5,64(s1)
 250:src/_Thread.cpp ****     if (waitManager) {
 3460              		.loc 1 250 5
 3461 1468 63820702 		beqz	a5,.L223
 3462              	.LBB74:
 251:src/_Thread.cpp ****         int ret = waitManager->interrupt();
 3463              		.loc 1 251 9 is_stmt 1
 251:src/_Thread.cpp ****         int ret = waitManager->interrupt();
 3464              		.loc 1 251 42 is_stmt 0
 3465 146c 03B70700 		ld	a4,0(a5)
 3466 1470 03378701 		ld	a4,24(a4)
 251:src/_Thread.cpp ****         int ret = waitManager->interrupt();
GAS LISTING /tmp/ccl1Ltrc.s 			page 77


 3467              		.loc 1 251 41
 3468 1474 13850700 		mv	a0,a5
 3469 1478 E7000700 		jalr	a4
 3470              	.LVL302:
 3471 147c 93050500 		mv	a1,a0
 3472              	.LVL303:
 252:src/_Thread.cpp ****         return check_wait(ret);
 3473              		.loc 1 252 9 is_stmt 1
 252:src/_Thread.cpp ****         return check_wait(ret);
 3474              		.loc 1 252 26 is_stmt 0
 3475 1480 13850400 		mv	a0,s1
 3476 1484 97000000 		call	_ZN7_Thread10check_waitEi
 3476      E7800000 
 3477              	.LVL304:
 3478              	.L223:
 3479              	.LBE74:
 3480              	.LBE73:
 255:src/_Thread.cpp **** }
 3481              		.loc 1 255 1
 3482 148c 83308101 		ld	ra,24(sp)
 3483              		.cfi_remember_state
 3484              		.cfi_restore 1
 3485 1490 03340101 		ld	s0,16(sp)
 3486              		.cfi_restore 8
 3487              		.cfi_def_cfa 2, 32
 3488 1494 83348100 		ld	s1,8(sp)
 3489              		.cfi_restore 9
 3490              	.LVL305:
 3491 1498 13010102 		addi	sp,sp,32
 3492              		.cfi_def_cfa_offset 0
 3493 149c 67800000 		jr	ra
 3494              	.LVL306:
 3495              	.L224:
 3496              		.cfi_restore_state
 248:src/_Thread.cpp ****     if (finished()) return 0;
 3497              		.loc 1 248 28
 3498 14a0 13050000 		li	a0,0
 3499 14a4 6FF09FFE 		j	.L223
 3500              		.cfi_endproc
 3501              	.LFE78:
 3503              		.align	2
 3504              		.globl	_ZN7_Thread8sem_passEP4_Sem
 3506              	_ZN7_Thread8sem_passEP4_Sem:
 3507              	.LFB86:
 307:src/_Thread.cpp **** int _Thread::sem_pass(sem_t s) {
 3508              		.loc 1 307 32 is_stmt 1
 3509              		.cfi_startproc
 3510              	.LVL307:
 3511 14a8 130101FE 		addi	sp,sp,-32
 3512              		.cfi_def_cfa_offset 32
 3513 14ac 233C1100 		sd	ra,24(sp)
 3514 14b0 23388100 		sd	s0,16(sp)
 3515 14b4 23349100 		sd	s1,8(sp)
 3516              		.cfi_offset 1, -8
 3517              		.cfi_offset 8, -16
 3518              		.cfi_offset 9, -24
 3519 14b8 13040102 		addi	s0,sp,32
GAS LISTING /tmp/ccl1Ltrc.s 			page 78


 3520              		.cfi_def_cfa 8, 0
 3521 14bc 93040500 		mv	s1,a0
 308:src/_Thread.cpp ****     int ret = waitManager->sem_pass(s);
 3522              		.loc 1 308 5
 308:src/_Thread.cpp ****     int ret = waitManager->sem_pass(s);
 3523              		.loc 1 308 15 is_stmt 0
 3524 14c0 03350504 		ld	a0,64(a0)
 3525              	.LVL308:
 308:src/_Thread.cpp ****     int ret = waitManager->sem_pass(s);
 3526              		.loc 1 308 38
 3527 14c4 83370500 		ld	a5,0(a0)
 3528 14c8 83B70700 		ld	a5,0(a5)
 308:src/_Thread.cpp ****     int ret = waitManager->sem_pass(s);
 3529              		.loc 1 308 36
 3530 14cc E7800700 		jalr	a5
 3531              	.LVL309:
 3532 14d0 93050500 		mv	a1,a0
 3533              	.LVL310:
 309:src/_Thread.cpp ****     return check_wait(ret);
 3534              		.loc 1 309 5 is_stmt 1
 309:src/_Thread.cpp ****     return check_wait(ret);
 3535              		.loc 1 309 22 is_stmt 0
 3536 14d4 13850400 		mv	a0,s1
 3537 14d8 97000000 		call	_ZN7_Thread10check_waitEi
 3537      E7800000 
 3538              	.LVL311:
 310:src/_Thread.cpp **** }
 3539              		.loc 1 310 1
 3540 14e0 83308101 		ld	ra,24(sp)
 3541              		.cfi_restore 1
 3542 14e4 03340101 		ld	s0,16(sp)
 3543              		.cfi_restore 8
 3544              		.cfi_def_cfa 2, 32
 3545 14e8 83348100 		ld	s1,8(sp)
 3546              		.cfi_restore 9
 3547              	.LVL312:
 3548 14ec 13010102 		addi	sp,sp,32
 3549              		.cfi_def_cfa_offset 0
 3550 14f0 67800000 		jr	ra
 3551              		.cfi_endproc
 3552              	.LFE86:
 3554              		.align	2
 3555              		.globl	_ZN7_Thread9sleepPassEv
 3557              	_ZN7_Thread9sleepPassEv:
 3558              	.LFB87:
 311:src/_Thread.cpp **** int _Thread::sleepPass() {
 3559              		.loc 1 311 26 is_stmt 1
 3560              		.cfi_startproc
 3561              	.LVL313:
 3562 14f4 130101FE 		addi	sp,sp,-32
 3563              		.cfi_def_cfa_offset 32
 3564 14f8 233C1100 		sd	ra,24(sp)
 3565 14fc 23388100 		sd	s0,16(sp)
 3566 1500 23349100 		sd	s1,8(sp)
 3567              		.cfi_offset 1, -8
 3568              		.cfi_offset 8, -16
 3569              		.cfi_offset 9, -24
GAS LISTING /tmp/ccl1Ltrc.s 			page 79


 3570 1504 13040102 		addi	s0,sp,32
 3571              		.cfi_def_cfa 8, 0
 3572 1508 93040500 		mv	s1,a0
 312:src/_Thread.cpp ****     int ret = waitManager->sleep_pass();
 3573              		.loc 1 312 5
 312:src/_Thread.cpp ****     int ret = waitManager->sleep_pass();
 3574              		.loc 1 312 15 is_stmt 0
 3575 150c 03350504 		ld	a0,64(a0)
 3576              	.LVL314:
 312:src/_Thread.cpp ****     int ret = waitManager->sleep_pass();
 3577              		.loc 1 312 39
 3578 1510 83370500 		ld	a5,0(a0)
 3579 1514 83B78700 		ld	a5,8(a5)
 312:src/_Thread.cpp ****     int ret = waitManager->sleep_pass();
 3580              		.loc 1 312 38
 3581 1518 E7800700 		jalr	a5
 3582              	.LVL315:
 3583 151c 93050500 		mv	a1,a0
 3584              	.LVL316:
 313:src/_Thread.cpp ****     return check_wait(ret);
 3585              		.loc 1 313 5 is_stmt 1
 313:src/_Thread.cpp ****     return check_wait(ret);
 3586              		.loc 1 313 22 is_stmt 0
 3587 1520 13850400 		mv	a0,s1
 3588 1524 97000000 		call	_ZN7_Thread10check_waitEi
 3588      E7800000 
 3589              	.LVL317:
 314:src/_Thread.cpp **** }
 3590              		.loc 1 314 1
 3591 152c 83308101 		ld	ra,24(sp)
 3592              		.cfi_restore 1
 3593 1530 03340101 		ld	s0,16(sp)
 3594              		.cfi_restore 8
 3595              		.cfi_def_cfa 2, 32
 3596 1534 83348100 		ld	s1,8(sp)
 3597              		.cfi_restore 9
 3598              	.LVL318:
 3599 1538 13010102 		addi	sp,sp,32
 3600              		.cfi_def_cfa_offset 0
 3601 153c 67800000 		jr	ra
 3602              		.cfi_endproc
 3603              	.LFE87:
 3605              		.align	2
 3606              		.globl	_ZN7_Thread8joinPassEv
 3608              	_ZN7_Thread8joinPassEv:
 3609              	.LFB88:
 315:src/_Thread.cpp **** int _Thread::joinPass() {
 3610              		.loc 1 315 25 is_stmt 1
 3611              		.cfi_startproc
 3612              	.LVL319:
 3613 1540 130101FE 		addi	sp,sp,-32
 3614              		.cfi_def_cfa_offset 32
 3615 1544 233C1100 		sd	ra,24(sp)
 3616 1548 23388100 		sd	s0,16(sp)
 3617 154c 23349100 		sd	s1,8(sp)
 3618              		.cfi_offset 1, -8
 3619              		.cfi_offset 8, -16
GAS LISTING /tmp/ccl1Ltrc.s 			page 80


 3620              		.cfi_offset 9, -24
 3621 1550 13040102 		addi	s0,sp,32
 3622              		.cfi_def_cfa 8, 0
 3623 1554 93040500 		mv	s1,a0
 316:src/_Thread.cpp ****     int ret = waitManager->join_pass();
 3624              		.loc 1 316 5
 316:src/_Thread.cpp ****     int ret = waitManager->join_pass();
 3625              		.loc 1 316 15 is_stmt 0
 3626 1558 03350504 		ld	a0,64(a0)
 3627              	.LVL320:
 316:src/_Thread.cpp ****     int ret = waitManager->join_pass();
 3628              		.loc 1 316 38
 3629 155c 83370500 		ld	a5,0(a0)
 3630 1560 83B70701 		ld	a5,16(a5)
 316:src/_Thread.cpp ****     int ret = waitManager->join_pass();
 3631              		.loc 1 316 37
 3632 1564 E7800700 		jalr	a5
 3633              	.LVL321:
 3634 1568 93050500 		mv	a1,a0
 3635              	.LVL322:
 317:src/_Thread.cpp ****     return check_wait(ret);
 3636              		.loc 1 317 5 is_stmt 1
 317:src/_Thread.cpp ****     return check_wait(ret);
 3637              		.loc 1 317 22 is_stmt 0
 3638 156c 13850400 		mv	a0,s1
 3639 1570 97000000 		call	_ZN7_Thread10check_waitEi
 3639      E7800000 
 3640              	.LVL323:
 318:src/_Thread.cpp **** }
 3641              		.loc 1 318 1
 3642 1578 83308101 		ld	ra,24(sp)
 3643              		.cfi_restore 1
 3644 157c 03340101 		ld	s0,16(sp)
 3645              		.cfi_restore 8
 3646              		.cfi_def_cfa 2, 32
 3647 1580 83348100 		ld	s1,8(sp)
 3648              		.cfi_restore 9
 3649              	.LVL324:
 3650 1584 13010102 		addi	sp,sp,32
 3651              		.cfi_def_cfa_offset 0
 3652 1588 67800000 		jr	ra
 3653              		.cfi_endproc
 3654              	.LFE88:
 3656              		.align	2
 3657              		.globl	_ZN7_Thread4exitEPv
 3659              	_ZN7_Thread4exitEPv:
 3660              	.LFB60:
 129:src/_Thread.cpp **** int _Thread::exit(void* ret) {
 3661              		.loc 1 129 30 is_stmt 1
 3662              		.cfi_startproc
 3663              	.LVL325:
 3664 158c 130101FE 		addi	sp,sp,-32
 3665              		.cfi_def_cfa_offset 32
 3666 1590 233C1100 		sd	ra,24(sp)
 3667 1594 23388100 		sd	s0,16(sp)
 3668 1598 23349100 		sd	s1,8(sp)
 3669 159c 23302101 		sd	s2,0(sp)
GAS LISTING /tmp/ccl1Ltrc.s 			page 81


 3670              		.cfi_offset 1, -8
 3671              		.cfi_offset 8, -16
 3672              		.cfi_offset 9, -24
 3673              		.cfi_offset 18, -32
 3674 15a0 13040102 		addi	s0,sp,32
 3675              		.cfi_def_cfa 8, 0
 3676 15a4 13090500 		mv	s2,a0
 130:src/_Thread.cpp ****     _SBIT::SIEdisable();
 3677              		.loc 1 130 5
 130:src/_Thread.cpp ****     _SBIT::SIEdisable();
 3678              		.loc 1 130 22 is_stmt 0
 3679 15a8 97000000 		call	_ZN5_SBIT10SIEdisableEv@plt
 3679      E7800000 
 3680              	.LVL326:
 132:src/_Thread.cpp ****     total--; if (!running->daemon()) user--;
 3681              		.loc 1 132 5 is_stmt 1
 132:src/_Thread.cpp ****     total--; if (!running->daemon()) user--;
 3682              		.loc 1 132 10 is_stmt 0
 3683 15b0 97070000 		lla	a5,.LANCHOR0
 3683      93870700 
 3684 15b8 03A70702 		lw	a4,32(a5)
 3685 15bc 1B07F7FF 		addiw	a4,a4,-1
 3686 15c0 23A0E702 		sw	a4,32(a5)
 132:src/_Thread.cpp ****     total--; if (!running->daemon()) user--;
 3687              		.loc 1 132 14 is_stmt 1
 132:src/_Thread.cpp ****     total--; if (!running->daemon()) user--;
 3688              		.loc 1 132 34 is_stmt 0
 3689 15c4 83B48700 		ld	s1,8(a5)
 3690 15c8 13850400 		mv	a0,s1
 3691 15cc 97000000 		call	_ZN7_Thread6daemonEv
 3691      E7800000 
 3692              	.LVL327:
 132:src/_Thread.cpp ****     total--; if (!running->daemon()) user--;
 3693              		.loc 1 132 14
 3694 15d4 631C0500 		bnez	a0,.L233
 132:src/_Thread.cpp ****     total--; if (!running->daemon()) user--;
 3695              		.loc 1 132 38 is_stmt 1 discriminator 1
 132:src/_Thread.cpp ****     total--; if (!running->daemon()) user--;
 3696              		.loc 1 132 42 is_stmt 0 discriminator 1
 3697 15d8 17070000 		lla	a4,.LANCHOR0
 3697      13070700 
 3698 15e0 83274702 		lw	a5,36(a4)
 3699 15e4 9B87F7FF 		addiw	a5,a5,-1
 3700 15e8 2322F702 		sw	a5,36(a4)
 3701              	.L233:
 133:src/_Thread.cpp ****     if (running->returnValue) running->returnValue = ret;
 3702              		.loc 1 133 5 is_stmt 1
 133:src/_Thread.cpp ****     if (running->returnValue) running->returnValue = ret;
 3703              		.loc 1 133 18 is_stmt 0
 3704 15ec 83B78403 		ld	a5,56(s1)
 133:src/_Thread.cpp ****     if (running->returnValue) running->returnValue = ret;
 3705              		.loc 1 133 5
 3706 15f0 63840700 		beqz	a5,.L234
 133:src/_Thread.cpp ****     if (running->returnValue) running->returnValue = ret;
 3707              		.loc 1 133 31 is_stmt 1 discriminator 1
 133:src/_Thread.cpp ****     if (running->returnValue) running->returnValue = ret;
 3708              		.loc 1 133 52 is_stmt 0 discriminator 1
GAS LISTING /tmp/ccl1Ltrc.s 			page 82


 3709 15f4 23BC2403 		sd	s2,56(s1)
 3710              	.L234:
 134:src/_Thread.cpp ****     running->finish();
 3711              		.loc 1 134 5 is_stmt 1
 134:src/_Thread.cpp ****     running->finish();
 3712              		.loc 1 134 20 is_stmt 0
 3713 15f8 13850400 		mv	a0,s1
 3714 15fc 97000000 		call	_ZN7_Thread6finishEv
 3714      E7800000 
 3715              	.LVL328:
 135:src/_Thread.cpp ****     if (running->parentWaiting()) running->parent->joinPass();//_Scheduler::put(running->parent);
 3716              		.loc 1 135 5 is_stmt 1
 135:src/_Thread.cpp ****     if (running->parentWaiting()) running->parent->joinPass();//_Scheduler::put(running->parent);
 3717              		.loc 1 135 31 is_stmt 0
 3718 1604 97040000 		ld	s1,.LANCHOR0+8
 3718      83B40400 
 3719 160c 13850400 		mv	a0,s1
 3720 1610 97000000 		call	_ZN7_Thread13parentWaitingEv
 3720      E7800000 
 3721              	.LVL329:
 135:src/_Thread.cpp ****     if (running->parentWaiting()) running->parent->joinPass();//_Scheduler::put(running->parent);
 3722              		.loc 1 135 5
 3723 1618 63140508 		bnez	a0,.L241
 3724              	.L235:
 136:src/_Thread.cpp ****     if (user == 1) _Console::go->signal(); //signalizira se putter niti da su sve korisnicke niti z
 3725              		.loc 1 136 5 is_stmt 1
 136:src/_Thread.cpp ****     if (user == 1) _Console::go->signal(); //signalizira se putter niti da su sve korisnicke niti z
 3726              		.loc 1 136 14 is_stmt 0
 3727 161c 17070000 		lw	a4,.LANCHOR0+36
 3727      03270700 
 136:src/_Thread.cpp ****     if (user == 1) _Console::go->signal(); //signalizira se putter niti da su sve korisnicke niti z
 3728              		.loc 1 136 5
 3729 1624 93071000 		li	a5,1
 3730 1628 6304F708 		beq	a4,a5,.L242
 3731              	.L236:
 138:src/_Thread.cpp ****     if (user > 0) busyWait();
 3732              		.loc 1 138 5 is_stmt 1
 138:src/_Thread.cpp ****     if (user > 0) busyWait();
 3733              		.loc 1 138 14 is_stmt 0
 3734 162c 97070000 		lw	a5,.LANCHOR0+36
 3734      83A70700 
 138:src/_Thread.cpp ****     if (user > 0) busyWait();
 3735              		.loc 1 138 5
 3736 1634 634AF008 		bgtz	a5,.L243
 3737              	.L237:
 140:src/_Thread.cpp ****     _Mem::free(running->sptop); _Mem::free(running->ssptop);
 3738              		.loc 1 140 5 is_stmt 1
 140:src/_Thread.cpp ****     _Mem::free(running->sptop); _Mem::free(running->ssptop);
 3739              		.loc 1 140 15 is_stmt 0
 3740 1638 97040000 		lla	s1,.LANCHOR0
 3740      93840400 
 3741 1640 83B78400 		ld	a5,8(s1)
 3742 1644 03B50701 		ld	a0,16(a5)
 3743 1648 97000000 		call	_ZN4_Mem4freeEPv@plt
 3743      E7800000 
 3744              	.LVL330:
 140:src/_Thread.cpp ****     _Mem::free(running->sptop); _Mem::free(running->ssptop);
GAS LISTING /tmp/ccl1Ltrc.s 			page 83


 3745              		.loc 1 140 33 is_stmt 1
 140:src/_Thread.cpp ****     _Mem::free(running->sptop); _Mem::free(running->ssptop);
 3746              		.loc 1 140 43 is_stmt 0
 3747 1650 83B78400 		ld	a5,8(s1)
 3748 1654 03B58701 		ld	a0,24(a5)
 3749 1658 97000000 		call	_ZN4_Mem4freeEPv@plt
 3749      E7800000 
 3750              	.LVL331:
 144:src/_Thread.cpp ****     if (!user) {
 3751              		.loc 1 144 5 is_stmt 1
 144:src/_Thread.cpp ****     if (!user) {
 3752              		.loc 1 144 9 is_stmt 0
 3753 1660 83A74402 		lw	a5,36(s1)
 144:src/_Thread.cpp ****     if (!user) {
 3754              		.loc 1 144 5
 3755 1664 63980706 		bnez	a5,.L238
 145:src/_Thread.cpp ****         running = main;
 3756              		.loc 1 145 9 is_stmt 1
 145:src/_Thread.cpp ****         running = main;
 3757              		.loc 1 145 17 is_stmt 0
 3758 1668 03B70401 		ld	a4,16(s1)
 3759 166c 23B4E400 		sd	a4,8(s1)
 3760              	.L239:
 148:src/_Thread.cpp ****     __asm__ volatile("mv ra, %0" : : "r"(running->pc));
 3761              		.loc 1 148 5 is_stmt 1
 148:src/_Thread.cpp ****     __asm__ volatile("mv ra, %0" : : "r"(running->pc));
 3762              		.loc 1 148 51 is_stmt 0
 3763 1670 97070000 		ld	a5,.LANCHOR0+8
 3763      83B70700 
 3764 1678 83B70702 		ld	a5,32(a5)
 148:src/_Thread.cpp ****     __asm__ volatile("mv ra, %0" : : "r"(running->pc));
 3765              		.loc 1 148 55
 3766              	#APP
 3767              	# 148 "src/_Thread.cpp" 1
 149:src/_Thread.cpp ****     __asm__ volatile("ret");
 3768              		mv ra, a5
 3769              	# 0 "" 2
 3770              		.loc 1 149 5 is_stmt 1
 149:src/_Thread.cpp ****     __asm__ volatile("ret");
 3771              		.loc 1 149 28 is_stmt 0
 3772              	# 149 "src/_Thread.cpp" 1
 150:src/_Thread.cpp ****     return 0;
 3773              		ret
 3774              	# 0 "" 2
 3775              		.loc 1 150 5 is_stmt 1
 151:src/_Thread.cpp **** }
 3776              		.loc 1 151 1 is_stmt 0
 3777              	#NO_APP
 3778 1684 13050000 		li	a0,0
 3779 1688 83308101 		ld	ra,24(sp)
 3780              		.cfi_remember_state
 3781              		.cfi_restore 1
 3782 168c 03340101 		ld	s0,16(sp)
 3783              		.cfi_restore 8
 3784              		.cfi_def_cfa 2, 32
 3785 1690 83348100 		ld	s1,8(sp)
 3786              		.cfi_restore 9
GAS LISTING /tmp/ccl1Ltrc.s 			page 84


 3787 1694 03390100 		ld	s2,0(sp)
 3788              		.cfi_restore 18
 3789              	.LVL332:
 3790 1698 13010102 		addi	sp,sp,32
 3791              		.cfi_def_cfa_offset 0
 3792 169c 67800000 		jr	ra
 3793              	.LVL333:
 3794              	.L241:
 3795              		.cfi_restore_state
 135:src/_Thread.cpp ****     if (running->parentWaiting()) running->parent->joinPass();//_Scheduler::put(running->parent);
 3796              		.loc 1 135 35 is_stmt 1 discriminator 1
 135:src/_Thread.cpp ****     if (running->parentWaiting()) running->parent->joinPass();//_Scheduler::put(running->parent);
 3797              		.loc 1 135 60 is_stmt 0 discriminator 1
 3798 16a0 03B50403 		ld	a0,48(s1)
 3799 16a4 97000000 		call	_ZN7_Thread8joinPassEv
 3799      E7800000 
 3800              	.LVL334:
 3801 16ac 6FF01FF7 		j	.L235
 3802              	.L242:
 136:src/_Thread.cpp ****     if (user == 1) _Console::go->signal(); //signalizira se putter niti da su sve korisnicke niti z
 3803              		.loc 1 136 20 is_stmt 1 discriminator 1
 136:src/_Thread.cpp ****     if (user == 1) _Console::go->signal(); //signalizira se putter niti da su sve korisnicke niti z
 3804              		.loc 1 136 40 is_stmt 0 discriminator 1
 3805 16b0 97070000 		la	a5,_ZN8_Console2goE
 3805      83B70700 
 3806 16b8 03B50700 		ld	a0,0(a5)
 3807 16bc 97000000 		call	_ZN4_Sem6signalEv@plt
 3807      E7800000 
 3808              	.LVL335:
 3809 16c4 6FF09FF6 		j	.L236
 3810              	.L243:
 138:src/_Thread.cpp ****     if (user > 0) busyWait();
 3811              		.loc 1 138 19 is_stmt 1 discriminator 1
 138:src/_Thread.cpp ****     if (user > 0) busyWait();
 3812              		.loc 1 138 27 is_stmt 0 discriminator 1
 3813 16c8 97000000 		call	_ZN7_Thread8busyWaitEv
 3813      E7800000 
 3814              	.LVL336:
 3815 16d0 6FF09FF6 		j	.L237
 3816              	.L238:
 147:src/_Thread.cpp ****     else _Scheduler::get(); //siguran sam da ce moci jer readyFirst != 0
 3817              		.loc 1 147 10 is_stmt 1
 147:src/_Thread.cpp ****     else _Scheduler::get(); //siguran sam da ce moci jer readyFirst != 0
 3818              		.loc 1 147 25 is_stmt 0
 3819 16d4 97000000 		call	_ZN10_Scheduler3getEv@plt
 3819      E7800000 
 3820              	.LVL337:
 3821 16dc 6FF05FF9 		j	.L239
 3822              		.cfi_endproc
 3823              	.LFE60:
 3825              		.align	2
 3826              		.globl	_ZN7_Thread8sem_kickEP4_Sem
 3828              	_ZN7_Thread8sem_kickEP4_Sem:
 3829              	.LFB89:
 319:src/_Thread.cpp **** int _Thread::sem_kick(sem_t sem) {
 3830              		.loc 1 319 34 is_stmt 1
 3831              		.cfi_startproc
GAS LISTING /tmp/ccl1Ltrc.s 			page 85


 3832              	.LVL338:
 3833 16e0 130101FE 		addi	sp,sp,-32
 3834              		.cfi_def_cfa_offset 32
 3835 16e4 233C1100 		sd	ra,24(sp)
 3836 16e8 23388100 		sd	s0,16(sp)
 3837 16ec 23349100 		sd	s1,8(sp)
 3838 16f0 23302101 		sd	s2,0(sp)
 3839              		.cfi_offset 1, -8
 3840              		.cfi_offset 8, -16
 3841              		.cfi_offset 9, -24
 3842              		.cfi_offset 18, -32
 3843 16f4 13040102 		addi	s0,sp,32
 3844              		.cfi_def_cfa 8, 0
 3845 16f8 93040500 		mv	s1,a0
 3846 16fc 13890500 		mv	s2,a1
 320:src/_Thread.cpp ****     kick();
 3847              		.loc 1 320 5
 320:src/_Thread.cpp ****     kick();
 3848              		.loc 1 320 9 is_stmt 0
 3849 1700 97000000 		call	_ZN7_Thread4kickEv
 3849      E7800000 
 3850              	.LVL339:
 321:src/_Thread.cpp ****     int ret = waitManager->sem_pass(sem);
 3851              		.loc 1 321 5 is_stmt 1
 321:src/_Thread.cpp ****     int ret = waitManager->sem_pass(sem);
 3852              		.loc 1 321 15 is_stmt 0
 3853 1708 03B50404 		ld	a0,64(s1)
 321:src/_Thread.cpp ****     int ret = waitManager->sem_pass(sem);
 3854              		.loc 1 321 40
 3855 170c 83370500 		ld	a5,0(a0)
 3856 1710 83B70700 		ld	a5,0(a5)
 321:src/_Thread.cpp ****     int ret = waitManager->sem_pass(sem);
 3857              		.loc 1 321 36
 3858 1714 93050900 		mv	a1,s2
 3859 1718 E7800700 		jalr	a5
 3860              	.LVL340:
 3861 171c 93050500 		mv	a1,a0
 3862              	.LVL341:
 322:src/_Thread.cpp ****     return check_wait(ret);
 3863              		.loc 1 322 5 is_stmt 1
 322:src/_Thread.cpp ****     return check_wait(ret);
 3864              		.loc 1 322 22 is_stmt 0
 3865 1720 13850400 		mv	a0,s1
 3866 1724 97000000 		call	_ZN7_Thread10check_waitEi
 3866      E7800000 
 3867              	.LVL342:
 323:src/_Thread.cpp **** }
 3868              		.loc 1 323 1
 3869 172c 83308101 		ld	ra,24(sp)
 3870              		.cfi_restore 1
 3871 1730 03340101 		ld	s0,16(sp)
 3872              		.cfi_restore 8
 3873              		.cfi_def_cfa 2, 32
 3874 1734 83348100 		ld	s1,8(sp)
 3875              		.cfi_restore 9
 3876              	.LVL343:
 3877 1738 03390100 		ld	s2,0(sp)
GAS LISTING /tmp/ccl1Ltrc.s 			page 86


 3878              		.cfi_restore 18
 3879              	.LVL344:
 3880 173c 13010102 		addi	sp,sp,32
 3881              		.cfi_def_cfa_offset 0
 3882 1740 67800000 		jr	ra
 3883              		.cfi_endproc
 3884              	.LFE89:
 3886              		.globl	_ZN7_Thread5cacheE
 3887              		.globl	_ZN7_Thread4mainE
 3888              		.globl	_ZN7_Thread16DEFAULT_SSP_SIZEE
 3889              		.globl	_ZN7_Thread5clockE
 3890              		.globl	_ZN7_Thread4timeE
 3891              		.globl	_ZN7_Thread4userE
 3892              		.globl	_ZN7_Thread5totalE
 3893              		.globl	_ZN7_Thread7runningE
 3894              		.section	.rodata
 3895              		.align	3
 3898              	_ZN7_Thread16DEFAULT_SSP_SIZEE:
 3899 0000 00200000 		.dword	8192
 3899      00000000 
 3900              		.data
 3901              		.align	3
 3902              		.set	.LANCHOR1,. + 0
 3905              	_ZN7_Thread4timeE:
 3906 0000 02000000 		.dword	2
 3906      00000000 
 3907              		.bss
 3908              		.align	3
 3909              		.set	.LANCHOR0,. + 0
 3912              	_ZN7_Thread5cacheE:
 3913 0000 00000000 		.zero	8
 3913      00000000 
 3916              	_ZN7_Thread7runningE:
 3917 0008 00000000 		.zero	8
 3917      00000000 
 3920              	_ZN7_Thread4mainE:
 3921 0010 00000000 		.zero	8
 3921      00000000 
 3924              	_ZN7_Thread5clockE:
 3925 0018 00000000 		.zero	8
 3925      00000000 
 3928              	_ZN7_Thread5totalE:
 3929 0020 00000000 		.zero	4
 3932              	_ZN7_Thread4userE:
 3933 0024 00000000 		.zero	4
 3934              		.text
 3935              	.Letext0:
 3936              		.file 3 "src/../h/../lib/hw.h"
 3937              		.file 4 "src/../h/types.h"
 3938              		.file 5 "src/../h/_Thread.h"
 3939              		.file 6 "src/../h/_Sem.h"
 3940              		.file 7 "src/../h/_slab.h"
 3941              		.file 8 "src/../h/_Mem.h"
 3942              		.file 9 "src/../h/_ThreadPriorityQueue.h"
 3943              		.file 10 "src/../h/_Scheduler.h"
 3944              		.file 11 "src/../h/_Sleep.h"
 3945              		.file 12 "src/../h/_SBIT.h"
GAS LISTING /tmp/ccl1Ltrc.s 			page 87


 3946              		.file 13 "src/../h/_ThreadList.h"
 13929              		.align	3
 13932              	DW.ref.__gxx_personality_v0:
 13933 0000 00000000 		.dword	__gxx_personality_v0
 13933      00000000 
 13934              		.ident	"GCC: (Ubuntu 9.4.0-1ubuntu1~20.04) 9.4.0"
 13935              		.section	.note.GNU-stack,"",@progbits
GAS LISTING /tmp/ccl1Ltrc.s 			page 88

