GAS LISTING /tmp/cc6qYxbF.s 			page 1


   1              		.file	"_WaitManager.cpp"
   2              		.option pic
   3              		.option norelax
   4              		.text
   5              	.Ltext0:
   6              		.align	2
   7              		.globl	_ZN12_WaitManager8sem_passEP4_Sem
   9              	_ZN12_WaitManager8sem_passEP4_Sem:
  10              	.LFB30:
  11              		.file 1 "src/_WaitManager.cpp"
   1:src/_WaitManager.cpp **** //
   2:src/_WaitManager.cpp **** // Created by os on 6/1/22.
   3:src/_WaitManager.cpp **** //
   4:src/_WaitManager.cpp **** #include "../h/_WaitManager.h"
   5:src/_WaitManager.cpp **** #include "../h/_Sem.h"
   6:src/_WaitManager.cpp **** #include "../h/_Sleep.h"
   7:src/_WaitManager.cpp **** 
   8:src/_WaitManager.cpp **** _WaitManager::_WaitManager(thread_t my_thread) : myThread(my_thread) {}
   9:src/_WaitManager.cpp **** int _WaitManager::sem_pass(sem_t) { return 0;}
  12              		.loc 1 9 35
  13              		.cfi_startproc
  14              	.LVL0:
  15 0000 130101FF 		addi	sp,sp,-16
  16              		.cfi_def_cfa_offset 16
  17 0004 23348100 		sd	s0,8(sp)
  18              		.cfi_offset 8, -8
  19 0008 13040101 		addi	s0,sp,16
  20              		.cfi_def_cfa 8, 0
  21              		.loc 1 9 37
  22              		.loc 1 9 46 is_stmt 0
  23 000c 13050000 		li	a0,0
  24              	.LVL1:
  25 0010 03348100 		ld	s0,8(sp)
  26              		.cfi_restore 8
  27              		.cfi_def_cfa 2, 16
  28 0014 13010101 		addi	sp,sp,16
  29              		.cfi_def_cfa_offset 0
  30 0018 67800000 		jr	ra
  31              		.cfi_endproc
  32              	.LFE30:
  34              		.align	2
  35              		.globl	_ZN12_WaitManager10sleep_passEv
  37              	_ZN12_WaitManager10sleep_passEv:
  38              	.LFB31:
  10:src/_WaitManager.cpp **** int _WaitManager::sleep_pass() { return 0;}
  39              		.loc 1 10 32 is_stmt 1
  40              		.cfi_startproc
  41              	.LVL2:
  42 001c 130101FF 		addi	sp,sp,-16
  43              		.cfi_def_cfa_offset 16
  44 0020 23348100 		sd	s0,8(sp)
  45              		.cfi_offset 8, -8
  46 0024 13040101 		addi	s0,sp,16
  47              		.cfi_def_cfa 8, 0
  48              		.loc 1 10 34
  49              		.loc 1 10 43 is_stmt 0
  50 0028 13050000 		li	a0,0
GAS LISTING /tmp/cc6qYxbF.s 			page 2


  51              	.LVL3:
  52 002c 03348100 		ld	s0,8(sp)
  53              		.cfi_restore 8
  54              		.cfi_def_cfa 2, 16
  55 0030 13010101 		addi	sp,sp,16
  56              		.cfi_def_cfa_offset 0
  57 0034 67800000 		jr	ra
  58              		.cfi_endproc
  59              	.LFE31:
  61              		.align	2
  62              		.globl	_ZN12_WaitManager9join_passEv
  64              	_ZN12_WaitManager9join_passEv:
  65              	.LFB32:
  11:src/_WaitManager.cpp **** int _WaitManager::join_pass() { return 0;}
  66              		.loc 1 11 31 is_stmt 1
  67              		.cfi_startproc
  68              	.LVL4:
  69 0038 130101FF 		addi	sp,sp,-16
  70              		.cfi_def_cfa_offset 16
  71 003c 23348100 		sd	s0,8(sp)
  72              		.cfi_offset 8, -8
  73 0040 13040101 		addi	s0,sp,16
  74              		.cfi_def_cfa 8, 0
  75              		.loc 1 11 33
  76              		.loc 1 11 42 is_stmt 0
  77 0044 13050000 		li	a0,0
  78              	.LVL5:
  79 0048 03348100 		ld	s0,8(sp)
  80              		.cfi_restore 8
  81              		.cfi_def_cfa 2, 16
  82 004c 13010101 		addi	sp,sp,16
  83              		.cfi_def_cfa_offset 0
  84 0050 67800000 		jr	ra
  85              		.cfi_endproc
  86              	.LFE32:
  88              		.align	2
  89              		.globl	_ZN12_WaitManager9interruptEv
  91              	_ZN12_WaitManager9interruptEv:
  92              	.LFB33:
  12:src/_WaitManager.cpp **** int _WaitManager::interrupt() { return 1;}
  93              		.loc 1 12 31 is_stmt 1
  94              		.cfi_startproc
  95              	.LVL6:
  96 0054 130101FF 		addi	sp,sp,-16
  97              		.cfi_def_cfa_offset 16
  98 0058 23348100 		sd	s0,8(sp)
  99              		.cfi_offset 8, -8
 100 005c 13040101 		addi	s0,sp,16
 101              		.cfi_def_cfa 8, 0
 102              		.loc 1 12 33
 103              		.loc 1 12 42 is_stmt 0
 104 0060 13051000 		li	a0,1
 105              	.LVL7:
 106 0064 03348100 		ld	s0,8(sp)
 107              		.cfi_restore 8
 108              		.cfi_def_cfa 2, 16
 109 0068 13010101 		addi	sp,sp,16
GAS LISTING /tmp/cc6qYxbF.s 			page 3


 110              		.cfi_def_cfa_offset 0
 111 006c 67800000 		jr	ra
 112              		.cfi_endproc
 113              	.LFE33:
 115              		.align	2
 116              		.globl	_ZN12_WaitManagerD2Ev
 118              	_ZN12_WaitManagerD2Ev:
 119              	.LFB35:
  13:src/_WaitManager.cpp **** _WaitManager::~_WaitManager() {}
 120              		.loc 1 13 1 is_stmt 1
 121              		.cfi_startproc
 122              	.LVL8:
 123 0070 130101FF 		addi	sp,sp,-16
 124              		.cfi_def_cfa_offset 16
 125 0074 23348100 		sd	s0,8(sp)
 126              		.cfi_offset 8, -8
 127 0078 13040101 		addi	s0,sp,16
 128              		.cfi_def_cfa 8, 0
 129              		.loc 1 13 32 is_stmt 0
 130 007c 03348100 		ld	s0,8(sp)
 131              		.cfi_restore 8
 132              		.cfi_def_cfa 2, 16
 133 0080 13010101 		addi	sp,sp,16
 134              		.cfi_def_cfa_offset 0
 135 0084 67800000 		jr	ra
 136              		.cfi_endproc
 137              	.LFE35:
 139              		.globl	_ZN12_WaitManagerD1Ev
 140              		.set	_ZN12_WaitManagerD1Ev,_ZN12_WaitManagerD2Ev
 141              		.align	2
 142              		.globl	_ZN11_SemManager8sem_passEP4_Sem
 144              	_ZN11_SemManager8sem_passEP4_Sem:
 145              	.LFB41:
  14:src/_WaitManager.cpp **** 
  15:src/_WaitManager.cpp **** _SemManager::_SemManager(thread_t my_thread, sem_t sem) : _WaitManager(my_thread), sem(sem) {}
  16:src/_WaitManager.cpp **** kmem_cache_t* _SemManager::cache = nullptr;
  17:src/_WaitManager.cpp **** int _SemManager::sem_pass(sem_t sem) {
 146              		.loc 1 17 38 is_stmt 1
 147              		.cfi_startproc
 148              	.LVL9:
 149 0088 130101FF 		addi	sp,sp,-16
 150              		.cfi_def_cfa_offset 16
 151 008c 23348100 		sd	s0,8(sp)
 152              		.cfi_offset 8, -8
 153 0090 13040101 		addi	s0,sp,16
 154              		.cfi_def_cfa 8, 0
  18:src/_WaitManager.cpp ****     this->sem = nullptr;
 155              		.loc 1 18 5
 156              		.loc 1 18 15 is_stmt 0
 157 0094 23380500 		sd	zero,16(a0)
  19:src/_WaitManager.cpp ****     return 1;
 158              		.loc 1 19 5 is_stmt 1
  20:src/_WaitManager.cpp **** }
 159              		.loc 1 20 1 is_stmt 0
 160 0098 13051000 		li	a0,1
 161              	.LVL10:
 162 009c 03348100 		ld	s0,8(sp)
GAS LISTING /tmp/cc6qYxbF.s 			page 4


 163              		.cfi_restore 8
 164              		.cfi_def_cfa 2, 16
 165 00a0 13010101 		addi	sp,sp,16
 166              		.cfi_def_cfa_offset 0
 167 00a4 67800000 		jr	ra
 168              		.cfi_endproc
 169              	.LFE41:
 171              		.align	2
 172              		.globl	_ZN13_SleepManager10sleep_passEv
 174              	_ZN13_SleepManager10sleep_passEv:
 175              	.LFB46:
  21:src/_WaitManager.cpp **** int _SemManager::interrupt() {
  22:src/_WaitManager.cpp ****     sem->remove(myThread);
  23:src/_WaitManager.cpp ****     sem = nullptr;
  24:src/_WaitManager.cpp ****     return 1;
  25:src/_WaitManager.cpp **** }
  26:src/_WaitManager.cpp **** 
  27:src/_WaitManager.cpp **** _SleepManager::_SleepManager(thread_t my_thread) : _WaitManager(my_thread) {}
  28:src/_WaitManager.cpp **** kmem_cache_t* _SleepManager::cache = nullptr;
  29:src/_WaitManager.cpp **** int _SleepManager::sleep_pass() {
 176              		.loc 1 29 33 is_stmt 1
 177              		.cfi_startproc
 178              	.LVL11:
 179 00a8 130101FF 		addi	sp,sp,-16
 180              		.cfi_def_cfa_offset 16
 181 00ac 23348100 		sd	s0,8(sp)
 182              		.cfi_offset 8, -8
 183 00b0 13040101 		addi	s0,sp,16
 184              		.cfi_def_cfa 8, 0
  30:src/_WaitManager.cpp ****     return 1;
 185              		.loc 1 30 5
  31:src/_WaitManager.cpp **** }
 186              		.loc 1 31 1 is_stmt 0
 187 00b4 13051000 		li	a0,1
 188              	.LVL12:
 189 00b8 03348100 		ld	s0,8(sp)
 190              		.cfi_restore 8
 191              		.cfi_def_cfa 2, 16
 192 00bc 13010101 		addi	sp,sp,16
 193              		.cfi_def_cfa_offset 0
 194 00c0 67800000 		jr	ra
 195              		.cfi_endproc
 196              	.LFE46:
 198              		.align	2
 199              		.globl	_ZN12_JoinManager9join_passEv
 201              	_ZN12_JoinManager9join_passEv:
 202              	.LFB51:
  32:src/_WaitManager.cpp **** int _SleepManager::interrupt() {
  33:src/_WaitManager.cpp ****     _Sleep::remove(myThread);
  34:src/_WaitManager.cpp ****     return 1;
  35:src/_WaitManager.cpp **** }
  36:src/_WaitManager.cpp **** 
  37:src/_WaitManager.cpp **** _JoinManager::_JoinManager(thread_t my_thread, thread_t join_thread) : _WaitManager(my_thread), joi
  38:src/_WaitManager.cpp **** kmem_cache_t* _JoinManager::cache = nullptr;
  39:src/_WaitManager.cpp **** int _JoinManager::join_pass() {
 203              		.loc 1 39 31 is_stmt 1
 204              		.cfi_startproc
GAS LISTING /tmp/cc6qYxbF.s 			page 5


 205              	.LVL13:
 206 00c4 130101FF 		addi	sp,sp,-16
 207              		.cfi_def_cfa_offset 16
 208 00c8 23348100 		sd	s0,8(sp)
 209              		.cfi_offset 8, -8
 210 00cc 13040101 		addi	s0,sp,16
 211              		.cfi_def_cfa 8, 0
  40:src/_WaitManager.cpp ****     join_thread = nullptr;
 212              		.loc 1 40 5
 213              		.loc 1 40 17 is_stmt 0
 214 00d0 23380500 		sd	zero,16(a0)
  41:src/_WaitManager.cpp ****     return 1;
 215              		.loc 1 41 5 is_stmt 1
  42:src/_WaitManager.cpp **** }
 216              		.loc 1 42 1 is_stmt 0
 217 00d4 13051000 		li	a0,1
 218              	.LVL14:
 219 00d8 03348100 		ld	s0,8(sp)
 220              		.cfi_restore 8
 221              		.cfi_def_cfa 2, 16
 222 00dc 13010101 		addi	sp,sp,16
 223              		.cfi_def_cfa_offset 0
 224 00e0 67800000 		jr	ra
 225              		.cfi_endproc
 226              	.LFE51:
 228              		.align	2
 229              		.globl	_ZN14_SemANDManager8sem_passEP4_Sem
 231              	_ZN14_SemANDManager8sem_passEP4_Sem:
 232              	.LFB61:
  43:src/_WaitManager.cpp **** int _JoinManager::interrupt() {
  44:src/_WaitManager.cpp ****     join_thread->parentWaitStop();
  45:src/_WaitManager.cpp ****     join_thread = nullptr;
  46:src/_WaitManager.cpp ****     return 1;
  47:src/_WaitManager.cpp **** }
  48:src/_WaitManager.cpp **** 
  49:src/_WaitManager.cpp **** _SemORManager::_SemORManager(thread_t my_thread, sem_t sem1, sem_t sem2) : _WaitManager(my_thread),
  50:src/_WaitManager.cpp **** kmem_cache_t* _SemORManager::cache = nullptr;
  51:src/_WaitManager.cpp **** int _SemORManager::sem_pass(sem_t sem) {
  52:src/_WaitManager.cpp ****     if (sem == sem1) sem2->remove(myThread);
  53:src/_WaitManager.cpp ****     else sem1->remove(myThread);
  54:src/_WaitManager.cpp ****     sem1 = sem2 = nullptr;
  55:src/_WaitManager.cpp ****     return 1;
  56:src/_WaitManager.cpp **** }
  57:src/_WaitManager.cpp **** int _SemORManager::interrupt() {
  58:src/_WaitManager.cpp ****     if (sem1) sem1->remove(myThread);
  59:src/_WaitManager.cpp ****     if (sem2) sem2->remove(myThread);
  60:src/_WaitManager.cpp ****     sem1 = sem2 = nullptr;
  61:src/_WaitManager.cpp ****     return 1;
  62:src/_WaitManager.cpp **** }
  63:src/_WaitManager.cpp **** 
  64:src/_WaitManager.cpp **** _SemANDManager::_SemANDManager(thread_t my_thread, sem_t sem1, sem_t sem2) : _WaitManager(my_thread
  65:src/_WaitManager.cpp **** kmem_cache_t* _SemANDManager::cache = nullptr;
  66:src/_WaitManager.cpp **** int _SemANDManager::sem_pass(sem_t sem) {
 233              		.loc 1 66 41 is_stmt 1
 234              		.cfi_startproc
 235              	.LVL15:
 236 00e4 130101FF 		addi	sp,sp,-16
GAS LISTING /tmp/cc6qYxbF.s 			page 6


 237              		.cfi_def_cfa_offset 16
 238 00e8 23348100 		sd	s0,8(sp)
 239              		.cfi_offset 8, -8
 240 00ec 13040101 		addi	s0,sp,16
 241              		.cfi_def_cfa 8, 0
  67:src/_WaitManager.cpp ****     if (sem == sem1) sem1 = nullptr;
 242              		.loc 1 67 5
 243              		.loc 1 67 16 is_stmt 0
 244 00f0 83370501 		ld	a5,16(a0)
 245              		.loc 1 67 5
 246 00f4 6380B702 		beq	a5,a1,.L24
  68:src/_WaitManager.cpp ****     else sem2 = nullptr;
 247              		.loc 1 68 10 is_stmt 1
 248              		.loc 1 68 15 is_stmt 0
 249 00f8 233C0500 		sd	zero,24(a0)
 250              	.L19:
  69:src/_WaitManager.cpp ****     if (!sem1 && !sem2) return 1;
 251              		.loc 1 69 5 is_stmt 1
 252              		.loc 1 69 10 is_stmt 0
 253 00fc 83370501 		ld	a5,16(a0)
 254              		.loc 1 69 5
 255 0100 638E0700 		beqz	a5,.L25
  70:src/_WaitManager.cpp ****     else return 0;
 256              		.loc 1 70 17
 257 0104 13050000 		li	a0,0
 258              	.LVL16:
 259              	.L20:
  71:src/_WaitManager.cpp **** }
 260              		.loc 1 71 1
 261 0108 03348100 		ld	s0,8(sp)
 262              		.cfi_remember_state
 263              		.cfi_restore 8
 264              		.cfi_def_cfa 2, 16
 265 010c 13010101 		addi	sp,sp,16
 266              		.cfi_def_cfa_offset 0
 267 0110 67800000 		jr	ra
 268              	.LVL17:
 269              	.L24:
 270              		.cfi_restore_state
  67:src/_WaitManager.cpp ****     else sem2 = nullptr;
 271              		.loc 1 67 22 is_stmt 1 discriminator 1
  67:src/_WaitManager.cpp ****     else sem2 = nullptr;
 272              		.loc 1 67 27 is_stmt 0 discriminator 1
 273 0114 23380500 		sd	zero,16(a0)
 274 0118 6FF05FFE 		j	.L19
 275              	.L25:
  69:src/_WaitManager.cpp ****     else return 0;
 276              		.loc 1 69 19 discriminator 1
 277 011c 83378501 		ld	a5,24(a0)
  69:src/_WaitManager.cpp ****     else return 0;
 278              		.loc 1 69 15 discriminator 1
 279 0120 63860700 		beqz	a5,.L22
  70:src/_WaitManager.cpp **** }
 280              		.loc 1 70 17
 281 0124 13050000 		li	a0,0
 282              	.LVL18:
 283 0128 6FF01FFE 		j	.L20
GAS LISTING /tmp/cc6qYxbF.s 			page 7


 284              	.LVL19:
 285              	.L22:
  69:src/_WaitManager.cpp ****     else return 0;
 286              		.loc 1 69 32
 287 012c 13051000 		li	a0,1
 288              	.LVL20:
 289 0130 6FF09FFD 		j	.L20
 290              		.cfi_endproc
 291              	.LFE61:
 293              		.section	.text._ZN19_SemANDSleepManagerD2Ev,"axG",@progbits,_ZN19_SemANDSleepManagerD5Ev,comdat
 294              		.align	2
 295              		.weak	_ZN19_SemANDSleepManagerD2Ev
 297              	_ZN19_SemANDSleepManagerD2Ev:
 298              	.LFB88:
 299              		.file 2 "src/../h/_WaitManager.h"
   1:src/../h/_WaitManager.h **** //
   2:src/../h/_WaitManager.h **** // Created by os on 6/1/22.
   3:src/../h/_WaitManager.h **** //
   4:src/../h/_WaitManager.h **** 
   5:src/../h/_WaitManager.h **** #ifndef PROJECT_BASE__WAIT_MANAGER_H
   6:src/../h/_WaitManager.h **** #define PROJECT_BASE__WAIT_MANAGER_H
   7:src/../h/_WaitManager.h **** 
   8:src/../h/_WaitManager.h **** #include "types.h"
   9:src/../h/_WaitManager.h **** #include "_Mem.h"
  10:src/../h/_WaitManager.h **** #include "_slab.h"
  11:src/../h/_WaitManager.h **** 
  12:src/../h/_WaitManager.h **** class _WaitManager {
  13:src/../h/_WaitManager.h **** public:
  14:src/../h/_WaitManager.h ****     _WaitManager(thread_t my_thread);
  15:src/../h/_WaitManager.h ****     virtual int sem_pass(sem_t);
  16:src/../h/_WaitManager.h ****     virtual int sleep_pass();
  17:src/../h/_WaitManager.h ****     virtual int join_pass();
  18:src/../h/_WaitManager.h ****     virtual int interrupt();
  19:src/../h/_WaitManager.h ****     virtual ~_WaitManager();// = 0;
  20:src/../h/_WaitManager.h **** 
  21:src/../h/_WaitManager.h **** protected:
  22:src/../h/_WaitManager.h ****     thread_t myThread;
  23:src/../h/_WaitManager.h **** };
  24:src/../h/_WaitManager.h **** 
  25:src/../h/_WaitManager.h **** class _SemManager : public _WaitManager {
  26:src/../h/_WaitManager.h **** public:
  27:src/../h/_WaitManager.h ****     _SemManager(thread_t my_thread, sem_t sem);
  28:src/../h/_WaitManager.h ****     static kmem_cache_t* cache;
  29:src/../h/_WaitManager.h ****     void*  operator new(size_t size) {
  30:src/../h/_WaitManager.h ****         if (!cache) cache = kmem_cache_create("Sem_manager Cache", sizeof(_SemManager), nullptr, nu
  31:src/../h/_WaitManager.h ****         return kmem_cache_alloc(cache);
  32:src/../h/_WaitManager.h ****     }
  33:src/../h/_WaitManager.h ****     void operator delete(void* adr) { kmem_cache_free(cache, adr);}
  34:src/../h/_WaitManager.h ****     int sem_pass(sem_t sem) override;
  35:src/../h/_WaitManager.h ****     virtual int interrupt() override;
  36:src/../h/_WaitManager.h **** 
  37:src/../h/_WaitManager.h **** private:
  38:src/../h/_WaitManager.h ****     sem_t sem;
  39:src/../h/_WaitManager.h **** };
  40:src/../h/_WaitManager.h **** 
  41:src/../h/_WaitManager.h **** class _SleepManager : public _WaitManager {
  42:src/../h/_WaitManager.h **** public:
GAS LISTING /tmp/cc6qYxbF.s 			page 8


  43:src/../h/_WaitManager.h ****     _SleepManager(thread_t my_thread);
  44:src/../h/_WaitManager.h ****     static kmem_cache_t* cache;
  45:src/../h/_WaitManager.h ****     void*  operator new(size_t size) {
  46:src/../h/_WaitManager.h ****         if (!cache) cache = kmem_cache_create("Sleep_manager Cache", sizeof(_SleepManager), nullptr
  47:src/../h/_WaitManager.h ****         return kmem_cache_alloc(cache);
  48:src/../h/_WaitManager.h ****     }
  49:src/../h/_WaitManager.h ****     void operator delete(void* adr) { kmem_cache_free(cache, adr);}
  50:src/../h/_WaitManager.h ****     int sleep_pass() override;
  51:src/../h/_WaitManager.h ****     virtual int interrupt() override;
  52:src/../h/_WaitManager.h **** };
  53:src/../h/_WaitManager.h **** 
  54:src/../h/_WaitManager.h **** class _JoinManager : public _WaitManager {
  55:src/../h/_WaitManager.h **** public:
  56:src/../h/_WaitManager.h ****     _JoinManager(thread_t my_thread, thread_t join_thread);
  57:src/../h/_WaitManager.h ****     static kmem_cache_t* cache;
  58:src/../h/_WaitManager.h ****     void*  operator new(size_t size) {
  59:src/../h/_WaitManager.h ****         if (!cache) cache = kmem_cache_create("Join_manager Cache", sizeof(_JoinManager), nullptr, 
  60:src/../h/_WaitManager.h ****         return kmem_cache_alloc(cache);
  61:src/../h/_WaitManager.h ****     }
  62:src/../h/_WaitManager.h ****     void operator delete(void* adr) { kmem_cache_free(cache, adr);}
  63:src/../h/_WaitManager.h **** 
  64:src/../h/_WaitManager.h ****     int join_pass() override;
  65:src/../h/_WaitManager.h ****     virtual int interrupt() override;
  66:src/../h/_WaitManager.h **** 
  67:src/../h/_WaitManager.h **** private:
  68:src/../h/_WaitManager.h ****     thread_t join_thread;
  69:src/../h/_WaitManager.h **** };
  70:src/../h/_WaitManager.h **** 
  71:src/../h/_WaitManager.h **** class _SemORManager : public _WaitManager {
  72:src/../h/_WaitManager.h **** public:
  73:src/../h/_WaitManager.h ****     _SemORManager(thread_t my_thread, sem_t sem1, sem_t sem2);
  74:src/../h/_WaitManager.h ****     static kmem_cache_t* cache;
  75:src/../h/_WaitManager.h ****     void*  operator new(size_t size) {
  76:src/../h/_WaitManager.h ****         if (!cache) cache = kmem_cache_create("SemOR_manager Cache", sizeof(_SemORManager), nullptr
  77:src/../h/_WaitManager.h ****         return kmem_cache_alloc(cache);
  78:src/../h/_WaitManager.h ****     }
  79:src/../h/_WaitManager.h ****     void operator delete(void* adr) { kmem_cache_free(cache, adr);}
  80:src/../h/_WaitManager.h **** 
  81:src/../h/_WaitManager.h ****     int sem_pass(sem_t sem) override;
  82:src/../h/_WaitManager.h ****     virtual int interrupt() override;
  83:src/../h/_WaitManager.h **** 
  84:src/../h/_WaitManager.h **** private:
  85:src/../h/_WaitManager.h ****     sem_t sem1, sem2;
  86:src/../h/_WaitManager.h **** };
  87:src/../h/_WaitManager.h **** 
  88:src/../h/_WaitManager.h **** class _SemANDManager : public _WaitManager {
  89:src/../h/_WaitManager.h **** public:
  90:src/../h/_WaitManager.h ****     _SemANDManager(thread_t my_thread, sem_t sem1, sem_t sem2);
  91:src/../h/_WaitManager.h ****     static kmem_cache_t* cache;
  92:src/../h/_WaitManager.h ****     void*  operator new(size_t size) {
  93:src/../h/_WaitManager.h ****         if (!cache) cache = kmem_cache_create("SemAND_manager Cache", sizeof(_SemANDManager), nullp
  94:src/../h/_WaitManager.h ****         return kmem_cache_alloc(cache);
  95:src/../h/_WaitManager.h ****     }
  96:src/../h/_WaitManager.h ****     void operator delete(void* adr) { kmem_cache_free(cache, adr);}
  97:src/../h/_WaitManager.h **** 
  98:src/../h/_WaitManager.h ****     int sem_pass(sem_t sem) override;
  99:src/../h/_WaitManager.h ****     virtual int interrupt() override;
GAS LISTING /tmp/cc6qYxbF.s 			page 9


 100:src/../h/_WaitManager.h **** 
 101:src/../h/_WaitManager.h **** private:
 102:src/../h/_WaitManager.h ****     sem_t sem1, sem2;
 103:src/../h/_WaitManager.h **** };
 104:src/../h/_WaitManager.h **** 
 105:src/../h/_WaitManager.h **** class _SemSleepManager : public _WaitManager {
 106:src/../h/_WaitManager.h **** public:
 107:src/../h/_WaitManager.h ****     _SemSleepManager(thread_t my_thread, sem_t sem);
 108:src/../h/_WaitManager.h ****     static kmem_cache_t* cache;
 109:src/../h/_WaitManager.h ****     void*  operator new(size_t size) {
 110:src/../h/_WaitManager.h ****         if (!cache) cache = kmem_cache_create("SemSleep_manager Cache", sizeof(_SemSleepManager), n
 111:src/../h/_WaitManager.h ****         return kmem_cache_alloc(cache);
 112:src/../h/_WaitManager.h ****     }
 113:src/../h/_WaitManager.h ****     void operator delete(void* adr) { kmem_cache_free(cache, adr);}
 114:src/../h/_WaitManager.h **** 
 115:src/../h/_WaitManager.h ****     int sem_pass(sem_t sem) override;
 116:src/../h/_WaitManager.h ****     int sleep_pass() override;
 117:src/../h/_WaitManager.h ****     virtual int interrupt() override;
 118:src/../h/_WaitManager.h **** 
 119:src/../h/_WaitManager.h **** private:
 120:src/../h/_WaitManager.h ****     sem_t sem;
 121:src/../h/_WaitManager.h **** };
 122:src/../h/_WaitManager.h **** 
 123:src/../h/_WaitManager.h **** class _JoinSleepManager : public _WaitManager {
 124:src/../h/_WaitManager.h **** public:
 125:src/../h/_WaitManager.h ****     _JoinSleepManager(thread_t my_thread, thread_t join_thread);
 126:src/../h/_WaitManager.h ****     static kmem_cache_t* cache;
 127:src/../h/_WaitManager.h ****     void*  operator new(size_t size) {
 128:src/../h/_WaitManager.h ****         if (!cache) cache = kmem_cache_create("JoinSleep_manager Cache", sizeof(_JoinSleepManager),
 129:src/../h/_WaitManager.h ****         return kmem_cache_alloc(cache);
 130:src/../h/_WaitManager.h ****     }
 131:src/../h/_WaitManager.h ****     void operator delete(void* adr) { kmem_cache_free(cache, adr);}
 132:src/../h/_WaitManager.h **** 
 133:src/../h/_WaitManager.h ****     int join_pass() override;
 134:src/../h/_WaitManager.h ****     int sleep_pass() override;
 135:src/../h/_WaitManager.h ****     virtual int interrupt() override;
 136:src/../h/_WaitManager.h **** 
 137:src/../h/_WaitManager.h **** private:
 138:src/../h/_WaitManager.h ****     thread_t join_thread = join_thread;
 139:src/../h/_WaitManager.h **** };
 140:src/../h/_WaitManager.h **** 
 141:src/../h/_WaitManager.h **** class _SemORSleepManager : public _WaitManager {
 142:src/../h/_WaitManager.h **** public:
 143:src/../h/_WaitManager.h ****     _SemORSleepManager(thread_t my_thread, sem_t sem1, sem_t sem2);
 144:src/../h/_WaitManager.h ****     static kmem_cache_t* cache;
 145:src/../h/_WaitManager.h ****     void*  operator new(size_t size) {
 146:src/../h/_WaitManager.h ****         if (!cache) cache = kmem_cache_create("SemORSleep_manager Cache", sizeof(_SemORSleepManager
 147:src/../h/_WaitManager.h ****         return kmem_cache_alloc(cache);
 148:src/../h/_WaitManager.h ****     }
 149:src/../h/_WaitManager.h ****     void operator delete(void* adr) { kmem_cache_free(cache, adr);}
 150:src/../h/_WaitManager.h **** 
 151:src/../h/_WaitManager.h ****     int sem_pass(sem_t sem) override;
 152:src/../h/_WaitManager.h ****     int sleep_pass() override;
 153:src/../h/_WaitManager.h ****     virtual int interrupt() override;
 154:src/../h/_WaitManager.h **** 
 155:src/../h/_WaitManager.h **** private:
 156:src/../h/_WaitManager.h ****     sem_t sem1, sem2;
GAS LISTING /tmp/cc6qYxbF.s 			page 10


 157:src/../h/_WaitManager.h **** };
 158:src/../h/_WaitManager.h **** 
 159:src/../h/_WaitManager.h **** class _SemANDSleepManager : public _WaitManager {
 300              		.loc 2 159 7 is_stmt 1
 301              		.cfi_startproc
 302              	.LVL21:
 303 0000 130101FF 		addi	sp,sp,-16
 304              		.cfi_def_cfa_offset 16
 305 0004 23348100 		sd	s0,8(sp)
 306              		.cfi_offset 8, -8
 307 0008 13040101 		addi	s0,sp,16
 308              		.cfi_def_cfa 8, 0
 309              	.LBB47:
 310              		.loc 2 159 7 is_stmt 0
 311 000c 97070000 		lla	a5,_ZTV19_SemANDSleepManager+16
 311      93870700 
 312 0014 2330F500 		sd	a5,0(a0)
 313              	.LBE47:
 314 0018 03348100 		ld	s0,8(sp)
 315              		.cfi_restore 8
 316              		.cfi_def_cfa 2, 16
 317 001c 13010101 		addi	sp,sp,16
 318              		.cfi_def_cfa_offset 0
 319 0020 67800000 		jr	ra
 320              		.cfi_endproc
 321              	.LFE88:
 323              		.weak	_ZN19_SemANDSleepManagerD1Ev
 324              		.set	_ZN19_SemANDSleepManagerD1Ev,_ZN19_SemANDSleepManagerD2Ev
 325              		.section	.text._ZN18_SemORSleepManagerD2Ev,"axG",@progbits,_ZN18_SemORSleepManagerD5Ev,comdat
 326              		.align	2
 327              		.weak	_ZN18_SemORSleepManagerD2Ev
 329              	_ZN18_SemORSleepManagerD2Ev:
 330              	.LFB92:
 141:src/../h/_WaitManager.h **** public:
 331              		.loc 2 141 7 is_stmt 1
 332              		.cfi_startproc
 333              	.LVL22:
 334 0000 130101FF 		addi	sp,sp,-16
 335              		.cfi_def_cfa_offset 16
 336 0004 23348100 		sd	s0,8(sp)
 337              		.cfi_offset 8, -8
 338 0008 13040101 		addi	s0,sp,16
 339              		.cfi_def_cfa 8, 0
 340              	.LBB48:
 141:src/../h/_WaitManager.h **** public:
 341              		.loc 2 141 7 is_stmt 0
 342 000c 97070000 		lla	a5,_ZTV18_SemORSleepManager+16
 342      93870700 
 343 0014 2330F500 		sd	a5,0(a0)
 344              	.LBE48:
 345 0018 03348100 		ld	s0,8(sp)
 346              		.cfi_restore 8
 347              		.cfi_def_cfa 2, 16
 348 001c 13010101 		addi	sp,sp,16
 349              		.cfi_def_cfa_offset 0
 350 0020 67800000 		jr	ra
 351              		.cfi_endproc
GAS LISTING /tmp/cc6qYxbF.s 			page 11


 352              	.LFE92:
 354              		.weak	_ZN18_SemORSleepManagerD1Ev
 355              		.set	_ZN18_SemORSleepManagerD1Ev,_ZN18_SemORSleepManagerD2Ev
 356              		.section	.text._ZN17_JoinSleepManagerD2Ev,"axG",@progbits,_ZN17_JoinSleepManagerD5Ev,comdat
 357              		.align	2
 358              		.weak	_ZN17_JoinSleepManagerD2Ev
 360              	_ZN17_JoinSleepManagerD2Ev:
 361              	.LFB96:
 123:src/../h/_WaitManager.h **** public:
 362              		.loc 2 123 7 is_stmt 1
 363              		.cfi_startproc
 364              	.LVL23:
 365 0000 130101FF 		addi	sp,sp,-16
 366              		.cfi_def_cfa_offset 16
 367 0004 23348100 		sd	s0,8(sp)
 368              		.cfi_offset 8, -8
 369 0008 13040101 		addi	s0,sp,16
 370              		.cfi_def_cfa 8, 0
 371              	.LBB49:
 123:src/../h/_WaitManager.h **** public:
 372              		.loc 2 123 7 is_stmt 0
 373 000c 97070000 		lla	a5,_ZTV17_JoinSleepManager+16
 373      93870700 
 374 0014 2330F500 		sd	a5,0(a0)
 375              	.LBE49:
 376 0018 03348100 		ld	s0,8(sp)
 377              		.cfi_restore 8
 378              		.cfi_def_cfa 2, 16
 379 001c 13010101 		addi	sp,sp,16
 380              		.cfi_def_cfa_offset 0
 381 0020 67800000 		jr	ra
 382              		.cfi_endproc
 383              	.LFE96:
 385              		.weak	_ZN17_JoinSleepManagerD1Ev
 386              		.set	_ZN17_JoinSleepManagerD1Ev,_ZN17_JoinSleepManagerD2Ev
 387              		.section	.text._ZN16_SemSleepManagerD2Ev,"axG",@progbits,_ZN16_SemSleepManagerD5Ev,comdat
 388              		.align	2
 389              		.weak	_ZN16_SemSleepManagerD2Ev
 391              	_ZN16_SemSleepManagerD2Ev:
 392              	.LFB100:
 105:src/../h/_WaitManager.h **** public:
 393              		.loc 2 105 7 is_stmt 1
 394              		.cfi_startproc
 395              	.LVL24:
 396 0000 130101FF 		addi	sp,sp,-16
 397              		.cfi_def_cfa_offset 16
 398 0004 23348100 		sd	s0,8(sp)
 399              		.cfi_offset 8, -8
 400 0008 13040101 		addi	s0,sp,16
 401              		.cfi_def_cfa 8, 0
 402              	.LBB50:
 105:src/../h/_WaitManager.h **** public:
 403              		.loc 2 105 7 is_stmt 0
 404 000c 97070000 		lla	a5,_ZTV16_SemSleepManager+16
 404      93870700 
 405 0014 2330F500 		sd	a5,0(a0)
 406              	.LBE50:
GAS LISTING /tmp/cc6qYxbF.s 			page 12


 407 0018 03348100 		ld	s0,8(sp)
 408              		.cfi_restore 8
 409              		.cfi_def_cfa 2, 16
 410 001c 13010101 		addi	sp,sp,16
 411              		.cfi_def_cfa_offset 0
 412 0020 67800000 		jr	ra
 413              		.cfi_endproc
 414              	.LFE100:
 416              		.weak	_ZN16_SemSleepManagerD1Ev
 417              		.set	_ZN16_SemSleepManagerD1Ev,_ZN16_SemSleepManagerD2Ev
 418              		.section	.text._ZN14_SemANDManagerD2Ev,"axG",@progbits,_ZN14_SemANDManagerD5Ev,comdat
 419              		.align	2
 420              		.weak	_ZN14_SemANDManagerD2Ev
 422              	_ZN14_SemANDManagerD2Ev:
 423              	.LFB104:
  88:src/../h/_WaitManager.h **** public:
 424              		.loc 2 88 7 is_stmt 1
 425              		.cfi_startproc
 426              	.LVL25:
 427 0000 130101FF 		addi	sp,sp,-16
 428              		.cfi_def_cfa_offset 16
 429 0004 23348100 		sd	s0,8(sp)
 430              		.cfi_offset 8, -8
 431 0008 13040101 		addi	s0,sp,16
 432              		.cfi_def_cfa 8, 0
 433              	.LBB51:
  88:src/../h/_WaitManager.h **** public:
 434              		.loc 2 88 7 is_stmt 0
 435 000c 97070000 		lla	a5,_ZTV14_SemANDManager+16
 435      93870700 
 436 0014 2330F500 		sd	a5,0(a0)
 437              	.LBE51:
 438 0018 03348100 		ld	s0,8(sp)
 439              		.cfi_restore 8
 440              		.cfi_def_cfa 2, 16
 441 001c 13010101 		addi	sp,sp,16
 442              		.cfi_def_cfa_offset 0
 443 0020 67800000 		jr	ra
 444              		.cfi_endproc
 445              	.LFE104:
 447              		.weak	_ZN14_SemANDManagerD1Ev
 448              		.set	_ZN14_SemANDManagerD1Ev,_ZN14_SemANDManagerD2Ev
 449              		.section	.text._ZN13_SemORManagerD2Ev,"axG",@progbits,_ZN13_SemORManagerD5Ev,comdat
 450              		.align	2
 451              		.weak	_ZN13_SemORManagerD2Ev
 453              	_ZN13_SemORManagerD2Ev:
 454              	.LFB108:
  71:src/../h/_WaitManager.h **** public:
 455              		.loc 2 71 7 is_stmt 1
 456              		.cfi_startproc
 457              	.LVL26:
 458 0000 130101FF 		addi	sp,sp,-16
 459              		.cfi_def_cfa_offset 16
 460 0004 23348100 		sd	s0,8(sp)
 461              		.cfi_offset 8, -8
 462 0008 13040101 		addi	s0,sp,16
 463              		.cfi_def_cfa 8, 0
GAS LISTING /tmp/cc6qYxbF.s 			page 13


 464              	.LBB52:
  71:src/../h/_WaitManager.h **** public:
 465              		.loc 2 71 7 is_stmt 0
 466 000c 97070000 		lla	a5,_ZTV13_SemORManager+16
 466      93870700 
 467 0014 2330F500 		sd	a5,0(a0)
 468              	.LBE52:
 469 0018 03348100 		ld	s0,8(sp)
 470              		.cfi_restore 8
 471              		.cfi_def_cfa 2, 16
 472 001c 13010101 		addi	sp,sp,16
 473              		.cfi_def_cfa_offset 0
 474 0020 67800000 		jr	ra
 475              		.cfi_endproc
 476              	.LFE108:
 478              		.weak	_ZN13_SemORManagerD1Ev
 479              		.set	_ZN13_SemORManagerD1Ev,_ZN13_SemORManagerD2Ev
 480              		.section	.text._ZN12_JoinManagerD2Ev,"axG",@progbits,_ZN12_JoinManagerD5Ev,comdat
 481              		.align	2
 482              		.weak	_ZN12_JoinManagerD2Ev
 484              	_ZN12_JoinManagerD2Ev:
 485              	.LFB112:
  54:src/../h/_WaitManager.h **** public:
 486              		.loc 2 54 7 is_stmt 1
 487              		.cfi_startproc
 488              	.LVL27:
 489 0000 130101FF 		addi	sp,sp,-16
 490              		.cfi_def_cfa_offset 16
 491 0004 23348100 		sd	s0,8(sp)
 492              		.cfi_offset 8, -8
 493 0008 13040101 		addi	s0,sp,16
 494              		.cfi_def_cfa 8, 0
 495              	.LBB53:
  54:src/../h/_WaitManager.h **** public:
 496              		.loc 2 54 7 is_stmt 0
 497 000c 97070000 		lla	a5,_ZTV12_JoinManager+16
 497      93870700 
 498 0014 2330F500 		sd	a5,0(a0)
 499              	.LBE53:
 500 0018 03348100 		ld	s0,8(sp)
 501              		.cfi_restore 8
 502              		.cfi_def_cfa 2, 16
 503 001c 13010101 		addi	sp,sp,16
 504              		.cfi_def_cfa_offset 0
 505 0020 67800000 		jr	ra
 506              		.cfi_endproc
 507              	.LFE112:
 509              		.weak	_ZN12_JoinManagerD1Ev
 510              		.set	_ZN12_JoinManagerD1Ev,_ZN12_JoinManagerD2Ev
 511              		.section	.text._ZN13_SleepManagerD2Ev,"axG",@progbits,_ZN13_SleepManagerD5Ev,comdat
 512              		.align	2
 513              		.weak	_ZN13_SleepManagerD2Ev
 515              	_ZN13_SleepManagerD2Ev:
 516              	.LFB116:
  41:src/../h/_WaitManager.h **** public:
 517              		.loc 2 41 7 is_stmt 1
 518              		.cfi_startproc
GAS LISTING /tmp/cc6qYxbF.s 			page 14


 519              	.LVL28:
 520 0000 130101FF 		addi	sp,sp,-16
 521              		.cfi_def_cfa_offset 16
 522 0004 23348100 		sd	s0,8(sp)
 523              		.cfi_offset 8, -8
 524 0008 13040101 		addi	s0,sp,16
 525              		.cfi_def_cfa 8, 0
 526              	.LBB54:
  41:src/../h/_WaitManager.h **** public:
 527              		.loc 2 41 7 is_stmt 0
 528 000c 97070000 		lla	a5,_ZTV13_SleepManager+16
 528      93870700 
 529 0014 2330F500 		sd	a5,0(a0)
 530              	.LBE54:
 531 0018 03348100 		ld	s0,8(sp)
 532              		.cfi_restore 8
 533              		.cfi_def_cfa 2, 16
 534 001c 13010101 		addi	sp,sp,16
 535              		.cfi_def_cfa_offset 0
 536 0020 67800000 		jr	ra
 537              		.cfi_endproc
 538              	.LFE116:
 540              		.weak	_ZN13_SleepManagerD1Ev
 541              		.set	_ZN13_SleepManagerD1Ev,_ZN13_SleepManagerD2Ev
 542              		.section	.text._ZN11_SemManagerD2Ev,"axG",@progbits,_ZN11_SemManagerD5Ev,comdat
 543              		.align	2
 544              		.weak	_ZN11_SemManagerD2Ev
 546              	_ZN11_SemManagerD2Ev:
 547              	.LFB120:
  25:src/../h/_WaitManager.h **** public:
 548              		.loc 2 25 7 is_stmt 1
 549              		.cfi_startproc
 550              	.LVL29:
 551 0000 130101FF 		addi	sp,sp,-16
 552              		.cfi_def_cfa_offset 16
 553 0004 23348100 		sd	s0,8(sp)
 554              		.cfi_offset 8, -8
 555 0008 13040101 		addi	s0,sp,16
 556              		.cfi_def_cfa 8, 0
 557              	.LBB55:
  25:src/../h/_WaitManager.h **** public:
 558              		.loc 2 25 7 is_stmt 0
 559 000c 97070000 		lla	a5,_ZTV11_SemManager+16
 559      93870700 
 560 0014 2330F500 		sd	a5,0(a0)
 561              	.LBE55:
 562 0018 03348100 		ld	s0,8(sp)
 563              		.cfi_restore 8
 564              		.cfi_def_cfa 2, 16
 565 001c 13010101 		addi	sp,sp,16
 566              		.cfi_def_cfa_offset 0
 567 0020 67800000 		jr	ra
 568              		.cfi_endproc
 569              	.LFE120:
 571              		.weak	_ZN11_SemManagerD1Ev
 572              		.set	_ZN11_SemManagerD1Ev,_ZN11_SemManagerD2Ev
 573              		.text
GAS LISTING /tmp/cc6qYxbF.s 			page 15


 574              		.align	2
 575              		.globl	_ZN12_WaitManagerD0Ev
 577              	_ZN12_WaitManagerD0Ev:
 578              	.LFB37:
  13:src/_WaitManager.cpp **** 
 579              		.loc 1 13 1 is_stmt 1
 580              		.cfi_startproc
 581              	.LVL30:
 582 0134 130101FF 		addi	sp,sp,-16
 583              		.cfi_def_cfa_offset 16
 584 0138 23341100 		sd	ra,8(sp)
 585 013c 23308100 		sd	s0,0(sp)
 586              		.cfi_offset 1, -8
 587              		.cfi_offset 8, -16
 588 0140 13040101 		addi	s0,sp,16
 589              		.cfi_def_cfa 8, 0
  13:src/_WaitManager.cpp **** 
 590              		.loc 1 13 32 is_stmt 0
 591 0144 97000000 		call	_ZdlPv@plt
 591      E7800000 
 592              	.LVL31:
 593 014c 83308100 		ld	ra,8(sp)
 594              		.cfi_restore 1
 595 0150 03340100 		ld	s0,0(sp)
 596              		.cfi_restore 8
 597              		.cfi_def_cfa 2, 16
 598 0154 13010101 		addi	sp,sp,16
 599              		.cfi_def_cfa_offset 0
 600 0158 67800000 		jr	ra
 601              		.cfi_endproc
 602              	.LFE37:
 604              		.align	2
 605              		.globl	_ZN11_SemManager9interruptEv
 607              	_ZN11_SemManager9interruptEv:
 608              	.LFB42:
  21:src/_WaitManager.cpp ****     sem->remove(myThread);
 609              		.loc 1 21 30 is_stmt 1
 610              		.cfi_startproc
 611              	.LVL32:
 612 015c 130101FE 		addi	sp,sp,-32
 613              		.cfi_def_cfa_offset 32
 614 0160 233C1100 		sd	ra,24(sp)
 615 0164 23388100 		sd	s0,16(sp)
 616 0168 23349100 		sd	s1,8(sp)
 617              		.cfi_offset 1, -8
 618              		.cfi_offset 8, -16
 619              		.cfi_offset 9, -24
 620 016c 13040102 		addi	s0,sp,32
 621              		.cfi_def_cfa 8, 0
 622 0170 93040500 		mv	s1,a0
  22:src/_WaitManager.cpp ****     sem = nullptr;
 623              		.loc 1 22 5
  22:src/_WaitManager.cpp ****     sem = nullptr;
 624              		.loc 1 22 16 is_stmt 0
 625 0174 83358500 		ld	a1,8(a0)
 626 0178 03350501 		ld	a0,16(a0)
 627              	.LVL33:
GAS LISTING /tmp/cc6qYxbF.s 			page 16


 628 017c 97000000 		call	_ZN4_Sem6removeEP7_Thread@plt
 628      E7800000 
 629              	.LVL34:
  23:src/_WaitManager.cpp ****     return 1;
 630              		.loc 1 23 5 is_stmt 1
  23:src/_WaitManager.cpp ****     return 1;
 631              		.loc 1 23 9 is_stmt 0
 632 0184 23B80400 		sd	zero,16(s1)
  24:src/_WaitManager.cpp **** }
 633              		.loc 1 24 5 is_stmt 1
  25:src/_WaitManager.cpp **** 
 634              		.loc 1 25 1 is_stmt 0
 635 0188 13051000 		li	a0,1
 636 018c 83308101 		ld	ra,24(sp)
 637              		.cfi_restore 1
 638 0190 03340101 		ld	s0,16(sp)
 639              		.cfi_restore 8
 640              		.cfi_def_cfa 2, 32
 641 0194 83348100 		ld	s1,8(sp)
 642              		.cfi_restore 9
 643              	.LVL35:
 644 0198 13010102 		addi	sp,sp,32
 645              		.cfi_def_cfa_offset 0
 646 019c 67800000 		jr	ra
 647              		.cfi_endproc
 648              	.LFE42:
 650              		.align	2
 651              		.globl	_ZN13_SemORManager8sem_passEP4_Sem
 653              	_ZN13_SemORManager8sem_passEP4_Sem:
 654              	.LFB56:
  51:src/_WaitManager.cpp ****     if (sem == sem1) sem2->remove(myThread);
 655              		.loc 1 51 40 is_stmt 1
 656              		.cfi_startproc
 657              	.LVL36:
 658 01a0 130101FE 		addi	sp,sp,-32
 659              		.cfi_def_cfa_offset 32
 660 01a4 233C1100 		sd	ra,24(sp)
 661 01a8 23388100 		sd	s0,16(sp)
 662 01ac 23349100 		sd	s1,8(sp)
 663              		.cfi_offset 1, -8
 664              		.cfi_offset 8, -16
 665              		.cfi_offset 9, -24
 666 01b0 13040102 		addi	s0,sp,32
 667              		.cfi_def_cfa 8, 0
 668 01b4 93040500 		mv	s1,a0
  52:src/_WaitManager.cpp ****     else sem1->remove(myThread);
 669              		.loc 1 52 5
  52:src/_WaitManager.cpp ****     else sem1->remove(myThread);
 670              		.loc 1 52 16 is_stmt 0
 671 01b8 03350501 		ld	a0,16(a0)
 672              	.LVL37:
  52:src/_WaitManager.cpp ****     else sem1->remove(myThread);
 673              		.loc 1 52 5
 674 01bc 6308B502 		beq	a0,a1,.L52
  53:src/_WaitManager.cpp ****     sem1 = sem2 = nullptr;
 675              		.loc 1 53 10 is_stmt 1
  53:src/_WaitManager.cpp ****     sem1 = sem2 = nullptr;
GAS LISTING /tmp/cc6qYxbF.s 			page 17


 676              		.loc 1 53 22 is_stmt 0
 677 01c0 83B58400 		ld	a1,8(s1)
 678              	.LVL38:
 679 01c4 97000000 		call	_ZN4_Sem6removeEP7_Thread@plt
 679      E7800000 
 680              	.LVL39:
 681              	.L50:
  54:src/_WaitManager.cpp ****     return 1;
 682              		.loc 1 54 5 is_stmt 1
  54:src/_WaitManager.cpp ****     return 1;
 683              		.loc 1 54 17 is_stmt 0
 684 01cc 23BC0400 		sd	zero,24(s1)
  54:src/_WaitManager.cpp ****     return 1;
 685              		.loc 1 54 10
 686 01d0 23B80400 		sd	zero,16(s1)
  55:src/_WaitManager.cpp **** }
 687              		.loc 1 55 5 is_stmt 1
  56:src/_WaitManager.cpp **** int _SemORManager::interrupt() {
 688              		.loc 1 56 1 is_stmt 0
 689 01d4 13051000 		li	a0,1
 690 01d8 83308101 		ld	ra,24(sp)
 691              		.cfi_remember_state
 692              		.cfi_restore 1
 693 01dc 03340101 		ld	s0,16(sp)
 694              		.cfi_restore 8
 695              		.cfi_def_cfa 2, 32
 696 01e0 83348100 		ld	s1,8(sp)
 697              		.cfi_restore 9
 698              	.LVL40:
 699 01e4 13010102 		addi	sp,sp,32
 700              		.cfi_def_cfa_offset 0
 701 01e8 67800000 		jr	ra
 702              	.LVL41:
 703              	.L52:
 704              		.cfi_restore_state
  52:src/_WaitManager.cpp ****     else sem1->remove(myThread);
 705              		.loc 1 52 22 is_stmt 1 discriminator 1
  52:src/_WaitManager.cpp ****     else sem1->remove(myThread);
 706              		.loc 1 52 34 is_stmt 0 discriminator 1
 707 01ec 83B58400 		ld	a1,8(s1)
 708              	.LVL42:
 709 01f0 03B58401 		ld	a0,24(s1)
 710 01f4 97000000 		call	_ZN4_Sem6removeEP7_Thread@plt
 710      E7800000 
 711              	.LVL43:
 712 01fc 6FF01FFD 		j	.L50
 713              		.cfi_endproc
 714              	.LFE56:
 716              		.align	2
 717              		.globl	_ZN13_SemORManager9interruptEv
 719              	_ZN13_SemORManager9interruptEv:
 720              	.LFB57:
  57:src/_WaitManager.cpp ****     if (sem1) sem1->remove(myThread);
 721              		.loc 1 57 32 is_stmt 1
 722              		.cfi_startproc
 723              	.LVL44:
 724 0200 130101FE 		addi	sp,sp,-32
GAS LISTING /tmp/cc6qYxbF.s 			page 18


 725              		.cfi_def_cfa_offset 32
 726 0204 233C1100 		sd	ra,24(sp)
 727 0208 23388100 		sd	s0,16(sp)
 728 020c 23349100 		sd	s1,8(sp)
 729              		.cfi_offset 1, -8
 730              		.cfi_offset 8, -16
 731              		.cfi_offset 9, -24
 732 0210 13040102 		addi	s0,sp,32
 733              		.cfi_def_cfa 8, 0
 734 0214 93040500 		mv	s1,a0
  58:src/_WaitManager.cpp ****     if (sem2) sem2->remove(myThread);
 735              		.loc 1 58 5
  58:src/_WaitManager.cpp ****     if (sem2) sem2->remove(myThread);
 736              		.loc 1 58 9 is_stmt 0
 737 0218 03350501 		ld	a0,16(a0)
 738              	.LVL45:
  58:src/_WaitManager.cpp ****     if (sem2) sem2->remove(myThread);
 739              		.loc 1 58 5
 740 021c 63080500 		beqz	a0,.L54
  58:src/_WaitManager.cpp ****     if (sem2) sem2->remove(myThread);
 741              		.loc 1 58 15 is_stmt 1 discriminator 1
  58:src/_WaitManager.cpp ****     if (sem2) sem2->remove(myThread);
 742              		.loc 1 58 27 is_stmt 0 discriminator 1
 743 0220 83B58400 		ld	a1,8(s1)
 744 0224 97000000 		call	_ZN4_Sem6removeEP7_Thread@plt
 744      E7800000 
 745              	.LVL46:
 746              	.L54:
  59:src/_WaitManager.cpp ****     sem1 = sem2 = nullptr;
 747              		.loc 1 59 5 is_stmt 1
  59:src/_WaitManager.cpp ****     sem1 = sem2 = nullptr;
 748              		.loc 1 59 9 is_stmt 0
 749 022c 03B58401 		ld	a0,24(s1)
  59:src/_WaitManager.cpp ****     sem1 = sem2 = nullptr;
 750              		.loc 1 59 5
 751 0230 63080500 		beqz	a0,.L55
  59:src/_WaitManager.cpp ****     sem1 = sem2 = nullptr;
 752              		.loc 1 59 15 is_stmt 1 discriminator 1
  59:src/_WaitManager.cpp ****     sem1 = sem2 = nullptr;
 753              		.loc 1 59 27 is_stmt 0 discriminator 1
 754 0234 83B58400 		ld	a1,8(s1)
 755 0238 97000000 		call	_ZN4_Sem6removeEP7_Thread@plt
 755      E7800000 
 756              	.LVL47:
 757              	.L55:
  60:src/_WaitManager.cpp ****     return 1;
 758              		.loc 1 60 5 is_stmt 1
  60:src/_WaitManager.cpp ****     return 1;
 759              		.loc 1 60 17 is_stmt 0
 760 0240 23BC0400 		sd	zero,24(s1)
  60:src/_WaitManager.cpp ****     return 1;
 761              		.loc 1 60 10
 762 0244 23B80400 		sd	zero,16(s1)
  61:src/_WaitManager.cpp **** }
 763              		.loc 1 61 5 is_stmt 1
  62:src/_WaitManager.cpp **** 
 764              		.loc 1 62 1 is_stmt 0
GAS LISTING /tmp/cc6qYxbF.s 			page 19


 765 0248 13051000 		li	a0,1
 766 024c 83308101 		ld	ra,24(sp)
 767              		.cfi_restore 1
 768 0250 03340101 		ld	s0,16(sp)
 769              		.cfi_restore 8
 770              		.cfi_def_cfa 2, 32
 771 0254 83348100 		ld	s1,8(sp)
 772              		.cfi_restore 9
 773              	.LVL48:
 774 0258 13010102 		addi	sp,sp,32
 775              		.cfi_def_cfa_offset 0
 776 025c 67800000 		jr	ra
 777              		.cfi_endproc
 778              	.LFE57:
 780              		.align	2
 781              		.globl	_ZN14_SemANDManager9interruptEv
 783              	_ZN14_SemANDManager9interruptEv:
 784              	.LFB62:
  72:src/_WaitManager.cpp **** int _SemANDManager::interrupt() {
 785              		.loc 1 72 33 is_stmt 1
 786              		.cfi_startproc
 787              	.LVL49:
 788 0260 130101FE 		addi	sp,sp,-32
 789              		.cfi_def_cfa_offset 32
 790 0264 233C1100 		sd	ra,24(sp)
 791 0268 23388100 		sd	s0,16(sp)
 792 026c 23349100 		sd	s1,8(sp)
 793              		.cfi_offset 1, -8
 794              		.cfi_offset 8, -16
 795              		.cfi_offset 9, -24
 796 0270 13040102 		addi	s0,sp,32
 797              		.cfi_def_cfa 8, 0
 798 0274 93040500 		mv	s1,a0
  73:src/_WaitManager.cpp ****     if (sem1) sem1->remove(myThread);
 799              		.loc 1 73 5
 800              		.loc 1 73 9 is_stmt 0
 801 0278 03350501 		ld	a0,16(a0)
 802              	.LVL50:
 803              		.loc 1 73 5
 804 027c 63080500 		beqz	a0,.L58
 805              		.loc 1 73 15 is_stmt 1 discriminator 1
 806              		.loc 1 73 27 is_stmt 0 discriminator 1
 807 0280 83B58400 		ld	a1,8(s1)
 808 0284 97000000 		call	_ZN4_Sem6removeEP7_Thread@plt
 808      E7800000 
 809              	.LVL51:
 810              	.L58:
  74:src/_WaitManager.cpp ****     if (sem2) sem2->remove(myThread);
 811              		.loc 1 74 5 is_stmt 1
 812              		.loc 1 74 9 is_stmt 0
 813 028c 03B58401 		ld	a0,24(s1)
 814              		.loc 1 74 5
 815 0290 63080500 		beqz	a0,.L59
 816              		.loc 1 74 15 is_stmt 1 discriminator 1
 817              		.loc 1 74 27 is_stmt 0 discriminator 1
 818 0294 83B58400 		ld	a1,8(s1)
 819 0298 97000000 		call	_ZN4_Sem6removeEP7_Thread@plt
GAS LISTING /tmp/cc6qYxbF.s 			page 20


 819      E7800000 
 820              	.LVL52:
 821              	.L59:
  75:src/_WaitManager.cpp ****     sem1 = sem2 = nullptr;
 822              		.loc 1 75 5 is_stmt 1
 823              		.loc 1 75 17 is_stmt 0
 824 02a0 23BC0400 		sd	zero,24(s1)
 825              		.loc 1 75 10
 826 02a4 23B80400 		sd	zero,16(s1)
  76:src/_WaitManager.cpp ****     return 1;
 827              		.loc 1 76 5 is_stmt 1
  77:src/_WaitManager.cpp **** }
 828              		.loc 1 77 1 is_stmt 0
 829 02a8 13051000 		li	a0,1
 830 02ac 83308101 		ld	ra,24(sp)
 831              		.cfi_restore 1
 832 02b0 03340101 		ld	s0,16(sp)
 833              		.cfi_restore 8
 834              		.cfi_def_cfa 2, 32
 835 02b4 83348100 		ld	s1,8(sp)
 836              		.cfi_restore 9
 837              	.LVL53:
 838 02b8 13010102 		addi	sp,sp,32
 839              		.cfi_def_cfa_offset 0
 840 02bc 67800000 		jr	ra
 841              		.cfi_endproc
 842              	.LFE62:
 844              		.align	2
 845              		.globl	_ZN13_SleepManager9interruptEv
 847              	_ZN13_SleepManager9interruptEv:
 848              	.LFB47:
  32:src/_WaitManager.cpp ****     _Sleep::remove(myThread);
 849              		.loc 1 32 32 is_stmt 1
 850              		.cfi_startproc
 851              	.LVL54:
 852 02c0 130101FF 		addi	sp,sp,-16
 853              		.cfi_def_cfa_offset 16
 854 02c4 23341100 		sd	ra,8(sp)
 855 02c8 23308100 		sd	s0,0(sp)
 856              		.cfi_offset 1, -8
 857              		.cfi_offset 8, -16
 858 02cc 13040101 		addi	s0,sp,16
 859              		.cfi_def_cfa 8, 0
  33:src/_WaitManager.cpp ****     return 1;
 860              		.loc 1 33 5
  33:src/_WaitManager.cpp ****     return 1;
 861              		.loc 1 33 19 is_stmt 0
 862 02d0 03358500 		ld	a0,8(a0)
 863              	.LVL55:
 864 02d4 97000000 		call	_ZN6_Sleep6removeEP7_Thread@plt
 864      E7800000 
 865              	.LVL56:
  34:src/_WaitManager.cpp **** }
 866              		.loc 1 34 5 is_stmt 1
  35:src/_WaitManager.cpp **** 
 867              		.loc 1 35 1 is_stmt 0
 868 02dc 13051000 		li	a0,1
GAS LISTING /tmp/cc6qYxbF.s 			page 21


 869 02e0 83308100 		ld	ra,8(sp)
 870              		.cfi_restore 1
 871 02e4 03340100 		ld	s0,0(sp)
 872              		.cfi_restore 8
 873              		.cfi_def_cfa 2, 16
 874 02e8 13010101 		addi	sp,sp,16
 875              		.cfi_def_cfa_offset 0
 876 02ec 67800000 		jr	ra
 877              		.cfi_endproc
 878              	.LFE47:
 880              		.align	2
 881              		.globl	_ZN16_SemSleepManager8sem_passEP4_Sem
 883              	_ZN16_SemSleepManager8sem_passEP4_Sem:
 884              	.LFB66:
  78:src/_WaitManager.cpp **** 
  79:src/_WaitManager.cpp **** _SemSleepManager::_SemSleepManager(thread_t my_thread, sem_t sem) : _WaitManager(my_thread), sem(se
  80:src/_WaitManager.cpp **** kmem_cache_t* _SemSleepManager::cache = nullptr;
  81:src/_WaitManager.cpp **** int _SemSleepManager::sem_pass(sem_t sem) {
 885              		.loc 1 81 43 is_stmt 1
 886              		.cfi_startproc
 887              	.LVL57:
 888 02f0 130101FF 		addi	sp,sp,-16
 889              		.cfi_def_cfa_offset 16
 890 02f4 23341100 		sd	ra,8(sp)
 891 02f8 23308100 		sd	s0,0(sp)
 892              		.cfi_offset 1, -8
 893              		.cfi_offset 8, -16
 894 02fc 13040101 		addi	s0,sp,16
 895              		.cfi_def_cfa 8, 0
  82:src/_WaitManager.cpp ****     this->sem = nullptr;
 896              		.loc 1 82 5
 897              		.loc 1 82 15 is_stmt 0
 898 0300 23380500 		sd	zero,16(a0)
  83:src/_WaitManager.cpp ****     _Sleep::remove(myThread);
 899              		.loc 1 83 5 is_stmt 1
 900              		.loc 1 83 19 is_stmt 0
 901 0304 03358500 		ld	a0,8(a0)
 902              	.LVL58:
 903 0308 97000000 		call	_ZN6_Sleep6removeEP7_Thread@plt
 903      E7800000 
 904              	.LVL59:
  84:src/_WaitManager.cpp ****     return 1;
 905              		.loc 1 84 5 is_stmt 1
  85:src/_WaitManager.cpp **** }
 906              		.loc 1 85 1 is_stmt 0
 907 0310 13051000 		li	a0,1
 908 0314 83308100 		ld	ra,8(sp)
 909              		.cfi_restore 1
 910 0318 03340100 		ld	s0,0(sp)
 911              		.cfi_restore 8
 912              		.cfi_def_cfa 2, 16
 913 031c 13010101 		addi	sp,sp,16
 914              		.cfi_def_cfa_offset 0
 915 0320 67800000 		jr	ra
 916              		.cfi_endproc
 917              	.LFE66:
 919              		.align	2
GAS LISTING /tmp/cc6qYxbF.s 			page 22


 920              		.globl	_ZN16_SemSleepManager9interruptEv
 922              	_ZN16_SemSleepManager9interruptEv:
 923              	.LFB68:
  86:src/_WaitManager.cpp **** int _SemSleepManager::sleep_pass() {
  87:src/_WaitManager.cpp ****     sem->remove(myThread);
  88:src/_WaitManager.cpp ****     sem = nullptr;
  89:src/_WaitManager.cpp ****     myThread->limitReach();
  90:src/_WaitManager.cpp ****     return 1;
  91:src/_WaitManager.cpp **** }
  92:src/_WaitManager.cpp **** int _SemSleepManager::interrupt() {
 924              		.loc 1 92 35 is_stmt 1
 925              		.cfi_startproc
 926              	.LVL60:
 927 0324 130101FE 		addi	sp,sp,-32
 928              		.cfi_def_cfa_offset 32
 929 0328 233C1100 		sd	ra,24(sp)
 930 032c 23388100 		sd	s0,16(sp)
 931 0330 23349100 		sd	s1,8(sp)
 932              		.cfi_offset 1, -8
 933              		.cfi_offset 8, -16
 934              		.cfi_offset 9, -24
 935 0334 13040102 		addi	s0,sp,32
 936              		.cfi_def_cfa 8, 0
 937 0338 93040500 		mv	s1,a0
  93:src/_WaitManager.cpp ****     sem->remove(myThread);
 938              		.loc 1 93 5
 939              		.loc 1 93 16 is_stmt 0
 940 033c 83358500 		ld	a1,8(a0)
 941 0340 03350501 		ld	a0,16(a0)
 942              	.LVL61:
 943 0344 97000000 		call	_ZN4_Sem6removeEP7_Thread@plt
 943      E7800000 
 944              	.LVL62:
  94:src/_WaitManager.cpp ****     sem = nullptr;
 945              		.loc 1 94 5 is_stmt 1
 946              		.loc 1 94 9 is_stmt 0
 947 034c 23B80400 		sd	zero,16(s1)
  95:src/_WaitManager.cpp ****     _Sleep::remove(myThread);
 948              		.loc 1 95 5 is_stmt 1
 949              		.loc 1 95 19 is_stmt 0
 950 0350 03B58400 		ld	a0,8(s1)
 951 0354 97000000 		call	_ZN6_Sleep6removeEP7_Thread@plt
 951      E7800000 
 952              	.LVL63:
  96:src/_WaitManager.cpp ****     return 1;
 953              		.loc 1 96 5 is_stmt 1
  97:src/_WaitManager.cpp **** }
 954              		.loc 1 97 1 is_stmt 0
 955 035c 13051000 		li	a0,1
 956 0360 83308101 		ld	ra,24(sp)
 957              		.cfi_restore 1
 958 0364 03340101 		ld	s0,16(sp)
 959              		.cfi_restore 8
 960              		.cfi_def_cfa 2, 32
 961 0368 83348100 		ld	s1,8(sp)
 962              		.cfi_restore 9
 963              	.LVL64:
GAS LISTING /tmp/cc6qYxbF.s 			page 23


 964 036c 13010102 		addi	sp,sp,32
 965              		.cfi_def_cfa_offset 0
 966 0370 67800000 		jr	ra
 967              		.cfi_endproc
 968              	.LFE68:
 970              		.align	2
 971              		.globl	_ZN17_JoinSleepManager9join_passEv
 973              	_ZN17_JoinSleepManager9join_passEv:
 974              	.LFB72:
  98:src/_WaitManager.cpp **** 
  99:src/_WaitManager.cpp **** _JoinSleepManager::_JoinSleepManager(thread_t my_thread, thread_t join_thread) : _WaitManager(my_th
 100:src/_WaitManager.cpp **** kmem_cache_t* _JoinSleepManager::cache = nullptr;
 101:src/_WaitManager.cpp **** int _JoinSleepManager::join_pass() {
 975              		.loc 1 101 36 is_stmt 1
 976              		.cfi_startproc
 977              	.LVL65:
 978 0374 130101FF 		addi	sp,sp,-16
 979              		.cfi_def_cfa_offset 16
 980 0378 23341100 		sd	ra,8(sp)
 981 037c 23308100 		sd	s0,0(sp)
 982              		.cfi_offset 1, -8
 983              		.cfi_offset 8, -16
 984 0380 13040101 		addi	s0,sp,16
 985              		.cfi_def_cfa 8, 0
 102:src/_WaitManager.cpp ****     join_thread = nullptr;
 986              		.loc 1 102 5
 987              		.loc 1 102 17 is_stmt 0
 988 0384 23380500 		sd	zero,16(a0)
 103:src/_WaitManager.cpp ****     _Sleep::remove(myThread);
 989              		.loc 1 103 5 is_stmt 1
 990              		.loc 1 103 19 is_stmt 0
 991 0388 03358500 		ld	a0,8(a0)
 992              	.LVL66:
 993 038c 97000000 		call	_ZN6_Sleep6removeEP7_Thread@plt
 993      E7800000 
 994              	.LVL67:
 104:src/_WaitManager.cpp ****     return 1;
 995              		.loc 1 104 5 is_stmt 1
 105:src/_WaitManager.cpp **** }
 996              		.loc 1 105 1 is_stmt 0
 997 0394 13051000 		li	a0,1
 998 0398 83308100 		ld	ra,8(sp)
 999              		.cfi_restore 1
 1000 039c 03340100 		ld	s0,0(sp)
 1001              		.cfi_restore 8
 1002              		.cfi_def_cfa 2, 16
 1003 03a0 13010101 		addi	sp,sp,16
 1004              		.cfi_def_cfa_offset 0
 1005 03a4 67800000 		jr	ra
 1006              		.cfi_endproc
 1007              	.LFE72:
 1009              		.align	2
 1010              		.globl	_ZN18_SemORSleepManager8sem_passEP4_Sem
 1012              	_ZN18_SemORSleepManager8sem_passEP4_Sem:
 1013              	.LFB78:
 106:src/_WaitManager.cpp **** int _JoinSleepManager::sleep_pass() {
 107:src/_WaitManager.cpp ****     join_thread->parentWaitStop();
GAS LISTING /tmp/cc6qYxbF.s 			page 24


 108:src/_WaitManager.cpp ****     join_thread = nullptr;
 109:src/_WaitManager.cpp ****     myThread->limitReach();
 110:src/_WaitManager.cpp ****     return 1;
 111:src/_WaitManager.cpp **** }
 112:src/_WaitManager.cpp **** int _JoinSleepManager::interrupt() {
 113:src/_WaitManager.cpp ****     join_thread->parentWaitStop();
 114:src/_WaitManager.cpp ****     join_thread = nullptr;
 115:src/_WaitManager.cpp ****     _Sleep::remove(myThread);
 116:src/_WaitManager.cpp ****     return 1;
 117:src/_WaitManager.cpp **** }
 118:src/_WaitManager.cpp **** 
 119:src/_WaitManager.cpp **** _SemORSleepManager::_SemORSleepManager(thread_t my_thread, sem_t sem1, sem_t sem2) : _WaitManager(m
 120:src/_WaitManager.cpp **** kmem_cache_t* _SemORSleepManager::cache = nullptr;
 121:src/_WaitManager.cpp **** int _SemORSleepManager::sem_pass(sem_t sem) {
 1014              		.loc 1 121 45 is_stmt 1
 1015              		.cfi_startproc
 1016              	.LVL68:
 1017 03a8 130101FE 		addi	sp,sp,-32
 1018              		.cfi_def_cfa_offset 32
 1019 03ac 233C1100 		sd	ra,24(sp)
 1020 03b0 23388100 		sd	s0,16(sp)
 1021 03b4 23349100 		sd	s1,8(sp)
 1022              		.cfi_offset 1, -8
 1023              		.cfi_offset 8, -16
 1024              		.cfi_offset 9, -24
 1025 03b8 13040102 		addi	s0,sp,32
 1026              		.cfi_def_cfa 8, 0
 1027 03bc 93040500 		mv	s1,a0
 122:src/_WaitManager.cpp ****     if (sem == sem1) sem2->remove(myThread);
 1028              		.loc 1 122 5
 1029              		.loc 1 122 16 is_stmt 0
 1030 03c0 03350501 		ld	a0,16(a0)
 1031              	.LVL69:
 1032              		.loc 1 122 5
 1033 03c4 630EB502 		beq	a0,a1,.L73
 123:src/_WaitManager.cpp ****     else sem1->remove(myThread);
 1034              		.loc 1 123 10 is_stmt 1
 1035              		.loc 1 123 22 is_stmt 0
 1036 03c8 83B58400 		ld	a1,8(s1)
 1037              	.LVL70:
 1038 03cc 97000000 		call	_ZN4_Sem6removeEP7_Thread@plt
 1038      E7800000 
 1039              	.LVL71:
 1040              	.L71:
 124:src/_WaitManager.cpp ****     sem1 = sem2 = nullptr;
 1041              		.loc 1 124 5 is_stmt 1
 1042              		.loc 1 124 17 is_stmt 0
 1043 03d4 23BC0400 		sd	zero,24(s1)
 1044              		.loc 1 124 10
 1045 03d8 23B80400 		sd	zero,16(s1)
 125:src/_WaitManager.cpp ****     _Sleep::remove(myThread);
 1046              		.loc 1 125 5 is_stmt 1
 1047              		.loc 1 125 19 is_stmt 0
 1048 03dc 03B58400 		ld	a0,8(s1)
 1049 03e0 97000000 		call	_ZN6_Sleep6removeEP7_Thread@plt
 1049      E7800000 
 1050              	.LVL72:
GAS LISTING /tmp/cc6qYxbF.s 			page 25


 126:src/_WaitManager.cpp ****     return 1;
 1051              		.loc 1 126 5 is_stmt 1
 127:src/_WaitManager.cpp **** }
 1052              		.loc 1 127 1 is_stmt 0
 1053 03e8 13051000 		li	a0,1
 1054 03ec 83308101 		ld	ra,24(sp)
 1055              		.cfi_remember_state
 1056              		.cfi_restore 1
 1057 03f0 03340101 		ld	s0,16(sp)
 1058              		.cfi_restore 8
 1059              		.cfi_def_cfa 2, 32
 1060 03f4 83348100 		ld	s1,8(sp)
 1061              		.cfi_restore 9
 1062              	.LVL73:
 1063 03f8 13010102 		addi	sp,sp,32
 1064              		.cfi_def_cfa_offset 0
 1065 03fc 67800000 		jr	ra
 1066              	.LVL74:
 1067              	.L73:
 1068              		.cfi_restore_state
 122:src/_WaitManager.cpp ****     else sem1->remove(myThread);
 1069              		.loc 1 122 22 is_stmt 1 discriminator 1
 122:src/_WaitManager.cpp ****     else sem1->remove(myThread);
 1070              		.loc 1 122 34 is_stmt 0 discriminator 1
 1071 0400 83B58400 		ld	a1,8(s1)
 1072              	.LVL75:
 1073 0404 03B58401 		ld	a0,24(s1)
 1074 0408 97000000 		call	_ZN4_Sem6removeEP7_Thread@plt
 1074      E7800000 
 1075              	.LVL76:
 1076 0410 6FF05FFC 		j	.L71
 1077              		.cfi_endproc
 1078              	.LFE78:
 1080              		.align	2
 1081              		.globl	_ZN18_SemORSleepManager9interruptEv
 1083              	_ZN18_SemORSleepManager9interruptEv:
 1084              	.LFB80:
 128:src/_WaitManager.cpp **** int _SemORSleepManager::sleep_pass() {
 129:src/_WaitManager.cpp ****     sem1->remove(myThread);
 130:src/_WaitManager.cpp ****     sem2->remove(myThread);
 131:src/_WaitManager.cpp ****     sem1 = sem2 = nullptr;
 132:src/_WaitManager.cpp ****     myThread->limitReach();
 133:src/_WaitManager.cpp ****     return 1;
 134:src/_WaitManager.cpp **** }
 135:src/_WaitManager.cpp **** int _SemORSleepManager::interrupt() {
 1085              		.loc 1 135 37 is_stmt 1
 1086              		.cfi_startproc
 1087              	.LVL77:
 1088 0414 130101FE 		addi	sp,sp,-32
 1089              		.cfi_def_cfa_offset 32
 1090 0418 233C1100 		sd	ra,24(sp)
 1091 041c 23388100 		sd	s0,16(sp)
 1092 0420 23349100 		sd	s1,8(sp)
 1093              		.cfi_offset 1, -8
 1094              		.cfi_offset 8, -16
 1095              		.cfi_offset 9, -24
 1096 0424 13040102 		addi	s0,sp,32
GAS LISTING /tmp/cc6qYxbF.s 			page 26


 1097              		.cfi_def_cfa 8, 0
 1098 0428 93040500 		mv	s1,a0
 136:src/_WaitManager.cpp ****     sem1->remove(myThread);
 1099              		.loc 1 136 5
 1100              		.loc 1 136 17 is_stmt 0
 1101 042c 83358500 		ld	a1,8(a0)
 1102 0430 03350501 		ld	a0,16(a0)
 1103              	.LVL78:
 1104 0434 97000000 		call	_ZN4_Sem6removeEP7_Thread@plt
 1104      E7800000 
 1105              	.LVL79:
 137:src/_WaitManager.cpp ****     sem2->remove(myThread);
 1106              		.loc 1 137 5 is_stmt 1
 1107              		.loc 1 137 17 is_stmt 0
 1108 043c 83B58400 		ld	a1,8(s1)
 1109 0440 03B58401 		ld	a0,24(s1)
 1110 0444 97000000 		call	_ZN4_Sem6removeEP7_Thread@plt
 1110      E7800000 
 1111              	.LVL80:
 138:src/_WaitManager.cpp ****     sem1 = sem2 = nullptr;
 1112              		.loc 1 138 5 is_stmt 1
 1113              		.loc 1 138 17 is_stmt 0
 1114 044c 23BC0400 		sd	zero,24(s1)
 1115              		.loc 1 138 10
 1116 0450 23B80400 		sd	zero,16(s1)
 139:src/_WaitManager.cpp ****     _Sleep::remove(myThread);
 1117              		.loc 1 139 5 is_stmt 1
 1118              		.loc 1 139 19 is_stmt 0
 1119 0454 03B58400 		ld	a0,8(s1)
 1120 0458 97000000 		call	_ZN6_Sleep6removeEP7_Thread@plt
 1120      E7800000 
 1121              	.LVL81:
 140:src/_WaitManager.cpp ****     return 1;
 1122              		.loc 1 140 5 is_stmt 1
 141:src/_WaitManager.cpp **** }
 1123              		.loc 1 141 1 is_stmt 0
 1124 0460 13051000 		li	a0,1
 1125 0464 83308101 		ld	ra,24(sp)
 1126              		.cfi_restore 1
 1127 0468 03340101 		ld	s0,16(sp)
 1128              		.cfi_restore 8
 1129              		.cfi_def_cfa 2, 32
 1130 046c 83348100 		ld	s1,8(sp)
 1131              		.cfi_restore 9
 1132              	.LVL82:
 1133 0470 13010102 		addi	sp,sp,32
 1134              		.cfi_def_cfa_offset 0
 1135 0474 67800000 		jr	ra
 1136              		.cfi_endproc
 1137              	.LFE80:
 1139              		.align	2
 1140              		.globl	_ZN19_SemANDSleepManager8sem_passEP4_Sem
 1142              	_ZN19_SemANDSleepManager8sem_passEP4_Sem:
 1143              	.LFB84:
 142:src/_WaitManager.cpp **** 
 143:src/_WaitManager.cpp **** _SemANDSleepManager::_SemANDSleepManager(thread_t my_thread, sem_t sem1, sem_t sem2) : _WaitManager
 144:src/_WaitManager.cpp **** kmem_cache_t* _SemANDSleepManager::cache = nullptr;
GAS LISTING /tmp/cc6qYxbF.s 			page 27


 145:src/_WaitManager.cpp **** int _SemANDSleepManager::sem_pass(sem_t sem) {
 1144              		.loc 1 145 46 is_stmt 1
 1145              		.cfi_startproc
 1146              	.LVL83:
 146:src/_WaitManager.cpp ****     if (sem == sem1) sem1 = nullptr;
 1147              		.loc 1 146 5
 1148              		.loc 1 146 16 is_stmt 0
 1149 0478 83370501 		ld	a5,16(a0)
 1150              		.loc 1 146 5
 1151 047c 638CB700 		beq	a5,a1,.L86
 147:src/_WaitManager.cpp ****     else sem2 = nullptr;
 1152              		.loc 1 147 10 is_stmt 1
 1153              		.loc 1 147 15 is_stmt 0
 1154 0480 233C0500 		sd	zero,24(a0)
 1155              	.L78:
 148:src/_WaitManager.cpp ****     if (!sem1 && !sem2) {
 1156              		.loc 1 148 5 is_stmt 1
 1157              		.loc 1 148 10 is_stmt 0
 1158 0484 83370501 		ld	a5,16(a0)
 1159              		.loc 1 148 5
 1160 0488 638A0700 		beqz	a5,.L87
 149:src/_WaitManager.cpp ****         _Sleep::remove(myThread);
 150:src/_WaitManager.cpp ****         return 1;
 151:src/_WaitManager.cpp ****     }
 152:src/_WaitManager.cpp ****     return 0;
 1161              		.loc 1 152 12
 1162 048c 13050000 		li	a0,0
 1163              	.LVL84:
 1164 0490 67800000 		ret
 1165              	.LVL85:
 1166              	.L86:
 146:src/_WaitManager.cpp ****     else sem2 = nullptr;
 1167              		.loc 1 146 22 is_stmt 1 discriminator 1
 146:src/_WaitManager.cpp ****     else sem2 = nullptr;
 1168              		.loc 1 146 27 is_stmt 0 discriminator 1
 1169 0494 23380500 		sd	zero,16(a0)
 1170 0498 6FF0DFFE 		j	.L78
 1171              	.L87:
 148:src/_WaitManager.cpp ****     if (!sem1 && !sem2) {
 1172              		.loc 1 148 19 discriminator 1
 1173 049c 83378501 		ld	a5,24(a0)
 148:src/_WaitManager.cpp ****     if (!sem1 && !sem2) {
 1174              		.loc 1 148 15 discriminator 1
 1175 04a0 63860700 		beqz	a5,.L88
 1176              		.loc 1 152 12
 1177 04a4 13050000 		li	a0,0
 1178              	.LVL86:
 153:src/_WaitManager.cpp **** }
 1179              		.loc 1 153 1
 1180 04a8 67800000 		ret
 1181              	.LVL87:
 1182              	.L88:
 145:src/_WaitManager.cpp ****     if (sem == sem1) sem1 = nullptr;
 1183              		.loc 1 145 46
 1184 04ac 130101FF 		addi	sp,sp,-16
 1185              		.cfi_def_cfa_offset 16
 1186 04b0 23341100 		sd	ra,8(sp)
GAS LISTING /tmp/cc6qYxbF.s 			page 28


 1187 04b4 23308100 		sd	s0,0(sp)
 1188              		.cfi_offset 1, -8
 1189              		.cfi_offset 8, -16
 1190 04b8 13040101 		addi	s0,sp,16
 1191              		.cfi_def_cfa 8, 0
 149:src/_WaitManager.cpp ****         return 1;
 1192              		.loc 1 149 9 is_stmt 1
 149:src/_WaitManager.cpp ****         return 1;
 1193              		.loc 1 149 23 is_stmt 0
 1194 04bc 03358500 		ld	a0,8(a0)
 1195              	.LVL88:
 1196 04c0 97000000 		call	_ZN6_Sleep6removeEP7_Thread@plt
 1196      E7800000 
 1197              	.LVL89:
 150:src/_WaitManager.cpp ****     }
 1198              		.loc 1 150 9 is_stmt 1
 150:src/_WaitManager.cpp ****     }
 1199              		.loc 1 150 16 is_stmt 0
 1200 04c8 13051000 		li	a0,1
 1201              		.loc 1 153 1
 1202 04cc 83308100 		ld	ra,8(sp)
 1203              		.cfi_restore 1
 1204 04d0 03340100 		ld	s0,0(sp)
 1205              		.cfi_restore 8
 1206              		.cfi_def_cfa 2, 16
 1207 04d4 13010101 		addi	sp,sp,16
 1208              		.cfi_def_cfa_offset 0
 1209 04d8 67800000 		jr	ra
 1210              		.cfi_endproc
 1211              	.LFE84:
 1213              		.align	2
 1214              		.globl	_ZN19_SemANDSleepManager9interruptEv
 1216              	_ZN19_SemANDSleepManager9interruptEv:
 1217              	.LFB86:
 154:src/_WaitManager.cpp **** int _SemANDSleepManager::sleep_pass() {
 155:src/_WaitManager.cpp ****     if (sem1) sem1->remove(myThread);
 156:src/_WaitManager.cpp ****     if (sem2) sem2->remove(myThread);
 157:src/_WaitManager.cpp ****     sem1 = sem2 = nullptr;
 158:src/_WaitManager.cpp ****     myThread->limitReach();
 159:src/_WaitManager.cpp ****     return 1;
 160:src/_WaitManager.cpp **** }
 161:src/_WaitManager.cpp **** int _SemANDSleepManager::interrupt() {
 1218              		.loc 1 161 38 is_stmt 1
 1219              		.cfi_startproc
 1220              	.LVL90:
 1221 04dc 130101FE 		addi	sp,sp,-32
 1222              		.cfi_def_cfa_offset 32
 1223 04e0 233C1100 		sd	ra,24(sp)
 1224 04e4 23388100 		sd	s0,16(sp)
 1225 04e8 23349100 		sd	s1,8(sp)
 1226              		.cfi_offset 1, -8
 1227              		.cfi_offset 8, -16
 1228              		.cfi_offset 9, -24
 1229 04ec 13040102 		addi	s0,sp,32
 1230              		.cfi_def_cfa 8, 0
 1231 04f0 93040500 		mv	s1,a0
 162:src/_WaitManager.cpp ****     if (sem1) sem1->remove(myThread);
GAS LISTING /tmp/cc6qYxbF.s 			page 29


 1232              		.loc 1 162 5
 1233              		.loc 1 162 9 is_stmt 0
 1234 04f4 03350501 		ld	a0,16(a0)
 1235              	.LVL91:
 1236              		.loc 1 162 5
 1237 04f8 63080500 		beqz	a0,.L90
 1238              		.loc 1 162 15 is_stmt 1 discriminator 1
 1239              		.loc 1 162 27 is_stmt 0 discriminator 1
 1240 04fc 83B58400 		ld	a1,8(s1)
 1241 0500 97000000 		call	_ZN4_Sem6removeEP7_Thread@plt
 1241      E7800000 
 1242              	.LVL92:
 1243              	.L90:
 163:src/_WaitManager.cpp ****     if (sem2) sem2->remove(myThread);
 1244              		.loc 1 163 5 is_stmt 1
 1245              		.loc 1 163 9 is_stmt 0
 1246 0508 03B58401 		ld	a0,24(s1)
 1247              		.loc 1 163 5
 1248 050c 63080500 		beqz	a0,.L91
 1249              		.loc 1 163 15 is_stmt 1 discriminator 1
 1250              		.loc 1 163 27 is_stmt 0 discriminator 1
 1251 0510 83B58400 		ld	a1,8(s1)
 1252 0514 97000000 		call	_ZN4_Sem6removeEP7_Thread@plt
 1252      E7800000 
 1253              	.LVL93:
 1254              	.L91:
 164:src/_WaitManager.cpp ****     sem1 = sem2 = nullptr;
 1255              		.loc 1 164 5 is_stmt 1
 1256              		.loc 1 164 17 is_stmt 0
 1257 051c 23BC0400 		sd	zero,24(s1)
 1258              		.loc 1 164 10
 1259 0520 23B80400 		sd	zero,16(s1)
 165:src/_WaitManager.cpp ****     _Sleep::remove(myThread);
 1260              		.loc 1 165 5 is_stmt 1
 1261              		.loc 1 165 19 is_stmt 0
 1262 0524 03B58400 		ld	a0,8(s1)
 1263 0528 97000000 		call	_ZN6_Sleep6removeEP7_Thread@plt
 1263      E7800000 
 1264              	.LVL94:
 166:src/_WaitManager.cpp ****     return 1;
 1265              		.loc 1 166 5 is_stmt 1
 167:src/_WaitManager.cpp **** }...
 1266              		.loc 1 167 1 is_stmt 0
 1267 0530 13051000 		li	a0,1
 1268 0534 83308101 		ld	ra,24(sp)
 1269              		.cfi_restore 1
 1270 0538 03340101 		ld	s0,16(sp)
 1271              		.cfi_restore 8
 1272              		.cfi_def_cfa 2, 32
 1273 053c 83348100 		ld	s1,8(sp)
 1274              		.cfi_restore 9
 1275              	.LVL95:
 1276 0540 13010102 		addi	sp,sp,32
 1277              		.cfi_def_cfa_offset 0
 1278 0544 67800000 		jr	ra
 1279              		.cfi_endproc
 1280              	.LFE86:
GAS LISTING /tmp/cc6qYxbF.s 			page 30


 1282              		.align	2
 1283              		.globl	_ZN12_JoinManager9interruptEv
 1285              	_ZN12_JoinManager9interruptEv:
 1286              	.LFB52:
  43:src/_WaitManager.cpp **** int _JoinManager::interrupt() {
 1287              		.loc 1 43 31 is_stmt 1
 1288              		.cfi_startproc
 1289              	.LVL96:
 1290 0548 130101FE 		addi	sp,sp,-32
 1291              		.cfi_def_cfa_offset 32
 1292 054c 233C1100 		sd	ra,24(sp)
 1293 0550 23388100 		sd	s0,16(sp)
 1294 0554 23349100 		sd	s1,8(sp)
 1295              		.cfi_offset 1, -8
 1296              		.cfi_offset 8, -16
 1297              		.cfi_offset 9, -24
 1298 0558 13040102 		addi	s0,sp,32
 1299              		.cfi_def_cfa 8, 0
 1300 055c 93040500 		mv	s1,a0
  44:src/_WaitManager.cpp ****     join_thread->parentWaitStop();
 1301              		.loc 1 44 5
  44:src/_WaitManager.cpp ****     join_thread->parentWaitStop();
 1302              		.loc 1 44 32 is_stmt 0
 1303 0560 03350501 		ld	a0,16(a0)
 1304              	.LVL97:
 1305 0564 97000000 		call	_ZN7_Thread14parentWaitStopEv@plt
 1305      E7800000 
 1306              	.LVL98:
  45:src/_WaitManager.cpp ****     join_thread = nullptr;
 1307              		.loc 1 45 5 is_stmt 1
  45:src/_WaitManager.cpp ****     join_thread = nullptr;
 1308              		.loc 1 45 17 is_stmt 0
 1309 056c 23B80400 		sd	zero,16(s1)
  46:src/_WaitManager.cpp ****     return 1;
 1310              		.loc 1 46 5 is_stmt 1
  47:src/_WaitManager.cpp **** }
 1311              		.loc 1 47 1 is_stmt 0
 1312 0570 13051000 		li	a0,1
 1313 0574 83308101 		ld	ra,24(sp)
 1314              		.cfi_restore 1
 1315 0578 03340101 		ld	s0,16(sp)
 1316              		.cfi_restore 8
 1317              		.cfi_def_cfa 2, 32
 1318 057c 83348100 		ld	s1,8(sp)
 1319              		.cfi_restore 9
 1320              	.LVL99:
 1321 0580 13010102 		addi	sp,sp,32
 1322              		.cfi_def_cfa_offset 0
 1323 0584 67800000 		jr	ra
 1324              		.cfi_endproc
 1325              	.LFE52:
 1327              		.align	2
 1328              		.globl	_ZN17_JoinSleepManager9interruptEv
 1330              	_ZN17_JoinSleepManager9interruptEv:
 1331              	.LFB74:
 112:src/_WaitManager.cpp **** int _JoinSleepManager::interrupt() {
 1332              		.loc 1 112 36 is_stmt 1
GAS LISTING /tmp/cc6qYxbF.s 			page 31


 1333              		.cfi_startproc
 1334              	.LVL100:
 1335 0588 130101FE 		addi	sp,sp,-32
 1336              		.cfi_def_cfa_offset 32
 1337 058c 233C1100 		sd	ra,24(sp)
 1338 0590 23388100 		sd	s0,16(sp)
 1339 0594 23349100 		sd	s1,8(sp)
 1340              		.cfi_offset 1, -8
 1341              		.cfi_offset 8, -16
 1342              		.cfi_offset 9, -24
 1343 0598 13040102 		addi	s0,sp,32
 1344              		.cfi_def_cfa 8, 0
 1345 059c 93040500 		mv	s1,a0
 113:src/_WaitManager.cpp ****     join_thread->parentWaitStop();
 1346              		.loc 1 113 5
 113:src/_WaitManager.cpp ****     join_thread->parentWaitStop();
 1347              		.loc 1 113 32 is_stmt 0
 1348 05a0 03350501 		ld	a0,16(a0)
 1349              	.LVL101:
 1350 05a4 97000000 		call	_ZN7_Thread14parentWaitStopEv@plt
 1350      E7800000 
 1351              	.LVL102:
 114:src/_WaitManager.cpp ****     join_thread = nullptr;
 1352              		.loc 1 114 5 is_stmt 1
 114:src/_WaitManager.cpp ****     join_thread = nullptr;
 1353              		.loc 1 114 17 is_stmt 0
 1354 05ac 23B80400 		sd	zero,16(s1)
 115:src/_WaitManager.cpp ****     _Sleep::remove(myThread);
 1355              		.loc 1 115 5 is_stmt 1
 115:src/_WaitManager.cpp ****     _Sleep::remove(myThread);
 1356              		.loc 1 115 19 is_stmt 0
 1357 05b0 03B58400 		ld	a0,8(s1)
 1358 05b4 97000000 		call	_ZN6_Sleep6removeEP7_Thread@plt
 1358      E7800000 
 1359              	.LVL103:
 116:src/_WaitManager.cpp ****     return 1;
 1360              		.loc 1 116 5 is_stmt 1
 117:src/_WaitManager.cpp **** }
 1361              		.loc 1 117 1 is_stmt 0
 1362 05bc 13051000 		li	a0,1
 1363 05c0 83308101 		ld	ra,24(sp)
 1364              		.cfi_restore 1
 1365 05c4 03340101 		ld	s0,16(sp)
 1366              		.cfi_restore 8
 1367              		.cfi_def_cfa 2, 32
 1368 05c8 83348100 		ld	s1,8(sp)
 1369              		.cfi_restore 9
 1370              	.LVL104:
 1371 05cc 13010102 		addi	sp,sp,32
 1372              		.cfi_def_cfa_offset 0
 1373 05d0 67800000 		jr	ra
 1374              		.cfi_endproc
 1375              	.LFE74:
 1377              		.align	2
 1378              		.globl	_ZN16_SemSleepManager10sleep_passEv
 1380              	_ZN16_SemSleepManager10sleep_passEv:
 1381              	.LFB67:
GAS LISTING /tmp/cc6qYxbF.s 			page 32


  86:src/_WaitManager.cpp **** int _SemSleepManager::sleep_pass() {
 1382              		.loc 1 86 36 is_stmt 1
 1383              		.cfi_startproc
 1384              	.LVL105:
 1385 05d4 130101FE 		addi	sp,sp,-32
 1386              		.cfi_def_cfa_offset 32
 1387 05d8 233C1100 		sd	ra,24(sp)
 1388 05dc 23388100 		sd	s0,16(sp)
 1389 05e0 23349100 		sd	s1,8(sp)
 1390              		.cfi_offset 1, -8
 1391              		.cfi_offset 8, -16
 1392              		.cfi_offset 9, -24
 1393 05e4 13040102 		addi	s0,sp,32
 1394              		.cfi_def_cfa 8, 0
 1395 05e8 93040500 		mv	s1,a0
  87:src/_WaitManager.cpp ****     sem->remove(myThread);
 1396              		.loc 1 87 5
  87:src/_WaitManager.cpp ****     sem->remove(myThread);
 1397              		.loc 1 87 16 is_stmt 0
 1398 05ec 83358500 		ld	a1,8(a0)
 1399 05f0 03350501 		ld	a0,16(a0)
 1400              	.LVL106:
 1401 05f4 97000000 		call	_ZN4_Sem6removeEP7_Thread@plt
 1401      E7800000 
 1402              	.LVL107:
  88:src/_WaitManager.cpp ****     sem = nullptr;
 1403              		.loc 1 88 5 is_stmt 1
  88:src/_WaitManager.cpp ****     sem = nullptr;
 1404              		.loc 1 88 9 is_stmt 0
 1405 05fc 23B80400 		sd	zero,16(s1)
  89:src/_WaitManager.cpp ****     myThread->limitReach();
 1406              		.loc 1 89 5 is_stmt 1
  89:src/_WaitManager.cpp ****     myThread->limitReach();
 1407              		.loc 1 89 25 is_stmt 0
 1408 0600 03B58400 		ld	a0,8(s1)
 1409 0604 97000000 		call	_ZN7_Thread10limitReachEv@plt
 1409      E7800000 
 1410              	.LVL108:
  90:src/_WaitManager.cpp ****     return 1;
 1411              		.loc 1 90 5 is_stmt 1
  91:src/_WaitManager.cpp **** }
 1412              		.loc 1 91 1 is_stmt 0
 1413 060c 13051000 		li	a0,1
 1414 0610 83308101 		ld	ra,24(sp)
 1415              		.cfi_restore 1
 1416 0614 03340101 		ld	s0,16(sp)
 1417              		.cfi_restore 8
 1418              		.cfi_def_cfa 2, 32
 1419 0618 83348100 		ld	s1,8(sp)
 1420              		.cfi_restore 9
 1421              	.LVL109:
 1422 061c 13010102 		addi	sp,sp,32
 1423              		.cfi_def_cfa_offset 0
 1424 0620 67800000 		jr	ra
 1425              		.cfi_endproc
 1426              	.LFE67:
 1428              		.align	2
GAS LISTING /tmp/cc6qYxbF.s 			page 33


 1429              		.globl	_ZN17_JoinSleepManager10sleep_passEv
 1431              	_ZN17_JoinSleepManager10sleep_passEv:
 1432              	.LFB73:
 106:src/_WaitManager.cpp **** int _JoinSleepManager::sleep_pass() {
 1433              		.loc 1 106 37 is_stmt 1
 1434              		.cfi_startproc
 1435              	.LVL110:
 1436 0624 130101FE 		addi	sp,sp,-32
 1437              		.cfi_def_cfa_offset 32
 1438 0628 233C1100 		sd	ra,24(sp)
 1439 062c 23388100 		sd	s0,16(sp)
 1440 0630 23349100 		sd	s1,8(sp)
 1441              		.cfi_offset 1, -8
 1442              		.cfi_offset 8, -16
 1443              		.cfi_offset 9, -24
 1444 0634 13040102 		addi	s0,sp,32
 1445              		.cfi_def_cfa 8, 0
 1446 0638 93040500 		mv	s1,a0
 107:src/_WaitManager.cpp ****     join_thread->parentWaitStop();
 1447              		.loc 1 107 5
 107:src/_WaitManager.cpp ****     join_thread->parentWaitStop();
 1448              		.loc 1 107 32 is_stmt 0
 1449 063c 03350501 		ld	a0,16(a0)
 1450              	.LVL111:
 1451 0640 97000000 		call	_ZN7_Thread14parentWaitStopEv@plt
 1451      E7800000 
 1452              	.LVL112:
 108:src/_WaitManager.cpp ****     join_thread = nullptr;
 1453              		.loc 1 108 5 is_stmt 1
 108:src/_WaitManager.cpp ****     join_thread = nullptr;
 1454              		.loc 1 108 17 is_stmt 0
 1455 0648 23B80400 		sd	zero,16(s1)
 109:src/_WaitManager.cpp ****     myThread->limitReach();
 1456              		.loc 1 109 5 is_stmt 1
 109:src/_WaitManager.cpp ****     myThread->limitReach();
 1457              		.loc 1 109 25 is_stmt 0
 1458 064c 03B58400 		ld	a0,8(s1)
 1459 0650 97000000 		call	_ZN7_Thread10limitReachEv@plt
 1459      E7800000 
 1460              	.LVL113:
 110:src/_WaitManager.cpp ****     return 1;
 1461              		.loc 1 110 5 is_stmt 1
 111:src/_WaitManager.cpp **** }
 1462              		.loc 1 111 1 is_stmt 0
 1463 0658 13051000 		li	a0,1
 1464 065c 83308101 		ld	ra,24(sp)
 1465              		.cfi_restore 1
 1466 0660 03340101 		ld	s0,16(sp)
 1467              		.cfi_restore 8
 1468              		.cfi_def_cfa 2, 32
 1469 0664 83348100 		ld	s1,8(sp)
 1470              		.cfi_restore 9
 1471              	.LVL114:
 1472 0668 13010102 		addi	sp,sp,32
 1473              		.cfi_def_cfa_offset 0
 1474 066c 67800000 		jr	ra
 1475              		.cfi_endproc
GAS LISTING /tmp/cc6qYxbF.s 			page 34


 1476              	.LFE73:
 1478              		.align	2
 1479              		.globl	_ZN18_SemORSleepManager10sleep_passEv
 1481              	_ZN18_SemORSleepManager10sleep_passEv:
 1482              	.LFB79:
 128:src/_WaitManager.cpp **** int _SemORSleepManager::sleep_pass() {
 1483              		.loc 1 128 38 is_stmt 1
 1484              		.cfi_startproc
 1485              	.LVL115:
 1486 0670 130101FE 		addi	sp,sp,-32
 1487              		.cfi_def_cfa_offset 32
 1488 0674 233C1100 		sd	ra,24(sp)
 1489 0678 23388100 		sd	s0,16(sp)
 1490 067c 23349100 		sd	s1,8(sp)
 1491              		.cfi_offset 1, -8
 1492              		.cfi_offset 8, -16
 1493              		.cfi_offset 9, -24
 1494 0680 13040102 		addi	s0,sp,32
 1495              		.cfi_def_cfa 8, 0
 1496 0684 93040500 		mv	s1,a0
 129:src/_WaitManager.cpp ****     sem1->remove(myThread);
 1497              		.loc 1 129 5
 129:src/_WaitManager.cpp ****     sem1->remove(myThread);
 1498              		.loc 1 129 17 is_stmt 0
 1499 0688 83358500 		ld	a1,8(a0)
 1500 068c 03350501 		ld	a0,16(a0)
 1501              	.LVL116:
 1502 0690 97000000 		call	_ZN4_Sem6removeEP7_Thread@plt
 1502      E7800000 
 1503              	.LVL117:
 130:src/_WaitManager.cpp ****     sem2->remove(myThread);
 1504              		.loc 1 130 5 is_stmt 1
 130:src/_WaitManager.cpp ****     sem2->remove(myThread);
 1505              		.loc 1 130 17 is_stmt 0
 1506 0698 83B58400 		ld	a1,8(s1)
 1507 069c 03B58401 		ld	a0,24(s1)
 1508 06a0 97000000 		call	_ZN4_Sem6removeEP7_Thread@plt
 1508      E7800000 
 1509              	.LVL118:
 131:src/_WaitManager.cpp ****     sem1 = sem2 = nullptr;
 1510              		.loc 1 131 5 is_stmt 1
 131:src/_WaitManager.cpp ****     sem1 = sem2 = nullptr;
 1511              		.loc 1 131 17 is_stmt 0
 1512 06a8 23BC0400 		sd	zero,24(s1)
 131:src/_WaitManager.cpp ****     sem1 = sem2 = nullptr;
 1513              		.loc 1 131 10
 1514 06ac 23B80400 		sd	zero,16(s1)
 132:src/_WaitManager.cpp ****     myThread->limitReach();
 1515              		.loc 1 132 5 is_stmt 1
 132:src/_WaitManager.cpp ****     myThread->limitReach();
 1516              		.loc 1 132 25 is_stmt 0
 1517 06b0 03B58400 		ld	a0,8(s1)
 1518 06b4 97000000 		call	_ZN7_Thread10limitReachEv@plt
 1518      E7800000 
 1519              	.LVL119:
 133:src/_WaitManager.cpp ****     return 1;
 1520              		.loc 1 133 5 is_stmt 1
GAS LISTING /tmp/cc6qYxbF.s 			page 35


 134:src/_WaitManager.cpp **** }
 1521              		.loc 1 134 1 is_stmt 0
 1522 06bc 13051000 		li	a0,1
 1523 06c0 83308101 		ld	ra,24(sp)
 1524              		.cfi_restore 1
 1525 06c4 03340101 		ld	s0,16(sp)
 1526              		.cfi_restore 8
 1527              		.cfi_def_cfa 2, 32
 1528 06c8 83348100 		ld	s1,8(sp)
 1529              		.cfi_restore 9
 1530              	.LVL120:
 1531 06cc 13010102 		addi	sp,sp,32
 1532              		.cfi_def_cfa_offset 0
 1533 06d0 67800000 		jr	ra
 1534              		.cfi_endproc
 1535              	.LFE79:
 1537              		.align	2
 1538              		.globl	_ZN19_SemANDSleepManager10sleep_passEv
 1540              	_ZN19_SemANDSleepManager10sleep_passEv:
 1541              	.LFB85:
 154:src/_WaitManager.cpp **** int _SemANDSleepManager::sleep_pass() {
 1542              		.loc 1 154 39 is_stmt 1
 1543              		.cfi_startproc
 1544              	.LVL121:
 1545 06d4 130101FE 		addi	sp,sp,-32
 1546              		.cfi_def_cfa_offset 32
 1547 06d8 233C1100 		sd	ra,24(sp)
 1548 06dc 23388100 		sd	s0,16(sp)
 1549 06e0 23349100 		sd	s1,8(sp)
 1550              		.cfi_offset 1, -8
 1551              		.cfi_offset 8, -16
 1552              		.cfi_offset 9, -24
 1553 06e4 13040102 		addi	s0,sp,32
 1554              		.cfi_def_cfa 8, 0
 1555 06e8 93040500 		mv	s1,a0
 155:src/_WaitManager.cpp ****     if (sem1) sem1->remove(myThread);
 1556              		.loc 1 155 5
 155:src/_WaitManager.cpp ****     if (sem1) sem1->remove(myThread);
 1557              		.loc 1 155 9 is_stmt 0
 1558 06ec 03350501 		ld	a0,16(a0)
 1559              	.LVL122:
 155:src/_WaitManager.cpp ****     if (sem1) sem1->remove(myThread);
 1560              		.loc 1 155 5
 1561 06f0 63080500 		beqz	a0,.L104
 155:src/_WaitManager.cpp ****     if (sem1) sem1->remove(myThread);
 1562              		.loc 1 155 15 is_stmt 1 discriminator 1
 155:src/_WaitManager.cpp ****     if (sem1) sem1->remove(myThread);
 1563              		.loc 1 155 27 is_stmt 0 discriminator 1
 1564 06f4 83B58400 		ld	a1,8(s1)
 1565 06f8 97000000 		call	_ZN4_Sem6removeEP7_Thread@plt
 1565      E7800000 
 1566              	.LVL123:
 1567              	.L104:
 156:src/_WaitManager.cpp ****     if (sem2) sem2->remove(myThread);
 1568              		.loc 1 156 5 is_stmt 1
 156:src/_WaitManager.cpp ****     if (sem2) sem2->remove(myThread);
 1569              		.loc 1 156 9 is_stmt 0
GAS LISTING /tmp/cc6qYxbF.s 			page 36


 1570 0700 03B58401 		ld	a0,24(s1)
 156:src/_WaitManager.cpp ****     if (sem2) sem2->remove(myThread);
 1571              		.loc 1 156 5
 1572 0704 63080500 		beqz	a0,.L105
 156:src/_WaitManager.cpp ****     if (sem2) sem2->remove(myThread);
 1573              		.loc 1 156 15 is_stmt 1 discriminator 1
 156:src/_WaitManager.cpp ****     if (sem2) sem2->remove(myThread);
 1574              		.loc 1 156 27 is_stmt 0 discriminator 1
 1575 0708 83B58400 		ld	a1,8(s1)
 1576 070c 97000000 		call	_ZN4_Sem6removeEP7_Thread@plt
 1576      E7800000 
 1577              	.LVL124:
 1578              	.L105:
 157:src/_WaitManager.cpp ****     sem1 = sem2 = nullptr;
 1579              		.loc 1 157 5 is_stmt 1
 157:src/_WaitManager.cpp ****     sem1 = sem2 = nullptr;
 1580              		.loc 1 157 17 is_stmt 0
 1581 0714 23BC0400 		sd	zero,24(s1)
 157:src/_WaitManager.cpp ****     sem1 = sem2 = nullptr;
 1582              		.loc 1 157 10
 1583 0718 23B80400 		sd	zero,16(s1)
 158:src/_WaitManager.cpp ****     myThread->limitReach();
 1584              		.loc 1 158 5 is_stmt 1
 158:src/_WaitManager.cpp ****     myThread->limitReach();
 1585              		.loc 1 158 25 is_stmt 0
 1586 071c 03B58400 		ld	a0,8(s1)
 1587 0720 97000000 		call	_ZN7_Thread10limitReachEv@plt
 1587      E7800000 
 1588              	.LVL125:
 159:src/_WaitManager.cpp ****     return 1;
 1589              		.loc 1 159 5 is_stmt 1
 160:src/_WaitManager.cpp **** }
 1590              		.loc 1 160 1 is_stmt 0
 1591 0728 13051000 		li	a0,1
 1592 072c 83308101 		ld	ra,24(sp)
 1593              		.cfi_restore 1
 1594 0730 03340101 		ld	s0,16(sp)
 1595              		.cfi_restore 8
 1596              		.cfi_def_cfa 2, 32
 1597 0734 83348100 		ld	s1,8(sp)
 1598              		.cfi_restore 9
 1599              	.LVL126:
 1600 0738 13010102 		addi	sp,sp,32
 1601              		.cfi_def_cfa_offset 0
 1602 073c 67800000 		jr	ra
 1603              		.cfi_endproc
 1604              	.LFE85:
 1606              		.section	.text._ZN11_SemManagerD0Ev,"axG",@progbits,_ZN11_SemManagerD5Ev,comdat
 1607              		.align	2
 1608              		.weak	_ZN11_SemManagerD0Ev
 1610              	_ZN11_SemManagerD0Ev:
 1611              	.LFB122:
  25:src/../h/_WaitManager.h **** public:
 1612              		.loc 2 25 7 is_stmt 1
 1613              		.cfi_startproc
 1614              	.LVL127:
 1615 0000 130101FF 		addi	sp,sp,-16
GAS LISTING /tmp/cc6qYxbF.s 			page 37


 1616              		.cfi_def_cfa_offset 16
 1617 0004 23341100 		sd	ra,8(sp)
 1618 0008 23308100 		sd	s0,0(sp)
 1619              		.cfi_offset 1, -8
 1620              		.cfi_offset 8, -16
 1621 000c 13040101 		addi	s0,sp,16
 1622              		.cfi_def_cfa 8, 0
 1623 0010 93050500 		mv	a1,a0
 1624              	.LVL128:
 1625              	.LBB56:
 1626              	.LBB57:
  25:src/../h/_WaitManager.h **** public:
 1627              		.loc 2 25 7 is_stmt 0
 1628 0014 97070000 		lla	a5,_ZTV11_SemManager+16
 1628      93870700 
 1629 001c 2330F500 		sd	a5,0(a0)
 1630              	.LVL129:
 1631              	.LBE57:
 1632              	.LBE56:
 1633              	.LBB58:
 1634              	.LBB59:
  33:src/../h/_WaitManager.h ****     int sem_pass(sem_t sem) override;
 1635              		.loc 2 33 39 is_stmt 1
  33:src/../h/_WaitManager.h ****     int sem_pass(sem_t sem) override;
 1636              		.loc 2 33 54 is_stmt 0
 1637 0020 17050000 		ld	a0,.LANCHOR0
 1637      03350500 
 1638              	.LVL130:
 1639 0028 97000000 		call	_Z15kmem_cache_freeP12kmem_cache_tPv@plt
 1639      E7800000 
 1640              	.LVL131:
 1641              	.LBE59:
 1642              	.LBE58:
  25:src/../h/_WaitManager.h **** public:
 1643              		.loc 2 25 7
 1644 0030 83308100 		ld	ra,8(sp)
 1645              		.cfi_restore 1
 1646 0034 03340100 		ld	s0,0(sp)
 1647              		.cfi_restore 8
 1648              		.cfi_def_cfa 2, 16
 1649 0038 13010101 		addi	sp,sp,16
 1650              		.cfi_def_cfa_offset 0
 1651 003c 67800000 		jr	ra
 1652              		.cfi_endproc
 1653              	.LFE122:
 1655              		.section	.text._ZN13_SleepManagerD0Ev,"axG",@progbits,_ZN13_SleepManagerD5Ev,comdat
 1656              		.align	2
 1657              		.weak	_ZN13_SleepManagerD0Ev
 1659              	_ZN13_SleepManagerD0Ev:
 1660              	.LFB118:
  41:src/../h/_WaitManager.h **** public:
 1661              		.loc 2 41 7 is_stmt 1
 1662              		.cfi_startproc
 1663              	.LVL132:
 1664 0000 130101FF 		addi	sp,sp,-16
 1665              		.cfi_def_cfa_offset 16
 1666 0004 23341100 		sd	ra,8(sp)
GAS LISTING /tmp/cc6qYxbF.s 			page 38


 1667 0008 23308100 		sd	s0,0(sp)
 1668              		.cfi_offset 1, -8
 1669              		.cfi_offset 8, -16
 1670 000c 13040101 		addi	s0,sp,16
 1671              		.cfi_def_cfa 8, 0
 1672 0010 93050500 		mv	a1,a0
 1673              	.LVL133:
 1674              	.LBB60:
 1675              	.LBB61:
  41:src/../h/_WaitManager.h **** public:
 1676              		.loc 2 41 7 is_stmt 0
 1677 0014 97070000 		lla	a5,_ZTV13_SleepManager+16
 1677      93870700 
 1678 001c 2330F500 		sd	a5,0(a0)
 1679              	.LVL134:
 1680              	.LBE61:
 1681              	.LBE60:
 1682              	.LBB62:
 1683              	.LBB63:
  49:src/../h/_WaitManager.h ****     int sleep_pass() override;
 1684              		.loc 2 49 39 is_stmt 1
  49:src/../h/_WaitManager.h ****     int sleep_pass() override;
 1685              		.loc 2 49 54 is_stmt 0
 1686 0020 17050000 		ld	a0,.LANCHOR0+8
 1686      03350500 
 1687              	.LVL135:
 1688 0028 97000000 		call	_Z15kmem_cache_freeP12kmem_cache_tPv@plt
 1688      E7800000 
 1689              	.LVL136:
 1690              	.LBE63:
 1691              	.LBE62:
  41:src/../h/_WaitManager.h **** public:
 1692              		.loc 2 41 7
 1693 0030 83308100 		ld	ra,8(sp)
 1694              		.cfi_restore 1
 1695 0034 03340100 		ld	s0,0(sp)
 1696              		.cfi_restore 8
 1697              		.cfi_def_cfa 2, 16
 1698 0038 13010101 		addi	sp,sp,16
 1699              		.cfi_def_cfa_offset 0
 1700 003c 67800000 		jr	ra
 1701              		.cfi_endproc
 1702              	.LFE118:
 1704              		.section	.text._ZN12_JoinManagerD0Ev,"axG",@progbits,_ZN12_JoinManagerD5Ev,comdat
 1705              		.align	2
 1706              		.weak	_ZN12_JoinManagerD0Ev
 1708              	_ZN12_JoinManagerD0Ev:
 1709              	.LFB114:
  54:src/../h/_WaitManager.h **** public:
 1710              		.loc 2 54 7 is_stmt 1
 1711              		.cfi_startproc
 1712              	.LVL137:
 1713 0000 130101FF 		addi	sp,sp,-16
 1714              		.cfi_def_cfa_offset 16
 1715 0004 23341100 		sd	ra,8(sp)
 1716 0008 23308100 		sd	s0,0(sp)
 1717              		.cfi_offset 1, -8
GAS LISTING /tmp/cc6qYxbF.s 			page 39


 1718              		.cfi_offset 8, -16
 1719 000c 13040101 		addi	s0,sp,16
 1720              		.cfi_def_cfa 8, 0
 1721 0010 93050500 		mv	a1,a0
 1722              	.LVL138:
 1723              	.LBB64:
 1724              	.LBB65:
  54:src/../h/_WaitManager.h **** public:
 1725              		.loc 2 54 7 is_stmt 0
 1726 0014 97070000 		lla	a5,_ZTV12_JoinManager+16
 1726      93870700 
 1727 001c 2330F500 		sd	a5,0(a0)
 1728              	.LVL139:
 1729              	.LBE65:
 1730              	.LBE64:
 1731              	.LBB66:
 1732              	.LBB67:
  62:src/../h/_WaitManager.h **** 
 1733              		.loc 2 62 39 is_stmt 1
  62:src/../h/_WaitManager.h **** 
 1734              		.loc 2 62 54 is_stmt 0
 1735 0020 17050000 		ld	a0,.LANCHOR0+16
 1735      03350500 
 1736              	.LVL140:
 1737 0028 97000000 		call	_Z15kmem_cache_freeP12kmem_cache_tPv@plt
 1737      E7800000 
 1738              	.LVL141:
 1739              	.LBE67:
 1740              	.LBE66:
  54:src/../h/_WaitManager.h **** public:
 1741              		.loc 2 54 7
 1742 0030 83308100 		ld	ra,8(sp)
 1743              		.cfi_restore 1
 1744 0034 03340100 		ld	s0,0(sp)
 1745              		.cfi_restore 8
 1746              		.cfi_def_cfa 2, 16
 1747 0038 13010101 		addi	sp,sp,16
 1748              		.cfi_def_cfa_offset 0
 1749 003c 67800000 		jr	ra
 1750              		.cfi_endproc
 1751              	.LFE114:
 1753              		.section	.text._ZN13_SemORManagerD0Ev,"axG",@progbits,_ZN13_SemORManagerD5Ev,comdat
 1754              		.align	2
 1755              		.weak	_ZN13_SemORManagerD0Ev
 1757              	_ZN13_SemORManagerD0Ev:
 1758              	.LFB110:
  71:src/../h/_WaitManager.h **** public:
 1759              		.loc 2 71 7 is_stmt 1
 1760              		.cfi_startproc
 1761              	.LVL142:
 1762 0000 130101FF 		addi	sp,sp,-16
 1763              		.cfi_def_cfa_offset 16
 1764 0004 23341100 		sd	ra,8(sp)
 1765 0008 23308100 		sd	s0,0(sp)
 1766              		.cfi_offset 1, -8
 1767              		.cfi_offset 8, -16
 1768 000c 13040101 		addi	s0,sp,16
GAS LISTING /tmp/cc6qYxbF.s 			page 40


 1769              		.cfi_def_cfa 8, 0
 1770 0010 93050500 		mv	a1,a0
 1771              	.LVL143:
 1772              	.LBB68:
 1773              	.LBB69:
  71:src/../h/_WaitManager.h **** public:
 1774              		.loc 2 71 7 is_stmt 0
 1775 0014 97070000 		lla	a5,_ZTV13_SemORManager+16
 1775      93870700 
 1776 001c 2330F500 		sd	a5,0(a0)
 1777              	.LVL144:
 1778              	.LBE69:
 1779              	.LBE68:
 1780              	.LBB70:
 1781              	.LBB71:
  79:src/../h/_WaitManager.h **** 
 1782              		.loc 2 79 39 is_stmt 1
  79:src/../h/_WaitManager.h **** 
 1783              		.loc 2 79 54 is_stmt 0
 1784 0020 17050000 		ld	a0,.LANCHOR0+24
 1784      03350500 
 1785              	.LVL145:
 1786 0028 97000000 		call	_Z15kmem_cache_freeP12kmem_cache_tPv@plt
 1786      E7800000 
 1787              	.LVL146:
 1788              	.LBE71:
 1789              	.LBE70:
  71:src/../h/_WaitManager.h **** public:
 1790              		.loc 2 71 7
 1791 0030 83308100 		ld	ra,8(sp)
 1792              		.cfi_restore 1
 1793 0034 03340100 		ld	s0,0(sp)
 1794              		.cfi_restore 8
 1795              		.cfi_def_cfa 2, 16
 1796 0038 13010101 		addi	sp,sp,16
 1797              		.cfi_def_cfa_offset 0
 1798 003c 67800000 		jr	ra
 1799              		.cfi_endproc
 1800              	.LFE110:
 1802              		.section	.text._ZN14_SemANDManagerD0Ev,"axG",@progbits,_ZN14_SemANDManagerD5Ev,comdat
 1803              		.align	2
 1804              		.weak	_ZN14_SemANDManagerD0Ev
 1806              	_ZN14_SemANDManagerD0Ev:
 1807              	.LFB106:
  88:src/../h/_WaitManager.h **** public:
 1808              		.loc 2 88 7 is_stmt 1
 1809              		.cfi_startproc
 1810              	.LVL147:
 1811 0000 130101FF 		addi	sp,sp,-16
 1812              		.cfi_def_cfa_offset 16
 1813 0004 23341100 		sd	ra,8(sp)
 1814 0008 23308100 		sd	s0,0(sp)
 1815              		.cfi_offset 1, -8
 1816              		.cfi_offset 8, -16
 1817 000c 13040101 		addi	s0,sp,16
 1818              		.cfi_def_cfa 8, 0
 1819 0010 93050500 		mv	a1,a0
GAS LISTING /tmp/cc6qYxbF.s 			page 41


 1820              	.LVL148:
 1821              	.LBB72:
 1822              	.LBB73:
  88:src/../h/_WaitManager.h **** public:
 1823              		.loc 2 88 7 is_stmt 0
 1824 0014 97070000 		lla	a5,_ZTV14_SemANDManager+16
 1824      93870700 
 1825 001c 2330F500 		sd	a5,0(a0)
 1826              	.LVL149:
 1827              	.LBE73:
 1828              	.LBE72:
 1829              	.LBB74:
 1830              	.LBB75:
  96:src/../h/_WaitManager.h **** 
 1831              		.loc 2 96 39 is_stmt 1
  96:src/../h/_WaitManager.h **** 
 1832              		.loc 2 96 54 is_stmt 0
 1833 0020 17050000 		ld	a0,.LANCHOR0+32
 1833      03350500 
 1834              	.LVL150:
 1835 0028 97000000 		call	_Z15kmem_cache_freeP12kmem_cache_tPv@plt
 1835      E7800000 
 1836              	.LVL151:
 1837              	.LBE75:
 1838              	.LBE74:
  88:src/../h/_WaitManager.h **** public:
 1839              		.loc 2 88 7
 1840 0030 83308100 		ld	ra,8(sp)
 1841              		.cfi_restore 1
 1842 0034 03340100 		ld	s0,0(sp)
 1843              		.cfi_restore 8
 1844              		.cfi_def_cfa 2, 16
 1845 0038 13010101 		addi	sp,sp,16
 1846              		.cfi_def_cfa_offset 0
 1847 003c 67800000 		jr	ra
 1848              		.cfi_endproc
 1849              	.LFE106:
 1851              		.section	.text._ZN16_SemSleepManagerD0Ev,"axG",@progbits,_ZN16_SemSleepManagerD5Ev,comdat
 1852              		.align	2
 1853              		.weak	_ZN16_SemSleepManagerD0Ev
 1855              	_ZN16_SemSleepManagerD0Ev:
 1856              	.LFB102:
 105:src/../h/_WaitManager.h **** public:
 1857              		.loc 2 105 7 is_stmt 1
 1858              		.cfi_startproc
 1859              	.LVL152:
 1860 0000 130101FF 		addi	sp,sp,-16
 1861              		.cfi_def_cfa_offset 16
 1862 0004 23341100 		sd	ra,8(sp)
 1863 0008 23308100 		sd	s0,0(sp)
 1864              		.cfi_offset 1, -8
 1865              		.cfi_offset 8, -16
 1866 000c 13040101 		addi	s0,sp,16
 1867              		.cfi_def_cfa 8, 0
 1868 0010 93050500 		mv	a1,a0
 1869              	.LVL153:
 1870              	.LBB76:
GAS LISTING /tmp/cc6qYxbF.s 			page 42


 1871              	.LBB77:
 105:src/../h/_WaitManager.h **** public:
 1872              		.loc 2 105 7 is_stmt 0
 1873 0014 97070000 		lla	a5,_ZTV16_SemSleepManager+16
 1873      93870700 
 1874 001c 2330F500 		sd	a5,0(a0)
 1875              	.LVL154:
 1876              	.LBE77:
 1877              	.LBE76:
 1878              	.LBB78:
 1879              	.LBB79:
 113:src/../h/_WaitManager.h **** 
 1880              		.loc 2 113 39 is_stmt 1
 113:src/../h/_WaitManager.h **** 
 1881              		.loc 2 113 54 is_stmt 0
 1882 0020 17050000 		ld	a0,.LANCHOR0+40
 1882      03350500 
 1883              	.LVL155:
 1884 0028 97000000 		call	_Z15kmem_cache_freeP12kmem_cache_tPv@plt
 1884      E7800000 
 1885              	.LVL156:
 1886              	.LBE79:
 1887              	.LBE78:
 105:src/../h/_WaitManager.h **** public:
 1888              		.loc 2 105 7
 1889 0030 83308100 		ld	ra,8(sp)
 1890              		.cfi_restore 1
 1891 0034 03340100 		ld	s0,0(sp)
 1892              		.cfi_restore 8
 1893              		.cfi_def_cfa 2, 16
 1894 0038 13010101 		addi	sp,sp,16
 1895              		.cfi_def_cfa_offset 0
 1896 003c 67800000 		jr	ra
 1897              		.cfi_endproc
 1898              	.LFE102:
 1900              		.section	.text._ZN17_JoinSleepManagerD0Ev,"axG",@progbits,_ZN17_JoinSleepManagerD5Ev,comdat
 1901              		.align	2
 1902              		.weak	_ZN17_JoinSleepManagerD0Ev
 1904              	_ZN17_JoinSleepManagerD0Ev:
 1905              	.LFB98:
 123:src/../h/_WaitManager.h **** public:
 1906              		.loc 2 123 7 is_stmt 1
 1907              		.cfi_startproc
 1908              	.LVL157:
 1909 0000 130101FF 		addi	sp,sp,-16
 1910              		.cfi_def_cfa_offset 16
 1911 0004 23341100 		sd	ra,8(sp)
 1912 0008 23308100 		sd	s0,0(sp)
 1913              		.cfi_offset 1, -8
 1914              		.cfi_offset 8, -16
 1915 000c 13040101 		addi	s0,sp,16
 1916              		.cfi_def_cfa 8, 0
 1917 0010 93050500 		mv	a1,a0
 1918              	.LVL158:
 1919              	.LBB80:
 1920              	.LBB81:
 123:src/../h/_WaitManager.h **** public:
GAS LISTING /tmp/cc6qYxbF.s 			page 43


 1921              		.loc 2 123 7 is_stmt 0
 1922 0014 97070000 		lla	a5,_ZTV17_JoinSleepManager+16
 1922      93870700 
 1923 001c 2330F500 		sd	a5,0(a0)
 1924              	.LVL159:
 1925              	.LBE81:
 1926              	.LBE80:
 1927              	.LBB82:
 1928              	.LBB83:
 131:src/../h/_WaitManager.h **** 
 1929              		.loc 2 131 39 is_stmt 1
 131:src/../h/_WaitManager.h **** 
 1930              		.loc 2 131 54 is_stmt 0
 1931 0020 17050000 		ld	a0,.LANCHOR0+48
 1931      03350500 
 1932              	.LVL160:
 1933 0028 97000000 		call	_Z15kmem_cache_freeP12kmem_cache_tPv@plt
 1933      E7800000 
 1934              	.LVL161:
 1935              	.LBE83:
 1936              	.LBE82:
 123:src/../h/_WaitManager.h **** public:
 1937              		.loc 2 123 7
 1938 0030 83308100 		ld	ra,8(sp)
 1939              		.cfi_restore 1
 1940 0034 03340100 		ld	s0,0(sp)
 1941              		.cfi_restore 8
 1942              		.cfi_def_cfa 2, 16
 1943 0038 13010101 		addi	sp,sp,16
 1944              		.cfi_def_cfa_offset 0
 1945 003c 67800000 		jr	ra
 1946              		.cfi_endproc
 1947              	.LFE98:
 1949              		.section	.text._ZN18_SemORSleepManagerD0Ev,"axG",@progbits,_ZN18_SemORSleepManagerD5Ev,comdat
 1950              		.align	2
 1951              		.weak	_ZN18_SemORSleepManagerD0Ev
 1953              	_ZN18_SemORSleepManagerD0Ev:
 1954              	.LFB94:
 141:src/../h/_WaitManager.h **** public:
 1955              		.loc 2 141 7 is_stmt 1
 1956              		.cfi_startproc
 1957              	.LVL162:
 1958 0000 130101FF 		addi	sp,sp,-16
 1959              		.cfi_def_cfa_offset 16
 1960 0004 23341100 		sd	ra,8(sp)
 1961 0008 23308100 		sd	s0,0(sp)
 1962              		.cfi_offset 1, -8
 1963              		.cfi_offset 8, -16
 1964 000c 13040101 		addi	s0,sp,16
 1965              		.cfi_def_cfa 8, 0
 1966 0010 93050500 		mv	a1,a0
 1967              	.LVL163:
 1968              	.LBB84:
 1969              	.LBB85:
 141:src/../h/_WaitManager.h **** public:
 1970              		.loc 2 141 7 is_stmt 0
 1971 0014 97070000 		lla	a5,_ZTV18_SemORSleepManager+16
GAS LISTING /tmp/cc6qYxbF.s 			page 44


 1971      93870700 
 1972 001c 2330F500 		sd	a5,0(a0)
 1973              	.LVL164:
 1974              	.LBE85:
 1975              	.LBE84:
 1976              	.LBB86:
 1977              	.LBB87:
 149:src/../h/_WaitManager.h **** 
 1978              		.loc 2 149 39 is_stmt 1
 149:src/../h/_WaitManager.h **** 
 1979              		.loc 2 149 54 is_stmt 0
 1980 0020 17050000 		ld	a0,.LANCHOR0+56
 1980      03350500 
 1981              	.LVL165:
 1982 0028 97000000 		call	_Z15kmem_cache_freeP12kmem_cache_tPv@plt
 1982      E7800000 
 1983              	.LVL166:
 1984              	.LBE87:
 1985              	.LBE86:
 141:src/../h/_WaitManager.h **** public:
 1986              		.loc 2 141 7
 1987 0030 83308100 		ld	ra,8(sp)
 1988              		.cfi_restore 1
 1989 0034 03340100 		ld	s0,0(sp)
 1990              		.cfi_restore 8
 1991              		.cfi_def_cfa 2, 16
 1992 0038 13010101 		addi	sp,sp,16
 1993              		.cfi_def_cfa_offset 0
 1994 003c 67800000 		jr	ra
 1995              		.cfi_endproc
 1996              	.LFE94:
 1998              		.section	.text._ZN19_SemANDSleepManagerD0Ev,"axG",@progbits,_ZN19_SemANDSleepManagerD5Ev,comdat
 1999              		.align	2
 2000              		.weak	_ZN19_SemANDSleepManagerD0Ev
 2002              	_ZN19_SemANDSleepManagerD0Ev:
 2003              	.LFB90:
 2004              		.loc 2 159 7 is_stmt 1
 2005              		.cfi_startproc
 2006              	.LVL167:
 2007 0000 130101FF 		addi	sp,sp,-16
 2008              		.cfi_def_cfa_offset 16
 2009 0004 23341100 		sd	ra,8(sp)
 2010 0008 23308100 		sd	s0,0(sp)
 2011              		.cfi_offset 1, -8
 2012              		.cfi_offset 8, -16
 2013 000c 13040101 		addi	s0,sp,16
 2014              		.cfi_def_cfa 8, 0
 2015 0010 93050500 		mv	a1,a0
 2016              	.LVL168:
 2017              	.LBB88:
 2018              	.LBB89:
 2019              		.loc 2 159 7 is_stmt 0
 2020 0014 97070000 		lla	a5,_ZTV19_SemANDSleepManager+16
 2020      93870700 
 2021 001c 2330F500 		sd	a5,0(a0)
 2022              	.LVL169:
 2023              	.LBE89:
GAS LISTING /tmp/cc6qYxbF.s 			page 45


 2024              	.LBE88:
 2025              	.LBB90:
 2026              	.LBB91:
 160:src/../h/_WaitManager.h **** public:
 161:src/../h/_WaitManager.h ****     _SemANDSleepManager(thread_t my_thread, sem_t sem1, sem_t sem2);
 162:src/../h/_WaitManager.h ****     static kmem_cache_t* cache;
 163:src/../h/_WaitManager.h ****     void*  operator new(size_t size) {
 164:src/../h/_WaitManager.h ****         if (!cache) cache = kmem_cache_create("SemANDSleep_manager Cache", sizeof(_SemANDSleepManag
 165:src/../h/_WaitManager.h ****         return kmem_cache_alloc(cache);
 166:src/../h/_WaitManager.h ****     }
 167:src/../h/_WaitManager.h ****     void operator delete(void* adr) { kmem_cache_free(cache, adr);}
 2027              		.loc 2 167 39 is_stmt 1
 2028              		.loc 2 167 54 is_stmt 0
 2029 0020 17050000 		ld	a0,.LANCHOR0+64
 2029      03350500 
 2030              	.LVL170:
 2031 0028 97000000 		call	_Z15kmem_cache_freeP12kmem_cache_tPv@plt
 2031      E7800000 
 2032              	.LVL171:
 2033              	.LBE91:
 2034              	.LBE90:
 159:src/../h/_WaitManager.h **** public:
 2035              		.loc 2 159 7
 2036 0030 83308100 		ld	ra,8(sp)
 2037              		.cfi_restore 1
 2038 0034 03340100 		ld	s0,0(sp)
 2039              		.cfi_restore 8
 2040              		.cfi_def_cfa 2, 16
 2041 0038 13010101 		addi	sp,sp,16
 2042              		.cfi_def_cfa_offset 0
 2043 003c 67800000 		jr	ra
 2044              		.cfi_endproc
 2045              	.LFE90:
 2047              		.text
 2048              		.align	2
 2049              		.globl	_ZN12_WaitManagerC2EP7_Thread
 2051              	_ZN12_WaitManagerC2EP7_Thread:
 2052              	.LFB28:
   8:src/_WaitManager.cpp **** _WaitManager::_WaitManager(thread_t my_thread) : myThread(my_thread) {}
 2053              		.loc 1 8 1 is_stmt 1
 2054              		.cfi_startproc
 2055              	.LVL172:
 2056 0740 130101FF 		addi	sp,sp,-16
 2057              		.cfi_def_cfa_offset 16
 2058 0744 23348100 		sd	s0,8(sp)
 2059              		.cfi_offset 8, -8
 2060 0748 13040101 		addi	s0,sp,16
 2061              		.cfi_def_cfa 8, 0
 2062              	.LBB92:
   8:src/_WaitManager.cpp **** _WaitManager::_WaitManager(thread_t my_thread) : myThread(my_thread) {}
 2063              		.loc 1 8 68 is_stmt 0
 2064 074c 97070000 		lla	a5,_ZTV12_WaitManager+16
 2064      93870700 
 2065 0754 2330F500 		sd	a5,0(a0)
 2066 0758 2334B500 		sd	a1,8(a0)
 2067              	.LBE92:
   8:src/_WaitManager.cpp **** _WaitManager::_WaitManager(thread_t my_thread) : myThread(my_thread) {}
GAS LISTING /tmp/cc6qYxbF.s 			page 46


 2068              		.loc 1 8 71
 2069 075c 03348100 		ld	s0,8(sp)
 2070              		.cfi_restore 8
 2071              		.cfi_def_cfa 2, 16
 2072 0760 13010101 		addi	sp,sp,16
 2073              		.cfi_def_cfa_offset 0
 2074 0764 67800000 		jr	ra
 2075              		.cfi_endproc
 2076              	.LFE28:
 2078              		.globl	_ZN12_WaitManagerC1EP7_Thread
 2079              		.set	_ZN12_WaitManagerC1EP7_Thread,_ZN12_WaitManagerC2EP7_Thread
 2080              		.align	2
 2081              		.globl	_ZN11_SemManagerC2EP7_ThreadP4_Sem
 2083              	_ZN11_SemManagerC2EP7_ThreadP4_Sem:
 2084              	.LFB39:
  15:src/_WaitManager.cpp **** _SemManager::_SemManager(thread_t my_thread, sem_t sem) : _WaitManager(my_thread), sem(sem) {}
 2085              		.loc 1 15 1 is_stmt 1
 2086              		.cfi_startproc
 2087              	.LVL173:
 2088 0768 130101FE 		addi	sp,sp,-32
 2089              		.cfi_def_cfa_offset 32
 2090 076c 233C1100 		sd	ra,24(sp)
 2091 0770 23388100 		sd	s0,16(sp)
 2092 0774 23349100 		sd	s1,8(sp)
 2093 0778 23302101 		sd	s2,0(sp)
 2094              		.cfi_offset 1, -8
 2095              		.cfi_offset 8, -16
 2096              		.cfi_offset 9, -24
 2097              		.cfi_offset 18, -32
 2098 077c 13040102 		addi	s0,sp,32
 2099              		.cfi_def_cfa 8, 0
 2100 0780 93040500 		mv	s1,a0
 2101 0784 13090600 		mv	s2,a2
 2102              	.LBB93:
  15:src/_WaitManager.cpp **** _SemManager::_SemManager(thread_t my_thread, sem_t sem) : _WaitManager(my_thread), sem(sem) {}
 2103              		.loc 1 15 91 is_stmt 0
 2104 0788 97000000 		call	_ZN12_WaitManagerC2EP7_Thread
 2104      E7800000 
 2105              	.LVL174:
 2106 0790 97070000 		lla	a5,_ZTV11_SemManager+16
 2106      93870700 
 2107 0798 23B0F400 		sd	a5,0(s1)
 2108 079c 23B82401 		sd	s2,16(s1)
 2109              	.LBE93:
  15:src/_WaitManager.cpp **** _SemManager::_SemManager(thread_t my_thread, sem_t sem) : _WaitManager(my_thread), sem(sem) {}
 2110              		.loc 1 15 94
 2111 07a0 83308101 		ld	ra,24(sp)
 2112              		.cfi_restore 1
 2113 07a4 03340101 		ld	s0,16(sp)
 2114              		.cfi_restore 8
 2115              		.cfi_def_cfa 2, 32
 2116 07a8 83348100 		ld	s1,8(sp)
 2117              		.cfi_restore 9
 2118              	.LVL175:
 2119 07ac 03390100 		ld	s2,0(sp)
 2120              		.cfi_restore 18
 2121              	.LVL176:
GAS LISTING /tmp/cc6qYxbF.s 			page 47


 2122 07b0 13010102 		addi	sp,sp,32
 2123              		.cfi_def_cfa_offset 0
 2124 07b4 67800000 		jr	ra
 2125              		.cfi_endproc
 2126              	.LFE39:
 2128              		.globl	_ZN11_SemManagerC1EP7_ThreadP4_Sem
 2129              		.set	_ZN11_SemManagerC1EP7_ThreadP4_Sem,_ZN11_SemManagerC2EP7_ThreadP4_Sem
 2130              		.align	2
 2131              		.globl	_ZN13_SleepManagerC2EP7_Thread
 2133              	_ZN13_SleepManagerC2EP7_Thread:
 2134              	.LFB44:
  27:src/_WaitManager.cpp **** _SleepManager::_SleepManager(thread_t my_thread) : _WaitManager(my_thread) {}
 2135              		.loc 1 27 1 is_stmt 1
 2136              		.cfi_startproc
 2137              	.LVL177:
 2138 07b8 130101FE 		addi	sp,sp,-32
 2139              		.cfi_def_cfa_offset 32
 2140 07bc 233C1100 		sd	ra,24(sp)
 2141 07c0 23388100 		sd	s0,16(sp)
 2142 07c4 23349100 		sd	s1,8(sp)
 2143              		.cfi_offset 1, -8
 2144              		.cfi_offset 8, -16
 2145              		.cfi_offset 9, -24
 2146 07c8 13040102 		addi	s0,sp,32
 2147              		.cfi_def_cfa 8, 0
 2148 07cc 93040500 		mv	s1,a0
 2149              	.LBB94:
  27:src/_WaitManager.cpp **** _SleepManager::_SleepManager(thread_t my_thread) : _WaitManager(my_thread) {}
 2150              		.loc 1 27 74 is_stmt 0
 2151 07d0 97000000 		call	_ZN12_WaitManagerC2EP7_Thread
 2151      E7800000 
 2152              	.LVL178:
 2153 07d8 97070000 		lla	a5,_ZTV13_SleepManager+16
 2153      93870700 
 2154 07e0 23B0F400 		sd	a5,0(s1)
 2155              	.LBE94:
  27:src/_WaitManager.cpp **** _SleepManager::_SleepManager(thread_t my_thread) : _WaitManager(my_thread) {}
 2156              		.loc 1 27 77
 2157 07e4 83308101 		ld	ra,24(sp)
 2158              		.cfi_restore 1
 2159 07e8 03340101 		ld	s0,16(sp)
 2160              		.cfi_restore 8
 2161              		.cfi_def_cfa 2, 32
 2162 07ec 83348100 		ld	s1,8(sp)
 2163              		.cfi_restore 9
 2164              	.LVL179:
 2165 07f0 13010102 		addi	sp,sp,32
 2166              		.cfi_def_cfa_offset 0
 2167 07f4 67800000 		jr	ra
 2168              		.cfi_endproc
 2169              	.LFE44:
 2171              		.globl	_ZN13_SleepManagerC1EP7_Thread
 2172              		.set	_ZN13_SleepManagerC1EP7_Thread,_ZN13_SleepManagerC2EP7_Thread
 2173              		.align	2
 2174              		.globl	_ZN12_JoinManagerC2EP7_ThreadS1_
 2176              	_ZN12_JoinManagerC2EP7_ThreadS1_:
 2177              	.LFB49:
GAS LISTING /tmp/cc6qYxbF.s 			page 48


  37:src/_WaitManager.cpp **** _JoinManager::_JoinManager(thread_t my_thread, thread_t join_thread) : _WaitManager(my_thread), joi
 2178              		.loc 1 37 1 is_stmt 1
 2179              		.cfi_startproc
 2180              	.LVL180:
 2181 07f8 130101FE 		addi	sp,sp,-32
 2182              		.cfi_def_cfa_offset 32
 2183 07fc 233C1100 		sd	ra,24(sp)
 2184 0800 23388100 		sd	s0,16(sp)
 2185 0804 23349100 		sd	s1,8(sp)
 2186 0808 23302101 		sd	s2,0(sp)
 2187              		.cfi_offset 1, -8
 2188              		.cfi_offset 8, -16
 2189              		.cfi_offset 9, -24
 2190              		.cfi_offset 18, -32
 2191 080c 13040102 		addi	s0,sp,32
 2192              		.cfi_def_cfa 8, 0
 2193 0810 93040500 		mv	s1,a0
 2194 0814 13090600 		mv	s2,a2
 2195              	.LBB95:
  37:src/_WaitManager.cpp **** _JoinManager::_JoinManager(thread_t my_thread, thread_t join_thread) : _WaitManager(my_thread), joi
 2196              		.loc 1 37 120 is_stmt 0
 2197 0818 97000000 		call	_ZN12_WaitManagerC2EP7_Thread
 2197      E7800000 
 2198              	.LVL181:
 2199 0820 97070000 		lla	a5,_ZTV12_JoinManager+16
 2199      93870700 
 2200 0828 23B0F400 		sd	a5,0(s1)
 2201 082c 23B82401 		sd	s2,16(s1)
 2202              	.LBE95:
  37:src/_WaitManager.cpp **** _JoinManager::_JoinManager(thread_t my_thread, thread_t join_thread) : _WaitManager(my_thread), joi
 2203              		.loc 1 37 123
 2204 0830 83308101 		ld	ra,24(sp)
 2205              		.cfi_restore 1
 2206 0834 03340101 		ld	s0,16(sp)
 2207              		.cfi_restore 8
 2208              		.cfi_def_cfa 2, 32
 2209 0838 83348100 		ld	s1,8(sp)
 2210              		.cfi_restore 9
 2211              	.LVL182:
 2212 083c 03390100 		ld	s2,0(sp)
 2213              		.cfi_restore 18
 2214              	.LVL183:
 2215 0840 13010102 		addi	sp,sp,32
 2216              		.cfi_def_cfa_offset 0
 2217 0844 67800000 		jr	ra
 2218              		.cfi_endproc
 2219              	.LFE49:
 2221              		.globl	_ZN12_JoinManagerC1EP7_ThreadS1_
 2222              		.set	_ZN12_JoinManagerC1EP7_ThreadS1_,_ZN12_JoinManagerC2EP7_ThreadS1_
 2223              		.align	2
 2224              		.globl	_ZN13_SemORManagerC2EP7_ThreadP4_SemS3_
 2226              	_ZN13_SemORManagerC2EP7_ThreadP4_SemS3_:
 2227              	.LFB54:
  49:src/_WaitManager.cpp **** _SemORManager::_SemORManager(thread_t my_thread, sem_t sem1, sem_t sem2) : _WaitManager(my_thread),
 2228              		.loc 1 49 1 is_stmt 1
 2229              		.cfi_startproc
 2230              	.LVL184:
GAS LISTING /tmp/cc6qYxbF.s 			page 49


 2231 0848 130101FD 		addi	sp,sp,-48
 2232              		.cfi_def_cfa_offset 48
 2233 084c 23341102 		sd	ra,40(sp)
 2234 0850 23308102 		sd	s0,32(sp)
 2235 0854 233C9100 		sd	s1,24(sp)
 2236 0858 23382101 		sd	s2,16(sp)
 2237 085c 23343101 		sd	s3,8(sp)
 2238              		.cfi_offset 1, -8
 2239              		.cfi_offset 8, -16
 2240              		.cfi_offset 9, -24
 2241              		.cfi_offset 18, -32
 2242              		.cfi_offset 19, -40
 2243 0860 13040103 		addi	s0,sp,48
 2244              		.cfi_def_cfa 8, 0
 2245 0864 93040500 		mv	s1,a0
 2246 0868 93090600 		mv	s3,a2
 2247 086c 13890600 		mv	s2,a3
 2248              	.LBB96:
  49:src/_WaitManager.cpp **** _SemORManager::_SemORManager(thread_t my_thread, sem_t sem1, sem_t sem2) : _WaitManager(my_thread),
 2249              		.loc 1 49 122 is_stmt 0
 2250 0870 97000000 		call	_ZN12_WaitManagerC2EP7_Thread
 2250      E7800000 
 2251              	.LVL185:
 2252 0878 97070000 		lla	a5,_ZTV13_SemORManager+16
 2252      93870700 
 2253 0880 23B0F400 		sd	a5,0(s1)
 2254 0884 23B83401 		sd	s3,16(s1)
 2255 0888 23BC2401 		sd	s2,24(s1)
 2256              	.LBE96:
  49:src/_WaitManager.cpp **** _SemORManager::_SemORManager(thread_t my_thread, sem_t sem1, sem_t sem2) : _WaitManager(my_thread),
 2257              		.loc 1 49 125
 2258 088c 83308102 		ld	ra,40(sp)
 2259              		.cfi_restore 1
 2260 0890 03340102 		ld	s0,32(sp)
 2261              		.cfi_restore 8
 2262              		.cfi_def_cfa 2, 48
 2263 0894 83348101 		ld	s1,24(sp)
 2264              		.cfi_restore 9
 2265              	.LVL186:
 2266 0898 03390101 		ld	s2,16(sp)
 2267              		.cfi_restore 18
 2268              	.LVL187:
 2269 089c 83398100 		ld	s3,8(sp)
 2270              		.cfi_restore 19
 2271              	.LVL188:
 2272 08a0 13010103 		addi	sp,sp,48
 2273              		.cfi_def_cfa_offset 0
 2274 08a4 67800000 		jr	ra
 2275              		.cfi_endproc
 2276              	.LFE54:
 2278              		.globl	_ZN13_SemORManagerC1EP7_ThreadP4_SemS3_
 2279              		.set	_ZN13_SemORManagerC1EP7_ThreadP4_SemS3_,_ZN13_SemORManagerC2EP7_ThreadP4_SemS3_
 2280              		.align	2
 2281              		.globl	_ZN14_SemANDManagerC2EP7_ThreadP4_SemS3_
 2283              	_ZN14_SemANDManagerC2EP7_ThreadP4_SemS3_:
 2284              	.LFB59:
  64:src/_WaitManager.cpp **** _SemANDManager::_SemANDManager(thread_t my_thread, sem_t sem1, sem_t sem2) : _WaitManager(my_thread
GAS LISTING /tmp/cc6qYxbF.s 			page 50


 2285              		.loc 1 64 1 is_stmt 1
 2286              		.cfi_startproc
 2287              	.LVL189:
 2288 08a8 130101FD 		addi	sp,sp,-48
 2289              		.cfi_def_cfa_offset 48
 2290 08ac 23341102 		sd	ra,40(sp)
 2291 08b0 23308102 		sd	s0,32(sp)
 2292 08b4 233C9100 		sd	s1,24(sp)
 2293 08b8 23382101 		sd	s2,16(sp)
 2294 08bc 23343101 		sd	s3,8(sp)
 2295              		.cfi_offset 1, -8
 2296              		.cfi_offset 8, -16
 2297              		.cfi_offset 9, -24
 2298              		.cfi_offset 18, -32
 2299              		.cfi_offset 19, -40
 2300 08c0 13040103 		addi	s0,sp,48
 2301              		.cfi_def_cfa 8, 0
 2302 08c4 93040500 		mv	s1,a0
 2303 08c8 93090600 		mv	s3,a2
 2304 08cc 13890600 		mv	s2,a3
 2305              	.LBB97:
  64:src/_WaitManager.cpp **** _SemANDManager::_SemANDManager(thread_t my_thread, sem_t sem1, sem_t sem2) : _WaitManager(my_thread
 2306              		.loc 1 64 124 is_stmt 0
 2307 08d0 97000000 		call	_ZN12_WaitManagerC2EP7_Thread
 2307      E7800000 
 2308              	.LVL190:
 2309 08d8 97070000 		lla	a5,_ZTV14_SemANDManager+16
 2309      93870700 
 2310 08e0 23B0F400 		sd	a5,0(s1)
 2311 08e4 23B83401 		sd	s3,16(s1)
 2312 08e8 23BC2401 		sd	s2,24(s1)
 2313              	.LBE97:
  64:src/_WaitManager.cpp **** _SemANDManager::_SemANDManager(thread_t my_thread, sem_t sem1, sem_t sem2) : _WaitManager(my_thread
 2314              		.loc 1 64 127
 2315 08ec 83308102 		ld	ra,40(sp)
 2316              		.cfi_restore 1
 2317 08f0 03340102 		ld	s0,32(sp)
 2318              		.cfi_restore 8
 2319              		.cfi_def_cfa 2, 48
 2320 08f4 83348101 		ld	s1,24(sp)
 2321              		.cfi_restore 9
 2322              	.LVL191:
 2323 08f8 03390101 		ld	s2,16(sp)
 2324              		.cfi_restore 18
 2325              	.LVL192:
 2326 08fc 83398100 		ld	s3,8(sp)
 2327              		.cfi_restore 19
 2328              	.LVL193:
 2329 0900 13010103 		addi	sp,sp,48
 2330              		.cfi_def_cfa_offset 0
 2331 0904 67800000 		jr	ra
 2332              		.cfi_endproc
 2333              	.LFE59:
 2335              		.globl	_ZN14_SemANDManagerC1EP7_ThreadP4_SemS3_
 2336              		.set	_ZN14_SemANDManagerC1EP7_ThreadP4_SemS3_,_ZN14_SemANDManagerC2EP7_ThreadP4_SemS3_
 2337              		.align	2
 2338              		.globl	_ZN16_SemSleepManagerC2EP7_ThreadP4_Sem
GAS LISTING /tmp/cc6qYxbF.s 			page 51


 2340              	_ZN16_SemSleepManagerC2EP7_ThreadP4_Sem:
 2341              	.LFB64:
  79:src/_WaitManager.cpp **** _SemSleepManager::_SemSleepManager(thread_t my_thread, sem_t sem) : _WaitManager(my_thread), sem(se
 2342              		.loc 1 79 1 is_stmt 1
 2343              		.cfi_startproc
 2344              	.LVL194:
 2345 0908 130101FE 		addi	sp,sp,-32
 2346              		.cfi_def_cfa_offset 32
 2347 090c 233C1100 		sd	ra,24(sp)
 2348 0910 23388100 		sd	s0,16(sp)
 2349 0914 23349100 		sd	s1,8(sp)
 2350 0918 23302101 		sd	s2,0(sp)
 2351              		.cfi_offset 1, -8
 2352              		.cfi_offset 8, -16
 2353              		.cfi_offset 9, -24
 2354              		.cfi_offset 18, -32
 2355 091c 13040102 		addi	s0,sp,32
 2356              		.cfi_def_cfa 8, 0
 2357 0920 93040500 		mv	s1,a0
 2358 0924 13090600 		mv	s2,a2
 2359              	.LBB98:
  79:src/_WaitManager.cpp **** _SemSleepManager::_SemSleepManager(thread_t my_thread, sem_t sem) : _WaitManager(my_thread), sem(se
 2360              		.loc 1 79 101 is_stmt 0
 2361 0928 97000000 		call	_ZN12_WaitManagerC2EP7_Thread
 2361      E7800000 
 2362              	.LVL195:
 2363 0930 97070000 		lla	a5,_ZTV16_SemSleepManager+16
 2363      93870700 
 2364 0938 23B0F400 		sd	a5,0(s1)
 2365 093c 23B82401 		sd	s2,16(s1)
 2366              	.LBE98:
  79:src/_WaitManager.cpp **** _SemSleepManager::_SemSleepManager(thread_t my_thread, sem_t sem) : _WaitManager(my_thread), sem(se
 2367              		.loc 1 79 104
 2368 0940 83308101 		ld	ra,24(sp)
 2369              		.cfi_restore 1
 2370 0944 03340101 		ld	s0,16(sp)
 2371              		.cfi_restore 8
 2372              		.cfi_def_cfa 2, 32
 2373 0948 83348100 		ld	s1,8(sp)
 2374              		.cfi_restore 9
 2375              	.LVL196:
 2376 094c 03390100 		ld	s2,0(sp)
 2377              		.cfi_restore 18
 2378              	.LVL197:
 2379 0950 13010102 		addi	sp,sp,32
 2380              		.cfi_def_cfa_offset 0
 2381 0954 67800000 		jr	ra
 2382              		.cfi_endproc
 2383              	.LFE64:
 2385              		.globl	_ZN16_SemSleepManagerC1EP7_ThreadP4_Sem
 2386              		.set	_ZN16_SemSleepManagerC1EP7_ThreadP4_Sem,_ZN16_SemSleepManagerC2EP7_ThreadP4_Sem
 2387              		.align	2
 2388              		.globl	_ZN17_JoinSleepManagerC2EP7_ThreadS1_
 2390              	_ZN17_JoinSleepManagerC2EP7_ThreadS1_:
 2391              	.LFB70:
  99:src/_WaitManager.cpp **** _JoinSleepManager::_JoinSleepManager(thread_t my_thread, thread_t join_thread) : _WaitManager(my_th
 2392              		.loc 1 99 1 is_stmt 1
GAS LISTING /tmp/cc6qYxbF.s 			page 52


 2393              		.cfi_startproc
 2394              	.LVL198:
 2395 0958 130101FE 		addi	sp,sp,-32
 2396              		.cfi_def_cfa_offset 32
 2397 095c 233C1100 		sd	ra,24(sp)
 2398 0960 23388100 		sd	s0,16(sp)
 2399 0964 23349100 		sd	s1,8(sp)
 2400 0968 23302101 		sd	s2,0(sp)
 2401              		.cfi_offset 1, -8
 2402              		.cfi_offset 8, -16
 2403              		.cfi_offset 9, -24
 2404              		.cfi_offset 18, -32
 2405 096c 13040102 		addi	s0,sp,32
 2406              		.cfi_def_cfa 8, 0
 2407 0970 93040500 		mv	s1,a0
 2408 0974 13090600 		mv	s2,a2
 2409              	.LBB99:
  99:src/_WaitManager.cpp **** _JoinSleepManager::_JoinSleepManager(thread_t my_thread, thread_t join_thread) : _WaitManager(my_th
 2410              		.loc 1 99 130 is_stmt 0
 2411 0978 97000000 		call	_ZN12_WaitManagerC2EP7_Thread
 2411      E7800000 
 2412              	.LVL199:
 2413 0980 97070000 		lla	a5,_ZTV17_JoinSleepManager+16
 2413      93870700 
 2414 0988 23B0F400 		sd	a5,0(s1)
 2415 098c 23B82401 		sd	s2,16(s1)
 2416              	.LBE99:
  99:src/_WaitManager.cpp **** _JoinSleepManager::_JoinSleepManager(thread_t my_thread, thread_t join_thread) : _WaitManager(my_th
 2417              		.loc 1 99 133
 2418 0990 83308101 		ld	ra,24(sp)
 2419              		.cfi_restore 1
 2420 0994 03340101 		ld	s0,16(sp)
 2421              		.cfi_restore 8
 2422              		.cfi_def_cfa 2, 32
 2423 0998 83348100 		ld	s1,8(sp)
 2424              		.cfi_restore 9
 2425              	.LVL200:
 2426 099c 03390100 		ld	s2,0(sp)
 2427              		.cfi_restore 18
 2428              	.LVL201:
 2429 09a0 13010102 		addi	sp,sp,32
 2430              		.cfi_def_cfa_offset 0
 2431 09a4 67800000 		jr	ra
 2432              		.cfi_endproc
 2433              	.LFE70:
 2435              		.globl	_ZN17_JoinSleepManagerC1EP7_ThreadS1_
 2436              		.set	_ZN17_JoinSleepManagerC1EP7_ThreadS1_,_ZN17_JoinSleepManagerC2EP7_ThreadS1_
 2437              		.align	2
 2438              		.globl	_ZN18_SemORSleepManagerC2EP7_ThreadP4_SemS3_
 2440              	_ZN18_SemORSleepManagerC2EP7_ThreadP4_SemS3_:
 2441              	.LFB76:
 119:src/_WaitManager.cpp **** _SemORSleepManager::_SemORSleepManager(thread_t my_thread, sem_t sem1, sem_t sem2) : _WaitManager(m
 2442              		.loc 1 119 1 is_stmt 1
 2443              		.cfi_startproc
 2444              	.LVL202:
 2445 09a8 130101FD 		addi	sp,sp,-48
 2446              		.cfi_def_cfa_offset 48
GAS LISTING /tmp/cc6qYxbF.s 			page 53


 2447 09ac 23341102 		sd	ra,40(sp)
 2448 09b0 23308102 		sd	s0,32(sp)
 2449 09b4 233C9100 		sd	s1,24(sp)
 2450 09b8 23382101 		sd	s2,16(sp)
 2451 09bc 23343101 		sd	s3,8(sp)
 2452              		.cfi_offset 1, -8
 2453              		.cfi_offset 8, -16
 2454              		.cfi_offset 9, -24
 2455              		.cfi_offset 18, -32
 2456              		.cfi_offset 19, -40
 2457 09c0 13040103 		addi	s0,sp,48
 2458              		.cfi_def_cfa 8, 0
 2459 09c4 93040500 		mv	s1,a0
 2460 09c8 93090600 		mv	s3,a2
 2461 09cc 13890600 		mv	s2,a3
 2462              	.LBB100:
 119:src/_WaitManager.cpp **** _SemORSleepManager::_SemORSleepManager(thread_t my_thread, sem_t sem1, sem_t sem2) : _WaitManager(m
 2463              		.loc 1 119 132 is_stmt 0
 2464 09d0 97000000 		call	_ZN12_WaitManagerC2EP7_Thread
 2464      E7800000 
 2465              	.LVL203:
 2466 09d8 97070000 		lla	a5,_ZTV18_SemORSleepManager+16
 2466      93870700 
 2467 09e0 23B0F400 		sd	a5,0(s1)
 2468 09e4 23B83401 		sd	s3,16(s1)
 2469 09e8 23BC2401 		sd	s2,24(s1)
 2470              	.LBE100:
 119:src/_WaitManager.cpp **** _SemORSleepManager::_SemORSleepManager(thread_t my_thread, sem_t sem1, sem_t sem2) : _WaitManager(m
 2471              		.loc 1 119 135
 2472 09ec 83308102 		ld	ra,40(sp)
 2473              		.cfi_restore 1
 2474 09f0 03340102 		ld	s0,32(sp)
 2475              		.cfi_restore 8
 2476              		.cfi_def_cfa 2, 48
 2477 09f4 83348101 		ld	s1,24(sp)
 2478              		.cfi_restore 9
 2479              	.LVL204:
 2480 09f8 03390101 		ld	s2,16(sp)
 2481              		.cfi_restore 18
 2482              	.LVL205:
 2483 09fc 83398100 		ld	s3,8(sp)
 2484              		.cfi_restore 19
 2485              	.LVL206:
 2486 0a00 13010103 		addi	sp,sp,48
 2487              		.cfi_def_cfa_offset 0
 2488 0a04 67800000 		jr	ra
 2489              		.cfi_endproc
 2490              	.LFE76:
 2492              		.globl	_ZN18_SemORSleepManagerC1EP7_ThreadP4_SemS3_
 2493              		.set	_ZN18_SemORSleepManagerC1EP7_ThreadP4_SemS3_,_ZN18_SemORSleepManagerC2EP7_ThreadP4_SemS3_
 2494              		.align	2
 2495              		.globl	_ZN19_SemANDSleepManagerC2EP7_ThreadP4_SemS3_
 2497              	_ZN19_SemANDSleepManagerC2EP7_ThreadP4_SemS3_:
 2498              	.LFB82:
 143:src/_WaitManager.cpp **** _SemANDSleepManager::_SemANDSleepManager(thread_t my_thread, sem_t sem1, sem_t sem2) : _WaitManager
 2499              		.loc 1 143 1 is_stmt 1
 2500              		.cfi_startproc
GAS LISTING /tmp/cc6qYxbF.s 			page 54


 2501              	.LVL207:
 2502 0a08 130101FD 		addi	sp,sp,-48
 2503              		.cfi_def_cfa_offset 48
 2504 0a0c 23341102 		sd	ra,40(sp)
 2505 0a10 23308102 		sd	s0,32(sp)
 2506 0a14 233C9100 		sd	s1,24(sp)
 2507 0a18 23382101 		sd	s2,16(sp)
 2508 0a1c 23343101 		sd	s3,8(sp)
 2509              		.cfi_offset 1, -8
 2510              		.cfi_offset 8, -16
 2511              		.cfi_offset 9, -24
 2512              		.cfi_offset 18, -32
 2513              		.cfi_offset 19, -40
 2514 0a20 13040103 		addi	s0,sp,48
 2515              		.cfi_def_cfa 8, 0
 2516 0a24 93040500 		mv	s1,a0
 2517 0a28 93090600 		mv	s3,a2
 2518 0a2c 13890600 		mv	s2,a3
 2519              	.LBB101:
 143:src/_WaitManager.cpp **** _SemANDSleepManager::_SemANDSleepManager(thread_t my_thread, sem_t sem1, sem_t sem2) : _WaitManager
 2520              		.loc 1 143 134 is_stmt 0
 2521 0a30 97000000 		call	_ZN12_WaitManagerC2EP7_Thread
 2521      E7800000 
 2522              	.LVL208:
 2523 0a38 97070000 		lla	a5,_ZTV19_SemANDSleepManager+16
 2523      93870700 
 2524 0a40 23B0F400 		sd	a5,0(s1)
 2525 0a44 23B83401 		sd	s3,16(s1)
 2526 0a48 23BC2401 		sd	s2,24(s1)
 2527              	.LBE101:
 143:src/_WaitManager.cpp **** _SemANDSleepManager::_SemANDSleepManager(thread_t my_thread, sem_t sem1, sem_t sem2) : _WaitManager
 2528              		.loc 1 143 137
 2529 0a4c 83308102 		ld	ra,40(sp)
 2530              		.cfi_restore 1
 2531 0a50 03340102 		ld	s0,32(sp)
 2532              		.cfi_restore 8
 2533              		.cfi_def_cfa 2, 48
 2534 0a54 83348101 		ld	s1,24(sp)
 2535              		.cfi_restore 9
 2536              	.LVL209:
 2537 0a58 03390101 		ld	s2,16(sp)
 2538              		.cfi_restore 18
 2539              	.LVL210:
 2540 0a5c 83398100 		ld	s3,8(sp)
 2541              		.cfi_restore 19
 2542              	.LVL211:
 2543 0a60 13010103 		addi	sp,sp,48
 2544              		.cfi_def_cfa_offset 0
 2545 0a64 67800000 		jr	ra
 2546              		.cfi_endproc
 2547              	.LFE82:
 2549              		.globl	_ZN19_SemANDSleepManagerC1EP7_ThreadP4_SemS3_
 2550              		.set	_ZN19_SemANDSleepManagerC1EP7_ThreadP4_SemS3_,_ZN19_SemANDSleepManagerC2EP7_ThreadP4_SemS3_
 2551              		.weak	_ZTV12_WaitManager
 2552              		.section	.data.rel.ro.local._ZTV12_WaitManager,"awG",@progbits,_ZTV12_WaitManager,comdat
 2553              		.align	3
 2556              	_ZTV12_WaitManager:
GAS LISTING /tmp/cc6qYxbF.s 			page 55


 2557 0000 00000000 		.dword	0
 2557      00000000 
 2558 0008 00000000 		.dword	0
 2558      00000000 
 2559 0010 00000000 		.dword	_ZN12_WaitManager8sem_passEP4_Sem
 2559      00000000 
 2560 0018 00000000 		.dword	_ZN12_WaitManager10sleep_passEv
 2560      00000000 
 2561 0020 00000000 		.dword	_ZN12_WaitManager9join_passEv
 2561      00000000 
 2562 0028 00000000 		.dword	_ZN12_WaitManager9interruptEv
 2562      00000000 
 2563 0030 00000000 		.dword	_ZN12_WaitManagerD1Ev
 2563      00000000 
 2564 0038 00000000 		.dword	_ZN12_WaitManagerD0Ev
 2564      00000000 
 2565              		.weak	_ZTV11_SemManager
 2566              		.section	.data.rel.ro.local._ZTV11_SemManager,"awG",@progbits,_ZTV11_SemManager,comdat
 2567              		.align	3
 2570              	_ZTV11_SemManager:
 2571 0000 00000000 		.dword	0
 2571      00000000 
 2572 0008 00000000 		.dword	0
 2572      00000000 
 2573 0010 00000000 		.dword	_ZN11_SemManager8sem_passEP4_Sem
 2573      00000000 
 2574 0018 00000000 		.dword	_ZN12_WaitManager10sleep_passEv
 2574      00000000 
 2575 0020 00000000 		.dword	_ZN12_WaitManager9join_passEv
 2575      00000000 
 2576 0028 00000000 		.dword	_ZN11_SemManager9interruptEv
 2576      00000000 
 2577 0030 00000000 		.dword	_ZN11_SemManagerD1Ev
 2577      00000000 
 2578 0038 00000000 		.dword	_ZN11_SemManagerD0Ev
 2578      00000000 
 2579              		.weak	_ZTV13_SleepManager
 2580              		.section	.data.rel.ro.local._ZTV13_SleepManager,"awG",@progbits,_ZTV13_SleepManager,comdat
 2581              		.align	3
 2584              	_ZTV13_SleepManager:
 2585 0000 00000000 		.dword	0
 2585      00000000 
 2586 0008 00000000 		.dword	0
 2586      00000000 
 2587 0010 00000000 		.dword	_ZN12_WaitManager8sem_passEP4_Sem
 2587      00000000 
 2588 0018 00000000 		.dword	_ZN13_SleepManager10sleep_passEv
 2588      00000000 
 2589 0020 00000000 		.dword	_ZN12_WaitManager9join_passEv
 2589      00000000 
 2590 0028 00000000 		.dword	_ZN13_SleepManager9interruptEv
 2590      00000000 
 2591 0030 00000000 		.dword	_ZN13_SleepManagerD1Ev
 2591      00000000 
 2592 0038 00000000 		.dword	_ZN13_SleepManagerD0Ev
 2592      00000000 
 2593              		.weak	_ZTV12_JoinManager
GAS LISTING /tmp/cc6qYxbF.s 			page 56


 2594              		.section	.data.rel.ro.local._ZTV12_JoinManager,"awG",@progbits,_ZTV12_JoinManager,comdat
 2595              		.align	3
 2598              	_ZTV12_JoinManager:
 2599 0000 00000000 		.dword	0
 2599      00000000 
 2600 0008 00000000 		.dword	0
 2600      00000000 
 2601 0010 00000000 		.dword	_ZN12_WaitManager8sem_passEP4_Sem
 2601      00000000 
 2602 0018 00000000 		.dword	_ZN12_WaitManager10sleep_passEv
 2602      00000000 
 2603 0020 00000000 		.dword	_ZN12_JoinManager9join_passEv
 2603      00000000 
 2604 0028 00000000 		.dword	_ZN12_JoinManager9interruptEv
 2604      00000000 
 2605 0030 00000000 		.dword	_ZN12_JoinManagerD1Ev
 2605      00000000 
 2606 0038 00000000 		.dword	_ZN12_JoinManagerD0Ev
 2606      00000000 
 2607              		.weak	_ZTV13_SemORManager
 2608              		.section	.data.rel.ro.local._ZTV13_SemORManager,"awG",@progbits,_ZTV13_SemORManager,comdat
 2609              		.align	3
 2612              	_ZTV13_SemORManager:
 2613 0000 00000000 		.dword	0
 2613      00000000 
 2614 0008 00000000 		.dword	0
 2614      00000000 
 2615 0010 00000000 		.dword	_ZN13_SemORManager8sem_passEP4_Sem
 2615      00000000 
 2616 0018 00000000 		.dword	_ZN12_WaitManager10sleep_passEv
 2616      00000000 
 2617 0020 00000000 		.dword	_ZN12_WaitManager9join_passEv
 2617      00000000 
 2618 0028 00000000 		.dword	_ZN13_SemORManager9interruptEv
 2618      00000000 
 2619 0030 00000000 		.dword	_ZN13_SemORManagerD1Ev
 2619      00000000 
 2620 0038 00000000 		.dword	_ZN13_SemORManagerD0Ev
 2620      00000000 
 2621              		.weak	_ZTV14_SemANDManager
 2622              		.section	.data.rel.ro.local._ZTV14_SemANDManager,"awG",@progbits,_ZTV14_SemANDManager,comdat
 2623              		.align	3
 2626              	_ZTV14_SemANDManager:
 2627 0000 00000000 		.dword	0
 2627      00000000 
 2628 0008 00000000 		.dword	0
 2628      00000000 
 2629 0010 00000000 		.dword	_ZN14_SemANDManager8sem_passEP4_Sem
 2629      00000000 
 2630 0018 00000000 		.dword	_ZN12_WaitManager10sleep_passEv
 2630      00000000 
 2631 0020 00000000 		.dword	_ZN12_WaitManager9join_passEv
 2631      00000000 
 2632 0028 00000000 		.dword	_ZN14_SemANDManager9interruptEv
 2632      00000000 
 2633 0030 00000000 		.dword	_ZN14_SemANDManagerD1Ev
 2633      00000000 
GAS LISTING /tmp/cc6qYxbF.s 			page 57


 2634 0038 00000000 		.dword	_ZN14_SemANDManagerD0Ev
 2634      00000000 
 2635              		.weak	_ZTV16_SemSleepManager
 2636              		.section	.data.rel.ro.local._ZTV16_SemSleepManager,"awG",@progbits,_ZTV16_SemSleepManager,comdat
 2637              		.align	3
 2640              	_ZTV16_SemSleepManager:
 2641 0000 00000000 		.dword	0
 2641      00000000 
 2642 0008 00000000 		.dword	0
 2642      00000000 
 2643 0010 00000000 		.dword	_ZN16_SemSleepManager8sem_passEP4_Sem
 2643      00000000 
 2644 0018 00000000 		.dword	_ZN16_SemSleepManager10sleep_passEv
 2644      00000000 
 2645 0020 00000000 		.dword	_ZN12_WaitManager9join_passEv
 2645      00000000 
 2646 0028 00000000 		.dword	_ZN16_SemSleepManager9interruptEv
 2646      00000000 
 2647 0030 00000000 		.dword	_ZN16_SemSleepManagerD1Ev
 2647      00000000 
 2648 0038 00000000 		.dword	_ZN16_SemSleepManagerD0Ev
 2648      00000000 
 2649              		.weak	_ZTV17_JoinSleepManager
 2650              		.section	.data.rel.ro.local._ZTV17_JoinSleepManager,"awG",@progbits,_ZTV17_JoinSleepManager,comdat
 2651              		.align	3
 2654              	_ZTV17_JoinSleepManager:
 2655 0000 00000000 		.dword	0
 2655      00000000 
 2656 0008 00000000 		.dword	0
 2656      00000000 
 2657 0010 00000000 		.dword	_ZN12_WaitManager8sem_passEP4_Sem
 2657      00000000 
 2658 0018 00000000 		.dword	_ZN17_JoinSleepManager10sleep_passEv
 2658      00000000 
 2659 0020 00000000 		.dword	_ZN17_JoinSleepManager9join_passEv
 2659      00000000 
 2660 0028 00000000 		.dword	_ZN17_JoinSleepManager9interruptEv
 2660      00000000 
 2661 0030 00000000 		.dword	_ZN17_JoinSleepManagerD1Ev
 2661      00000000 
 2662 0038 00000000 		.dword	_ZN17_JoinSleepManagerD0Ev
 2662      00000000 
 2663              		.weak	_ZTV18_SemORSleepManager
 2664              		.section	.data.rel.ro.local._ZTV18_SemORSleepManager,"awG",@progbits,_ZTV18_SemORSleepManager,comd
 2665              		.align	3
 2668              	_ZTV18_SemORSleepManager:
 2669 0000 00000000 		.dword	0
 2669      00000000 
 2670 0008 00000000 		.dword	0
 2670      00000000 
 2671 0010 00000000 		.dword	_ZN18_SemORSleepManager8sem_passEP4_Sem
 2671      00000000 
 2672 0018 00000000 		.dword	_ZN18_SemORSleepManager10sleep_passEv
 2672      00000000 
 2673 0020 00000000 		.dword	_ZN12_WaitManager9join_passEv
 2673      00000000 
 2674 0028 00000000 		.dword	_ZN18_SemORSleepManager9interruptEv
GAS LISTING /tmp/cc6qYxbF.s 			page 58


 2674      00000000 
 2675 0030 00000000 		.dword	_ZN18_SemORSleepManagerD1Ev
 2675      00000000 
 2676 0038 00000000 		.dword	_ZN18_SemORSleepManagerD0Ev
 2676      00000000 
 2677              		.weak	_ZTV19_SemANDSleepManager
 2678              		.section	.data.rel.ro.local._ZTV19_SemANDSleepManager,"awG",@progbits,_ZTV19_SemANDSleepManager,co
 2679              		.align	3
 2682              	_ZTV19_SemANDSleepManager:
 2683 0000 00000000 		.dword	0
 2683      00000000 
 2684 0008 00000000 		.dword	0
 2684      00000000 
 2685 0010 00000000 		.dword	_ZN19_SemANDSleepManager8sem_passEP4_Sem
 2685      00000000 
 2686 0018 00000000 		.dword	_ZN19_SemANDSleepManager10sleep_passEv
 2686      00000000 
 2687 0020 00000000 		.dword	_ZN12_WaitManager9join_passEv
 2687      00000000 
 2688 0028 00000000 		.dword	_ZN19_SemANDSleepManager9interruptEv
 2688      00000000 
 2689 0030 00000000 		.dword	_ZN19_SemANDSleepManagerD1Ev
 2689      00000000 
 2690 0038 00000000 		.dword	_ZN19_SemANDSleepManagerD0Ev
 2690      00000000 
 2691              		.globl	_ZN19_SemANDSleepManager5cacheE
 2692              		.globl	_ZN18_SemORSleepManager5cacheE
 2693              		.globl	_ZN17_JoinSleepManager5cacheE
 2694              		.globl	_ZN16_SemSleepManager5cacheE
 2695              		.globl	_ZN14_SemANDManager5cacheE
 2696              		.globl	_ZN13_SemORManager5cacheE
 2697              		.globl	_ZN12_JoinManager5cacheE
 2698              		.globl	_ZN13_SleepManager5cacheE
 2699              		.globl	_ZN11_SemManager5cacheE
 2700              		.bss
 2701              		.align	3
 2702              		.set	.LANCHOR0,. + 0
 2705              	_ZN11_SemManager5cacheE:
 2706 0000 00000000 		.zero	8
 2706      00000000 
 2709              	_ZN13_SleepManager5cacheE:
 2710 0008 00000000 		.zero	8
 2710      00000000 
 2713              	_ZN12_JoinManager5cacheE:
 2714 0010 00000000 		.zero	8
 2714      00000000 
 2717              	_ZN13_SemORManager5cacheE:
 2718 0018 00000000 		.zero	8
 2718      00000000 
 2721              	_ZN14_SemANDManager5cacheE:
 2722 0020 00000000 		.zero	8
 2722      00000000 
 2725              	_ZN16_SemSleepManager5cacheE:
 2726 0028 00000000 		.zero	8
 2726      00000000 
 2729              	_ZN17_JoinSleepManager5cacheE:
 2730 0030 00000000 		.zero	8
GAS LISTING /tmp/cc6qYxbF.s 			page 59


 2730      00000000 
 2733              	_ZN18_SemORSleepManager5cacheE:
 2734 0038 00000000 		.zero	8
 2734      00000000 
 2737              	_ZN19_SemANDSleepManager5cacheE:
 2738 0040 00000000 		.zero	8
 2738      00000000 
 2739              		.text
 2740              	.Letext0:
 2741              		.file 3 "src/../h/../lib/hw.h"
 2742              		.file 4 "src/../h/types.h"
 2743              		.file 5 "src/../h/_Thread.h"
 2744              		.file 6 "src/../h/_Sem.h"
 2745              		.file 7 "src/../h/_slab.h"
 2746              		.file 8 "src/../h/_ThreadList.h"
 2747              		.file 9 "src/../h/_Sleep.h"
GAS LISTING /tmp/cc6qYxbF.s 			page 60


DEFINED SYMBOLS
                            *ABS*:0000000000000000 _WaitManager.cpp
     /tmp/cc6qYxbF.s:9      .text:0000000000000000 _ZN12_WaitManager8sem_passEP4_Sem
     /tmp/cc6qYxbF.s:13     .text:0000000000000000 .L0 
     /tmp/cc6qYxbF.s:15     .text:0000000000000000 .L0 
     /tmp/cc6qYxbF.s:16     .text:0000000000000004 .L0 
     /tmp/cc6qYxbF.s:18     .text:0000000000000008 .L0 
     /tmp/cc6qYxbF.s:20     .text:000000000000000c .L0 
     /tmp/cc6qYxbF.s:22     .text:000000000000000c .L0 
     /tmp/cc6qYxbF.s:23     .text:000000000000000c .L0 
     /tmp/cc6qYxbF.s:26     .text:0000000000000014 .L0 
     /tmp/cc6qYxbF.s:27     .text:0000000000000014 .L0 
     /tmp/cc6qYxbF.s:29     .text:0000000000000018 .L0 
     /tmp/cc6qYxbF.s:31     .text:000000000000001c .L0 
     /tmp/cc6qYxbF.s:37     .text:000000000000001c _ZN12_WaitManager10sleep_passEv
     /tmp/cc6qYxbF.s:40     .text:000000000000001c .L0 
     /tmp/cc6qYxbF.s:42     .text:000000000000001c .L0 
     /tmp/cc6qYxbF.s:43     .text:0000000000000020 .L0 
     /tmp/cc6qYxbF.s:45     .text:0000000000000024 .L0 
     /tmp/cc6qYxbF.s:47     .text:0000000000000028 .L0 
     /tmp/cc6qYxbF.s:49     .text:0000000000000028 .L0 
     /tmp/cc6qYxbF.s:50     .text:0000000000000028 .L0 
     /tmp/cc6qYxbF.s:53     .text:0000000000000030 .L0 
     /tmp/cc6qYxbF.s:54     .text:0000000000000030 .L0 
     /tmp/cc6qYxbF.s:56     .text:0000000000000034 .L0 
     /tmp/cc6qYxbF.s:58     .text:0000000000000038 .L0 
     /tmp/cc6qYxbF.s:64     .text:0000000000000038 _ZN12_WaitManager9join_passEv
     /tmp/cc6qYxbF.s:67     .text:0000000000000038 .L0 
     /tmp/cc6qYxbF.s:69     .text:0000000000000038 .L0 
     /tmp/cc6qYxbF.s:70     .text:000000000000003c .L0 
     /tmp/cc6qYxbF.s:72     .text:0000000000000040 .L0 
     /tmp/cc6qYxbF.s:74     .text:0000000000000044 .L0 
     /tmp/cc6qYxbF.s:76     .text:0000000000000044 .L0 
     /tmp/cc6qYxbF.s:77     .text:0000000000000044 .L0 
     /tmp/cc6qYxbF.s:80     .text:000000000000004c .L0 
     /tmp/cc6qYxbF.s:81     .text:000000000000004c .L0 
     /tmp/cc6qYxbF.s:83     .text:0000000000000050 .L0 
     /tmp/cc6qYxbF.s:85     .text:0000000000000054 .L0 
     /tmp/cc6qYxbF.s:91     .text:0000000000000054 _ZN12_WaitManager9interruptEv
     /tmp/cc6qYxbF.s:94     .text:0000000000000054 .L0 
     /tmp/cc6qYxbF.s:96     .text:0000000000000054 .L0 
     /tmp/cc6qYxbF.s:97     .text:0000000000000058 .L0 
     /tmp/cc6qYxbF.s:99     .text:000000000000005c .L0 
     /tmp/cc6qYxbF.s:101    .text:0000000000000060 .L0 
     /tmp/cc6qYxbF.s:103    .text:0000000000000060 .L0 
     /tmp/cc6qYxbF.s:104    .text:0000000000000060 .L0 
     /tmp/cc6qYxbF.s:107    .text:0000000000000068 .L0 
     /tmp/cc6qYxbF.s:108    .text:0000000000000068 .L0 
     /tmp/cc6qYxbF.s:110    .text:000000000000006c .L0 
     /tmp/cc6qYxbF.s:112    .text:0000000000000070 .L0 
     /tmp/cc6qYxbF.s:118    .text:0000000000000070 _ZN12_WaitManagerD2Ev
     /tmp/cc6qYxbF.s:121    .text:0000000000000070 .L0 
     /tmp/cc6qYxbF.s:123    .text:0000000000000070 .L0 
     /tmp/cc6qYxbF.s:124    .text:0000000000000074 .L0 
     /tmp/cc6qYxbF.s:126    .text:0000000000000078 .L0 
     /tmp/cc6qYxbF.s:128    .text:000000000000007c .L0 
     /tmp/cc6qYxbF.s:130    .text:000000000000007c .L0 
GAS LISTING /tmp/cc6qYxbF.s 			page 61


     /tmp/cc6qYxbF.s:131    .text:0000000000000080 .L0 
     /tmp/cc6qYxbF.s:132    .text:0000000000000080 .L0 
     /tmp/cc6qYxbF.s:134    .text:0000000000000084 .L0 
     /tmp/cc6qYxbF.s:136    .text:0000000000000088 .L0 
     /tmp/cc6qYxbF.s:118    .text:0000000000000070 _ZN12_WaitManagerD1Ev
     /tmp/cc6qYxbF.s:144    .text:0000000000000088 _ZN11_SemManager8sem_passEP4_Sem
     /tmp/cc6qYxbF.s:147    .text:0000000000000088 .L0 
     /tmp/cc6qYxbF.s:149    .text:0000000000000088 .L0 
     /tmp/cc6qYxbF.s:150    .text:000000000000008c .L0 
     /tmp/cc6qYxbF.s:152    .text:0000000000000090 .L0 
     /tmp/cc6qYxbF.s:154    .text:0000000000000094 .L0 
     /tmp/cc6qYxbF.s:156    .text:0000000000000094 .L0 
     /tmp/cc6qYxbF.s:157    .text:0000000000000094 .L0 
     /tmp/cc6qYxbF.s:159    .text:0000000000000098 .L0 
     /tmp/cc6qYxbF.s:160    .text:0000000000000098 .L0 
     /tmp/cc6qYxbF.s:163    .text:00000000000000a0 .L0 
     /tmp/cc6qYxbF.s:164    .text:00000000000000a0 .L0 
     /tmp/cc6qYxbF.s:166    .text:00000000000000a4 .L0 
     /tmp/cc6qYxbF.s:168    .text:00000000000000a8 .L0 
     /tmp/cc6qYxbF.s:174    .text:00000000000000a8 _ZN13_SleepManager10sleep_passEv
     /tmp/cc6qYxbF.s:177    .text:00000000000000a8 .L0 
     /tmp/cc6qYxbF.s:179    .text:00000000000000a8 .L0 
     /tmp/cc6qYxbF.s:180    .text:00000000000000ac .L0 
     /tmp/cc6qYxbF.s:182    .text:00000000000000b0 .L0 
     /tmp/cc6qYxbF.s:184    .text:00000000000000b4 .L0 
     /tmp/cc6qYxbF.s:186    .text:00000000000000b4 .L0 
     /tmp/cc6qYxbF.s:187    .text:00000000000000b4 .L0 
     /tmp/cc6qYxbF.s:190    .text:00000000000000bc .L0 
     /tmp/cc6qYxbF.s:191    .text:00000000000000bc .L0 
     /tmp/cc6qYxbF.s:193    .text:00000000000000c0 .L0 
     /tmp/cc6qYxbF.s:195    .text:00000000000000c4 .L0 
     /tmp/cc6qYxbF.s:201    .text:00000000000000c4 _ZN12_JoinManager9join_passEv
     /tmp/cc6qYxbF.s:204    .text:00000000000000c4 .L0 
     /tmp/cc6qYxbF.s:206    .text:00000000000000c4 .L0 
     /tmp/cc6qYxbF.s:207    .text:00000000000000c8 .L0 
     /tmp/cc6qYxbF.s:209    .text:00000000000000cc .L0 
     /tmp/cc6qYxbF.s:211    .text:00000000000000d0 .L0 
     /tmp/cc6qYxbF.s:213    .text:00000000000000d0 .L0 
     /tmp/cc6qYxbF.s:214    .text:00000000000000d0 .L0 
     /tmp/cc6qYxbF.s:216    .text:00000000000000d4 .L0 
     /tmp/cc6qYxbF.s:217    .text:00000000000000d4 .L0 
     /tmp/cc6qYxbF.s:220    .text:00000000000000dc .L0 
     /tmp/cc6qYxbF.s:221    .text:00000000000000dc .L0 
     /tmp/cc6qYxbF.s:223    .text:00000000000000e0 .L0 
     /tmp/cc6qYxbF.s:225    .text:00000000000000e4 .L0 
     /tmp/cc6qYxbF.s:231    .text:00000000000000e4 _ZN14_SemANDManager8sem_passEP4_Sem
     /tmp/cc6qYxbF.s:234    .text:00000000000000e4 .L0 
     /tmp/cc6qYxbF.s:236    .text:00000000000000e4 .L0 
     /tmp/cc6qYxbF.s:237    .text:00000000000000e8 .L0 
     /tmp/cc6qYxbF.s:239    .text:00000000000000ec .L0 
     /tmp/cc6qYxbF.s:241    .text:00000000000000f0 .L0 
     /tmp/cc6qYxbF.s:243    .text:00000000000000f0 .L0 
     /tmp/cc6qYxbF.s:244    .text:00000000000000f0 .L0 
     /tmp/cc6qYxbF.s:246    .text:00000000000000f4 .L0 
     /tmp/cc6qYxbF.s:248    .text:00000000000000f8 .L0 
     /tmp/cc6qYxbF.s:249    .text:00000000000000f8 .L0 
     /tmp/cc6qYxbF.s:252    .text:00000000000000fc .L0 
GAS LISTING /tmp/cc6qYxbF.s 			page 62


     /tmp/cc6qYxbF.s:253    .text:00000000000000fc .L0 
     /tmp/cc6qYxbF.s:255    .text:0000000000000100 .L0 
     /tmp/cc6qYxbF.s:257    .text:0000000000000104 .L0 
     /tmp/cc6qYxbF.s:261    .text:0000000000000108 .L0 
     /tmp/cc6qYxbF.s:262    .text:000000000000010c .L0 
     /tmp/cc6qYxbF.s:263    .text:000000000000010c .L0 
     /tmp/cc6qYxbF.s:264    .text:000000000000010c .L0 
     /tmp/cc6qYxbF.s:266    .text:0000000000000110 .L0 
     /tmp/cc6qYxbF.s:270    .text:0000000000000114 .L0 
     /tmp/cc6qYxbF.s:272    .text:0000000000000114 .L0 
     /tmp/cc6qYxbF.s:273    .text:0000000000000114 .L0 
     /tmp/cc6qYxbF.s:277    .text:000000000000011c .L0 
     /tmp/cc6qYxbF.s:279    .text:0000000000000120 .L0 
     /tmp/cc6qYxbF.s:281    .text:0000000000000124 .L0 
     /tmp/cc6qYxbF.s:287    .text:000000000000012c .L0 
     /tmp/cc6qYxbF.s:290    .text:0000000000000134 .L0 
     /tmp/cc6qYxbF.s:297    .text._ZN19_SemANDSleepManagerD2Ev:0000000000000000 _ZN19_SemANDSleepManagerD2Ev
     /tmp/cc6qYxbF.s:301    .text._ZN19_SemANDSleepManagerD2Ev:0000000000000000 .L0 
     /tmp/cc6qYxbF.s:303    .text._ZN19_SemANDSleepManagerD2Ev:0000000000000000 .L0 
     /tmp/cc6qYxbF.s:304    .text._ZN19_SemANDSleepManagerD2Ev:0000000000000004 .L0 
     /tmp/cc6qYxbF.s:306    .text._ZN19_SemANDSleepManagerD2Ev:0000000000000008 .L0 
     /tmp/cc6qYxbF.s:308    .text._ZN19_SemANDSleepManagerD2Ev:000000000000000c .L0 
     /tmp/cc6qYxbF.s:2682   .data.rel.ro.local._ZTV19_SemANDSleepManager:0000000000000000 _ZTV19_SemANDSleepManager
     /tmp/cc6qYxbF.s:311    .text._ZN19_SemANDSleepManagerD2Ev:000000000000000c .L0 
     /tmp/cc6qYxbF.s:315    .text._ZN19_SemANDSleepManagerD2Ev:000000000000001c .L0 
     /tmp/cc6qYxbF.s:316    .text._ZN19_SemANDSleepManagerD2Ev:000000000000001c .L0 
     /tmp/cc6qYxbF.s:318    .text._ZN19_SemANDSleepManagerD2Ev:0000000000000020 .L0 
     /tmp/cc6qYxbF.s:320    .text._ZN19_SemANDSleepManagerD2Ev:0000000000000024 .L0 
     /tmp/cc6qYxbF.s:297    .text._ZN19_SemANDSleepManagerD2Ev:0000000000000000 _ZN19_SemANDSleepManagerD1Ev
     /tmp/cc6qYxbF.s:329    .text._ZN18_SemORSleepManagerD2Ev:0000000000000000 _ZN18_SemORSleepManagerD2Ev
     /tmp/cc6qYxbF.s:332    .text._ZN18_SemORSleepManagerD2Ev:0000000000000000 .L0 
     /tmp/cc6qYxbF.s:334    .text._ZN18_SemORSleepManagerD2Ev:0000000000000000 .L0 
     /tmp/cc6qYxbF.s:335    .text._ZN18_SemORSleepManagerD2Ev:0000000000000004 .L0 
     /tmp/cc6qYxbF.s:337    .text._ZN18_SemORSleepManagerD2Ev:0000000000000008 .L0 
     /tmp/cc6qYxbF.s:339    .text._ZN18_SemORSleepManagerD2Ev:000000000000000c .L0 
     /tmp/cc6qYxbF.s:2668   .data.rel.ro.local._ZTV18_SemORSleepManager:0000000000000000 _ZTV18_SemORSleepManager
     /tmp/cc6qYxbF.s:342    .text._ZN18_SemORSleepManagerD2Ev:000000000000000c .L0 
     /tmp/cc6qYxbF.s:346    .text._ZN18_SemORSleepManagerD2Ev:000000000000001c .L0 
     /tmp/cc6qYxbF.s:347    .text._ZN18_SemORSleepManagerD2Ev:000000000000001c .L0 
     /tmp/cc6qYxbF.s:349    .text._ZN18_SemORSleepManagerD2Ev:0000000000000020 .L0 
     /tmp/cc6qYxbF.s:351    .text._ZN18_SemORSleepManagerD2Ev:0000000000000024 .L0 
     /tmp/cc6qYxbF.s:329    .text._ZN18_SemORSleepManagerD2Ev:0000000000000000 _ZN18_SemORSleepManagerD1Ev
     /tmp/cc6qYxbF.s:360    .text._ZN17_JoinSleepManagerD2Ev:0000000000000000 _ZN17_JoinSleepManagerD2Ev
     /tmp/cc6qYxbF.s:363    .text._ZN17_JoinSleepManagerD2Ev:0000000000000000 .L0 
     /tmp/cc6qYxbF.s:365    .text._ZN17_JoinSleepManagerD2Ev:0000000000000000 .L0 
     /tmp/cc6qYxbF.s:366    .text._ZN17_JoinSleepManagerD2Ev:0000000000000004 .L0 
     /tmp/cc6qYxbF.s:368    .text._ZN17_JoinSleepManagerD2Ev:0000000000000008 .L0 
     /tmp/cc6qYxbF.s:370    .text._ZN17_JoinSleepManagerD2Ev:000000000000000c .L0 
     /tmp/cc6qYxbF.s:2654   .data.rel.ro.local._ZTV17_JoinSleepManager:0000000000000000 _ZTV17_JoinSleepManager
     /tmp/cc6qYxbF.s:373    .text._ZN17_JoinSleepManagerD2Ev:000000000000000c .L0 
     /tmp/cc6qYxbF.s:377    .text._ZN17_JoinSleepManagerD2Ev:000000000000001c .L0 
     /tmp/cc6qYxbF.s:378    .text._ZN17_JoinSleepManagerD2Ev:000000000000001c .L0 
     /tmp/cc6qYxbF.s:380    .text._ZN17_JoinSleepManagerD2Ev:0000000000000020 .L0 
     /tmp/cc6qYxbF.s:382    .text._ZN17_JoinSleepManagerD2Ev:0000000000000024 .L0 
     /tmp/cc6qYxbF.s:360    .text._ZN17_JoinSleepManagerD2Ev:0000000000000000 _ZN17_JoinSleepManagerD1Ev
     /tmp/cc6qYxbF.s:391    .text._ZN16_SemSleepManagerD2Ev:0000000000000000 _ZN16_SemSleepManagerD2Ev
     /tmp/cc6qYxbF.s:394    .text._ZN16_SemSleepManagerD2Ev:0000000000000000 .L0 
GAS LISTING /tmp/cc6qYxbF.s 			page 63


     /tmp/cc6qYxbF.s:396    .text._ZN16_SemSleepManagerD2Ev:0000000000000000 .L0 
     /tmp/cc6qYxbF.s:397    .text._ZN16_SemSleepManagerD2Ev:0000000000000004 .L0 
     /tmp/cc6qYxbF.s:399    .text._ZN16_SemSleepManagerD2Ev:0000000000000008 .L0 
     /tmp/cc6qYxbF.s:401    .text._ZN16_SemSleepManagerD2Ev:000000000000000c .L0 
     /tmp/cc6qYxbF.s:2640   .data.rel.ro.local._ZTV16_SemSleepManager:0000000000000000 _ZTV16_SemSleepManager
     /tmp/cc6qYxbF.s:404    .text._ZN16_SemSleepManagerD2Ev:000000000000000c .L0 
     /tmp/cc6qYxbF.s:408    .text._ZN16_SemSleepManagerD2Ev:000000000000001c .L0 
     /tmp/cc6qYxbF.s:409    .text._ZN16_SemSleepManagerD2Ev:000000000000001c .L0 
     /tmp/cc6qYxbF.s:411    .text._ZN16_SemSleepManagerD2Ev:0000000000000020 .L0 
     /tmp/cc6qYxbF.s:413    .text._ZN16_SemSleepManagerD2Ev:0000000000000024 .L0 
     /tmp/cc6qYxbF.s:391    .text._ZN16_SemSleepManagerD2Ev:0000000000000000 _ZN16_SemSleepManagerD1Ev
     /tmp/cc6qYxbF.s:422    .text._ZN14_SemANDManagerD2Ev:0000000000000000 _ZN14_SemANDManagerD2Ev
     /tmp/cc6qYxbF.s:425    .text._ZN14_SemANDManagerD2Ev:0000000000000000 .L0 
     /tmp/cc6qYxbF.s:427    .text._ZN14_SemANDManagerD2Ev:0000000000000000 .L0 
     /tmp/cc6qYxbF.s:428    .text._ZN14_SemANDManagerD2Ev:0000000000000004 .L0 
     /tmp/cc6qYxbF.s:430    .text._ZN14_SemANDManagerD2Ev:0000000000000008 .L0 
     /tmp/cc6qYxbF.s:432    .text._ZN14_SemANDManagerD2Ev:000000000000000c .L0 
     /tmp/cc6qYxbF.s:2626   .data.rel.ro.local._ZTV14_SemANDManager:0000000000000000 _ZTV14_SemANDManager
     /tmp/cc6qYxbF.s:435    .text._ZN14_SemANDManagerD2Ev:000000000000000c .L0 
     /tmp/cc6qYxbF.s:439    .text._ZN14_SemANDManagerD2Ev:000000000000001c .L0 
     /tmp/cc6qYxbF.s:440    .text._ZN14_SemANDManagerD2Ev:000000000000001c .L0 
     /tmp/cc6qYxbF.s:442    .text._ZN14_SemANDManagerD2Ev:0000000000000020 .L0 
     /tmp/cc6qYxbF.s:444    .text._ZN14_SemANDManagerD2Ev:0000000000000024 .L0 
     /tmp/cc6qYxbF.s:422    .text._ZN14_SemANDManagerD2Ev:0000000000000000 _ZN14_SemANDManagerD1Ev
     /tmp/cc6qYxbF.s:453    .text._ZN13_SemORManagerD2Ev:0000000000000000 _ZN13_SemORManagerD2Ev
     /tmp/cc6qYxbF.s:456    .text._ZN13_SemORManagerD2Ev:0000000000000000 .L0 
     /tmp/cc6qYxbF.s:458    .text._ZN13_SemORManagerD2Ev:0000000000000000 .L0 
     /tmp/cc6qYxbF.s:459    .text._ZN13_SemORManagerD2Ev:0000000000000004 .L0 
     /tmp/cc6qYxbF.s:461    .text._ZN13_SemORManagerD2Ev:0000000000000008 .L0 
     /tmp/cc6qYxbF.s:463    .text._ZN13_SemORManagerD2Ev:000000000000000c .L0 
     /tmp/cc6qYxbF.s:2612   .data.rel.ro.local._ZTV13_SemORManager:0000000000000000 _ZTV13_SemORManager
     /tmp/cc6qYxbF.s:466    .text._ZN13_SemORManagerD2Ev:000000000000000c .L0 
     /tmp/cc6qYxbF.s:470    .text._ZN13_SemORManagerD2Ev:000000000000001c .L0 
     /tmp/cc6qYxbF.s:471    .text._ZN13_SemORManagerD2Ev:000000000000001c .L0 
     /tmp/cc6qYxbF.s:473    .text._ZN13_SemORManagerD2Ev:0000000000000020 .L0 
     /tmp/cc6qYxbF.s:475    .text._ZN13_SemORManagerD2Ev:0000000000000024 .L0 
     /tmp/cc6qYxbF.s:453    .text._ZN13_SemORManagerD2Ev:0000000000000000 _ZN13_SemORManagerD1Ev
     /tmp/cc6qYxbF.s:484    .text._ZN12_JoinManagerD2Ev:0000000000000000 _ZN12_JoinManagerD2Ev
     /tmp/cc6qYxbF.s:487    .text._ZN12_JoinManagerD2Ev:0000000000000000 .L0 
     /tmp/cc6qYxbF.s:489    .text._ZN12_JoinManagerD2Ev:0000000000000000 .L0 
     /tmp/cc6qYxbF.s:490    .text._ZN12_JoinManagerD2Ev:0000000000000004 .L0 
     /tmp/cc6qYxbF.s:492    .text._ZN12_JoinManagerD2Ev:0000000000000008 .L0 
     /tmp/cc6qYxbF.s:494    .text._ZN12_JoinManagerD2Ev:000000000000000c .L0 
     /tmp/cc6qYxbF.s:2598   .data.rel.ro.local._ZTV12_JoinManager:0000000000000000 _ZTV12_JoinManager
     /tmp/cc6qYxbF.s:497    .text._ZN12_JoinManagerD2Ev:000000000000000c .L0 
     /tmp/cc6qYxbF.s:501    .text._ZN12_JoinManagerD2Ev:000000000000001c .L0 
     /tmp/cc6qYxbF.s:502    .text._ZN12_JoinManagerD2Ev:000000000000001c .L0 
     /tmp/cc6qYxbF.s:504    .text._ZN12_JoinManagerD2Ev:0000000000000020 .L0 
     /tmp/cc6qYxbF.s:506    .text._ZN12_JoinManagerD2Ev:0000000000000024 .L0 
     /tmp/cc6qYxbF.s:484    .text._ZN12_JoinManagerD2Ev:0000000000000000 _ZN12_JoinManagerD1Ev
     /tmp/cc6qYxbF.s:515    .text._ZN13_SleepManagerD2Ev:0000000000000000 _ZN13_SleepManagerD2Ev
     /tmp/cc6qYxbF.s:518    .text._ZN13_SleepManagerD2Ev:0000000000000000 .L0 
     /tmp/cc6qYxbF.s:520    .text._ZN13_SleepManagerD2Ev:0000000000000000 .L0 
     /tmp/cc6qYxbF.s:521    .text._ZN13_SleepManagerD2Ev:0000000000000004 .L0 
     /tmp/cc6qYxbF.s:523    .text._ZN13_SleepManagerD2Ev:0000000000000008 .L0 
     /tmp/cc6qYxbF.s:525    .text._ZN13_SleepManagerD2Ev:000000000000000c .L0 
     /tmp/cc6qYxbF.s:2584   .data.rel.ro.local._ZTV13_SleepManager:0000000000000000 _ZTV13_SleepManager
GAS LISTING /tmp/cc6qYxbF.s 			page 64


     /tmp/cc6qYxbF.s:528    .text._ZN13_SleepManagerD2Ev:000000000000000c .L0 
     /tmp/cc6qYxbF.s:532    .text._ZN13_SleepManagerD2Ev:000000000000001c .L0 
     /tmp/cc6qYxbF.s:533    .text._ZN13_SleepManagerD2Ev:000000000000001c .L0 
     /tmp/cc6qYxbF.s:535    .text._ZN13_SleepManagerD2Ev:0000000000000020 .L0 
     /tmp/cc6qYxbF.s:537    .text._ZN13_SleepManagerD2Ev:0000000000000024 .L0 
     /tmp/cc6qYxbF.s:515    .text._ZN13_SleepManagerD2Ev:0000000000000000 _ZN13_SleepManagerD1Ev
     /tmp/cc6qYxbF.s:546    .text._ZN11_SemManagerD2Ev:0000000000000000 _ZN11_SemManagerD2Ev
     /tmp/cc6qYxbF.s:549    .text._ZN11_SemManagerD2Ev:0000000000000000 .L0 
     /tmp/cc6qYxbF.s:551    .text._ZN11_SemManagerD2Ev:0000000000000000 .L0 
     /tmp/cc6qYxbF.s:552    .text._ZN11_SemManagerD2Ev:0000000000000004 .L0 
     /tmp/cc6qYxbF.s:554    .text._ZN11_SemManagerD2Ev:0000000000000008 .L0 
     /tmp/cc6qYxbF.s:556    .text._ZN11_SemManagerD2Ev:000000000000000c .L0 
     /tmp/cc6qYxbF.s:2570   .data.rel.ro.local._ZTV11_SemManager:0000000000000000 _ZTV11_SemManager
     /tmp/cc6qYxbF.s:559    .text._ZN11_SemManagerD2Ev:000000000000000c .L0 
     /tmp/cc6qYxbF.s:563    .text._ZN11_SemManagerD2Ev:000000000000001c .L0 
     /tmp/cc6qYxbF.s:564    .text._ZN11_SemManagerD2Ev:000000000000001c .L0 
     /tmp/cc6qYxbF.s:566    .text._ZN11_SemManagerD2Ev:0000000000000020 .L0 
     /tmp/cc6qYxbF.s:568    .text._ZN11_SemManagerD2Ev:0000000000000024 .L0 
     /tmp/cc6qYxbF.s:546    .text._ZN11_SemManagerD2Ev:0000000000000000 _ZN11_SemManagerD1Ev
     /tmp/cc6qYxbF.s:577    .text:0000000000000134 _ZN12_WaitManagerD0Ev
     /tmp/cc6qYxbF.s:580    .text:0000000000000134 .L0 
     /tmp/cc6qYxbF.s:582    .text:0000000000000134 .L0 
     /tmp/cc6qYxbF.s:583    .text:0000000000000138 .L0 
     /tmp/cc6qYxbF.s:586    .text:0000000000000140 .L0 
     /tmp/cc6qYxbF.s:587    .text:0000000000000140 .L0 
     /tmp/cc6qYxbF.s:589    .text:0000000000000144 .L0 
     /tmp/cc6qYxbF.s:591    .text:0000000000000144 .L0 
     /tmp/cc6qYxbF.s:594    .text:0000000000000150 .L0 
     /tmp/cc6qYxbF.s:596    .text:0000000000000154 .L0 
     /tmp/cc6qYxbF.s:597    .text:0000000000000154 .L0 
     /tmp/cc6qYxbF.s:599    .text:0000000000000158 .L0 
     /tmp/cc6qYxbF.s:601    .text:000000000000015c .L0 
     /tmp/cc6qYxbF.s:607    .text:000000000000015c _ZN11_SemManager9interruptEv
     /tmp/cc6qYxbF.s:610    .text:000000000000015c .L0 
     /tmp/cc6qYxbF.s:612    .text:000000000000015c .L0 
     /tmp/cc6qYxbF.s:613    .text:0000000000000160 .L0 
     /tmp/cc6qYxbF.s:617    .text:000000000000016c .L0 
     /tmp/cc6qYxbF.s:618    .text:000000000000016c .L0 
     /tmp/cc6qYxbF.s:619    .text:000000000000016c .L0 
     /tmp/cc6qYxbF.s:621    .text:0000000000000170 .L0 
     /tmp/cc6qYxbF.s:624    .text:0000000000000174 .L0 
     /tmp/cc6qYxbF.s:625    .text:0000000000000174 .L0 
     /tmp/cc6qYxbF.s:631    .text:0000000000000184 .L0 
     /tmp/cc6qYxbF.s:632    .text:0000000000000184 .L0 
     /tmp/cc6qYxbF.s:634    .text:0000000000000188 .L0 
     /tmp/cc6qYxbF.s:635    .text:0000000000000188 .L0 
     /tmp/cc6qYxbF.s:637    .text:0000000000000190 .L0 
     /tmp/cc6qYxbF.s:639    .text:0000000000000194 .L0 
     /tmp/cc6qYxbF.s:640    .text:0000000000000194 .L0 
     /tmp/cc6qYxbF.s:642    .text:0000000000000198 .L0 
     /tmp/cc6qYxbF.s:645    .text:000000000000019c .L0 
     /tmp/cc6qYxbF.s:647    .text:00000000000001a0 .L0 
     /tmp/cc6qYxbF.s:653    .text:00000000000001a0 _ZN13_SemORManager8sem_passEP4_Sem
     /tmp/cc6qYxbF.s:656    .text:00000000000001a0 .L0 
     /tmp/cc6qYxbF.s:658    .text:00000000000001a0 .L0 
     /tmp/cc6qYxbF.s:659    .text:00000000000001a4 .L0 
     /tmp/cc6qYxbF.s:663    .text:00000000000001b0 .L0 
GAS LISTING /tmp/cc6qYxbF.s 			page 65


     /tmp/cc6qYxbF.s:664    .text:00000000000001b0 .L0 
     /tmp/cc6qYxbF.s:665    .text:00000000000001b0 .L0 
     /tmp/cc6qYxbF.s:667    .text:00000000000001b4 .L0 
     /tmp/cc6qYxbF.s:670    .text:00000000000001b8 .L0 
     /tmp/cc6qYxbF.s:671    .text:00000000000001b8 .L0 
     /tmp/cc6qYxbF.s:674    .text:00000000000001bc .L0 
     /tmp/cc6qYxbF.s:676    .text:00000000000001c0 .L0 
     /tmp/cc6qYxbF.s:677    .text:00000000000001c0 .L0 
     /tmp/cc6qYxbF.s:683    .text:00000000000001cc .L0 
     /tmp/cc6qYxbF.s:684    .text:00000000000001cc .L0 
     /tmp/cc6qYxbF.s:686    .text:00000000000001d0 .L0 
     /tmp/cc6qYxbF.s:688    .text:00000000000001d4 .L0 
     /tmp/cc6qYxbF.s:689    .text:00000000000001d4 .L0 
     /tmp/cc6qYxbF.s:691    .text:00000000000001dc .L0 
     /tmp/cc6qYxbF.s:692    .text:00000000000001dc .L0 
     /tmp/cc6qYxbF.s:694    .text:00000000000001e0 .L0 
     /tmp/cc6qYxbF.s:695    .text:00000000000001e0 .L0 
     /tmp/cc6qYxbF.s:697    .text:00000000000001e4 .L0 
     /tmp/cc6qYxbF.s:700    .text:00000000000001e8 .L0 
     /tmp/cc6qYxbF.s:704    .text:00000000000001ec .L0 
     /tmp/cc6qYxbF.s:706    .text:00000000000001ec .L0 
     /tmp/cc6qYxbF.s:707    .text:00000000000001ec .L0 
     /tmp/cc6qYxbF.s:713    .text:0000000000000200 .L0 
     /tmp/cc6qYxbF.s:719    .text:0000000000000200 _ZN13_SemORManager9interruptEv
     /tmp/cc6qYxbF.s:722    .text:0000000000000200 .L0 
     /tmp/cc6qYxbF.s:724    .text:0000000000000200 .L0 
     /tmp/cc6qYxbF.s:725    .text:0000000000000204 .L0 
     /tmp/cc6qYxbF.s:729    .text:0000000000000210 .L0 
     /tmp/cc6qYxbF.s:730    .text:0000000000000210 .L0 
     /tmp/cc6qYxbF.s:731    .text:0000000000000210 .L0 
     /tmp/cc6qYxbF.s:733    .text:0000000000000214 .L0 
     /tmp/cc6qYxbF.s:736    .text:0000000000000218 .L0 
     /tmp/cc6qYxbF.s:737    .text:0000000000000218 .L0 
     /tmp/cc6qYxbF.s:740    .text:000000000000021c .L0 
     /tmp/cc6qYxbF.s:742    .text:0000000000000220 .L0 
     /tmp/cc6qYxbF.s:743    .text:0000000000000220 .L0 
     /tmp/cc6qYxbF.s:748    .text:000000000000022c .L0 
     /tmp/cc6qYxbF.s:749    .text:000000000000022c .L0 
     /tmp/cc6qYxbF.s:751    .text:0000000000000230 .L0 
     /tmp/cc6qYxbF.s:753    .text:0000000000000234 .L0 
     /tmp/cc6qYxbF.s:754    .text:0000000000000234 .L0 
     /tmp/cc6qYxbF.s:759    .text:0000000000000240 .L0 
     /tmp/cc6qYxbF.s:760    .text:0000000000000240 .L0 
     /tmp/cc6qYxbF.s:762    .text:0000000000000244 .L0 
     /tmp/cc6qYxbF.s:764    .text:0000000000000248 .L0 
     /tmp/cc6qYxbF.s:765    .text:0000000000000248 .L0 
     /tmp/cc6qYxbF.s:767    .text:0000000000000250 .L0 
     /tmp/cc6qYxbF.s:769    .text:0000000000000254 .L0 
     /tmp/cc6qYxbF.s:770    .text:0000000000000254 .L0 
     /tmp/cc6qYxbF.s:772    .text:0000000000000258 .L0 
     /tmp/cc6qYxbF.s:775    .text:000000000000025c .L0 
     /tmp/cc6qYxbF.s:777    .text:0000000000000260 .L0 
     /tmp/cc6qYxbF.s:783    .text:0000000000000260 _ZN14_SemANDManager9interruptEv
     /tmp/cc6qYxbF.s:786    .text:0000000000000260 .L0 
     /tmp/cc6qYxbF.s:788    .text:0000000000000260 .L0 
     /tmp/cc6qYxbF.s:789    .text:0000000000000264 .L0 
     /tmp/cc6qYxbF.s:793    .text:0000000000000270 .L0 
GAS LISTING /tmp/cc6qYxbF.s 			page 66


     /tmp/cc6qYxbF.s:794    .text:0000000000000270 .L0 
     /tmp/cc6qYxbF.s:795    .text:0000000000000270 .L0 
     /tmp/cc6qYxbF.s:797    .text:0000000000000274 .L0 
     /tmp/cc6qYxbF.s:800    .text:0000000000000278 .L0 
     /tmp/cc6qYxbF.s:801    .text:0000000000000278 .L0 
     /tmp/cc6qYxbF.s:804    .text:000000000000027c .L0 
     /tmp/cc6qYxbF.s:806    .text:0000000000000280 .L0 
     /tmp/cc6qYxbF.s:807    .text:0000000000000280 .L0 
     /tmp/cc6qYxbF.s:812    .text:000000000000028c .L0 
     /tmp/cc6qYxbF.s:813    .text:000000000000028c .L0 
     /tmp/cc6qYxbF.s:815    .text:0000000000000290 .L0 
     /tmp/cc6qYxbF.s:817    .text:0000000000000294 .L0 
     /tmp/cc6qYxbF.s:818    .text:0000000000000294 .L0 
     /tmp/cc6qYxbF.s:823    .text:00000000000002a0 .L0 
     /tmp/cc6qYxbF.s:824    .text:00000000000002a0 .L0 
     /tmp/cc6qYxbF.s:826    .text:00000000000002a4 .L0 
     /tmp/cc6qYxbF.s:828    .text:00000000000002a8 .L0 
     /tmp/cc6qYxbF.s:829    .text:00000000000002a8 .L0 
     /tmp/cc6qYxbF.s:831    .text:00000000000002b0 .L0 
     /tmp/cc6qYxbF.s:833    .text:00000000000002b4 .L0 
     /tmp/cc6qYxbF.s:834    .text:00000000000002b4 .L0 
     /tmp/cc6qYxbF.s:836    .text:00000000000002b8 .L0 
     /tmp/cc6qYxbF.s:839    .text:00000000000002bc .L0 
     /tmp/cc6qYxbF.s:841    .text:00000000000002c0 .L0 
     /tmp/cc6qYxbF.s:847    .text:00000000000002c0 _ZN13_SleepManager9interruptEv
     /tmp/cc6qYxbF.s:850    .text:00000000000002c0 .L0 
     /tmp/cc6qYxbF.s:852    .text:00000000000002c0 .L0 
     /tmp/cc6qYxbF.s:853    .text:00000000000002c4 .L0 
     /tmp/cc6qYxbF.s:856    .text:00000000000002cc .L0 
     /tmp/cc6qYxbF.s:857    .text:00000000000002cc .L0 
     /tmp/cc6qYxbF.s:859    .text:00000000000002d0 .L0 
     /tmp/cc6qYxbF.s:861    .text:00000000000002d0 .L0 
     /tmp/cc6qYxbF.s:862    .text:00000000000002d0 .L0 
     /tmp/cc6qYxbF.s:867    .text:00000000000002dc .L0 
     /tmp/cc6qYxbF.s:868    .text:00000000000002dc .L0 
     /tmp/cc6qYxbF.s:870    .text:00000000000002e4 .L0 
     /tmp/cc6qYxbF.s:872    .text:00000000000002e8 .L0 
     /tmp/cc6qYxbF.s:873    .text:00000000000002e8 .L0 
     /tmp/cc6qYxbF.s:875    .text:00000000000002ec .L0 
     /tmp/cc6qYxbF.s:877    .text:00000000000002f0 .L0 
     /tmp/cc6qYxbF.s:883    .text:00000000000002f0 _ZN16_SemSleepManager8sem_passEP4_Sem
     /tmp/cc6qYxbF.s:886    .text:00000000000002f0 .L0 
     /tmp/cc6qYxbF.s:888    .text:00000000000002f0 .L0 
     /tmp/cc6qYxbF.s:889    .text:00000000000002f4 .L0 
     /tmp/cc6qYxbF.s:892    .text:00000000000002fc .L0 
     /tmp/cc6qYxbF.s:893    .text:00000000000002fc .L0 
     /tmp/cc6qYxbF.s:895    .text:0000000000000300 .L0 
     /tmp/cc6qYxbF.s:897    .text:0000000000000300 .L0 
     /tmp/cc6qYxbF.s:898    .text:0000000000000300 .L0 
     /tmp/cc6qYxbF.s:900    .text:0000000000000304 .L0 
     /tmp/cc6qYxbF.s:901    .text:0000000000000304 .L0 
     /tmp/cc6qYxbF.s:906    .text:0000000000000310 .L0 
     /tmp/cc6qYxbF.s:907    .text:0000000000000310 .L0 
     /tmp/cc6qYxbF.s:909    .text:0000000000000318 .L0 
     /tmp/cc6qYxbF.s:911    .text:000000000000031c .L0 
     /tmp/cc6qYxbF.s:912    .text:000000000000031c .L0 
     /tmp/cc6qYxbF.s:914    .text:0000000000000320 .L0 
GAS LISTING /tmp/cc6qYxbF.s 			page 67


     /tmp/cc6qYxbF.s:916    .text:0000000000000324 .L0 
     /tmp/cc6qYxbF.s:922    .text:0000000000000324 _ZN16_SemSleepManager9interruptEv
     /tmp/cc6qYxbF.s:925    .text:0000000000000324 .L0 
     /tmp/cc6qYxbF.s:927    .text:0000000000000324 .L0 
     /tmp/cc6qYxbF.s:928    .text:0000000000000328 .L0 
     /tmp/cc6qYxbF.s:932    .text:0000000000000334 .L0 
     /tmp/cc6qYxbF.s:933    .text:0000000000000334 .L0 
     /tmp/cc6qYxbF.s:934    .text:0000000000000334 .L0 
     /tmp/cc6qYxbF.s:936    .text:0000000000000338 .L0 
     /tmp/cc6qYxbF.s:939    .text:000000000000033c .L0 
     /tmp/cc6qYxbF.s:940    .text:000000000000033c .L0 
     /tmp/cc6qYxbF.s:946    .text:000000000000034c .L0 
     /tmp/cc6qYxbF.s:947    .text:000000000000034c .L0 
     /tmp/cc6qYxbF.s:949    .text:0000000000000350 .L0 
     /tmp/cc6qYxbF.s:950    .text:0000000000000350 .L0 
     /tmp/cc6qYxbF.s:954    .text:000000000000035c .L0 
     /tmp/cc6qYxbF.s:955    .text:000000000000035c .L0 
     /tmp/cc6qYxbF.s:957    .text:0000000000000364 .L0 
     /tmp/cc6qYxbF.s:959    .text:0000000000000368 .L0 
     /tmp/cc6qYxbF.s:960    .text:0000000000000368 .L0 
     /tmp/cc6qYxbF.s:962    .text:000000000000036c .L0 
     /tmp/cc6qYxbF.s:965    .text:0000000000000370 .L0 
     /tmp/cc6qYxbF.s:967    .text:0000000000000374 .L0 
     /tmp/cc6qYxbF.s:973    .text:0000000000000374 _ZN17_JoinSleepManager9join_passEv
     /tmp/cc6qYxbF.s:976    .text:0000000000000374 .L0 
     /tmp/cc6qYxbF.s:978    .text:0000000000000374 .L0 
     /tmp/cc6qYxbF.s:979    .text:0000000000000378 .L0 
     /tmp/cc6qYxbF.s:982    .text:0000000000000380 .L0 
     /tmp/cc6qYxbF.s:983    .text:0000000000000380 .L0 
     /tmp/cc6qYxbF.s:985    .text:0000000000000384 .L0 
     /tmp/cc6qYxbF.s:987    .text:0000000000000384 .L0 
     /tmp/cc6qYxbF.s:988    .text:0000000000000384 .L0 
     /tmp/cc6qYxbF.s:990    .text:0000000000000388 .L0 
     /tmp/cc6qYxbF.s:991    .text:0000000000000388 .L0 
     /tmp/cc6qYxbF.s:996    .text:0000000000000394 .L0 
     /tmp/cc6qYxbF.s:997    .text:0000000000000394 .L0 
     /tmp/cc6qYxbF.s:999    .text:000000000000039c .L0 
     /tmp/cc6qYxbF.s:1001   .text:00000000000003a0 .L0 
     /tmp/cc6qYxbF.s:1002   .text:00000000000003a0 .L0 
     /tmp/cc6qYxbF.s:1004   .text:00000000000003a4 .L0 
     /tmp/cc6qYxbF.s:1006   .text:00000000000003a8 .L0 
     /tmp/cc6qYxbF.s:1012   .text:00000000000003a8 _ZN18_SemORSleepManager8sem_passEP4_Sem
     /tmp/cc6qYxbF.s:1015   .text:00000000000003a8 .L0 
     /tmp/cc6qYxbF.s:1017   .text:00000000000003a8 .L0 
     /tmp/cc6qYxbF.s:1018   .text:00000000000003ac .L0 
     /tmp/cc6qYxbF.s:1022   .text:00000000000003b8 .L0 
     /tmp/cc6qYxbF.s:1023   .text:00000000000003b8 .L0 
     /tmp/cc6qYxbF.s:1024   .text:00000000000003b8 .L0 
     /tmp/cc6qYxbF.s:1026   .text:00000000000003bc .L0 
     /tmp/cc6qYxbF.s:1029   .text:00000000000003c0 .L0 
     /tmp/cc6qYxbF.s:1030   .text:00000000000003c0 .L0 
     /tmp/cc6qYxbF.s:1033   .text:00000000000003c4 .L0 
     /tmp/cc6qYxbF.s:1035   .text:00000000000003c8 .L0 
     /tmp/cc6qYxbF.s:1036   .text:00000000000003c8 .L0 
     /tmp/cc6qYxbF.s:1042   .text:00000000000003d4 .L0 
     /tmp/cc6qYxbF.s:1043   .text:00000000000003d4 .L0 
     /tmp/cc6qYxbF.s:1045   .text:00000000000003d8 .L0 
GAS LISTING /tmp/cc6qYxbF.s 			page 68


     /tmp/cc6qYxbF.s:1047   .text:00000000000003dc .L0 
     /tmp/cc6qYxbF.s:1048   .text:00000000000003dc .L0 
     /tmp/cc6qYxbF.s:1052   .text:00000000000003e8 .L0 
     /tmp/cc6qYxbF.s:1053   .text:00000000000003e8 .L0 
     /tmp/cc6qYxbF.s:1055   .text:00000000000003f0 .L0 
     /tmp/cc6qYxbF.s:1056   .text:00000000000003f0 .L0 
     /tmp/cc6qYxbF.s:1058   .text:00000000000003f4 .L0 
     /tmp/cc6qYxbF.s:1059   .text:00000000000003f4 .L0 
     /tmp/cc6qYxbF.s:1061   .text:00000000000003f8 .L0 
     /tmp/cc6qYxbF.s:1064   .text:00000000000003fc .L0 
     /tmp/cc6qYxbF.s:1068   .text:0000000000000400 .L0 
     /tmp/cc6qYxbF.s:1070   .text:0000000000000400 .L0 
     /tmp/cc6qYxbF.s:1071   .text:0000000000000400 .L0 
     /tmp/cc6qYxbF.s:1077   .text:0000000000000414 .L0 
     /tmp/cc6qYxbF.s:1083   .text:0000000000000414 _ZN18_SemORSleepManager9interruptEv
     /tmp/cc6qYxbF.s:1086   .text:0000000000000414 .L0 
     /tmp/cc6qYxbF.s:1088   .text:0000000000000414 .L0 
     /tmp/cc6qYxbF.s:1089   .text:0000000000000418 .L0 
     /tmp/cc6qYxbF.s:1093   .text:0000000000000424 .L0 
     /tmp/cc6qYxbF.s:1094   .text:0000000000000424 .L0 
     /tmp/cc6qYxbF.s:1095   .text:0000000000000424 .L0 
     /tmp/cc6qYxbF.s:1097   .text:0000000000000428 .L0 
     /tmp/cc6qYxbF.s:1100   .text:000000000000042c .L0 
     /tmp/cc6qYxbF.s:1101   .text:000000000000042c .L0 
     /tmp/cc6qYxbF.s:1107   .text:000000000000043c .L0 
     /tmp/cc6qYxbF.s:1108   .text:000000000000043c .L0 
     /tmp/cc6qYxbF.s:1113   .text:000000000000044c .L0 
     /tmp/cc6qYxbF.s:1114   .text:000000000000044c .L0 
     /tmp/cc6qYxbF.s:1116   .text:0000000000000450 .L0 
     /tmp/cc6qYxbF.s:1118   .text:0000000000000454 .L0 
     /tmp/cc6qYxbF.s:1119   .text:0000000000000454 .L0 
     /tmp/cc6qYxbF.s:1123   .text:0000000000000460 .L0 
     /tmp/cc6qYxbF.s:1124   .text:0000000000000460 .L0 
     /tmp/cc6qYxbF.s:1126   .text:0000000000000468 .L0 
     /tmp/cc6qYxbF.s:1128   .text:000000000000046c .L0 
     /tmp/cc6qYxbF.s:1129   .text:000000000000046c .L0 
     /tmp/cc6qYxbF.s:1131   .text:0000000000000470 .L0 
     /tmp/cc6qYxbF.s:1134   .text:0000000000000474 .L0 
     /tmp/cc6qYxbF.s:1136   .text:0000000000000478 .L0 
     /tmp/cc6qYxbF.s:1142   .text:0000000000000478 _ZN19_SemANDSleepManager8sem_passEP4_Sem
     /tmp/cc6qYxbF.s:1145   .text:0000000000000478 .L0 
     /tmp/cc6qYxbF.s:1147   .text:0000000000000478 .L0 
     /tmp/cc6qYxbF.s:1148   .text:0000000000000478 .L0 
     /tmp/cc6qYxbF.s:1149   .text:0000000000000478 .L0 
     /tmp/cc6qYxbF.s:1151   .text:000000000000047c .L0 
     /tmp/cc6qYxbF.s:1153   .text:0000000000000480 .L0 
     /tmp/cc6qYxbF.s:1154   .text:0000000000000480 .L0 
     /tmp/cc6qYxbF.s:1157   .text:0000000000000484 .L0 
     /tmp/cc6qYxbF.s:1158   .text:0000000000000484 .L0 
     /tmp/cc6qYxbF.s:1160   .text:0000000000000488 .L0 
     /tmp/cc6qYxbF.s:1162   .text:000000000000048c .L0 
     /tmp/cc6qYxbF.s:1168   .text:0000000000000494 .L0 
     /tmp/cc6qYxbF.s:1169   .text:0000000000000494 .L0 
     /tmp/cc6qYxbF.s:1173   .text:000000000000049c .L0 
     /tmp/cc6qYxbF.s:1175   .text:00000000000004a0 .L0 
     /tmp/cc6qYxbF.s:1177   .text:00000000000004a4 .L0 
     /tmp/cc6qYxbF.s:1180   .text:00000000000004a8 .L0 
GAS LISTING /tmp/cc6qYxbF.s 			page 69


     /tmp/cc6qYxbF.s:1184   .text:00000000000004ac .L0 
     /tmp/cc6qYxbF.s:1185   .text:00000000000004b0 .L0 
     /tmp/cc6qYxbF.s:1188   .text:00000000000004b8 .L0 
     /tmp/cc6qYxbF.s:1189   .text:00000000000004b8 .L0 
     /tmp/cc6qYxbF.s:1191   .text:00000000000004bc .L0 
     /tmp/cc6qYxbF.s:1193   .text:00000000000004bc .L0 
     /tmp/cc6qYxbF.s:1194   .text:00000000000004bc .L0 
     /tmp/cc6qYxbF.s:1199   .text:00000000000004c8 .L0 
     /tmp/cc6qYxbF.s:1200   .text:00000000000004c8 .L0 
     /tmp/cc6qYxbF.s:1202   .text:00000000000004cc .L0 
     /tmp/cc6qYxbF.s:1203   .text:00000000000004d0 .L0 
     /tmp/cc6qYxbF.s:1205   .text:00000000000004d4 .L0 
     /tmp/cc6qYxbF.s:1206   .text:00000000000004d4 .L0 
     /tmp/cc6qYxbF.s:1208   .text:00000000000004d8 .L0 
     /tmp/cc6qYxbF.s:1210   .text:00000000000004dc .L0 
     /tmp/cc6qYxbF.s:1216   .text:00000000000004dc _ZN19_SemANDSleepManager9interruptEv
     /tmp/cc6qYxbF.s:1219   .text:00000000000004dc .L0 
     /tmp/cc6qYxbF.s:1221   .text:00000000000004dc .L0 
     /tmp/cc6qYxbF.s:1222   .text:00000000000004e0 .L0 
     /tmp/cc6qYxbF.s:1226   .text:00000000000004ec .L0 
     /tmp/cc6qYxbF.s:1227   .text:00000000000004ec .L0 
     /tmp/cc6qYxbF.s:1228   .text:00000000000004ec .L0 
     /tmp/cc6qYxbF.s:1230   .text:00000000000004f0 .L0 
     /tmp/cc6qYxbF.s:1233   .text:00000000000004f4 .L0 
     /tmp/cc6qYxbF.s:1234   .text:00000000000004f4 .L0 
     /tmp/cc6qYxbF.s:1237   .text:00000000000004f8 .L0 
     /tmp/cc6qYxbF.s:1239   .text:00000000000004fc .L0 
     /tmp/cc6qYxbF.s:1240   .text:00000000000004fc .L0 
     /tmp/cc6qYxbF.s:1245   .text:0000000000000508 .L0 
     /tmp/cc6qYxbF.s:1246   .text:0000000000000508 .L0 
     /tmp/cc6qYxbF.s:1248   .text:000000000000050c .L0 
     /tmp/cc6qYxbF.s:1250   .text:0000000000000510 .L0 
     /tmp/cc6qYxbF.s:1251   .text:0000000000000510 .L0 
     /tmp/cc6qYxbF.s:1256   .text:000000000000051c .L0 
     /tmp/cc6qYxbF.s:1257   .text:000000000000051c .L0 
     /tmp/cc6qYxbF.s:1259   .text:0000000000000520 .L0 
     /tmp/cc6qYxbF.s:1261   .text:0000000000000524 .L0 
     /tmp/cc6qYxbF.s:1262   .text:0000000000000524 .L0 
     /tmp/cc6qYxbF.s:1266   .text:0000000000000530 .L0 
     /tmp/cc6qYxbF.s:1267   .text:0000000000000530 .L0 
     /tmp/cc6qYxbF.s:1269   .text:0000000000000538 .L0 
     /tmp/cc6qYxbF.s:1271   .text:000000000000053c .L0 
     /tmp/cc6qYxbF.s:1272   .text:000000000000053c .L0 
     /tmp/cc6qYxbF.s:1274   .text:0000000000000540 .L0 
     /tmp/cc6qYxbF.s:1277   .text:0000000000000544 .L0 
     /tmp/cc6qYxbF.s:1279   .text:0000000000000548 .L0 
     /tmp/cc6qYxbF.s:1285   .text:0000000000000548 _ZN12_JoinManager9interruptEv
     /tmp/cc6qYxbF.s:1288   .text:0000000000000548 .L0 
     /tmp/cc6qYxbF.s:1290   .text:0000000000000548 .L0 
     /tmp/cc6qYxbF.s:1291   .text:000000000000054c .L0 
     /tmp/cc6qYxbF.s:1295   .text:0000000000000558 .L0 
     /tmp/cc6qYxbF.s:1296   .text:0000000000000558 .L0 
     /tmp/cc6qYxbF.s:1297   .text:0000000000000558 .L0 
     /tmp/cc6qYxbF.s:1299   .text:000000000000055c .L0 
     /tmp/cc6qYxbF.s:1302   .text:0000000000000560 .L0 
     /tmp/cc6qYxbF.s:1303   .text:0000000000000560 .L0 
     /tmp/cc6qYxbF.s:1308   .text:000000000000056c .L0 
GAS LISTING /tmp/cc6qYxbF.s 			page 70


     /tmp/cc6qYxbF.s:1309   .text:000000000000056c .L0 
     /tmp/cc6qYxbF.s:1311   .text:0000000000000570 .L0 
     /tmp/cc6qYxbF.s:1312   .text:0000000000000570 .L0 
     /tmp/cc6qYxbF.s:1314   .text:0000000000000578 .L0 
     /tmp/cc6qYxbF.s:1316   .text:000000000000057c .L0 
     /tmp/cc6qYxbF.s:1317   .text:000000000000057c .L0 
     /tmp/cc6qYxbF.s:1319   .text:0000000000000580 .L0 
     /tmp/cc6qYxbF.s:1322   .text:0000000000000584 .L0 
     /tmp/cc6qYxbF.s:1324   .text:0000000000000588 .L0 
     /tmp/cc6qYxbF.s:1330   .text:0000000000000588 _ZN17_JoinSleepManager9interruptEv
     /tmp/cc6qYxbF.s:1333   .text:0000000000000588 .L0 
     /tmp/cc6qYxbF.s:1335   .text:0000000000000588 .L0 
     /tmp/cc6qYxbF.s:1336   .text:000000000000058c .L0 
     /tmp/cc6qYxbF.s:1340   .text:0000000000000598 .L0 
     /tmp/cc6qYxbF.s:1341   .text:0000000000000598 .L0 
     /tmp/cc6qYxbF.s:1342   .text:0000000000000598 .L0 
     /tmp/cc6qYxbF.s:1344   .text:000000000000059c .L0 
     /tmp/cc6qYxbF.s:1347   .text:00000000000005a0 .L0 
     /tmp/cc6qYxbF.s:1348   .text:00000000000005a0 .L0 
     /tmp/cc6qYxbF.s:1353   .text:00000000000005ac .L0 
     /tmp/cc6qYxbF.s:1354   .text:00000000000005ac .L0 
     /tmp/cc6qYxbF.s:1356   .text:00000000000005b0 .L0 
     /tmp/cc6qYxbF.s:1357   .text:00000000000005b0 .L0 
     /tmp/cc6qYxbF.s:1361   .text:00000000000005bc .L0 
     /tmp/cc6qYxbF.s:1362   .text:00000000000005bc .L0 
     /tmp/cc6qYxbF.s:1364   .text:00000000000005c4 .L0 
     /tmp/cc6qYxbF.s:1366   .text:00000000000005c8 .L0 
     /tmp/cc6qYxbF.s:1367   .text:00000000000005c8 .L0 
     /tmp/cc6qYxbF.s:1369   .text:00000000000005cc .L0 
     /tmp/cc6qYxbF.s:1372   .text:00000000000005d0 .L0 
     /tmp/cc6qYxbF.s:1374   .text:00000000000005d4 .L0 
     /tmp/cc6qYxbF.s:1380   .text:00000000000005d4 _ZN16_SemSleepManager10sleep_passEv
     /tmp/cc6qYxbF.s:1383   .text:00000000000005d4 .L0 
     /tmp/cc6qYxbF.s:1385   .text:00000000000005d4 .L0 
     /tmp/cc6qYxbF.s:1386   .text:00000000000005d8 .L0 
     /tmp/cc6qYxbF.s:1390   .text:00000000000005e4 .L0 
     /tmp/cc6qYxbF.s:1391   .text:00000000000005e4 .L0 
     /tmp/cc6qYxbF.s:1392   .text:00000000000005e4 .L0 
     /tmp/cc6qYxbF.s:1394   .text:00000000000005e8 .L0 
     /tmp/cc6qYxbF.s:1397   .text:00000000000005ec .L0 
     /tmp/cc6qYxbF.s:1398   .text:00000000000005ec .L0 
     /tmp/cc6qYxbF.s:1404   .text:00000000000005fc .L0 
     /tmp/cc6qYxbF.s:1405   .text:00000000000005fc .L0 
     /tmp/cc6qYxbF.s:1407   .text:0000000000000600 .L0 
     /tmp/cc6qYxbF.s:1408   .text:0000000000000600 .L0 
     /tmp/cc6qYxbF.s:1412   .text:000000000000060c .L0 
     /tmp/cc6qYxbF.s:1413   .text:000000000000060c .L0 
     /tmp/cc6qYxbF.s:1415   .text:0000000000000614 .L0 
     /tmp/cc6qYxbF.s:1417   .text:0000000000000618 .L0 
     /tmp/cc6qYxbF.s:1418   .text:0000000000000618 .L0 
     /tmp/cc6qYxbF.s:1420   .text:000000000000061c .L0 
     /tmp/cc6qYxbF.s:1423   .text:0000000000000620 .L0 
     /tmp/cc6qYxbF.s:1425   .text:0000000000000624 .L0 
     /tmp/cc6qYxbF.s:1431   .text:0000000000000624 _ZN17_JoinSleepManager10sleep_passEv
     /tmp/cc6qYxbF.s:1434   .text:0000000000000624 .L0 
     /tmp/cc6qYxbF.s:1436   .text:0000000000000624 .L0 
     /tmp/cc6qYxbF.s:1437   .text:0000000000000628 .L0 
GAS LISTING /tmp/cc6qYxbF.s 			page 71


     /tmp/cc6qYxbF.s:1441   .text:0000000000000634 .L0 
     /tmp/cc6qYxbF.s:1442   .text:0000000000000634 .L0 
     /tmp/cc6qYxbF.s:1443   .text:0000000000000634 .L0 
     /tmp/cc6qYxbF.s:1445   .text:0000000000000638 .L0 
     /tmp/cc6qYxbF.s:1448   .text:000000000000063c .L0 
     /tmp/cc6qYxbF.s:1449   .text:000000000000063c .L0 
     /tmp/cc6qYxbF.s:1454   .text:0000000000000648 .L0 
     /tmp/cc6qYxbF.s:1455   .text:0000000000000648 .L0 
     /tmp/cc6qYxbF.s:1457   .text:000000000000064c .L0 
     /tmp/cc6qYxbF.s:1458   .text:000000000000064c .L0 
     /tmp/cc6qYxbF.s:1462   .text:0000000000000658 .L0 
     /tmp/cc6qYxbF.s:1463   .text:0000000000000658 .L0 
     /tmp/cc6qYxbF.s:1465   .text:0000000000000660 .L0 
     /tmp/cc6qYxbF.s:1467   .text:0000000000000664 .L0 
     /tmp/cc6qYxbF.s:1468   .text:0000000000000664 .L0 
     /tmp/cc6qYxbF.s:1470   .text:0000000000000668 .L0 
     /tmp/cc6qYxbF.s:1473   .text:000000000000066c .L0 
     /tmp/cc6qYxbF.s:1475   .text:0000000000000670 .L0 
     /tmp/cc6qYxbF.s:1481   .text:0000000000000670 _ZN18_SemORSleepManager10sleep_passEv
     /tmp/cc6qYxbF.s:1484   .text:0000000000000670 .L0 
     /tmp/cc6qYxbF.s:1486   .text:0000000000000670 .L0 
     /tmp/cc6qYxbF.s:1487   .text:0000000000000674 .L0 
     /tmp/cc6qYxbF.s:1491   .text:0000000000000680 .L0 
     /tmp/cc6qYxbF.s:1492   .text:0000000000000680 .L0 
     /tmp/cc6qYxbF.s:1493   .text:0000000000000680 .L0 
     /tmp/cc6qYxbF.s:1495   .text:0000000000000684 .L0 
     /tmp/cc6qYxbF.s:1498   .text:0000000000000688 .L0 
     /tmp/cc6qYxbF.s:1499   .text:0000000000000688 .L0 
     /tmp/cc6qYxbF.s:1505   .text:0000000000000698 .L0 
     /tmp/cc6qYxbF.s:1506   .text:0000000000000698 .L0 
     /tmp/cc6qYxbF.s:1511   .text:00000000000006a8 .L0 
     /tmp/cc6qYxbF.s:1512   .text:00000000000006a8 .L0 
     /tmp/cc6qYxbF.s:1514   .text:00000000000006ac .L0 
     /tmp/cc6qYxbF.s:1516   .text:00000000000006b0 .L0 
     /tmp/cc6qYxbF.s:1517   .text:00000000000006b0 .L0 
     /tmp/cc6qYxbF.s:1521   .text:00000000000006bc .L0 
     /tmp/cc6qYxbF.s:1522   .text:00000000000006bc .L0 
     /tmp/cc6qYxbF.s:1524   .text:00000000000006c4 .L0 
     /tmp/cc6qYxbF.s:1526   .text:00000000000006c8 .L0 
     /tmp/cc6qYxbF.s:1527   .text:00000000000006c8 .L0 
     /tmp/cc6qYxbF.s:1529   .text:00000000000006cc .L0 
     /tmp/cc6qYxbF.s:1532   .text:00000000000006d0 .L0 
     /tmp/cc6qYxbF.s:1534   .text:00000000000006d4 .L0 
     /tmp/cc6qYxbF.s:1540   .text:00000000000006d4 _ZN19_SemANDSleepManager10sleep_passEv
     /tmp/cc6qYxbF.s:1543   .text:00000000000006d4 .L0 
     /tmp/cc6qYxbF.s:1545   .text:00000000000006d4 .L0 
     /tmp/cc6qYxbF.s:1546   .text:00000000000006d8 .L0 
     /tmp/cc6qYxbF.s:1550   .text:00000000000006e4 .L0 
     /tmp/cc6qYxbF.s:1551   .text:00000000000006e4 .L0 
     /tmp/cc6qYxbF.s:1552   .text:00000000000006e4 .L0 
     /tmp/cc6qYxbF.s:1554   .text:00000000000006e8 .L0 
     /tmp/cc6qYxbF.s:1557   .text:00000000000006ec .L0 
     /tmp/cc6qYxbF.s:1558   .text:00000000000006ec .L0 
     /tmp/cc6qYxbF.s:1561   .text:00000000000006f0 .L0 
     /tmp/cc6qYxbF.s:1563   .text:00000000000006f4 .L0 
     /tmp/cc6qYxbF.s:1564   .text:00000000000006f4 .L0 
     /tmp/cc6qYxbF.s:1569   .text:0000000000000700 .L0 
GAS LISTING /tmp/cc6qYxbF.s 			page 72


     /tmp/cc6qYxbF.s:1570   .text:0000000000000700 .L0 
     /tmp/cc6qYxbF.s:1572   .text:0000000000000704 .L0 
     /tmp/cc6qYxbF.s:1574   .text:0000000000000708 .L0 
     /tmp/cc6qYxbF.s:1575   .text:0000000000000708 .L0 
     /tmp/cc6qYxbF.s:1580   .text:0000000000000714 .L0 
     /tmp/cc6qYxbF.s:1581   .text:0000000000000714 .L0 
     /tmp/cc6qYxbF.s:1583   .text:0000000000000718 .L0 
     /tmp/cc6qYxbF.s:1585   .text:000000000000071c .L0 
     /tmp/cc6qYxbF.s:1586   .text:000000000000071c .L0 
     /tmp/cc6qYxbF.s:1590   .text:0000000000000728 .L0 
     /tmp/cc6qYxbF.s:1591   .text:0000000000000728 .L0 
     /tmp/cc6qYxbF.s:1593   .text:0000000000000730 .L0 
     /tmp/cc6qYxbF.s:1595   .text:0000000000000734 .L0 
     /tmp/cc6qYxbF.s:1596   .text:0000000000000734 .L0 
     /tmp/cc6qYxbF.s:1598   .text:0000000000000738 .L0 
     /tmp/cc6qYxbF.s:1601   .text:000000000000073c .L0 
     /tmp/cc6qYxbF.s:1603   .text:0000000000000740 .L0 
     /tmp/cc6qYxbF.s:1610   .text._ZN11_SemManagerD0Ev:0000000000000000 _ZN11_SemManagerD0Ev
     /tmp/cc6qYxbF.s:1613   .text._ZN11_SemManagerD0Ev:0000000000000000 .L0 
     /tmp/cc6qYxbF.s:1615   .text._ZN11_SemManagerD0Ev:0000000000000000 .L0 
     /tmp/cc6qYxbF.s:1616   .text._ZN11_SemManagerD0Ev:0000000000000004 .L0 
     /tmp/cc6qYxbF.s:1619   .text._ZN11_SemManagerD0Ev:000000000000000c .L0 
     /tmp/cc6qYxbF.s:1620   .text._ZN11_SemManagerD0Ev:000000000000000c .L0 
     /tmp/cc6qYxbF.s:1622   .text._ZN11_SemManagerD0Ev:0000000000000010 .L0 
     /tmp/cc6qYxbF.s:1628   .text._ZN11_SemManagerD0Ev:0000000000000014 .L0 
     /tmp/cc6qYxbF.s:1636   .text._ZN11_SemManagerD0Ev:0000000000000020 .L0 
     /tmp/cc6qYxbF.s:1637   .text._ZN11_SemManagerD0Ev:0000000000000020 .L0 
     /tmp/cc6qYxbF.s:1644   .text._ZN11_SemManagerD0Ev:0000000000000030 .L0 
     /tmp/cc6qYxbF.s:1645   .text._ZN11_SemManagerD0Ev:0000000000000034 .L0 
     /tmp/cc6qYxbF.s:1647   .text._ZN11_SemManagerD0Ev:0000000000000038 .L0 
     /tmp/cc6qYxbF.s:1648   .text._ZN11_SemManagerD0Ev:0000000000000038 .L0 
     /tmp/cc6qYxbF.s:1650   .text._ZN11_SemManagerD0Ev:000000000000003c .L0 
     /tmp/cc6qYxbF.s:1652   .text._ZN11_SemManagerD0Ev:0000000000000040 .L0 
     /tmp/cc6qYxbF.s:1659   .text._ZN13_SleepManagerD0Ev:0000000000000000 _ZN13_SleepManagerD0Ev
     /tmp/cc6qYxbF.s:1662   .text._ZN13_SleepManagerD0Ev:0000000000000000 .L0 
     /tmp/cc6qYxbF.s:1664   .text._ZN13_SleepManagerD0Ev:0000000000000000 .L0 
     /tmp/cc6qYxbF.s:1665   .text._ZN13_SleepManagerD0Ev:0000000000000004 .L0 
     /tmp/cc6qYxbF.s:1668   .text._ZN13_SleepManagerD0Ev:000000000000000c .L0 
     /tmp/cc6qYxbF.s:1669   .text._ZN13_SleepManagerD0Ev:000000000000000c .L0 
     /tmp/cc6qYxbF.s:1671   .text._ZN13_SleepManagerD0Ev:0000000000000010 .L0 
     /tmp/cc6qYxbF.s:1677   .text._ZN13_SleepManagerD0Ev:0000000000000014 .L0 
     /tmp/cc6qYxbF.s:1685   .text._ZN13_SleepManagerD0Ev:0000000000000020 .L0 
     /tmp/cc6qYxbF.s:1686   .text._ZN13_SleepManagerD0Ev:0000000000000020 .L0 
     /tmp/cc6qYxbF.s:1693   .text._ZN13_SleepManagerD0Ev:0000000000000030 .L0 
     /tmp/cc6qYxbF.s:1694   .text._ZN13_SleepManagerD0Ev:0000000000000034 .L0 
     /tmp/cc6qYxbF.s:1696   .text._ZN13_SleepManagerD0Ev:0000000000000038 .L0 
     /tmp/cc6qYxbF.s:1697   .text._ZN13_SleepManagerD0Ev:0000000000000038 .L0 
     /tmp/cc6qYxbF.s:1699   .text._ZN13_SleepManagerD0Ev:000000000000003c .L0 
     /tmp/cc6qYxbF.s:1701   .text._ZN13_SleepManagerD0Ev:0000000000000040 .L0 
     /tmp/cc6qYxbF.s:1708   .text._ZN12_JoinManagerD0Ev:0000000000000000 _ZN12_JoinManagerD0Ev
     /tmp/cc6qYxbF.s:1711   .text._ZN12_JoinManagerD0Ev:0000000000000000 .L0 
     /tmp/cc6qYxbF.s:1713   .text._ZN12_JoinManagerD0Ev:0000000000000000 .L0 
     /tmp/cc6qYxbF.s:1714   .text._ZN12_JoinManagerD0Ev:0000000000000004 .L0 
     /tmp/cc6qYxbF.s:1717   .text._ZN12_JoinManagerD0Ev:000000000000000c .L0 
     /tmp/cc6qYxbF.s:1718   .text._ZN12_JoinManagerD0Ev:000000000000000c .L0 
     /tmp/cc6qYxbF.s:1720   .text._ZN12_JoinManagerD0Ev:0000000000000010 .L0 
     /tmp/cc6qYxbF.s:1726   .text._ZN12_JoinManagerD0Ev:0000000000000014 .L0 
GAS LISTING /tmp/cc6qYxbF.s 			page 73


     /tmp/cc6qYxbF.s:1734   .text._ZN12_JoinManagerD0Ev:0000000000000020 .L0 
     /tmp/cc6qYxbF.s:1735   .text._ZN12_JoinManagerD0Ev:0000000000000020 .L0 
     /tmp/cc6qYxbF.s:1742   .text._ZN12_JoinManagerD0Ev:0000000000000030 .L0 
     /tmp/cc6qYxbF.s:1743   .text._ZN12_JoinManagerD0Ev:0000000000000034 .L0 
     /tmp/cc6qYxbF.s:1745   .text._ZN12_JoinManagerD0Ev:0000000000000038 .L0 
     /tmp/cc6qYxbF.s:1746   .text._ZN12_JoinManagerD0Ev:0000000000000038 .L0 
     /tmp/cc6qYxbF.s:1748   .text._ZN12_JoinManagerD0Ev:000000000000003c .L0 
     /tmp/cc6qYxbF.s:1750   .text._ZN12_JoinManagerD0Ev:0000000000000040 .L0 
     /tmp/cc6qYxbF.s:1757   .text._ZN13_SemORManagerD0Ev:0000000000000000 _ZN13_SemORManagerD0Ev
     /tmp/cc6qYxbF.s:1760   .text._ZN13_SemORManagerD0Ev:0000000000000000 .L0 
     /tmp/cc6qYxbF.s:1762   .text._ZN13_SemORManagerD0Ev:0000000000000000 .L0 
     /tmp/cc6qYxbF.s:1763   .text._ZN13_SemORManagerD0Ev:0000000000000004 .L0 
     /tmp/cc6qYxbF.s:1766   .text._ZN13_SemORManagerD0Ev:000000000000000c .L0 
     /tmp/cc6qYxbF.s:1767   .text._ZN13_SemORManagerD0Ev:000000000000000c .L0 
     /tmp/cc6qYxbF.s:1769   .text._ZN13_SemORManagerD0Ev:0000000000000010 .L0 
     /tmp/cc6qYxbF.s:1775   .text._ZN13_SemORManagerD0Ev:0000000000000014 .L0 
     /tmp/cc6qYxbF.s:1783   .text._ZN13_SemORManagerD0Ev:0000000000000020 .L0 
     /tmp/cc6qYxbF.s:1784   .text._ZN13_SemORManagerD0Ev:0000000000000020 .L0 
     /tmp/cc6qYxbF.s:1791   .text._ZN13_SemORManagerD0Ev:0000000000000030 .L0 
     /tmp/cc6qYxbF.s:1792   .text._ZN13_SemORManagerD0Ev:0000000000000034 .L0 
     /tmp/cc6qYxbF.s:1794   .text._ZN13_SemORManagerD0Ev:0000000000000038 .L0 
     /tmp/cc6qYxbF.s:1795   .text._ZN13_SemORManagerD0Ev:0000000000000038 .L0 
     /tmp/cc6qYxbF.s:1797   .text._ZN13_SemORManagerD0Ev:000000000000003c .L0 
     /tmp/cc6qYxbF.s:1799   .text._ZN13_SemORManagerD0Ev:0000000000000040 .L0 
     /tmp/cc6qYxbF.s:1806   .text._ZN14_SemANDManagerD0Ev:0000000000000000 _ZN14_SemANDManagerD0Ev
     /tmp/cc6qYxbF.s:1809   .text._ZN14_SemANDManagerD0Ev:0000000000000000 .L0 
     /tmp/cc6qYxbF.s:1811   .text._ZN14_SemANDManagerD0Ev:0000000000000000 .L0 
     /tmp/cc6qYxbF.s:1812   .text._ZN14_SemANDManagerD0Ev:0000000000000004 .L0 
     /tmp/cc6qYxbF.s:1815   .text._ZN14_SemANDManagerD0Ev:000000000000000c .L0 
     /tmp/cc6qYxbF.s:1816   .text._ZN14_SemANDManagerD0Ev:000000000000000c .L0 
     /tmp/cc6qYxbF.s:1818   .text._ZN14_SemANDManagerD0Ev:0000000000000010 .L0 
     /tmp/cc6qYxbF.s:1824   .text._ZN14_SemANDManagerD0Ev:0000000000000014 .L0 
     /tmp/cc6qYxbF.s:1832   .text._ZN14_SemANDManagerD0Ev:0000000000000020 .L0 
     /tmp/cc6qYxbF.s:1833   .text._ZN14_SemANDManagerD0Ev:0000000000000020 .L0 
     /tmp/cc6qYxbF.s:1840   .text._ZN14_SemANDManagerD0Ev:0000000000000030 .L0 
     /tmp/cc6qYxbF.s:1841   .text._ZN14_SemANDManagerD0Ev:0000000000000034 .L0 
     /tmp/cc6qYxbF.s:1843   .text._ZN14_SemANDManagerD0Ev:0000000000000038 .L0 
     /tmp/cc6qYxbF.s:1844   .text._ZN14_SemANDManagerD0Ev:0000000000000038 .L0 
     /tmp/cc6qYxbF.s:1846   .text._ZN14_SemANDManagerD0Ev:000000000000003c .L0 
     /tmp/cc6qYxbF.s:1848   .text._ZN14_SemANDManagerD0Ev:0000000000000040 .L0 
     /tmp/cc6qYxbF.s:1855   .text._ZN16_SemSleepManagerD0Ev:0000000000000000 _ZN16_SemSleepManagerD0Ev
     /tmp/cc6qYxbF.s:1858   .text._ZN16_SemSleepManagerD0Ev:0000000000000000 .L0 
     /tmp/cc6qYxbF.s:1860   .text._ZN16_SemSleepManagerD0Ev:0000000000000000 .L0 
     /tmp/cc6qYxbF.s:1861   .text._ZN16_SemSleepManagerD0Ev:0000000000000004 .L0 
     /tmp/cc6qYxbF.s:1864   .text._ZN16_SemSleepManagerD0Ev:000000000000000c .L0 
     /tmp/cc6qYxbF.s:1865   .text._ZN16_SemSleepManagerD0Ev:000000000000000c .L0 
     /tmp/cc6qYxbF.s:1867   .text._ZN16_SemSleepManagerD0Ev:0000000000000010 .L0 
     /tmp/cc6qYxbF.s:1873   .text._ZN16_SemSleepManagerD0Ev:0000000000000014 .L0 
     /tmp/cc6qYxbF.s:1881   .text._ZN16_SemSleepManagerD0Ev:0000000000000020 .L0 
     /tmp/cc6qYxbF.s:1882   .text._ZN16_SemSleepManagerD0Ev:0000000000000020 .L0 
     /tmp/cc6qYxbF.s:1889   .text._ZN16_SemSleepManagerD0Ev:0000000000000030 .L0 
     /tmp/cc6qYxbF.s:1890   .text._ZN16_SemSleepManagerD0Ev:0000000000000034 .L0 
     /tmp/cc6qYxbF.s:1892   .text._ZN16_SemSleepManagerD0Ev:0000000000000038 .L0 
     /tmp/cc6qYxbF.s:1893   .text._ZN16_SemSleepManagerD0Ev:0000000000000038 .L0 
     /tmp/cc6qYxbF.s:1895   .text._ZN16_SemSleepManagerD0Ev:000000000000003c .L0 
     /tmp/cc6qYxbF.s:1897   .text._ZN16_SemSleepManagerD0Ev:0000000000000040 .L0 
     /tmp/cc6qYxbF.s:1904   .text._ZN17_JoinSleepManagerD0Ev:0000000000000000 _ZN17_JoinSleepManagerD0Ev
GAS LISTING /tmp/cc6qYxbF.s 			page 74


     /tmp/cc6qYxbF.s:1907   .text._ZN17_JoinSleepManagerD0Ev:0000000000000000 .L0 
     /tmp/cc6qYxbF.s:1909   .text._ZN17_JoinSleepManagerD0Ev:0000000000000000 .L0 
     /tmp/cc6qYxbF.s:1910   .text._ZN17_JoinSleepManagerD0Ev:0000000000000004 .L0 
     /tmp/cc6qYxbF.s:1913   .text._ZN17_JoinSleepManagerD0Ev:000000000000000c .L0 
     /tmp/cc6qYxbF.s:1914   .text._ZN17_JoinSleepManagerD0Ev:000000000000000c .L0 
     /tmp/cc6qYxbF.s:1916   .text._ZN17_JoinSleepManagerD0Ev:0000000000000010 .L0 
     /tmp/cc6qYxbF.s:1922   .text._ZN17_JoinSleepManagerD0Ev:0000000000000014 .L0 
     /tmp/cc6qYxbF.s:1930   .text._ZN17_JoinSleepManagerD0Ev:0000000000000020 .L0 
     /tmp/cc6qYxbF.s:1931   .text._ZN17_JoinSleepManagerD0Ev:0000000000000020 .L0 
     /tmp/cc6qYxbF.s:1938   .text._ZN17_JoinSleepManagerD0Ev:0000000000000030 .L0 
     /tmp/cc6qYxbF.s:1939   .text._ZN17_JoinSleepManagerD0Ev:0000000000000034 .L0 
     /tmp/cc6qYxbF.s:1941   .text._ZN17_JoinSleepManagerD0Ev:0000000000000038 .L0 
     /tmp/cc6qYxbF.s:1942   .text._ZN17_JoinSleepManagerD0Ev:0000000000000038 .L0 
     /tmp/cc6qYxbF.s:1944   .text._ZN17_JoinSleepManagerD0Ev:000000000000003c .L0 
     /tmp/cc6qYxbF.s:1946   .text._ZN17_JoinSleepManagerD0Ev:0000000000000040 .L0 
     /tmp/cc6qYxbF.s:1953   .text._ZN18_SemORSleepManagerD0Ev:0000000000000000 _ZN18_SemORSleepManagerD0Ev
     /tmp/cc6qYxbF.s:1956   .text._ZN18_SemORSleepManagerD0Ev:0000000000000000 .L0 
     /tmp/cc6qYxbF.s:1958   .text._ZN18_SemORSleepManagerD0Ev:0000000000000000 .L0 
     /tmp/cc6qYxbF.s:1959   .text._ZN18_SemORSleepManagerD0Ev:0000000000000004 .L0 
     /tmp/cc6qYxbF.s:1962   .text._ZN18_SemORSleepManagerD0Ev:000000000000000c .L0 
     /tmp/cc6qYxbF.s:1963   .text._ZN18_SemORSleepManagerD0Ev:000000000000000c .L0 
     /tmp/cc6qYxbF.s:1965   .text._ZN18_SemORSleepManagerD0Ev:0000000000000010 .L0 
     /tmp/cc6qYxbF.s:1971   .text._ZN18_SemORSleepManagerD0Ev:0000000000000014 .L0 
     /tmp/cc6qYxbF.s:1979   .text._ZN18_SemORSleepManagerD0Ev:0000000000000020 .L0 
     /tmp/cc6qYxbF.s:1980   .text._ZN18_SemORSleepManagerD0Ev:0000000000000020 .L0 
     /tmp/cc6qYxbF.s:1987   .text._ZN18_SemORSleepManagerD0Ev:0000000000000030 .L0 
     /tmp/cc6qYxbF.s:1988   .text._ZN18_SemORSleepManagerD0Ev:0000000000000034 .L0 
     /tmp/cc6qYxbF.s:1990   .text._ZN18_SemORSleepManagerD0Ev:0000000000000038 .L0 
     /tmp/cc6qYxbF.s:1991   .text._ZN18_SemORSleepManagerD0Ev:0000000000000038 .L0 
     /tmp/cc6qYxbF.s:1993   .text._ZN18_SemORSleepManagerD0Ev:000000000000003c .L0 
     /tmp/cc6qYxbF.s:1995   .text._ZN18_SemORSleepManagerD0Ev:0000000000000040 .L0 
     /tmp/cc6qYxbF.s:2002   .text._ZN19_SemANDSleepManagerD0Ev:0000000000000000 _ZN19_SemANDSleepManagerD0Ev
     /tmp/cc6qYxbF.s:2005   .text._ZN19_SemANDSleepManagerD0Ev:0000000000000000 .L0 
     /tmp/cc6qYxbF.s:2007   .text._ZN19_SemANDSleepManagerD0Ev:0000000000000000 .L0 
     /tmp/cc6qYxbF.s:2008   .text._ZN19_SemANDSleepManagerD0Ev:0000000000000004 .L0 
     /tmp/cc6qYxbF.s:2011   .text._ZN19_SemANDSleepManagerD0Ev:000000000000000c .L0 
     /tmp/cc6qYxbF.s:2012   .text._ZN19_SemANDSleepManagerD0Ev:000000000000000c .L0 
     /tmp/cc6qYxbF.s:2014   .text._ZN19_SemANDSleepManagerD0Ev:0000000000000010 .L0 
     /tmp/cc6qYxbF.s:2020   .text._ZN19_SemANDSleepManagerD0Ev:0000000000000014 .L0 
     /tmp/cc6qYxbF.s:2028   .text._ZN19_SemANDSleepManagerD0Ev:0000000000000020 .L0 
     /tmp/cc6qYxbF.s:2029   .text._ZN19_SemANDSleepManagerD0Ev:0000000000000020 .L0 
     /tmp/cc6qYxbF.s:2036   .text._ZN19_SemANDSleepManagerD0Ev:0000000000000030 .L0 
     /tmp/cc6qYxbF.s:2037   .text._ZN19_SemANDSleepManagerD0Ev:0000000000000034 .L0 
     /tmp/cc6qYxbF.s:2039   .text._ZN19_SemANDSleepManagerD0Ev:0000000000000038 .L0 
     /tmp/cc6qYxbF.s:2040   .text._ZN19_SemANDSleepManagerD0Ev:0000000000000038 .L0 
     /tmp/cc6qYxbF.s:2042   .text._ZN19_SemANDSleepManagerD0Ev:000000000000003c .L0 
     /tmp/cc6qYxbF.s:2044   .text._ZN19_SemANDSleepManagerD0Ev:0000000000000040 .L0 
     /tmp/cc6qYxbF.s:2051   .text:0000000000000740 _ZN12_WaitManagerC2EP7_Thread
     /tmp/cc6qYxbF.s:2054   .text:0000000000000740 .L0 
     /tmp/cc6qYxbF.s:2056   .text:0000000000000740 .L0 
     /tmp/cc6qYxbF.s:2057   .text:0000000000000744 .L0 
     /tmp/cc6qYxbF.s:2059   .text:0000000000000748 .L0 
     /tmp/cc6qYxbF.s:2061   .text:000000000000074c .L0 
     /tmp/cc6qYxbF.s:2556   .data.rel.ro.local._ZTV12_WaitManager:0000000000000000 _ZTV12_WaitManager
     /tmp/cc6qYxbF.s:2064   .text:000000000000074c .L0 
     /tmp/cc6qYxbF.s:2069   .text:000000000000075c .L0 
     /tmp/cc6qYxbF.s:2070   .text:0000000000000760 .L0 
GAS LISTING /tmp/cc6qYxbF.s 			page 75


     /tmp/cc6qYxbF.s:2071   .text:0000000000000760 .L0 
     /tmp/cc6qYxbF.s:2073   .text:0000000000000764 .L0 
     /tmp/cc6qYxbF.s:2075   .text:0000000000000768 .L0 
     /tmp/cc6qYxbF.s:2051   .text:0000000000000740 _ZN12_WaitManagerC1EP7_Thread
     /tmp/cc6qYxbF.s:2083   .text:0000000000000768 _ZN11_SemManagerC2EP7_ThreadP4_Sem
     /tmp/cc6qYxbF.s:2086   .text:0000000000000768 .L0 
     /tmp/cc6qYxbF.s:2088   .text:0000000000000768 .L0 
     /tmp/cc6qYxbF.s:2089   .text:000000000000076c .L0 
     /tmp/cc6qYxbF.s:2094   .text:000000000000077c .L0 
     /tmp/cc6qYxbF.s:2095   .text:000000000000077c .L0 
     /tmp/cc6qYxbF.s:2096   .text:000000000000077c .L0 
     /tmp/cc6qYxbF.s:2097   .text:000000000000077c .L0 
     /tmp/cc6qYxbF.s:2099   .text:0000000000000780 .L0 
     /tmp/cc6qYxbF.s:2104   .text:0000000000000788 .L0 
     /tmp/cc6qYxbF.s:2111   .text:00000000000007a0 .L0 
     /tmp/cc6qYxbF.s:2112   .text:00000000000007a4 .L0 
     /tmp/cc6qYxbF.s:2114   .text:00000000000007a8 .L0 
     /tmp/cc6qYxbF.s:2115   .text:00000000000007a8 .L0 
     /tmp/cc6qYxbF.s:2117   .text:00000000000007ac .L0 
     /tmp/cc6qYxbF.s:2120   .text:00000000000007b0 .L0 
     /tmp/cc6qYxbF.s:2123   .text:00000000000007b4 .L0 
     /tmp/cc6qYxbF.s:2125   .text:00000000000007b8 .L0 
     /tmp/cc6qYxbF.s:2083   .text:0000000000000768 _ZN11_SemManagerC1EP7_ThreadP4_Sem
     /tmp/cc6qYxbF.s:2133   .text:00000000000007b8 _ZN13_SleepManagerC2EP7_Thread
     /tmp/cc6qYxbF.s:2136   .text:00000000000007b8 .L0 
     /tmp/cc6qYxbF.s:2138   .text:00000000000007b8 .L0 
     /tmp/cc6qYxbF.s:2139   .text:00000000000007bc .L0 
     /tmp/cc6qYxbF.s:2143   .text:00000000000007c8 .L0 
     /tmp/cc6qYxbF.s:2144   .text:00000000000007c8 .L0 
     /tmp/cc6qYxbF.s:2145   .text:00000000000007c8 .L0 
     /tmp/cc6qYxbF.s:2147   .text:00000000000007cc .L0 
     /tmp/cc6qYxbF.s:2151   .text:00000000000007d0 .L0 
     /tmp/cc6qYxbF.s:2157   .text:00000000000007e4 .L0 
     /tmp/cc6qYxbF.s:2158   .text:00000000000007e8 .L0 
     /tmp/cc6qYxbF.s:2160   .text:00000000000007ec .L0 
     /tmp/cc6qYxbF.s:2161   .text:00000000000007ec .L0 
     /tmp/cc6qYxbF.s:2163   .text:00000000000007f0 .L0 
     /tmp/cc6qYxbF.s:2166   .text:00000000000007f4 .L0 
     /tmp/cc6qYxbF.s:2168   .text:00000000000007f8 .L0 
     /tmp/cc6qYxbF.s:2133   .text:00000000000007b8 _ZN13_SleepManagerC1EP7_Thread
     /tmp/cc6qYxbF.s:2176   .text:00000000000007f8 _ZN12_JoinManagerC2EP7_ThreadS1_
     /tmp/cc6qYxbF.s:2179   .text:00000000000007f8 .L0 
     /tmp/cc6qYxbF.s:2181   .text:00000000000007f8 .L0 
     /tmp/cc6qYxbF.s:2182   .text:00000000000007fc .L0 
     /tmp/cc6qYxbF.s:2187   .text:000000000000080c .L0 
     /tmp/cc6qYxbF.s:2188   .text:000000000000080c .L0 
     /tmp/cc6qYxbF.s:2189   .text:000000000000080c .L0 
     /tmp/cc6qYxbF.s:2190   .text:000000000000080c .L0 
     /tmp/cc6qYxbF.s:2192   .text:0000000000000810 .L0 
     /tmp/cc6qYxbF.s:2197   .text:0000000000000818 .L0 
     /tmp/cc6qYxbF.s:2204   .text:0000000000000830 .L0 
     /tmp/cc6qYxbF.s:2205   .text:0000000000000834 .L0 
     /tmp/cc6qYxbF.s:2207   .text:0000000000000838 .L0 
     /tmp/cc6qYxbF.s:2208   .text:0000000000000838 .L0 
     /tmp/cc6qYxbF.s:2210   .text:000000000000083c .L0 
     /tmp/cc6qYxbF.s:2213   .text:0000000000000840 .L0 
     /tmp/cc6qYxbF.s:2216   .text:0000000000000844 .L0 
GAS LISTING /tmp/cc6qYxbF.s 			page 76


     /tmp/cc6qYxbF.s:2218   .text:0000000000000848 .L0 
     /tmp/cc6qYxbF.s:2176   .text:00000000000007f8 _ZN12_JoinManagerC1EP7_ThreadS1_
     /tmp/cc6qYxbF.s:2226   .text:0000000000000848 _ZN13_SemORManagerC2EP7_ThreadP4_SemS3_
     /tmp/cc6qYxbF.s:2229   .text:0000000000000848 .L0 
     /tmp/cc6qYxbF.s:2231   .text:0000000000000848 .L0 
     /tmp/cc6qYxbF.s:2232   .text:000000000000084c .L0 
     /tmp/cc6qYxbF.s:2238   .text:0000000000000860 .L0 
     /tmp/cc6qYxbF.s:2239   .text:0000000000000860 .L0 
     /tmp/cc6qYxbF.s:2240   .text:0000000000000860 .L0 
     /tmp/cc6qYxbF.s:2241   .text:0000000000000860 .L0 
     /tmp/cc6qYxbF.s:2242   .text:0000000000000860 .L0 
     /tmp/cc6qYxbF.s:2244   .text:0000000000000864 .L0 
     /tmp/cc6qYxbF.s:2250   .text:0000000000000870 .L0 
     /tmp/cc6qYxbF.s:2258   .text:000000000000088c .L0 
     /tmp/cc6qYxbF.s:2259   .text:0000000000000890 .L0 
     /tmp/cc6qYxbF.s:2261   .text:0000000000000894 .L0 
     /tmp/cc6qYxbF.s:2262   .text:0000000000000894 .L0 
     /tmp/cc6qYxbF.s:2264   .text:0000000000000898 .L0 
     /tmp/cc6qYxbF.s:2267   .text:000000000000089c .L0 
     /tmp/cc6qYxbF.s:2270   .text:00000000000008a0 .L0 
     /tmp/cc6qYxbF.s:2273   .text:00000000000008a4 .L0 
     /tmp/cc6qYxbF.s:2275   .text:00000000000008a8 .L0 
     /tmp/cc6qYxbF.s:2226   .text:0000000000000848 _ZN13_SemORManagerC1EP7_ThreadP4_SemS3_
     /tmp/cc6qYxbF.s:2283   .text:00000000000008a8 _ZN14_SemANDManagerC2EP7_ThreadP4_SemS3_
     /tmp/cc6qYxbF.s:2286   .text:00000000000008a8 .L0 
     /tmp/cc6qYxbF.s:2288   .text:00000000000008a8 .L0 
     /tmp/cc6qYxbF.s:2289   .text:00000000000008ac .L0 
     /tmp/cc6qYxbF.s:2295   .text:00000000000008c0 .L0 
     /tmp/cc6qYxbF.s:2296   .text:00000000000008c0 .L0 
     /tmp/cc6qYxbF.s:2297   .text:00000000000008c0 .L0 
     /tmp/cc6qYxbF.s:2298   .text:00000000000008c0 .L0 
     /tmp/cc6qYxbF.s:2299   .text:00000000000008c0 .L0 
     /tmp/cc6qYxbF.s:2301   .text:00000000000008c4 .L0 
     /tmp/cc6qYxbF.s:2307   .text:00000000000008d0 .L0 
     /tmp/cc6qYxbF.s:2315   .text:00000000000008ec .L0 
     /tmp/cc6qYxbF.s:2316   .text:00000000000008f0 .L0 
     /tmp/cc6qYxbF.s:2318   .text:00000000000008f4 .L0 
     /tmp/cc6qYxbF.s:2319   .text:00000000000008f4 .L0 
     /tmp/cc6qYxbF.s:2321   .text:00000000000008f8 .L0 
     /tmp/cc6qYxbF.s:2324   .text:00000000000008fc .L0 
     /tmp/cc6qYxbF.s:2327   .text:0000000000000900 .L0 
     /tmp/cc6qYxbF.s:2330   .text:0000000000000904 .L0 
     /tmp/cc6qYxbF.s:2332   .text:0000000000000908 .L0 
     /tmp/cc6qYxbF.s:2283   .text:00000000000008a8 _ZN14_SemANDManagerC1EP7_ThreadP4_SemS3_
     /tmp/cc6qYxbF.s:2340   .text:0000000000000908 _ZN16_SemSleepManagerC2EP7_ThreadP4_Sem
     /tmp/cc6qYxbF.s:2343   .text:0000000000000908 .L0 
     /tmp/cc6qYxbF.s:2345   .text:0000000000000908 .L0 
     /tmp/cc6qYxbF.s:2346   .text:000000000000090c .L0 
     /tmp/cc6qYxbF.s:2351   .text:000000000000091c .L0 
     /tmp/cc6qYxbF.s:2352   .text:000000000000091c .L0 
     /tmp/cc6qYxbF.s:2353   .text:000000000000091c .L0 
     /tmp/cc6qYxbF.s:2354   .text:000000000000091c .L0 
     /tmp/cc6qYxbF.s:2356   .text:0000000000000920 .L0 
     /tmp/cc6qYxbF.s:2361   .text:0000000000000928 .L0 
     /tmp/cc6qYxbF.s:2368   .text:0000000000000940 .L0 
     /tmp/cc6qYxbF.s:2369   .text:0000000000000944 .L0 
     /tmp/cc6qYxbF.s:2371   .text:0000000000000948 .L0 
GAS LISTING /tmp/cc6qYxbF.s 			page 77


     /tmp/cc6qYxbF.s:2372   .text:0000000000000948 .L0 
     /tmp/cc6qYxbF.s:2374   .text:000000000000094c .L0 
     /tmp/cc6qYxbF.s:2377   .text:0000000000000950 .L0 
     /tmp/cc6qYxbF.s:2380   .text:0000000000000954 .L0 
     /tmp/cc6qYxbF.s:2382   .text:0000000000000958 .L0 
     /tmp/cc6qYxbF.s:2340   .text:0000000000000908 _ZN16_SemSleepManagerC1EP7_ThreadP4_Sem
     /tmp/cc6qYxbF.s:2390   .text:0000000000000958 _ZN17_JoinSleepManagerC2EP7_ThreadS1_
     /tmp/cc6qYxbF.s:2393   .text:0000000000000958 .L0 
     /tmp/cc6qYxbF.s:2395   .text:0000000000000958 .L0 
     /tmp/cc6qYxbF.s:2396   .text:000000000000095c .L0 
     /tmp/cc6qYxbF.s:2401   .text:000000000000096c .L0 
     /tmp/cc6qYxbF.s:2402   .text:000000000000096c .L0 
     /tmp/cc6qYxbF.s:2403   .text:000000000000096c .L0 
     /tmp/cc6qYxbF.s:2404   .text:000000000000096c .L0 
     /tmp/cc6qYxbF.s:2406   .text:0000000000000970 .L0 
     /tmp/cc6qYxbF.s:2411   .text:0000000000000978 .L0 
     /tmp/cc6qYxbF.s:2418   .text:0000000000000990 .L0 
     /tmp/cc6qYxbF.s:2419   .text:0000000000000994 .L0 
     /tmp/cc6qYxbF.s:2421   .text:0000000000000998 .L0 
     /tmp/cc6qYxbF.s:2422   .text:0000000000000998 .L0 
     /tmp/cc6qYxbF.s:2424   .text:000000000000099c .L0 
     /tmp/cc6qYxbF.s:2427   .text:00000000000009a0 .L0 
     /tmp/cc6qYxbF.s:2430   .text:00000000000009a4 .L0 
     /tmp/cc6qYxbF.s:2432   .text:00000000000009a8 .L0 
     /tmp/cc6qYxbF.s:2390   .text:0000000000000958 _ZN17_JoinSleepManagerC1EP7_ThreadS1_
     /tmp/cc6qYxbF.s:2440   .text:00000000000009a8 _ZN18_SemORSleepManagerC2EP7_ThreadP4_SemS3_
     /tmp/cc6qYxbF.s:2443   .text:00000000000009a8 .L0 
     /tmp/cc6qYxbF.s:2445   .text:00000000000009a8 .L0 
     /tmp/cc6qYxbF.s:2446   .text:00000000000009ac .L0 
     /tmp/cc6qYxbF.s:2452   .text:00000000000009c0 .L0 
     /tmp/cc6qYxbF.s:2453   .text:00000000000009c0 .L0 
     /tmp/cc6qYxbF.s:2454   .text:00000000000009c0 .L0 
     /tmp/cc6qYxbF.s:2455   .text:00000000000009c0 .L0 
     /tmp/cc6qYxbF.s:2456   .text:00000000000009c0 .L0 
     /tmp/cc6qYxbF.s:2458   .text:00000000000009c4 .L0 
     /tmp/cc6qYxbF.s:2464   .text:00000000000009d0 .L0 
     /tmp/cc6qYxbF.s:2472   .text:00000000000009ec .L0 
     /tmp/cc6qYxbF.s:2473   .text:00000000000009f0 .L0 
     /tmp/cc6qYxbF.s:2475   .text:00000000000009f4 .L0 
     /tmp/cc6qYxbF.s:2476   .text:00000000000009f4 .L0 
     /tmp/cc6qYxbF.s:2478   .text:00000000000009f8 .L0 
     /tmp/cc6qYxbF.s:2481   .text:00000000000009fc .L0 
     /tmp/cc6qYxbF.s:2484   .text:0000000000000a00 .L0 
     /tmp/cc6qYxbF.s:2487   .text:0000000000000a04 .L0 
     /tmp/cc6qYxbF.s:2489   .text:0000000000000a08 .L0 
     /tmp/cc6qYxbF.s:2440   .text:00000000000009a8 _ZN18_SemORSleepManagerC1EP7_ThreadP4_SemS3_
     /tmp/cc6qYxbF.s:2497   .text:0000000000000a08 _ZN19_SemANDSleepManagerC2EP7_ThreadP4_SemS3_
     /tmp/cc6qYxbF.s:2500   .text:0000000000000a08 .L0 
     /tmp/cc6qYxbF.s:2502   .text:0000000000000a08 .L0 
     /tmp/cc6qYxbF.s:2503   .text:0000000000000a0c .L0 
     /tmp/cc6qYxbF.s:2509   .text:0000000000000a20 .L0 
     /tmp/cc6qYxbF.s:2510   .text:0000000000000a20 .L0 
     /tmp/cc6qYxbF.s:2511   .text:0000000000000a20 .L0 
     /tmp/cc6qYxbF.s:2512   .text:0000000000000a20 .L0 
     /tmp/cc6qYxbF.s:2513   .text:0000000000000a20 .L0 
     /tmp/cc6qYxbF.s:2515   .text:0000000000000a24 .L0 
     /tmp/cc6qYxbF.s:2521   .text:0000000000000a30 .L0 
GAS LISTING /tmp/cc6qYxbF.s 			page 78


     /tmp/cc6qYxbF.s:2529   .text:0000000000000a4c .L0 
     /tmp/cc6qYxbF.s:2530   .text:0000000000000a50 .L0 
     /tmp/cc6qYxbF.s:2532   .text:0000000000000a54 .L0 
     /tmp/cc6qYxbF.s:2533   .text:0000000000000a54 .L0 
     /tmp/cc6qYxbF.s:2535   .text:0000000000000a58 .L0 
     /tmp/cc6qYxbF.s:2538   .text:0000000000000a5c .L0 
     /tmp/cc6qYxbF.s:2541   .text:0000000000000a60 .L0 
     /tmp/cc6qYxbF.s:2544   .text:0000000000000a64 .L0 
     /tmp/cc6qYxbF.s:2546   .text:0000000000000a68 .L0 
     /tmp/cc6qYxbF.s:2497   .text:0000000000000a08 _ZN19_SemANDSleepManagerC1EP7_ThreadP4_SemS3_
     /tmp/cc6qYxbF.s:2737   .bss:0000000000000040 _ZN19_SemANDSleepManager5cacheE
     /tmp/cc6qYxbF.s:2733   .bss:0000000000000038 _ZN18_SemORSleepManager5cacheE
     /tmp/cc6qYxbF.s:2729   .bss:0000000000000030 _ZN17_JoinSleepManager5cacheE
     /tmp/cc6qYxbF.s:2725   .bss:0000000000000028 _ZN16_SemSleepManager5cacheE
     /tmp/cc6qYxbF.s:2721   .bss:0000000000000020 _ZN14_SemANDManager5cacheE
     /tmp/cc6qYxbF.s:2717   .bss:0000000000000018 _ZN13_SemORManager5cacheE
     /tmp/cc6qYxbF.s:2713   .bss:0000000000000010 _ZN12_JoinManager5cacheE
     /tmp/cc6qYxbF.s:2709   .bss:0000000000000008 _ZN13_SleepManager5cacheE
     /tmp/cc6qYxbF.s:2705   .bss:0000000000000000 _ZN11_SemManager5cacheE
     /tmp/cc6qYxbF.s:2702   .bss:0000000000000000 .LANCHOR0
     /tmp/cc6qYxbF.s:2748   .text:0000000000000a68 .L0 
     /tmp/cc6qYxbF.s:325    .text._ZN19_SemANDSleepManagerD2Ev:0000000000000024 .L0 
     /tmp/cc6qYxbF.s:356    .text._ZN18_SemORSleepManagerD2Ev:0000000000000024 .L0 
     /tmp/cc6qYxbF.s:387    .text._ZN17_JoinSleepManagerD2Ev:0000000000000024 .L0 
     /tmp/cc6qYxbF.s:418    .text._ZN16_SemSleepManagerD2Ev:0000000000000024 .L0 
     /tmp/cc6qYxbF.s:449    .text._ZN14_SemANDManagerD2Ev:0000000000000024 .L0 
     /tmp/cc6qYxbF.s:480    .text._ZN13_SemORManagerD2Ev:0000000000000024 .L0 
     /tmp/cc6qYxbF.s:511    .text._ZN12_JoinManagerD2Ev:0000000000000024 .L0 
     /tmp/cc6qYxbF.s:542    .text._ZN13_SleepManagerD2Ev:0000000000000024 .L0 
     /tmp/cc6qYxbF.s:573    .text._ZN11_SemManagerD2Ev:0000000000000024 .L0 
     /tmp/cc6qYxbF.s:1655   .text._ZN11_SemManagerD0Ev:0000000000000040 .L0 
     /tmp/cc6qYxbF.s:1704   .text._ZN13_SleepManagerD0Ev:0000000000000040 .L0 
     /tmp/cc6qYxbF.s:1753   .text._ZN12_JoinManagerD0Ev:0000000000000040 .L0 
     /tmp/cc6qYxbF.s:1802   .text._ZN13_SemORManagerD0Ev:0000000000000040 .L0 
     /tmp/cc6qYxbF.s:1851   .text._ZN14_SemANDManagerD0Ev:0000000000000040 .L0 
     /tmp/cc6qYxbF.s:1900   .text._ZN16_SemSleepManagerD0Ev:0000000000000040 .L0 
     /tmp/cc6qYxbF.s:1949   .text._ZN17_JoinSleepManagerD0Ev:0000000000000040 .L0 
     /tmp/cc6qYxbF.s:1998   .text._ZN18_SemORSleepManagerD0Ev:0000000000000040 .L0 
     /tmp/cc6qYxbF.s:2047   .text._ZN19_SemANDSleepManagerD0Ev:0000000000000040 .L0 
     /tmp/cc6qYxbF.s:2064   .text:000000000000074c .L0 
     /tmp/cc6qYxbF.s:2106   .text:0000000000000790 .L0 
     /tmp/cc6qYxbF.s:2153   .text:00000000000007d8 .L0 
     /tmp/cc6qYxbF.s:2199   .text:0000000000000820 .L0 
     /tmp/cc6qYxbF.s:2252   .text:0000000000000878 .L0 
     /tmp/cc6qYxbF.s:2309   .text:00000000000008d8 .L0 
     /tmp/cc6qYxbF.s:2363   .text:0000000000000930 .L0 
     /tmp/cc6qYxbF.s:2413   .text:0000000000000980 .L0 
     /tmp/cc6qYxbF.s:2466   .text:00000000000009d8 .L0 
     /tmp/cc6qYxbF.s:2523   .text:0000000000000a38 .L0 
     /tmp/cc6qYxbF.s:269    .text:0000000000000114 .L24
     /tmp/cc6qYxbF.s:275    .text:000000000000011c .L25
     /tmp/cc6qYxbF.s:250    .text:00000000000000fc .L19
     /tmp/cc6qYxbF.s:285    .text:000000000000012c .L22
     /tmp/cc6qYxbF.s:259    .text:0000000000000108 .L20
     /tmp/cc6qYxbF.s:703    .text:00000000000001ec .L52
     /tmp/cc6qYxbF.s:681    .text:00000000000001cc .L50
     /tmp/cc6qYxbF.s:746    .text:000000000000022c .L54
GAS LISTING /tmp/cc6qYxbF.s 			page 79


     /tmp/cc6qYxbF.s:757    .text:0000000000000240 .L55
     /tmp/cc6qYxbF.s:810    .text:000000000000028c .L58
     /tmp/cc6qYxbF.s:821    .text:00000000000002a0 .L59
     /tmp/cc6qYxbF.s:1067   .text:0000000000000400 .L73
     /tmp/cc6qYxbF.s:1040   .text:00000000000003d4 .L71
     /tmp/cc6qYxbF.s:1166   .text:0000000000000494 .L86
     /tmp/cc6qYxbF.s:1171   .text:000000000000049c .L87
     /tmp/cc6qYxbF.s:1155   .text:0000000000000484 .L78
     /tmp/cc6qYxbF.s:1182   .text:00000000000004ac .L88
     /tmp/cc6qYxbF.s:1243   .text:0000000000000508 .L90
     /tmp/cc6qYxbF.s:1254   .text:000000000000051c .L91
     /tmp/cc6qYxbF.s:1567   .text:0000000000000700 .L104
     /tmp/cc6qYxbF.s:1578   .text:0000000000000714 .L105
     /tmp/cc6qYxbF.s:311    .text._ZN19_SemANDSleepManagerD2Ev:000000000000000c .L0 
     /tmp/cc6qYxbF.s:342    .text._ZN18_SemORSleepManagerD2Ev:000000000000000c .L0 
     /tmp/cc6qYxbF.s:373    .text._ZN17_JoinSleepManagerD2Ev:000000000000000c .L0 
     /tmp/cc6qYxbF.s:404    .text._ZN16_SemSleepManagerD2Ev:000000000000000c .L0 
     /tmp/cc6qYxbF.s:435    .text._ZN14_SemANDManagerD2Ev:000000000000000c .L0 
     /tmp/cc6qYxbF.s:466    .text._ZN13_SemORManagerD2Ev:000000000000000c .L0 
     /tmp/cc6qYxbF.s:497    .text._ZN12_JoinManagerD2Ev:000000000000000c .L0 
     /tmp/cc6qYxbF.s:528    .text._ZN13_SleepManagerD2Ev:000000000000000c .L0 
     /tmp/cc6qYxbF.s:559    .text._ZN11_SemManagerD2Ev:000000000000000c .L0 
     /tmp/cc6qYxbF.s:1628   .text._ZN11_SemManagerD0Ev:0000000000000014 .L0 
     /tmp/cc6qYxbF.s:1637   .text._ZN11_SemManagerD0Ev:0000000000000020 .L0 
     /tmp/cc6qYxbF.s:1677   .text._ZN13_SleepManagerD0Ev:0000000000000014 .L0 
     /tmp/cc6qYxbF.s:1686   .text._ZN13_SleepManagerD0Ev:0000000000000020 .L0 
     /tmp/cc6qYxbF.s:1726   .text._ZN12_JoinManagerD0Ev:0000000000000014 .L0 
     /tmp/cc6qYxbF.s:1735   .text._ZN12_JoinManagerD0Ev:0000000000000020 .L0 
     /tmp/cc6qYxbF.s:1775   .text._ZN13_SemORManagerD0Ev:0000000000000014 .L0 
     /tmp/cc6qYxbF.s:1784   .text._ZN13_SemORManagerD0Ev:0000000000000020 .L0 
     /tmp/cc6qYxbF.s:1824   .text._ZN14_SemANDManagerD0Ev:0000000000000014 .L0 
     /tmp/cc6qYxbF.s:1833   .text._ZN14_SemANDManagerD0Ev:0000000000000020 .L0 
     /tmp/cc6qYxbF.s:1873   .text._ZN16_SemSleepManagerD0Ev:0000000000000014 .L0 
     /tmp/cc6qYxbF.s:1882   .text._ZN16_SemSleepManagerD0Ev:0000000000000020 .L0 
     /tmp/cc6qYxbF.s:1922   .text._ZN17_JoinSleepManagerD0Ev:0000000000000014 .L0 
     /tmp/cc6qYxbF.s:1931   .text._ZN17_JoinSleepManagerD0Ev:0000000000000020 .L0 
     /tmp/cc6qYxbF.s:1971   .text._ZN18_SemORSleepManagerD0Ev:0000000000000014 .L0 
     /tmp/cc6qYxbF.s:1980   .text._ZN18_SemORSleepManagerD0Ev:0000000000000020 .L0 
     /tmp/cc6qYxbF.s:2020   .text._ZN19_SemANDSleepManagerD0Ev:0000000000000014 .L0 
     /tmp/cc6qYxbF.s:2029   .text._ZN19_SemANDSleepManagerD0Ev:0000000000000020 .L0 
     /tmp/cc6qYxbF.s:8032   .debug_abbrev:0000000000000000 .Ldebug_abbrev0
     /tmp/cc6qYxbF.s:11513  .debug_str:0000000000001af4 .LASF341
     /tmp/cc6qYxbF.s:11319  .debug_str:0000000000001305 .LASF342
     /tmp/cc6qYxbF.s:11529  .debug_str:0000000000001c39 .LASF343
     /tmp/cc6qYxbF.s:10811  .debug_ranges:0000000000000000 .Ldebug_ranges0
     /tmp/cc6qYxbF.s:10853  .debug_line:0000000000000000 .Ldebug_line0
     /tmp/cc6qYxbF.s:10909  .debug_str:0000000000000231 .LASF0
     /tmp/cc6qYxbF.s:11507  .debug_str:0000000000001aa9 .LASF1
     /tmp/cc6qYxbF.s:11445  .debug_str:0000000000001823 .LASF2
     /tmp/cc6qYxbF.s:11407  .debug_str:0000000000001667 .LASF4
     /tmp/cc6qYxbF.s:11417  .debug_str:00000000000016b7 .LASF3
     /tmp/cc6qYxbF.s:11089  .debug_str:00000000000009b6 .LASF5
     /tmp/cc6qYxbF.s:11191  .debug_str:0000000000000e27 .LASF6
     /tmp/cc6qYxbF.s:11157  .debug_str:0000000000000c99 .LASF7
     /tmp/cc6qYxbF.s:11351  .debug_str:0000000000001453 .LASF8
     /tmp/cc6qYxbF.s:10945  .debug_str:00000000000003da .LASF9
     /tmp/cc6qYxbF.s:11493  .debug_str:0000000000001a3f .LASF10
GAS LISTING /tmp/cc6qYxbF.s 			page 80


     /tmp/cc6qYxbF.s:11091  .debug_str:00000000000009bd .LASF11
     /tmp/cc6qYxbF.s:11001  .debug_str:00000000000005f7 .LASF12
     /tmp/cc6qYxbF.s:11195  .debug_str:0000000000000e4d .LASF13
     /tmp/cc6qYxbF.s:11097  .debug_str:00000000000009f8 .LASF14
     /tmp/cc6qYxbF.s:11391  .debug_str:00000000000015ea .LASF15
     /tmp/cc6qYxbF.s:11103  .debug_str:0000000000000a1f .LASF16
     /tmp/cc6qYxbF.s:11055  .debug_str:000000000000084a .LASF17
     /tmp/cc6qYxbF.s:11077  .debug_str:000000000000091d .LASF18
     /tmp/cc6qYxbF.s:11127  .debug_str:0000000000000b3b .LASF27
     /tmp/cc6qYxbF.s:11415  .debug_str:00000000000016b1 .LASF19
     /tmp/cc6qYxbF.s:10901  .debug_str:000000000000020e .LASF20
     /tmp/cc6qYxbF.s:10897  .debug_str:00000000000001f1 .LASF21
     /tmp/cc6qYxbF.s:11363  .debug_str:00000000000014e4 .LASF22
     /tmp/cc6qYxbF.s:11341  .debug_str:00000000000013ef .LASF23
     /tmp/cc6qYxbF.s:11277  .debug_str:000000000000117c .LASF24
     /tmp/cc6qYxbF.s:11079  .debug_str:0000000000000926 .LASF25
     /tmp/cc6qYxbF.s:11281  .debug_str:00000000000011a3 .LASF115
     /tmp/cc6qYxbF.s:11305  .debug_str:000000000000128e .LASF26
     /tmp/cc6qYxbF.s:11475  .debug_str:0000000000001989 .LASF28
     /tmp/cc6qYxbF.s:11301  .debug_str:0000000000001277 .LASF135
     /tmp/cc6qYxbF.s:11419  .debug_str:00000000000016c9 .LASF136
     /tmp/cc6qYxbF.s:11289  .debug_str:00000000000011d6 .LASF29
     /tmp/cc6qYxbF.s:10875  .debug_str:00000000000000f8 .LASF30
     /tmp/cc6qYxbF.s:11519  .debug_str:0000000000001bdc .LASF31
     /tmp/cc6qYxbF.s:11221  .debug_str:0000000000000fa4 .LASF32
     /tmp/cc6qYxbF.s:10891  .debug_str:00000000000001ab .LASF33
     /tmp/cc6qYxbF.s:11255  .debug_str:00000000000010dc .LASF34
     /tmp/cc6qYxbF.s:10961  .debug_str:000000000000049b .LASF35
     /tmp/cc6qYxbF.s:11185  .debug_str:0000000000000dc7 .LASF36
     /tmp/cc6qYxbF.s:11199  .debug_str:0000000000000e86 .LASF37
     /tmp/cc6qYxbF.s:11043  .debug_str:00000000000007b5 .LASF38
     /tmp/cc6qYxbF.s:11243  .debug_str:0000000000001062 .LASF39
     /tmp/cc6qYxbF.s:11299  .debug_str:0000000000001253 .LASF40
     /tmp/cc6qYxbF.s:11017  .debug_str:000000000000069e .LASF41
     /tmp/cc6qYxbF.s:11313  .debug_str:00000000000012d2 .LASF42
     /tmp/cc6qYxbF.s:11469  .debug_str:0000000000001927 .LASF43
     /tmp/cc6qYxbF.s:10863  .debug_str:0000000000000054 .LASF44
     /tmp/cc6qYxbF.s:11173  .debug_str:0000000000000d58 .LASF45
     /tmp/cc6qYxbF.s:11267  .debug_str:000000000000113b .LASF46
     /tmp/cc6qYxbF.s:11237  .debug_str:000000000000103b .LASF47
     /tmp/cc6qYxbF.s:10895  .debug_str:00000000000001dd .LASF49
     /tmp/cc6qYxbF.s:11207  .debug_str:0000000000000ee8 .LASF48
     /tmp/cc6qYxbF.s:10933  .debug_str:0000000000000334 .LASF50
     /tmp/cc6qYxbF.s:11065  .debug_str:00000000000008bb .LASF51
     /tmp/cc6qYxbF.s:11543  .debug_str:0000000000001cc5 .LASF52
     /tmp/cc6qYxbF.s:11283  .debug_str:00000000000011a9 .LASF53
     /tmp/cc6qYxbF.s:10883  .debug_str:0000000000000151 .LASF54
     /tmp/cc6qYxbF.s:11479  .debug_str:00000000000019a9 .LASF55
     /tmp/cc6qYxbF.s:11437  .debug_str:00000000000017b3 .LASF57
     /tmp/cc6qYxbF.s:11503  .debug_str:0000000000001a8d .LASF56
     /tmp/cc6qYxbF.s:11453  .debug_str:0000000000001890 .LASF58
     /tmp/cc6qYxbF.s:11261  .debug_str:000000000000110c .LASF59
     /tmp/cc6qYxbF.s:11547  .debug_str:0000000000001cfe .LASF60
     /tmp/cc6qYxbF.s:11273  .debug_str:000000000000116f .LASF61
     /tmp/cc6qYxbF.s:11531  .debug_str:0000000000001c5d .LASF62
     /tmp/cc6qYxbF.s:11399  .debug_str:0000000000001635 .LASF63
     /tmp/cc6qYxbF.s:11535  .debug_str:0000000000001c7b .LASF64
GAS LISTING /tmp/cc6qYxbF.s 			page 81


     /tmp/cc6qYxbF.s:11145  .debug_str:0000000000000c0b .LASF65
     /tmp/cc6qYxbF.s:10889  .debug_str:0000000000000196 .LASF66
     /tmp/cc6qYxbF.s:11099  .debug_str:0000000000000a08 .LASF67
     /tmp/cc6qYxbF.s:11463  .debug_str:00000000000018fe .LASF68
     /tmp/cc6qYxbF.s:10965  .debug_str:00000000000004b0 .LASF69
     /tmp/cc6qYxbF.s:10871  .debug_str:00000000000000c7 .LASF70
     /tmp/cc6qYxbF.s:10973  .debug_str:00000000000004ea .LASF71
     /tmp/cc6qYxbF.s:11115  .debug_str:0000000000000a88 .LASF72
     /tmp/cc6qYxbF.s:10981  .debug_str:0000000000000536 .LASF73
     /tmp/cc6qYxbF.s:11051  .debug_str:0000000000000816 .LASF74
     /tmp/cc6qYxbF.s:11045  .debug_str:00000000000007da .LASF75
     /tmp/cc6qYxbF.s:11029  .debug_str:0000000000000707 .LASF76
     /tmp/cc6qYxbF.s:10919  .debug_str:0000000000000281 .LASF77
     /tmp/cc6qYxbF.s:11553  .debug_str:0000000000001d3c .LASF78
     /tmp/cc6qYxbF.s:10943  .debug_str:00000000000003cd .LASF79
     /tmp/cc6qYxbF.s:10877  .debug_str:0000000000000116 .LASF80
     /tmp/cc6qYxbF.s:11023  .debug_str:00000000000006e7 .LASF81
     /tmp/cc6qYxbF.s:11149  .debug_str:0000000000000c2e .LASF82
     /tmp/cc6qYxbF.s:11459  .debug_str:00000000000018e0 .LASF83
     /tmp/cc6qYxbF.s:11211  .debug_str:0000000000000f09 .LASF84
     /tmp/cc6qYxbF.s:10963  .debug_str:00000000000004a2 .LASF85
     /tmp/cc6qYxbF.s:10921  .debug_str:000000000000028c .LASF86
     /tmp/cc6qYxbF.s:10907  .debug_str:000000000000021f .LASF177
     /tmp/cc6qYxbF.s:11389  .debug_str:00000000000015e5 .LASF87
     /tmp/cc6qYxbF.s:10989  .debug_str:0000000000000594 .LASF88
     /tmp/cc6qYxbF.s:10999  .debug_str:00000000000005ed .LASF89
     /tmp/cc6qYxbF.s:11201  .debug_str:0000000000000eac .LASF90
     /tmp/cc6qYxbF.s:11241  .debug_str:0000000000001057 .LASF91
     /tmp/cc6qYxbF.s:10941  .debug_str:00000000000003a5 .LASF92
     /tmp/cc6qYxbF.s:11019  .debug_str:00000000000006c1 .LASF93
     /tmp/cc6qYxbF.s:10873  .debug_str:00000000000000dc .LASF94
     /tmp/cc6qYxbF.s:11565  .debug_str:0000000000001dce .LASF95
     /tmp/cc6qYxbF.s:11265  .debug_str:0000000000001123 .LASF96
     /tmp/cc6qYxbF.s:11109  .debug_str:0000000000000a54 .LASF97
     /tmp/cc6qYxbF.s:11439  .debug_str:00000000000017ce .LASF98
     /tmp/cc6qYxbF.s:11107  .debug_str:0000000000000a4b .LASF99
     /tmp/cc6qYxbF.s:11049  .debug_str:00000000000007fa .LASF100
     /tmp/cc6qYxbF.s:11071  .debug_str:0000000000000901 .LASF101
     /tmp/cc6qYxbF.s:11169  .debug_str:0000000000000d1e .LASF102
     /tmp/cc6qYxbF.s:11495  .debug_str:0000000000001a4d .LASF103
     /tmp/cc6qYxbF.s:11215  .debug_str:0000000000000f3b .LASF104
     /tmp/cc6qYxbF.s:10857  .debug_str:0000000000000026 .LASF344
     /tmp/cc6qYxbF.s:11233  .debug_str:000000000000101b .LASF345
     /tmp/cc6qYxbF.s:11315  .debug_str:00000000000012f4 .LASF105
     /tmp/cc6qYxbF.s:11139  .debug_str:0000000000000ba5 .LASF106
     /tmp/cc6qYxbF.s:11369  .debug_str:0000000000001529 .LASF107
     /tmp/cc6qYxbF.s:10885  .debug_str:0000000000000169 .LASF108
     /tmp/cc6qYxbF.s:11533  .debug_str:0000000000001c73 .LASF109
     /tmp/cc6qYxbF.s:11413  .debug_str:00000000000016ac .LASF110
     /tmp/cc6qYxbF.s:11057  .debug_str:0000000000000860 .LASF111
     /tmp/cc6qYxbF.s:11083  .debug_str:000000000000095f .LASF113
     /tmp/cc6qYxbF.s:11225  .debug_str:0000000000000fca .LASF112
     /tmp/cc6qYxbF.s:11061  .debug_str:000000000000088b .LASF114
     /tmp/cc6qYxbF.s:11015  .debug_str:0000000000000699 .LASF116
     /tmp/cc6qYxbF.s:11129  .debug_str:0000000000000b43 .LASF117
     /tmp/cc6qYxbF.s:11521  .debug_str:0000000000001bf9 .LASF118
     /tmp/cc6qYxbF.s:11541  .debug_str:0000000000001cc0 .LASF119
GAS LISTING /tmp/cc6qYxbF.s 			page 82


     /tmp/cc6qYxbF.s:11285  .debug_str:00000000000011b3 .LASF120
     /tmp/cc6qYxbF.s:11223  .debug_str:0000000000000fb4 .LASF121
     /tmp/cc6qYxbF.s:11027  .debug_str:00000000000006fe .LASF122
     /tmp/cc6qYxbF.s:11113  .debug_str:0000000000000a71 .LASF123
     /tmp/cc6qYxbF.s:11047  .debug_str:00000000000007e9 .LASF124
     /tmp/cc6qYxbF.s:11271  .debug_str:0000000000001162 .LASF125
     /tmp/cc6qYxbF.s:10917  .debug_str:0000000000000274 .LASF126
     /tmp/cc6qYxbF.s:11337  .debug_str:00000000000013b9 .LASF127
     /tmp/cc6qYxbF.s:11101  .debug_str:0000000000000a11 .LASF128
     /tmp/cc6qYxbF.s:11135  .debug_str:0000000000000b7c .LASF129
     /tmp/cc6qYxbF.s:11073  .debug_str:000000000000090c .LASF130
     /tmp/cc6qYxbF.s:11379  .debug_str:00000000000015a9 .LASF131
     /tmp/cc6qYxbF.s:10879  .debug_str:0000000000000132 .LASF132
     /tmp/cc6qYxbF.s:10985  .debug_str:0000000000000567 .LASF133
     /tmp/cc6qYxbF.s:11309  .debug_str:00000000000012ac .LASF134
     /tmp/cc6qYxbF.s:11383  .debug_str:00000000000015c3 .LASF137
     /tmp/cc6qYxbF.s:11025  .debug_str:00000000000006f1 .LASF138
     /tmp/cc6qYxbF.s:11275  .debug_str:0000000000001177 .LASF139
     /tmp/cc6qYxbF.s:11487  .debug_str:00000000000019ff .LASF140
     /tmp/cc6qYxbF.s:10997  .debug_str:00000000000005e6 .LASF141
     /tmp/cc6qYxbF.s:11461  .debug_str:00000000000018ec .LASF142
     /tmp/cc6qYxbF.s:10975  .debug_str:00000000000004f5 .LASF143
     /tmp/cc6qYxbF.s:11327  .debug_str:0000000000001340 .LASF144
     /tmp/cc6qYxbF.s:11333  .debug_str:0000000000001387 .LASF145
     /tmp/cc6qYxbF.s:10887  .debug_str:0000000000000181 .LASF146
     /tmp/cc6qYxbF.s:11477  .debug_str:0000000000001999 .LASF147
     /tmp/cc6qYxbF.s:10993  .debug_str:00000000000005c7 .LASF148
     /tmp/cc6qYxbF.s:11263  .debug_str:0000000000001111 .LASF149
     /tmp/cc6qYxbF.s:11075  .debug_str:0000000000000916 .LASF150
     /tmp/cc6qYxbF.s:10951  .debug_str:0000000000000414 .LASF151
     /tmp/cc6qYxbF.s:11405  .debug_str:0000000000001662 .LASF152
     /tmp/cc6qYxbF.s:11111  .debug_str:0000000000000a5d .LASF153
     /tmp/cc6qYxbF.s:11163  .debug_str:0000000000000cda .LASF154
     /tmp/cc6qYxbF.s:11269  .debug_str:000000000000114f .LASF155
     /tmp/cc6qYxbF.s:11303  .debug_str:0000000000001287 .LASF156
     /tmp/cc6qYxbF.s:11427  .debug_str:0000000000001727 .LASF157
     /tmp/cc6qYxbF.s:11297  .debug_str:0000000000001248 .LASF158
     /tmp/cc6qYxbF.s:10947  .debug_str:00000000000003ea .LASF159
     /tmp/cc6qYxbF.s:11387  .debug_str:00000000000015d6 .LASF160
     /tmp/cc6qYxbF.s:11187  .debug_str:0000000000000df0 .LASF161
     /tmp/cc6qYxbF.s:11523  .debug_str:0000000000001bff .LASF162
     /tmp/cc6qYxbF.s:11429  .debug_str:000000000000173e .LASF163
     /tmp/cc6qYxbF.s:11355  .debug_str:0000000000001486 .LASF164
     /tmp/cc6qYxbF.s:11259  .debug_str:0000000000001104 .LASF165
     /tmp/cc6qYxbF.s:11465  .debug_str:0000000000001915 .LASF166
     /tmp/cc6qYxbF.s:11033  .debug_str:0000000000000741 .LASF170
     /tmp/cc6qYxbF.s:11329  .debug_str:0000000000001358 .LASF167
     /tmp/cc6qYxbF.s:10911  .debug_str:000000000000023e .LASF168
     /tmp/cc6qYxbF.s:11323  .debug_str:000000000000131f .LASF169
     /tmp/cc6qYxbF.s:11005  .debug_str:000000000000061e .LASF171
     /tmp/cc6qYxbF.s:11371  .debug_str:0000000000001533 .LASF172
     /tmp/cc6qYxbF.s:11467  .debug_str:0000000000001921 .LASF173
     /tmp/cc6qYxbF.s:10861  .debug_str:000000000000004f .LASF174
     /tmp/cc6qYxbF.s:11253  .debug_str:00000000000010c7 .LASF175
     /tmp/cc6qYxbF.s:11345  .debug_str:0000000000001414 .LASF176
     /tmp/cc6qYxbF.s:11441  .debug_str:00000000000017e5 .LASF178
     /tmp/cc6qYxbF.s:10915  .debug_str:000000000000025a .LASF179
GAS LISTING /tmp/cc6qYxbF.s 			page 83


     /tmp/cc6qYxbF.s:11165  .debug_str:0000000000000ce0 .LASF180
     /tmp/cc6qYxbF.s:11421  .debug_str:00000000000016da .LASF181
     /tmp/cc6qYxbF.s:11037  .debug_str:000000000000075d .LASF182
     /tmp/cc6qYxbF.s:11179  .debug_str:0000000000000d88 .LASF346
     /tmp/cc6qYxbF.s:11251  .debug_str:00000000000010ba .LASF183
     /tmp/cc6qYxbF.s:11539  .debug_str:0000000000001ca7 .LASF202
     /tmp/cc6qYxbF.s:11161  .debug_str:0000000000000cc7 .LASF347
     /tmp/cc6qYxbF.s:11217  .debug_str:0000000000000f58 .LASF184
     /tmp/cc6qYxbF.s:11175  .debug_str:0000000000000d5d .LASF186
     /tmp/cc6qYxbF.s:11517  .debug_str:0000000000001bd1 .LASF185
     /tmp/cc6qYxbF.s:10953  .debug_str:000000000000042e .LASF187
     /tmp/cc6qYxbF.s:11235  .debug_str:0000000000001031 .LASF188
     /tmp/cc6qYxbF.s:11137  .debug_str:0000000000000b87 .LASF189
     /tmp/cc6qYxbF.s:11343  .debug_str:00000000000013f6 .LASF190
     /tmp/cc6qYxbF.s:11561  .debug_str:0000000000001da9 .LASF348
     /tmp/cc6qYxbF.s:10923  .debug_str:00000000000002a9 .LASF349
     /tmp/cc6qYxbF.s:11177  .debug_str:0000000000000d7f .LASF191
     /tmp/cc6qYxbF.s:11245  .debug_str:0000000000001089 .LASF192
     /tmp/cc6qYxbF.s:10971  .debug_str:00000000000004e3 .LASF193
     /tmp/cc6qYxbF.s:11385  .debug_str:00000000000015d1 .LASF194
     /tmp/cc6qYxbF.s:11549  .debug_str:0000000000001d11 .LASF195
     /tmp/cc6qYxbF.s:11183  .debug_str:0000000000000db3 .LASF196
     /tmp/cc6qYxbF.s:11505  .debug_str:0000000000001a94 .LASF350
     /tmp/cc6qYxbF.s:11499  .debug_str:0000000000001a6d .LASF197
     /tmp/cc6qYxbF.s:11373  .debug_str:0000000000001555 .LASF198
     /tmp/cc6qYxbF.s:10931  .debug_str:000000000000031a .LASF351
     /tmp/cc6qYxbF.s:11509  .debug_str:0000000000001abc .LASF199
     /tmp/cc6qYxbF.s:11147  .debug_str:0000000000000c12 .LASF200
     /tmp/cc6qYxbF.s:11203  .debug_str:0000000000000ec7 .LASF201
     /tmp/cc6qYxbF.s:11563  .debug_str:0000000000001db7 .LASF203
     /tmp/cc6qYxbF.s:11433  .debug_str:0000000000001781 .LASF204
     /tmp/cc6qYxbF.s:11451  .debug_str:000000000000186d .LASF205
     /tmp/cc6qYxbF.s:11501  .debug_str:0000000000001a78 .LASF206
     /tmp/cc6qYxbF.s:11239  .debug_str:0000000000001041 .LASF207
     /tmp/cc6qYxbF.s:11361  .debug_str:00000000000014c3 .LASF208
     /tmp/cc6qYxbF.s:11067  .debug_str:00000000000008c8 .LASF209
     /tmp/cc6qYxbF.s:11393  .debug_str:00000000000015f6 .LASF210
     /tmp/cc6qYxbF.s:10935  .debug_str:000000000000034b .LASF220
     /tmp/cc6qYxbF.s:10995  .debug_str:00000000000005ce .LASF222
     /tmp/cc6qYxbF.s:11013  .debug_str:000000000000068b .LASF211
     /tmp/cc6qYxbF.s:11125  .debug_str:0000000000000b22 .LASF212
     /tmp/cc6qYxbF.s:11357  .debug_str:0000000000001492 .LASF213
     /tmp/cc6qYxbF.s:11447  .debug_str:0000000000001831 .LASF214
     /tmp/cc6qYxbF.s:10913  .debug_str:0000000000000243 .LASF215
     /tmp/cc6qYxbF.s:11395  .debug_str:0000000000001603 .LASF216
     /tmp/cc6qYxbF.s:11431  .debug_str:0000000000001760 .LASF217
     /tmp/cc6qYxbF.s:10865  .debug_str:0000000000000073 .LASF218
     /tmp/cc6qYxbF.s:10967  .debug_str:00000000000004b7 .LASF219
     /tmp/cc6qYxbF.s:11053  .debug_str:0000000000000833 .LASF221
     /tmp/cc6qYxbF.s:10881  .debug_str:0000000000000137 .LASF223
     /tmp/cc6qYxbF.s:11515  .debug_str:0000000000001bc4 .LASF224
     /tmp/cc6qYxbF.s:11003  .debug_str:0000000000000606 .LASF225
     /tmp/cc6qYxbF.s:11063  .debug_str:00000000000008a2 .LASF226
     /tmp/cc6qYxbF.s:11009  .debug_str:000000000000064f .LASF227
     /tmp/cc6qYxbF.s:11189  .debug_str:0000000000000e11 .LASF228
     /tmp/cc6qYxbF.s:11249  .debug_str:00000000000010a3 .LASF229
     /tmp/cc6qYxbF.s:11181  .debug_str:0000000000000d95 .LASF230
GAS LISTING /tmp/cc6qYxbF.s 			page 84


     /tmp/cc6qYxbF.s:11491  .debug_str:0000000000001a21 .LASF231
     /tmp/cc6qYxbF.s:11317  .debug_str:00000000000012f9 .LASF232
     /tmp/cc6qYxbF.s:10949  .debug_str:0000000000000406 .LASF233
     /tmp/cc6qYxbF.s:11155  .debug_str:0000000000000c83 .LASF234
     /tmp/cc6qYxbF.s:11311  .debug_str:00000000000012b9 .LASF235
     /tmp/cc6qYxbF.s:11551  .debug_str:0000000000001d2e .LASF236
     /tmp/cc6qYxbF.s:11095  .debug_str:00000000000009df .LASF237
     /tmp/cc6qYxbF.s:11151  .debug_str:0000000000000c46 .LASF238
     /tmp/cc6qYxbF.s:11039  .debug_str:0000000000000776 .LASF239
     /tmp/cc6qYxbF.s:11375  .debug_str:000000000000156e .LASF240
     /tmp/cc6qYxbF.s:10977  .debug_str:0000000000000501 .LASF241
     /tmp/cc6qYxbF.s:10983  .debug_str:0000000000000544 .LASF242
     /tmp/cc6qYxbF.s:11443  .debug_str:0000000000001804 .LASF243
     /tmp/cc6qYxbF.s:10903  .debug_str:0000000000000215 .LASF244
     /tmp/cc6qYxbF.s:10905  .debug_str:000000000000021a .LASF245
     /tmp/cc6qYxbF.s:11527  .debug_str:0000000000001c2a .LASF246
     /tmp/cc6qYxbF.s:11041  .debug_str:000000000000079e .LASF247
     /tmp/cc6qYxbF.s:11397  .debug_str:000000000000161b .LASF248
     /tmp/cc6qYxbF.s:11349  .debug_str:0000000000001444 .LASF249
     /tmp/cc6qYxbF.s:10927  .debug_str:00000000000002e4 .LASF250
     /tmp/cc6qYxbF.s:11287  .debug_str:00000000000011bb .LASF251
     /tmp/cc6qYxbF.s:11197  .debug_str:0000000000000e5d .LASF252
     /tmp/cc6qYxbF.s:11257  .debug_str:00000000000010ec .LASF253
     /tmp/cc6qYxbF.s:11557  .debug_str:0000000000001d74 .LASF254
     /tmp/cc6qYxbF.s:11123  .debug_str:0000000000000afe .LASF255
     /tmp/cc6qYxbF.s:11353  .debug_str:0000000000001466 .LASF256
     /tmp/cc6qYxbF.s:11481  .debug_str:00000000000019b5 .LASF257
     /tmp/cc6qYxbF.s:11537  .debug_str:0000000000001c8f .LASF258
     /tmp/cc6qYxbF.s:11525  .debug_str:0000000000001c0f .LASF259
     /tmp/cc6qYxbF.s:11307  .debug_str:000000000000129b .LASF260
     /tmp/cc6qYxbF.s:11167  .debug_str:0000000000000d02 .LASF261
     /tmp/cc6qYxbF.s:11449  .debug_str:0000000000001850 .LASF262
     /tmp/cc6qYxbF.s:11229  .debug_str:0000000000000fe9 .LASF263
     /tmp/cc6qYxbF.s:11347  .debug_str:000000000000142a .LASF264
     /tmp/cc6qYxbF.s:11279  .debug_str:0000000000001188 .LASF265
     /tmp/cc6qYxbF.s:11365  .debug_str:00000000000014ed .LASF266
     /tmp/cc6qYxbF.s:11293  .debug_str:000000000000120a .LASF267
     /tmp/cc6qYxbF.s:11423  .debug_str:00000000000016e0 .LASF268
     /tmp/cc6qYxbF.s:11489  .debug_str:0000000000001a0f .LASF269
     /tmp/cc6qYxbF.s:11295  .debug_str:000000000000122e .LASF270
     /tmp/cc6qYxbF.s:10979  .debug_str:0000000000000519 .LASF271
     /tmp/cc6qYxbF.s:11497  .debug_str:0000000000001a5b .LASF272
     /tmp/cc6qYxbF.s:11457  .debug_str:00000000000018c3 .LASF273
     /tmp/cc6qYxbF.s:11455  .debug_str:00000000000018a5 .LASF274
     /tmp/cc6qYxbF.s:11511  .debug_str:0000000000001ace .LASF275
     /tmp/cc6qYxbF.s:10867  .debug_str:0000000000000092 .LASF276
     /tmp/cc6qYxbF.s:11031  .debug_str:0000000000000725 .LASF277
     /tmp/cc6qYxbF.s:11471  .debug_str:0000000000001947 .LASF278
     /tmp/cc6qYxbF.s:11425  .debug_str:0000000000001702 .LASF279
     /tmp/cc6qYxbF.s:11085  .debug_str:000000000000097e .LASF280
     /tmp/cc6qYxbF.s:11093  .debug_str:00000000000009cc .LASF281
     /tmp/cc6qYxbF.s:11011  .debug_str:0000000000000670 .LASF282
     /tmp/cc6qYxbF.s:10991  .debug_str:00000000000005a9 .LASF283
     /tmp/cc6qYxbF.s:11291  .debug_str:00000000000011f7 .LASF284
     /tmp/cc6qYxbF.s:11555  .debug_str:0000000000001d56 .LASF285
     /tmp/cc6qYxbF.s:11193  .debug_str:0000000000000e2e .LASF286
     /tmp/cc6qYxbF.s:11081  .debug_str:0000000000000932 .LASF287
GAS LISTING /tmp/cc6qYxbF.s 			page 85


     /tmp/cc6qYxbF.s:10929  .debug_str:00000000000002fe .LASF288
     /tmp/cc6qYxbF.s:11021  .debug_str:00000000000006ca .LASF289
     /tmp/cc6qYxbF.s:11335  .debug_str:0000000000001391 .LASF290
     /tmp/cc6qYxbF.s:10937  .debug_str:0000000000000360 .LASF291
     /tmp/cc6qYxbF.s:11377  .debug_str:0000000000001585 .LASF292
     /tmp/cc6qYxbF.s:11381  .debug_str:00000000000015af .LASF293
     /tmp/cc6qYxbF.s:11485  .debug_str:00000000000019e3 .LASF294
     /tmp/cc6qYxbF.s:11133  .debug_str:0000000000000b5d .LASF295
     /tmp/cc6qYxbF.s:11131  .debug_str:0000000000000b49 .LASF296
     /tmp/cc6qYxbF.s:11473  .debug_str:000000000000196a .LASF297
     /tmp/cc6qYxbF.s:11171  .debug_str:0000000000000d38 .LASF298
     /tmp/cc6qYxbF.s:11219  .debug_str:0000000000000f76 .LASF299
     /tmp/cc6qYxbF.s:11401  .debug_str:000000000000163b .LASF300
     /tmp/cc6qYxbF.s:11411  .debug_str:000000000000168e .LASF301
     /tmp/cc6qYxbF.s:10893  .debug_str:00000000000001b4 .LASF302
     /tmp/cc6qYxbF.s:11121  .debug_str:0000000000000ad7 .LASF303
     /tmp/cc6qYxbF.s:11143  .debug_str:0000000000000be6 .LASF304
     /tmp/cc6qYxbF.s:11205  .debug_str:0000000000000ed3 .LASF305
     /tmp/cc6qYxbF.s:11545  .debug_str:0000000000001ce1 .LASF306
     /tmp/cc6qYxbF.s:11409  .debug_str:000000000000166e .LASF307
     /tmp/cc6qYxbF.s:10957  .debug_str:000000000000047b .LASF352
     /tmp/cc6qYxbF.s:11321  .debug_str:000000000000131a .LASF308
     /tmp/cc6qYxbF.s:11403  .debug_str:0000000000001658 .LASF309
     /tmp/cc6qYxbF.s:11247  .debug_str:000000000000108e .LASF310
     /tmp/cc6qYxbF.s:1611   .text._ZN11_SemManagerD0Ev:0000000000000000 .LFB122
     /tmp/cc6qYxbF.s:1653   .text._ZN11_SemManagerD0Ev:0000000000000040 .LFE122
     /tmp/cc6qYxbF.s:9295   .debug_loc:0000000000000000 .LLST31
     /tmp/cc6qYxbF.s:1625   .text._ZN11_SemManagerD0Ev:0000000000000014 .LBB56
     /tmp/cc6qYxbF.s:1632   .text._ZN11_SemManagerD0Ev:0000000000000020 .LBE56
     /tmp/cc6qYxbF.s:9313   .debug_loc:000000000000004c .LLST32
     /tmp/cc6qYxbF.s:1633   .text._ZN11_SemManagerD0Ev:0000000000000020 .LBB58
     /tmp/cc6qYxbF.s:1642   .text._ZN11_SemManagerD0Ev:0000000000000030 .LBE58
     /tmp/cc6qYxbF.s:9320   .debug_loc:000000000000006f .LLST33
     /tmp/cc6qYxbF.s:1640   .text._ZN11_SemManagerD0Ev:0000000000000030 .LVL131
     /tmp/cc6qYxbF.s:11087  .debug_str:00000000000009a1 .LASF311
     /tmp/cc6qYxbF.s:547    .text._ZN11_SemManagerD2Ev:0000000000000000 .LFB120
     /tmp/cc6qYxbF.s:569    .text._ZN11_SemManagerD2Ev:0000000000000024 .LFE120
     /tmp/cc6qYxbF.s:11359  .debug_str:00000000000014ac .LASF312
     /tmp/cc6qYxbF.s:1660   .text._ZN13_SleepManagerD0Ev:0000000000000000 .LFB118
     /tmp/cc6qYxbF.s:1702   .text._ZN13_SleepManagerD0Ev:0000000000000040 .LFE118
     /tmp/cc6qYxbF.s:9338   .debug_loc:00000000000000bb .LLST34
     /tmp/cc6qYxbF.s:1674   .text._ZN13_SleepManagerD0Ev:0000000000000014 .LBB60
     /tmp/cc6qYxbF.s:1681   .text._ZN13_SleepManagerD0Ev:0000000000000020 .LBE60
     /tmp/cc6qYxbF.s:9356   .debug_loc:0000000000000107 .LLST35
     /tmp/cc6qYxbF.s:1682   .text._ZN13_SleepManagerD0Ev:0000000000000020 .LBB62
     /tmp/cc6qYxbF.s:1691   .text._ZN13_SleepManagerD0Ev:0000000000000030 .LBE62
     /tmp/cc6qYxbF.s:9363   .debug_loc:000000000000012a .LLST36
     /tmp/cc6qYxbF.s:1689   .text._ZN13_SleepManagerD0Ev:0000000000000030 .LVL136
     /tmp/cc6qYxbF.s:11035  .debug_str:0000000000000746 .LASF313
     /tmp/cc6qYxbF.s:516    .text._ZN13_SleepManagerD2Ev:0000000000000000 .LFB116
     /tmp/cc6qYxbF.s:538    .text._ZN13_SleepManagerD2Ev:0000000000000024 .LFE116
     /tmp/cc6qYxbF.s:11007  .debug_str:0000000000000639 .LASF314
     /tmp/cc6qYxbF.s:1709   .text._ZN12_JoinManagerD0Ev:0000000000000000 .LFB114
     /tmp/cc6qYxbF.s:1751   .text._ZN12_JoinManagerD0Ev:0000000000000040 .LFE114
     /tmp/cc6qYxbF.s:9381   .debug_loc:0000000000000176 .LLST37
     /tmp/cc6qYxbF.s:1723   .text._ZN12_JoinManagerD0Ev:0000000000000014 .LBB64
     /tmp/cc6qYxbF.s:1730   .text._ZN12_JoinManagerD0Ev:0000000000000020 .LBE64
GAS LISTING /tmp/cc6qYxbF.s 			page 86


     /tmp/cc6qYxbF.s:9399   .debug_loc:00000000000001c2 .LLST38
     /tmp/cc6qYxbF.s:1731   .text._ZN12_JoinManagerD0Ev:0000000000000020 .LBB66
     /tmp/cc6qYxbF.s:1740   .text._ZN12_JoinManagerD0Ev:0000000000000030 .LBE66
     /tmp/cc6qYxbF.s:9406   .debug_loc:00000000000001e5 .LLST39
     /tmp/cc6qYxbF.s:1738   .text._ZN12_JoinManagerD0Ev:0000000000000030 .LVL141
     /tmp/cc6qYxbF.s:11367  .debug_str:0000000000001513 .LASF315
     /tmp/cc6qYxbF.s:485    .text._ZN12_JoinManagerD2Ev:0000000000000000 .LFB112
     /tmp/cc6qYxbF.s:507    .text._ZN12_JoinManagerD2Ev:0000000000000024 .LFE112
     /tmp/cc6qYxbF.s:10899  .debug_str:00000000000001f7 .LASF316
     /tmp/cc6qYxbF.s:1758   .text._ZN13_SemORManagerD0Ev:0000000000000000 .LFB110
     /tmp/cc6qYxbF.s:1800   .text._ZN13_SemORManagerD0Ev:0000000000000040 .LFE110
     /tmp/cc6qYxbF.s:9424   .debug_loc:0000000000000231 .LLST40
     /tmp/cc6qYxbF.s:1772   .text._ZN13_SemORManagerD0Ev:0000000000000014 .LBB68
     /tmp/cc6qYxbF.s:1779   .text._ZN13_SemORManagerD0Ev:0000000000000020 .LBE68
     /tmp/cc6qYxbF.s:9442   .debug_loc:000000000000027d .LLST41
     /tmp/cc6qYxbF.s:1780   .text._ZN13_SemORManagerD0Ev:0000000000000020 .LBB70
     /tmp/cc6qYxbF.s:1789   .text._ZN13_SemORManagerD0Ev:0000000000000030 .LBE70
     /tmp/cc6qYxbF.s:9449   .debug_loc:00000000000002a0 .LLST42
     /tmp/cc6qYxbF.s:1787   .text._ZN13_SemORManagerD0Ev:0000000000000030 .LVL146
     /tmp/cc6qYxbF.s:11213  .debug_str:0000000000000f24 .LASF317
     /tmp/cc6qYxbF.s:454    .text._ZN13_SemORManagerD2Ev:0000000000000000 .LFB108
     /tmp/cc6qYxbF.s:476    .text._ZN13_SemORManagerD2Ev:0000000000000024 .LFE108
     /tmp/cc6qYxbF.s:11117  .debug_str:0000000000000aa2 .LASF318
     /tmp/cc6qYxbF.s:1807   .text._ZN14_SemANDManagerD0Ev:0000000000000000 .LFB106
     /tmp/cc6qYxbF.s:1849   .text._ZN14_SemANDManagerD0Ev:0000000000000040 .LFE106
     /tmp/cc6qYxbF.s:9467   .debug_loc:00000000000002ec .LLST43
     /tmp/cc6qYxbF.s:1821   .text._ZN14_SemANDManagerD0Ev:0000000000000014 .LBB72
     /tmp/cc6qYxbF.s:1828   .text._ZN14_SemANDManagerD0Ev:0000000000000020 .LBE72
     /tmp/cc6qYxbF.s:9485   .debug_loc:0000000000000338 .LLST44
     /tmp/cc6qYxbF.s:1829   .text._ZN14_SemANDManagerD0Ev:0000000000000020 .LBB74
     /tmp/cc6qYxbF.s:1838   .text._ZN14_SemANDManagerD0Ev:0000000000000030 .LBE74
     /tmp/cc6qYxbF.s:9492   .debug_loc:000000000000035b .LLST45
     /tmp/cc6qYxbF.s:1836   .text._ZN14_SemANDManagerD0Ev:0000000000000030 .LVL151
     /tmp/cc6qYxbF.s:11209  .debug_str:0000000000000ef1 .LASF319
     /tmp/cc6qYxbF.s:423    .text._ZN14_SemANDManagerD2Ev:0000000000000000 .LFB104
     /tmp/cc6qYxbF.s:445    .text._ZN14_SemANDManagerD2Ev:0000000000000024 .LFE104
     /tmp/cc6qYxbF.s:10869  .debug_str:00000000000000ad .LASF320
     /tmp/cc6qYxbF.s:1856   .text._ZN16_SemSleepManagerD0Ev:0000000000000000 .LFB102
     /tmp/cc6qYxbF.s:1898   .text._ZN16_SemSleepManagerD0Ev:0000000000000040 .LFE102
     /tmp/cc6qYxbF.s:9510   .debug_loc:00000000000003a7 .LLST46
     /tmp/cc6qYxbF.s:1870   .text._ZN16_SemSleepManagerD0Ev:0000000000000014 .LBB76
     /tmp/cc6qYxbF.s:1877   .text._ZN16_SemSleepManagerD0Ev:0000000000000020 .LBE76
     /tmp/cc6qYxbF.s:9528   .debug_loc:00000000000003f3 .LLST47
     /tmp/cc6qYxbF.s:1878   .text._ZN16_SemSleepManagerD0Ev:0000000000000020 .LBB78
     /tmp/cc6qYxbF.s:1887   .text._ZN16_SemSleepManagerD0Ev:0000000000000030 .LBE78
     /tmp/cc6qYxbF.s:9535   .debug_loc:0000000000000416 .LLST48
     /tmp/cc6qYxbF.s:1885   .text._ZN16_SemSleepManagerD0Ev:0000000000000030 .LVL156
     /tmp/cc6qYxbF.s:11435  .debug_str:0000000000001799 .LASF321
     /tmp/cc6qYxbF.s:392    .text._ZN16_SemSleepManagerD2Ev:0000000000000000 .LFB100
     /tmp/cc6qYxbF.s:414    .text._ZN16_SemSleepManagerD2Ev:0000000000000024 .LFE100
     /tmp/cc6qYxbF.s:11059  .debug_str:0000000000000870 .LASF322
     /tmp/cc6qYxbF.s:1905   .text._ZN17_JoinSleepManagerD0Ev:0000000000000000 .LFB98
     /tmp/cc6qYxbF.s:1947   .text._ZN17_JoinSleepManagerD0Ev:0000000000000040 .LFE98
     /tmp/cc6qYxbF.s:9553   .debug_loc:0000000000000462 .LLST49
     /tmp/cc6qYxbF.s:1919   .text._ZN17_JoinSleepManagerD0Ev:0000000000000014 .LBB80
     /tmp/cc6qYxbF.s:1926   .text._ZN17_JoinSleepManagerD0Ev:0000000000000020 .LBE80
     /tmp/cc6qYxbF.s:9571   .debug_loc:00000000000004ae .LLST50
GAS LISTING /tmp/cc6qYxbF.s 			page 87


     /tmp/cc6qYxbF.s:1927   .text._ZN17_JoinSleepManagerD0Ev:0000000000000020 .LBB82
     /tmp/cc6qYxbF.s:1936   .text._ZN17_JoinSleepManagerD0Ev:0000000000000030 .LBE82
     /tmp/cc6qYxbF.s:9578   .debug_loc:00000000000004d1 .LLST51
     /tmp/cc6qYxbF.s:1934   .text._ZN17_JoinSleepManagerD0Ev:0000000000000030 .LVL161
     /tmp/cc6qYxbF.s:11159  .debug_str:0000000000000cac .LASF323
     /tmp/cc6qYxbF.s:361    .text._ZN17_JoinSleepManagerD2Ev:0000000000000000 .LFB96
     /tmp/cc6qYxbF.s:383    .text._ZN17_JoinSleepManagerD2Ev:0000000000000024 .LFE96
     /tmp/cc6qYxbF.s:11069  .debug_str:00000000000008e5 .LASF324
     /tmp/cc6qYxbF.s:1954   .text._ZN18_SemORSleepManagerD0Ev:0000000000000000 .LFB94
     /tmp/cc6qYxbF.s:1996   .text._ZN18_SemORSleepManagerD0Ev:0000000000000040 .LFE94
     /tmp/cc6qYxbF.s:9596   .debug_loc:000000000000051d .LLST52
     /tmp/cc6qYxbF.s:1968   .text._ZN18_SemORSleepManagerD0Ev:0000000000000014 .LBB84
     /tmp/cc6qYxbF.s:1975   .text._ZN18_SemORSleepManagerD0Ev:0000000000000020 .LBE84
     /tmp/cc6qYxbF.s:9614   .debug_loc:0000000000000569 .LLST53
     /tmp/cc6qYxbF.s:1976   .text._ZN18_SemORSleepManagerD0Ev:0000000000000020 .LBB86
     /tmp/cc6qYxbF.s:1985   .text._ZN18_SemORSleepManagerD0Ev:0000000000000030 .LBE86
     /tmp/cc6qYxbF.s:9621   .debug_loc:000000000000058c .LLST54
     /tmp/cc6qYxbF.s:1983   .text._ZN18_SemORSleepManagerD0Ev:0000000000000030 .LVL166
     /tmp/cc6qYxbF.s:11559  .debug_str:0000000000001d8d .LASF325
     /tmp/cc6qYxbF.s:330    .text._ZN18_SemORSleepManagerD2Ev:0000000000000000 .LFB92
     /tmp/cc6qYxbF.s:352    .text._ZN18_SemORSleepManagerD2Ev:0000000000000024 .LFE92
     /tmp/cc6qYxbF.s:11119  .debug_str:0000000000000aba .LASF326
     /tmp/cc6qYxbF.s:2003   .text._ZN19_SemANDSleepManagerD0Ev:0000000000000000 .LFB90
     /tmp/cc6qYxbF.s:2045   .text._ZN19_SemANDSleepManagerD0Ev:0000000000000040 .LFE90
     /tmp/cc6qYxbF.s:9639   .debug_loc:00000000000005d8 .LLST55
     /tmp/cc6qYxbF.s:2017   .text._ZN19_SemANDSleepManagerD0Ev:0000000000000014 .LBB88
     /tmp/cc6qYxbF.s:2024   .text._ZN19_SemANDSleepManagerD0Ev:0000000000000020 .LBE88
     /tmp/cc6qYxbF.s:9657   .debug_loc:0000000000000624 .LLST56
     /tmp/cc6qYxbF.s:2025   .text._ZN19_SemANDSleepManagerD0Ev:0000000000000020 .LBB90
     /tmp/cc6qYxbF.s:2034   .text._ZN19_SemANDSleepManagerD0Ev:0000000000000030 .LBE90
     /tmp/cc6qYxbF.s:9664   .debug_loc:0000000000000647 .LLST57
     /tmp/cc6qYxbF.s:2032   .text._ZN19_SemANDSleepManagerD0Ev:0000000000000030 .LVL171
     /tmp/cc6qYxbF.s:10969  .debug_str:00000000000004c6 .LASF327
     /tmp/cc6qYxbF.s:298    .text._ZN19_SemANDSleepManagerD2Ev:0000000000000000 .LFB88
     /tmp/cc6qYxbF.s:321    .text._ZN19_SemANDSleepManagerD2Ev:0000000000000024 .LFE88
     /tmp/cc6qYxbF.s:1217   .text:00000000000004dc .LFB86
     /tmp/cc6qYxbF.s:1280   .text:0000000000000548 .LFE86
     /tmp/cc6qYxbF.s:9682   .debug_loc:0000000000000693 .LLST24
     /tmp/cc6qYxbF.s:1242   .text:0000000000000508 .LVL92
     /tmp/cc6qYxbF.s:1253   .text:000000000000051c .LVL93
     /tmp/cc6qYxbF.s:1264   .text:0000000000000530 .LVL94
     /tmp/cc6qYxbF.s:1541   .text:00000000000006d4 .LFB85
     /tmp/cc6qYxbF.s:1604   .text:0000000000000740 .LFE85
     /tmp/cc6qYxbF.s:9700   .debug_loc:00000000000006df .LLST30
     /tmp/cc6qYxbF.s:1566   .text:0000000000000700 .LVL123
     /tmp/cc6qYxbF.s:1577   .text:0000000000000714 .LVL124
     /tmp/cc6qYxbF.s:1588   .text:0000000000000728 .LVL125
     /tmp/cc6qYxbF.s:1143   .text:0000000000000478 .LFB84
     /tmp/cc6qYxbF.s:1211   .text:00000000000004dc .LFE84
     /tmp/cc6qYxbF.s:9718   .debug_loc:000000000000072b .LLST22
     /tmp/cc6qYxbF.s:9754   .debug_loc:00000000000007b6 .LLST23
     /tmp/cc6qYxbF.s:1197   .text:00000000000004c8 .LVL89
     /tmp/cc6qYxbF.s:11231  .debug_str:0000000000001011 .LASF328
     /tmp/cc6qYxbF.s:11141  .debug_str:0000000000000bb8 .LASF329
     /tmp/cc6qYxbF.s:2498   .text:0000000000000a08 .LFB82
     /tmp/cc6qYxbF.s:2547   .text:0000000000000a68 .LFE82
     /tmp/cc6qYxbF.s:9768   .debug_loc:00000000000007ef .LLST84
GAS LISTING /tmp/cc6qYxbF.s 			page 88


     /tmp/cc6qYxbF.s:9786   .debug_loc:000000000000083b .LLST85
     /tmp/cc6qYxbF.s:9800   .debug_loc:0000000000000874 .LLST86
     /tmp/cc6qYxbF.s:9819   .debug_loc:00000000000008c1 .LLST87
     /tmp/cc6qYxbF.s:2522   .text:0000000000000a38 .LVL208
     /tmp/cc6qYxbF.s:1084   .text:0000000000000414 .LFB80
     /tmp/cc6qYxbF.s:1137   .text:0000000000000478 .LFE80
     /tmp/cc6qYxbF.s:9838   .debug_loc:000000000000090e .LLST21
     /tmp/cc6qYxbF.s:1105   .text:000000000000043c .LVL79
     /tmp/cc6qYxbF.s:1111   .text:000000000000044c .LVL80
     /tmp/cc6qYxbF.s:1121   .text:0000000000000460 .LVL81
     /tmp/cc6qYxbF.s:1482   .text:0000000000000670 .LFB79
     /tmp/cc6qYxbF.s:1535   .text:00000000000006d4 .LFE79
     /tmp/cc6qYxbF.s:9856   .debug_loc:000000000000095a .LLST29
     /tmp/cc6qYxbF.s:1503   .text:0000000000000698 .LVL117
     /tmp/cc6qYxbF.s:1509   .text:00000000000006a8 .LVL118
     /tmp/cc6qYxbF.s:1519   .text:00000000000006bc .LVL119
     /tmp/cc6qYxbF.s:1013   .text:00000000000003a8 .LFB78
     /tmp/cc6qYxbF.s:1078   .text:0000000000000414 .LFE78
     /tmp/cc6qYxbF.s:9874   .debug_loc:00000000000009a6 .LLST19
     /tmp/cc6qYxbF.s:9896   .debug_loc:0000000000000a05 .LLST20
     /tmp/cc6qYxbF.s:1039   .text:00000000000003d4 .LVL71
     /tmp/cc6qYxbF.s:1050   .text:00000000000003e8 .LVL72
     /tmp/cc6qYxbF.s:1075   .text:0000000000000410 .LVL76
     /tmp/cc6qYxbF.s:10955  .debug_str:000000000000044e .LASF330
     /tmp/cc6qYxbF.s:2441   .text:00000000000009a8 .LFB76
     /tmp/cc6qYxbF.s:2490   .text:0000000000000a08 .LFE76
     /tmp/cc6qYxbF.s:9921   .debug_loc:0000000000000a67 .LLST80
     /tmp/cc6qYxbF.s:9939   .debug_loc:0000000000000ab3 .LLST81
     /tmp/cc6qYxbF.s:9953   .debug_loc:0000000000000aec .LLST82
     /tmp/cc6qYxbF.s:9972   .debug_loc:0000000000000b39 .LLST83
     /tmp/cc6qYxbF.s:2465   .text:00000000000009d8 .LVL203
     /tmp/cc6qYxbF.s:1331   .text:0000000000000588 .LFB74
     /tmp/cc6qYxbF.s:1375   .text:00000000000005d4 .LFE74
     /tmp/cc6qYxbF.s:9991   .debug_loc:0000000000000b86 .LLST26
     /tmp/cc6qYxbF.s:1351   .text:00000000000005ac .LVL102
     /tmp/cc6qYxbF.s:1359   .text:00000000000005bc .LVL103
     /tmp/cc6qYxbF.s:1432   .text:0000000000000624 .LFB73
     /tmp/cc6qYxbF.s:1476   .text:0000000000000670 .LFE73
     /tmp/cc6qYxbF.s:10009  .debug_loc:0000000000000bd2 .LLST28
     /tmp/cc6qYxbF.s:1452   .text:0000000000000648 .LVL112
     /tmp/cc6qYxbF.s:1460   .text:0000000000000658 .LVL113
     /tmp/cc6qYxbF.s:974    .text:0000000000000374 .LFB72
     /tmp/cc6qYxbF.s:1007   .text:00000000000003a8 .LFE72
     /tmp/cc6qYxbF.s:10027  .debug_loc:0000000000000c1e .LLST18
     /tmp/cc6qYxbF.s:994    .text:0000000000000394 .LVL67
     /tmp/cc6qYxbF.s:10855  .debug_str:0000000000000000 .LASF331
     /tmp/cc6qYxbF.s:2391   .text:0000000000000958 .LFB70
     /tmp/cc6qYxbF.s:2433   .text:00000000000009a8 .LFE70
     /tmp/cc6qYxbF.s:10041  .debug_loc:0000000000000c57 .LLST77
     /tmp/cc6qYxbF.s:10059  .debug_loc:0000000000000ca3 .LLST78
     /tmp/cc6qYxbF.s:10073  .debug_loc:0000000000000cdc .LLST79
     /tmp/cc6qYxbF.s:2412   .text:0000000000000980 .LVL199
     /tmp/cc6qYxbF.s:923    .text:0000000000000324 .LFB68
     /tmp/cc6qYxbF.s:968    .text:0000000000000374 .LFE68
     /tmp/cc6qYxbF.s:10092  .debug_loc:0000000000000d29 .LLST17
     /tmp/cc6qYxbF.s:944    .text:000000000000034c .LVL62
     /tmp/cc6qYxbF.s:952    .text:000000000000035c .LVL63
GAS LISTING /tmp/cc6qYxbF.s 			page 89


     /tmp/cc6qYxbF.s:1381   .text:00000000000005d4 .LFB67
     /tmp/cc6qYxbF.s:1426   .text:0000000000000624 .LFE67
     /tmp/cc6qYxbF.s:10110  .debug_loc:0000000000000d75 .LLST27
     /tmp/cc6qYxbF.s:1402   .text:00000000000005fc .LVL107
     /tmp/cc6qYxbF.s:1410   .text:000000000000060c .LVL108
     /tmp/cc6qYxbF.s:884    .text:00000000000002f0 .LFB66
     /tmp/cc6qYxbF.s:917    .text:0000000000000324 .LFE66
     /tmp/cc6qYxbF.s:10128  .debug_loc:0000000000000dc1 .LLST15
     /tmp/cc6qYxbF.s:10142  .debug_loc:0000000000000dfa .LLST16
     /tmp/cc6qYxbF.s:904    .text:0000000000000310 .LVL59
     /tmp/cc6qYxbF.s:10987  .debug_str:000000000000056c .LASF332
     /tmp/cc6qYxbF.s:2341   .text:0000000000000908 .LFB64
     /tmp/cc6qYxbF.s:2383   .text:0000000000000958 .LFE64
     /tmp/cc6qYxbF.s:10156  .debug_loc:0000000000000e33 .LLST74
     /tmp/cc6qYxbF.s:10174  .debug_loc:0000000000000e7f .LLST75
     /tmp/cc6qYxbF.s:10188  .debug_loc:0000000000000eb8 .LLST76
     /tmp/cc6qYxbF.s:2362   .text:0000000000000930 .LVL195
     /tmp/cc6qYxbF.s:784    .text:0000000000000260 .LFB62
     /tmp/cc6qYxbF.s:842    .text:00000000000002c0 .LFE62
     /tmp/cc6qYxbF.s:10207  .debug_loc:0000000000000f05 .LLST13
     /tmp/cc6qYxbF.s:809    .text:000000000000028c .LVL51
     /tmp/cc6qYxbF.s:820    .text:00000000000002a0 .LVL52
     /tmp/cc6qYxbF.s:232    .text:00000000000000e4 .LFB61
     /tmp/cc6qYxbF.s:291    .text:0000000000000134 .LFE61
     /tmp/cc6qYxbF.s:10225  .debug_loc:0000000000000f51 .LLST7
     /tmp/cc6qYxbF.s:11339  .debug_str:00000000000013c6 .LASF333
     /tmp/cc6qYxbF.s:2284   .text:00000000000008a8 .LFB59
     /tmp/cc6qYxbF.s:2333   .text:0000000000000908 .LFE59
     /tmp/cc6qYxbF.s:10261  .debug_loc:0000000000000fdc .LLST70
     /tmp/cc6qYxbF.s:10279  .debug_loc:0000000000001028 .LLST71
     /tmp/cc6qYxbF.s:10293  .debug_loc:0000000000001061 .LLST72
     /tmp/cc6qYxbF.s:10312  .debug_loc:00000000000010ae .LLST73
     /tmp/cc6qYxbF.s:2308   .text:00000000000008d8 .LVL190
     /tmp/cc6qYxbF.s:720    .text:0000000000000200 .LFB57
     /tmp/cc6qYxbF.s:778    .text:0000000000000260 .LFE57
     /tmp/cc6qYxbF.s:10331  .debug_loc:00000000000010fb .LLST12
     /tmp/cc6qYxbF.s:745    .text:000000000000022c .LVL46
     /tmp/cc6qYxbF.s:756    .text:0000000000000240 .LVL47
     /tmp/cc6qYxbF.s:654    .text:00000000000001a0 .LFB56
     /tmp/cc6qYxbF.s:714    .text:0000000000000200 .LFE56
     /tmp/cc6qYxbF.s:10349  .debug_loc:0000000000001147 .LLST10
     /tmp/cc6qYxbF.s:10371  .debug_loc:00000000000011a6 .LLST11
     /tmp/cc6qYxbF.s:680    .text:00000000000001cc .LVL39
     /tmp/cc6qYxbF.s:711    .text:00000000000001fc .LVL43
     /tmp/cc6qYxbF.s:11331  .debug_str:000000000000135f .LASF334
     /tmp/cc6qYxbF.s:2227   .text:0000000000000848 .LFB54
     /tmp/cc6qYxbF.s:2276   .text:00000000000008a8 .LFE54
     /tmp/cc6qYxbF.s:10396  .debug_loc:0000000000001208 .LLST66
     /tmp/cc6qYxbF.s:10414  .debug_loc:0000000000001254 .LLST67
     /tmp/cc6qYxbF.s:10428  .debug_loc:000000000000128d .LLST68
     /tmp/cc6qYxbF.s:10447  .debug_loc:00000000000012da .LLST69
     /tmp/cc6qYxbF.s:2251   .text:0000000000000878 .LVL185
     /tmp/cc6qYxbF.s:1286   .text:0000000000000548 .LFB52
     /tmp/cc6qYxbF.s:1325   .text:0000000000000588 .LFE52
     /tmp/cc6qYxbF.s:10466  .debug_loc:0000000000001327 .LLST25
     /tmp/cc6qYxbF.s:1306   .text:000000000000056c .LVL98
     /tmp/cc6qYxbF.s:202    .text:00000000000000c4 .LFB51
GAS LISTING /tmp/cc6qYxbF.s 			page 90


     /tmp/cc6qYxbF.s:226    .text:00000000000000e4 .LFE51
     /tmp/cc6qYxbF.s:10484  .debug_loc:0000000000001373 .LLST6
     /tmp/cc6qYxbF.s:10859  .debug_str:000000000000002e .LASF335
     /tmp/cc6qYxbF.s:2177   .text:00000000000007f8 .LFB49
     /tmp/cc6qYxbF.s:2219   .text:0000000000000848 .LFE49
     /tmp/cc6qYxbF.s:10498  .debug_loc:00000000000013ac .LLST63
     /tmp/cc6qYxbF.s:10516  .debug_loc:00000000000013f8 .LLST64
     /tmp/cc6qYxbF.s:10530  .debug_loc:0000000000001431 .LLST65
     /tmp/cc6qYxbF.s:2198   .text:0000000000000820 .LVL181
     /tmp/cc6qYxbF.s:848    .text:00000000000002c0 .LFB47
     /tmp/cc6qYxbF.s:878    .text:00000000000002f0 .LFE47
     /tmp/cc6qYxbF.s:10549  .debug_loc:000000000000147e .LLST14
     /tmp/cc6qYxbF.s:865    .text:00000000000002dc .LVL56
     /tmp/cc6qYxbF.s:175    .text:00000000000000a8 .LFB46
     /tmp/cc6qYxbF.s:196    .text:00000000000000c4 .LFE46
     /tmp/cc6qYxbF.s:10563  .debug_loc:00000000000014b7 .LLST5
     /tmp/cc6qYxbF.s:10939  .debug_str:0000000000000386 .LASF336
     /tmp/cc6qYxbF.s:2134   .text:00000000000007b8 .LFB44
     /tmp/cc6qYxbF.s:2169   .text:00000000000007f8 .LFE44
     /tmp/cc6qYxbF.s:10577  .debug_loc:00000000000014f0 .LLST61
     /tmp/cc6qYxbF.s:10595  .debug_loc:000000000000153c .LLST62
     /tmp/cc6qYxbF.s:2152   .text:00000000000007d8 .LVL178
     /tmp/cc6qYxbF.s:608    .text:000000000000015c .LFB42
     /tmp/cc6qYxbF.s:648    .text:00000000000001a0 .LFE42
     /tmp/cc6qYxbF.s:10609  .debug_loc:0000000000001575 .LLST9
     /tmp/cc6qYxbF.s:629    .text:0000000000000184 .LVL34
     /tmp/cc6qYxbF.s:145    .text:0000000000000088 .LFB41
     /tmp/cc6qYxbF.s:169    .text:00000000000000a8 .LFE41
     /tmp/cc6qYxbF.s:10627  .debug_loc:00000000000015c1 .LLST4
     /tmp/cc6qYxbF.s:11153  .debug_str:0000000000000c60 .LASF337
     /tmp/cc6qYxbF.s:2084   .text:0000000000000768 .LFB39
     /tmp/cc6qYxbF.s:2126   .text:00000000000007b8 .LFE39
     /tmp/cc6qYxbF.s:10641  .debug_loc:00000000000015fa .LLST58
     /tmp/cc6qYxbF.s:10659  .debug_loc:0000000000001646 .LLST59
     /tmp/cc6qYxbF.s:10673  .debug_loc:000000000000167f .LLST60
     /tmp/cc6qYxbF.s:2105   .text:0000000000000790 .LVL174
     /tmp/cc6qYxbF.s:11227  .debug_str:0000000000000fd3 .LASF338
     /tmp/cc6qYxbF.s:578    .text:0000000000000134 .LFB37
     /tmp/cc6qYxbF.s:602    .text:000000000000015c .LFE37
     /tmp/cc6qYxbF.s:10692  .debug_loc:00000000000016cc .LLST8
     /tmp/cc6qYxbF.s:592    .text:000000000000014c .LVL31
     /tmp/cc6qYxbF.s:11105  .debug_str:0000000000000a35 .LASF339
     /tmp/cc6qYxbF.s:119    .text:0000000000000070 .LFB35
     /tmp/cc6qYxbF.s:137    .text:0000000000000088 .LFE35
     /tmp/cc6qYxbF.s:92     .text:0000000000000054 .LFB33
     /tmp/cc6qYxbF.s:113    .text:0000000000000070 .LFE33
     /tmp/cc6qYxbF.s:10706  .debug_loc:0000000000001705 .LLST3
     /tmp/cc6qYxbF.s:65     .text:0000000000000038 .LFB32
     /tmp/cc6qYxbF.s:86     .text:0000000000000054 .LFE32
     /tmp/cc6qYxbF.s:10720  .debug_loc:000000000000173e .LLST2
     /tmp/cc6qYxbF.s:38     .text:000000000000001c .LFB31
     /tmp/cc6qYxbF.s:59     .text:0000000000000038 .LFE31
     /tmp/cc6qYxbF.s:10734  .debug_loc:0000000000001777 .LLST1
     /tmp/cc6qYxbF.s:10     .text:0000000000000000 .LFB30
     /tmp/cc6qYxbF.s:32     .text:000000000000001c .LFE30
     /tmp/cc6qYxbF.s:10748  .debug_loc:00000000000017b0 .LLST0
     /tmp/cc6qYxbF.s:11483  .debug_str:00000000000019c5 .LASF340
GAS LISTING /tmp/cc6qYxbF.s 			page 91


     /tmp/cc6qYxbF.s:2052   .text:0000000000000740 .LFB28
     /tmp/cc6qYxbF.s:2076   .text:0000000000000768 .LFE28
     /tmp/cc6qYxbF.s:10925  .debug_str:00000000000002bf .LASF353
     /tmp/cc6qYxbF.s:10959  .debug_str:000000000000048b .LASF354
     /tmp/cc6qYxbF.s:11325  .debug_str:0000000000001339 .LASF355
     /tmp/cc6qYxbF.s:1614   .text._ZN11_SemManagerD0Ev:0000000000000000 .LVL127
     /tmp/cc6qYxbF.s:1638   .text._ZN11_SemManagerD0Ev:0000000000000028 .LVL130
     /tmp/cc6qYxbF.s:1624   .text._ZN11_SemManagerD0Ev:0000000000000014 .LVL128
     /tmp/cc6qYxbF.s:1630   .text._ZN11_SemManagerD0Ev:0000000000000020 .LVL129
     /tmp/cc6qYxbF.s:1663   .text._ZN13_SleepManagerD0Ev:0000000000000000 .LVL132
     /tmp/cc6qYxbF.s:1687   .text._ZN13_SleepManagerD0Ev:0000000000000028 .LVL135
     /tmp/cc6qYxbF.s:1673   .text._ZN13_SleepManagerD0Ev:0000000000000014 .LVL133
     /tmp/cc6qYxbF.s:1679   .text._ZN13_SleepManagerD0Ev:0000000000000020 .LVL134
     /tmp/cc6qYxbF.s:1712   .text._ZN12_JoinManagerD0Ev:0000000000000000 .LVL137
     /tmp/cc6qYxbF.s:1736   .text._ZN12_JoinManagerD0Ev:0000000000000028 .LVL140
     /tmp/cc6qYxbF.s:1722   .text._ZN12_JoinManagerD0Ev:0000000000000014 .LVL138
     /tmp/cc6qYxbF.s:1728   .text._ZN12_JoinManagerD0Ev:0000000000000020 .LVL139
     /tmp/cc6qYxbF.s:1761   .text._ZN13_SemORManagerD0Ev:0000000000000000 .LVL142
     /tmp/cc6qYxbF.s:1785   .text._ZN13_SemORManagerD0Ev:0000000000000028 .LVL145
     /tmp/cc6qYxbF.s:1771   .text._ZN13_SemORManagerD0Ev:0000000000000014 .LVL143
     /tmp/cc6qYxbF.s:1777   .text._ZN13_SemORManagerD0Ev:0000000000000020 .LVL144
     /tmp/cc6qYxbF.s:1810   .text._ZN14_SemANDManagerD0Ev:0000000000000000 .LVL147
     /tmp/cc6qYxbF.s:1834   .text._ZN14_SemANDManagerD0Ev:0000000000000028 .LVL150
     /tmp/cc6qYxbF.s:1820   .text._ZN14_SemANDManagerD0Ev:0000000000000014 .LVL148
     /tmp/cc6qYxbF.s:1826   .text._ZN14_SemANDManagerD0Ev:0000000000000020 .LVL149
     /tmp/cc6qYxbF.s:1859   .text._ZN16_SemSleepManagerD0Ev:0000000000000000 .LVL152
     /tmp/cc6qYxbF.s:1883   .text._ZN16_SemSleepManagerD0Ev:0000000000000028 .LVL155
     /tmp/cc6qYxbF.s:1869   .text._ZN16_SemSleepManagerD0Ev:0000000000000014 .LVL153
     /tmp/cc6qYxbF.s:1875   .text._ZN16_SemSleepManagerD0Ev:0000000000000020 .LVL154
     /tmp/cc6qYxbF.s:1908   .text._ZN17_JoinSleepManagerD0Ev:0000000000000000 .LVL157
     /tmp/cc6qYxbF.s:1932   .text._ZN17_JoinSleepManagerD0Ev:0000000000000028 .LVL160
     /tmp/cc6qYxbF.s:1918   .text._ZN17_JoinSleepManagerD0Ev:0000000000000014 .LVL158
     /tmp/cc6qYxbF.s:1924   .text._ZN17_JoinSleepManagerD0Ev:0000000000000020 .LVL159
     /tmp/cc6qYxbF.s:1957   .text._ZN18_SemORSleepManagerD0Ev:0000000000000000 .LVL162
     /tmp/cc6qYxbF.s:1981   .text._ZN18_SemORSleepManagerD0Ev:0000000000000028 .LVL165
     /tmp/cc6qYxbF.s:1967   .text._ZN18_SemORSleepManagerD0Ev:0000000000000014 .LVL163
     /tmp/cc6qYxbF.s:1973   .text._ZN18_SemORSleepManagerD0Ev:0000000000000020 .LVL164
     /tmp/cc6qYxbF.s:2006   .text._ZN19_SemANDSleepManagerD0Ev:0000000000000000 .LVL167
     /tmp/cc6qYxbF.s:2030   .text._ZN19_SemANDSleepManagerD0Ev:0000000000000028 .LVL170
     /tmp/cc6qYxbF.s:2016   .text._ZN19_SemANDSleepManagerD0Ev:0000000000000014 .LVL168
     /tmp/cc6qYxbF.s:2022   .text._ZN19_SemANDSleepManagerD0Ev:0000000000000020 .LVL169
     /tmp/cc6qYxbF.s:1220   .text:00000000000004dc .LVL90
     /tmp/cc6qYxbF.s:1235   .text:00000000000004f8 .LVL91
     /tmp/cc6qYxbF.s:1275   .text:0000000000000540 .LVL95
     /tmp/cc6qYxbF.s:1544   .text:00000000000006d4 .LVL121
     /tmp/cc6qYxbF.s:1559   .text:00000000000006f0 .LVL122
     /tmp/cc6qYxbF.s:1599   .text:0000000000000738 .LVL126
     /tmp/cc6qYxbF.s:1146   .text:0000000000000478 .LVL83
     /tmp/cc6qYxbF.s:1163   .text:0000000000000490 .LVL84
     /tmp/cc6qYxbF.s:1165   .text:0000000000000494 .LVL85
     /tmp/cc6qYxbF.s:1178   .text:00000000000004a8 .LVL86
     /tmp/cc6qYxbF.s:1181   .text:00000000000004ac .LVL87
     /tmp/cc6qYxbF.s:1195   .text:00000000000004c0 .LVL88
     /tmp/cc6qYxbF.s:2501   .text:0000000000000a08 .LVL207
     /tmp/cc6qYxbF.s:2536   .text:0000000000000a58 .LVL209
     /tmp/cc6qYxbF.s:2542   .text:0000000000000a60 .LVL211
     /tmp/cc6qYxbF.s:2539   .text:0000000000000a5c .LVL210
GAS LISTING /tmp/cc6qYxbF.s 			page 92


     /tmp/cc6qYxbF.s:1087   .text:0000000000000414 .LVL77
     /tmp/cc6qYxbF.s:1103   .text:0000000000000434 .LVL78
     /tmp/cc6qYxbF.s:1132   .text:0000000000000470 .LVL82
     /tmp/cc6qYxbF.s:1485   .text:0000000000000670 .LVL115
     /tmp/cc6qYxbF.s:1501   .text:0000000000000690 .LVL116
     /tmp/cc6qYxbF.s:1530   .text:00000000000006cc .LVL120
     /tmp/cc6qYxbF.s:1016   .text:00000000000003a8 .LVL68
     /tmp/cc6qYxbF.s:1031   .text:00000000000003c4 .LVL69
     /tmp/cc6qYxbF.s:1062   .text:00000000000003f8 .LVL73
     /tmp/cc6qYxbF.s:1066   .text:0000000000000400 .LVL74
     /tmp/cc6qYxbF.s:1037   .text:00000000000003cc .LVL70
     /tmp/cc6qYxbF.s:1072   .text:0000000000000404 .LVL75
     /tmp/cc6qYxbF.s:2444   .text:00000000000009a8 .LVL202
     /tmp/cc6qYxbF.s:2479   .text:00000000000009f8 .LVL204
     /tmp/cc6qYxbF.s:2485   .text:0000000000000a00 .LVL206
     /tmp/cc6qYxbF.s:2482   .text:00000000000009fc .LVL205
     /tmp/cc6qYxbF.s:1334   .text:0000000000000588 .LVL100
     /tmp/cc6qYxbF.s:1349   .text:00000000000005a4 .LVL101
     /tmp/cc6qYxbF.s:1370   .text:00000000000005cc .LVL104
     /tmp/cc6qYxbF.s:1435   .text:0000000000000624 .LVL110
     /tmp/cc6qYxbF.s:1450   .text:0000000000000640 .LVL111
     /tmp/cc6qYxbF.s:1471   .text:0000000000000668 .LVL114
     /tmp/cc6qYxbF.s:977    .text:0000000000000374 .LVL65
     /tmp/cc6qYxbF.s:992    .text:000000000000038c .LVL66
     /tmp/cc6qYxbF.s:2394   .text:0000000000000958 .LVL198
     /tmp/cc6qYxbF.s:2425   .text:000000000000099c .LVL200
     /tmp/cc6qYxbF.s:2428   .text:00000000000009a0 .LVL201
     /tmp/cc6qYxbF.s:926    .text:0000000000000324 .LVL60
     /tmp/cc6qYxbF.s:942    .text:0000000000000344 .LVL61
     /tmp/cc6qYxbF.s:963    .text:000000000000036c .LVL64
     /tmp/cc6qYxbF.s:1384   .text:00000000000005d4 .LVL105
     /tmp/cc6qYxbF.s:1400   .text:00000000000005f4 .LVL106
     /tmp/cc6qYxbF.s:1421   .text:000000000000061c .LVL109
     /tmp/cc6qYxbF.s:887    .text:00000000000002f0 .LVL57
     /tmp/cc6qYxbF.s:902    .text:0000000000000308 .LVL58
     /tmp/cc6qYxbF.s:2344   .text:0000000000000908 .LVL194
     /tmp/cc6qYxbF.s:2375   .text:000000000000094c .LVL196
     /tmp/cc6qYxbF.s:2378   .text:0000000000000950 .LVL197
     /tmp/cc6qYxbF.s:787    .text:0000000000000260 .LVL49
     /tmp/cc6qYxbF.s:802    .text:000000000000027c .LVL50
     /tmp/cc6qYxbF.s:837    .text:00000000000002b8 .LVL53
     /tmp/cc6qYxbF.s:235    .text:00000000000000e4 .LVL15
     /tmp/cc6qYxbF.s:258    .text:0000000000000108 .LVL16
     /tmp/cc6qYxbF.s:268    .text:0000000000000114 .LVL17
     /tmp/cc6qYxbF.s:282    .text:0000000000000128 .LVL18
     /tmp/cc6qYxbF.s:284    .text:000000000000012c .LVL19
     /tmp/cc6qYxbF.s:288    .text:0000000000000130 .LVL20
     /tmp/cc6qYxbF.s:2287   .text:00000000000008a8 .LVL189
     /tmp/cc6qYxbF.s:2322   .text:00000000000008f8 .LVL191
     /tmp/cc6qYxbF.s:2328   .text:0000000000000900 .LVL193
     /tmp/cc6qYxbF.s:2325   .text:00000000000008fc .LVL192
     /tmp/cc6qYxbF.s:723    .text:0000000000000200 .LVL44
     /tmp/cc6qYxbF.s:738    .text:000000000000021c .LVL45
     /tmp/cc6qYxbF.s:773    .text:0000000000000258 .LVL48
     /tmp/cc6qYxbF.s:657    .text:00000000000001a0 .LVL36
     /tmp/cc6qYxbF.s:672    .text:00000000000001bc .LVL37
     /tmp/cc6qYxbF.s:698    .text:00000000000001e4 .LVL40
GAS LISTING /tmp/cc6qYxbF.s 			page 93


     /tmp/cc6qYxbF.s:702    .text:00000000000001ec .LVL41
     /tmp/cc6qYxbF.s:678    .text:00000000000001c4 .LVL38
     /tmp/cc6qYxbF.s:708    .text:00000000000001f0 .LVL42
     /tmp/cc6qYxbF.s:2230   .text:0000000000000848 .LVL184
     /tmp/cc6qYxbF.s:2265   .text:0000000000000898 .LVL186
     /tmp/cc6qYxbF.s:2271   .text:00000000000008a0 .LVL188
     /tmp/cc6qYxbF.s:2268   .text:000000000000089c .LVL187
     /tmp/cc6qYxbF.s:1289   .text:0000000000000548 .LVL96
     /tmp/cc6qYxbF.s:1304   .text:0000000000000564 .LVL97
     /tmp/cc6qYxbF.s:1320   .text:0000000000000580 .LVL99
     /tmp/cc6qYxbF.s:205    .text:00000000000000c4 .LVL13
     /tmp/cc6qYxbF.s:218    .text:00000000000000d8 .LVL14
     /tmp/cc6qYxbF.s:2180   .text:00000000000007f8 .LVL180
     /tmp/cc6qYxbF.s:2211   .text:000000000000083c .LVL182
     /tmp/cc6qYxbF.s:2214   .text:0000000000000840 .LVL183
     /tmp/cc6qYxbF.s:851    .text:00000000000002c0 .LVL54
     /tmp/cc6qYxbF.s:863    .text:00000000000002d4 .LVL55
     /tmp/cc6qYxbF.s:178    .text:00000000000000a8 .LVL11
     /tmp/cc6qYxbF.s:188    .text:00000000000000b8 .LVL12
     /tmp/cc6qYxbF.s:2137   .text:00000000000007b8 .LVL177
     /tmp/cc6qYxbF.s:2164   .text:00000000000007f0 .LVL179
     /tmp/cc6qYxbF.s:611    .text:000000000000015c .LVL32
     /tmp/cc6qYxbF.s:627    .text:000000000000017c .LVL33
     /tmp/cc6qYxbF.s:643    .text:0000000000000198 .LVL35
     /tmp/cc6qYxbF.s:148    .text:0000000000000088 .LVL9
     /tmp/cc6qYxbF.s:161    .text:000000000000009c .LVL10
     /tmp/cc6qYxbF.s:2087   .text:0000000000000768 .LVL173
     /tmp/cc6qYxbF.s:2118   .text:00000000000007ac .LVL175
     /tmp/cc6qYxbF.s:2121   .text:00000000000007b0 .LVL176
     /tmp/cc6qYxbF.s:581    .text:0000000000000134 .LVL30
     /tmp/cc6qYxbF.s:95     .text:0000000000000054 .LVL6
     /tmp/cc6qYxbF.s:105    .text:0000000000000064 .LVL7
     /tmp/cc6qYxbF.s:68     .text:0000000000000038 .LVL4
     /tmp/cc6qYxbF.s:78     .text:0000000000000048 .LVL5
     /tmp/cc6qYxbF.s:41     .text:000000000000001c .LVL2
     /tmp/cc6qYxbF.s:51     .text:000000000000002c .LVL3
     /tmp/cc6qYxbF.s:14     .text:0000000000000000 .LVL0
     /tmp/cc6qYxbF.s:24     .text:0000000000000010 .LVL1
     /tmp/cc6qYxbF.s:2749   .debug_info:0000000000000000 .Ldebug_info0
     /tmp/cc6qYxbF.s:5      .text:0000000000000000 .Ltext0
     /tmp/cc6qYxbF.s:2740   .text:0000000000000a68 .Letext0
                           .group:0000000000000000 _ZN19_SemANDSleepManagerD5Ev
                           .group:0000000000000000 _ZN18_SemORSleepManagerD5Ev
                           .group:0000000000000000 _ZN17_JoinSleepManagerD5Ev
                           .group:0000000000000000 _ZN16_SemSleepManagerD5Ev
                           .group:0000000000000000 _ZN14_SemANDManagerD5Ev
                           .group:0000000000000000 _ZN13_SemORManagerD5Ev
                           .group:0000000000000000 _ZN12_JoinManagerD5Ev
                           .group:0000000000000000 _ZN13_SleepManagerD5Ev
                           .group:0000000000000000 _ZN11_SemManagerD5Ev

UNDEFINED SYMBOLS
_ZdlPv
_ZN4_Sem6removeEP7_Thread
_ZN6_Sleep6removeEP7_Thread
_ZN7_Thread14parentWaitStopEv
_ZN7_Thread10limitReachEv
GAS LISTING /tmp/cc6qYxbF.s 			page 94


_Z15kmem_cache_freeP12kmem_cache_tPv
