GAS LISTING /tmp/cc4lMdns.s 			page 1


   1              		.file	"ABI.cpp"
   2              		.option pic
   3              		.option norelax
   4              		.text
   5              	.Ltext0:
   6              		.align	2
   7              		.globl	_Z7ABIcallmmmmmmmm
   9              	_Z7ABIcallmmmmmmmm:
  10              	.LFB0:
  11              		.file 1 "src/ABI.cpp"
   1:src/ABI.cpp   **** //
   2:src/ABI.cpp   **** // Created by os on 5/3/22.
   3:src/ABI.cpp   **** //
   4:src/ABI.cpp   **** 
   5:src/ABI.cpp   **** #include "../h/ABI.h"
   6:src/ABI.cpp   **** 
   7:src/ABI.cpp   **** uint64 ABIcall(uint64 code, uint64 a, uint64 b, uint64 c, uint64 d, uint64 e, uint64 f, uint64 g) {
  12              		.loc 1 7 99
  13              		.cfi_startproc
  14              	.LVL0:
  15 0000 130101FF 		addi	sp,sp,-16
  16              		.cfi_def_cfa_offset 16
  17 0004 23348100 		sd	s0,8(sp)
  18              		.cfi_offset 8, -8
  19 0008 13040101 		addi	s0,sp,16
  20              		.cfi_def_cfa 8, 0
   8:src/ABI.cpp   ****     __asm__ volatile("ecall");
  21              		.loc 1 8 5
  22              		.loc 1 8 30 is_stmt 0
  23              	#APP
  24              	# 8 "src/ABI.cpp" 1
   9              	    uint64 res;
  25              		ecall
  26              	# 0 "" 2
  27              		.loc 1 9 5 is_stmt 1
  10:src/ABI.cpp   ****     __asm__ volatile("mv %0, a0" : "=r"(res));//povratna vrednost se nalazi u a0 nakon softverskog 
  28              		.loc 1 10 5
  29              		.loc 1 10 46 is_stmt 0
  30              	# 10 "src/ABI.cpp" 1
  11              	    return res;
  31              		mv a0, a0
  32              	# 0 "" 2
  33              	.LVL1:
  34              		.loc 1 11 5 is_stmt 1
  12:src/ABI.cpp   **** }
  35              		.loc 1 12 1 is_stmt 0
  36              	#NO_APP
  37 0014 03348100 		ld	s0,8(sp)
  38              		.cfi_restore 8
  39              		.cfi_def_cfa 2, 16
  40 0018 13010101 		addi	sp,sp,16
  41              		.cfi_def_cfa_offset 0
  42 001c 67800000 		jr	ra
  43              		.cfi_endproc
  44              	.LFE0:
  46              	.Letext0:
  47              		.file 2 "src/../h/../lib/hw.h"
GAS LISTING /tmp/cc4lMdns.s 			page 2


GAS LISTING /tmp/cc4lMdns.s 			page 3

