GAS LISTING /tmp/cchJ3sio.s 			page 1


   1              		.file	"syscall_cpp.cpp"
   2              		.option pic
   3              		.option norelax
   4              		.text
   5              	.Ltext0:
   6              		.section	.text._ZN6Thread3runEv,"axG",@progbits,_ZN6Thread3runEv,comdat
   7              		.align	2
   8              		.weak	_ZN6Thread3runEv
  10              	_ZN6Thread3runEv:
  11              	.LFB0:
  12              		.file 1 "src/../h/syscall_cpp.h"
   1:src/../h/syscall_cpp.h **** //
   2:src/../h/syscall_cpp.h **** // Created by os on 5/20/22.
   3:src/../h/syscall_cpp.h **** //
   4:src/../h/syscall_cpp.h **** #ifndef _syscall_cpp
   5:src/../h/syscall_cpp.h **** #define _syscall_cpp
   6:src/../h/syscall_cpp.h **** 
   7:src/../h/syscall_cpp.h **** #include "syscall_c.h"
   8:src/../h/syscall_cpp.h **** 
   9:src/../h/syscall_cpp.h **** void* operator new(size_t);
  10:src/../h/syscall_cpp.h **** void operator delete(void*);
  11:src/../h/syscall_cpp.h **** void* operator new[](size_t);
  12:src/../h/syscall_cpp.h **** void operator delete[](void*);
  13:src/../h/syscall_cpp.h **** 
  14:src/../h/syscall_cpp.h **** class Thread {
  15:src/../h/syscall_cpp.h **** public:
  16:src/../h/syscall_cpp.h ****     Thread(void (*body)(void*), void*arg);
  17:src/../h/syscall_cpp.h ****     virtual ~Thread();
  18:src/../h/syscall_cpp.h **** 
  19:src/../h/syscall_cpp.h ****     int start();
  20:src/../h/syscall_cpp.h **** 
  21:src/../h/syscall_cpp.h ****     static void dispatch();
  22:src/../h/syscall_cpp.h ****     static int sleep(time_t);
  23:src/../h/syscall_cpp.h **** 
  24:src/../h/syscall_cpp.h **** protected:
  25:src/../h/syscall_cpp.h ****     Thread();
  26:src/../h/syscall_cpp.h ****     virtual void run() {}
  13              		.loc 1 26 18
  14              		.cfi_startproc
  15              	.LVL0:
  16 0000 130101FF 		addi	sp,sp,-16
  17              		.cfi_def_cfa_offset 16
  18 0004 23348100 		sd	s0,8(sp)
  19              		.cfi_offset 8, -8
  20 0008 13040101 		addi	s0,sp,16
  21              		.cfi_def_cfa 8, 0
  22              		.loc 1 26 25 is_stmt 0
  23 000c 03348100 		ld	s0,8(sp)
  24              		.cfi_restore 8
  25              		.cfi_def_cfa 2, 16
  26 0010 13010101 		addi	sp,sp,16
  27              		.cfi_def_cfa_offset 0
  28 0014 67800000 		jr	ra
  29              		.cfi_endproc
  30              	.LFE0:
  32              		.section	.text._ZN14PeriodicThread18periodicActivationEv,"axG",@progbits,_ZN14PeriodicThread18peri
  33              		.align	2
GAS LISTING /tmp/cchJ3sio.s 			page 2


  34              		.weak	_ZN14PeriodicThread18periodicActivationEv
  36              	_ZN14PeriodicThread18periodicActivationEv:
  37              	.LFB1:
  27:src/../h/syscall_cpp.h **** 
  28:src/../h/syscall_cpp.h **** private:
  29:src/../h/syscall_cpp.h ****     thread_t myHandle = 0;
  30:src/../h/syscall_cpp.h ****     static void wrapper(void* obj);
  31:src/../h/syscall_cpp.h **** };
  32:src/../h/syscall_cpp.h **** 
  33:src/../h/syscall_cpp.h **** class Semaphore {
  34:src/../h/syscall_cpp.h **** public:
  35:src/../h/syscall_cpp.h ****     Semaphore(unsigned init = 1);
  36:src/../h/syscall_cpp.h ****     virtual ~Semaphore();
  37:src/../h/syscall_cpp.h **** 
  38:src/../h/syscall_cpp.h ****     int wait();
  39:src/../h/syscall_cpp.h ****     int signal();
  40:src/../h/syscall_cpp.h **** 
  41:src/../h/syscall_cpp.h **** private:
  42:src/../h/syscall_cpp.h ****     sem_t myHandle;
  43:src/../h/syscall_cpp.h **** };
  44:src/../h/syscall_cpp.h **** 
  45:src/../h/syscall_cpp.h **** class PeriodicThread : public Thread {
  46:src/../h/syscall_cpp.h **** protected:
  47:src/../h/syscall_cpp.h ****     PeriodicThread(time_t period);
  48:src/../h/syscall_cpp.h ****     virtual void periodicActivation() {}
  38              		.loc 1 48 18 is_stmt 1
  39              		.cfi_startproc
  40              	.LVL1:
  41 0000 130101FF 		addi	sp,sp,-16
  42              		.cfi_def_cfa_offset 16
  43 0004 23348100 		sd	s0,8(sp)
  44              		.cfi_offset 8, -8
  45 0008 13040101 		addi	s0,sp,16
  46              		.cfi_def_cfa 8, 0
  47              		.loc 1 48 40 is_stmt 0
  48 000c 03348100 		ld	s0,8(sp)
  49              		.cfi_restore 8
  50              		.cfi_def_cfa 2, 16
  51 0010 13010101 		addi	sp,sp,16
  52              		.cfi_def_cfa_offset 0
  53 0014 67800000 		jr	ra
  54              		.cfi_endproc
  55              	.LFE1:
  57              		.text
  58              		.align	2
  59              		.globl	_ZN6ThreadD2Ev
  61              	_ZN6ThreadD2Ev:
  62              	.LFB15:
  63              		.file 2 "src/syscall_cpp.cpp"
   1:src/syscall_cpp.cpp **** //
   2:src/syscall_cpp.cpp **** // Created by os on 5/20/22.
   3:src/syscall_cpp.cpp **** //
   4:src/syscall_cpp.cpp **** #include "../h/syscall_cpp.h"
   5:src/syscall_cpp.cpp **** #include "../h/syscall_c.h"
   6:src/syscall_cpp.cpp **** 
   7:src/syscall_cpp.cpp **** struct periodList {
   8:src/syscall_cpp.cpp ****     PeriodicThread* owner;
GAS LISTING /tmp/cchJ3sio.s 			page 3


   9:src/syscall_cpp.cpp ****     time_t period;
  10:src/syscall_cpp.cpp ****     periodList* next;
  11:src/syscall_cpp.cpp ****     periodList(PeriodicThread* owner, time_t period) : owner(owner), period(period), next(nullptr) 
  12:src/syscall_cpp.cpp **** 
  13:src/syscall_cpp.cpp ****     static periodList* head;
  14:src/syscall_cpp.cpp ****     static void add(PeriodicThread* owner, time_t period) {
  15:src/syscall_cpp.cpp ****         periodList* node = new periodList(owner, period);
  16:src/syscall_cpp.cpp ****         node->next = head; head = node;
  17:src/syscall_cpp.cpp ****     }
  18:src/syscall_cpp.cpp ****     static time_t findPeriod(PeriodicThread* owner) {
  19:src/syscall_cpp.cpp ****         periodList* cur = head;
  20:src/syscall_cpp.cpp ****         while (cur) {
  21:src/syscall_cpp.cpp ****             if (cur->owner == owner) return cur->period;
  22:src/syscall_cpp.cpp ****             cur = cur->next;
  23:src/syscall_cpp.cpp ****         }
  24:src/syscall_cpp.cpp ****         return 0;
  25:src/syscall_cpp.cpp ****     }
  26:src/syscall_cpp.cpp **** };
  27:src/syscall_cpp.cpp **** periodList* periodList::head = nullptr;
  28:src/syscall_cpp.cpp **** 
  29:src/syscall_cpp.cpp **** void* operator new(size_t size) {
  30:src/syscall_cpp.cpp ****     return mem_alloc(size);
  31:src/syscall_cpp.cpp **** }
  32:src/syscall_cpp.cpp **** void operator delete(void* ptr) {
  33:src/syscall_cpp.cpp ****     mem_free(ptr);
  34:src/syscall_cpp.cpp **** }
  35:src/syscall_cpp.cpp **** void* operator new[](size_t size) {
  36:src/syscall_cpp.cpp ****     return mem_alloc(size);
  37:src/syscall_cpp.cpp **** }
  38:src/syscall_cpp.cpp **** void operator delete[](void* adr) {
  39:src/syscall_cpp.cpp ****     mem_free(adr);
  40:src/syscall_cpp.cpp **** }
  41:src/syscall_cpp.cpp **** 
  42:src/syscall_cpp.cpp **** 
  43:src/syscall_cpp.cpp **** Thread::Thread(void (*body)(void*), void*arg) {
  44:src/syscall_cpp.cpp ****     thread_create(&myHandle, body, arg, DEFAULT_STACK_SIZE, NORM_PRIORITY, 0);
  45:src/syscall_cpp.cpp **** }
  46:src/syscall_cpp.cpp **** Thread::~Thread() {}
  64              		.loc 2 46 1 is_stmt 1
  65              		.cfi_startproc
  66              	.LVL2:
  67 0000 130101FF 		addi	sp,sp,-16
  68              		.cfi_def_cfa_offset 16
  69 0004 23348100 		sd	s0,8(sp)
  70              		.cfi_offset 8, -8
  71 0008 13040101 		addi	s0,sp,16
  72              		.cfi_def_cfa 8, 0
  73              		.loc 2 46 20 is_stmt 0
  74 000c 03348100 		ld	s0,8(sp)
  75              		.cfi_restore 8
  76              		.cfi_def_cfa 2, 16
  77 0010 13010101 		addi	sp,sp,16
  78              		.cfi_def_cfa_offset 0
  79 0014 67800000 		jr	ra
  80              		.cfi_endproc
  81              	.LFE15:
  83              		.globl	_ZN6ThreadD1Ev
GAS LISTING /tmp/cchJ3sio.s 			page 4


  84              		.set	_ZN6ThreadD1Ev,_ZN6ThreadD2Ev
  85              		.align	2
  86              		.globl	_ZN6Thread7wrapperEPv
  88              	_ZN6Thread7wrapperEPv:
  89              	.LFB24:
  47:src/syscall_cpp.cpp **** int Thread::start() {
  48:src/syscall_cpp.cpp ****     if (myHandle == 0) return -1;
  49:src/syscall_cpp.cpp ****     return thread_start(myHandle);
  50:src/syscall_cpp.cpp **** }
  51:src/syscall_cpp.cpp **** void Thread::dispatch() {
  52:src/syscall_cpp.cpp ****     thread_dispatch();
  53:src/syscall_cpp.cpp **** }
  54:src/syscall_cpp.cpp **** int Thread::sleep(time_t time) {
  55:src/syscall_cpp.cpp ****     return time_sleep(time);
  56:src/syscall_cpp.cpp **** }
  57:src/syscall_cpp.cpp **** Thread::Thread() {
  58:src/syscall_cpp.cpp ****     thread_create(&myHandle, &wrapper, (void*)this, DEFAULT_STACK_SIZE, NORM_PRIORITY, 0);
  59:src/syscall_cpp.cpp **** }
  60:src/syscall_cpp.cpp **** void Thread::wrapper(void* obj) {
  90              		.loc 2 60 33 is_stmt 1
  91              		.cfi_startproc
  92              	.LVL3:
  93 0018 130101FF 		addi	sp,sp,-16
  94              		.cfi_def_cfa_offset 16
  95 001c 23341100 		sd	ra,8(sp)
  96 0020 23308100 		sd	s0,0(sp)
  97              		.cfi_offset 1, -8
  98              		.cfi_offset 8, -16
  99 0024 13040101 		addi	s0,sp,16
 100              		.cfi_def_cfa 8, 0
  61:src/syscall_cpp.cpp ****     Thread* t = (Thread*)obj;
 101              		.loc 2 61 5
 102              	.LVL4:
  62:src/syscall_cpp.cpp ****     t->run();
 103              		.loc 2 62 5
 104              		.loc 2 62 12 is_stmt 0
 105 0028 83370500 		ld	a5,0(a0)
 106 002c 83B70701 		ld	a5,16(a5)
 107              		.loc 2 62 11
 108 0030 E7800700 		jalr	a5
 109              	.LVL5:
  63:src/syscall_cpp.cpp **** }
 110              		.loc 2 63 1
 111 0034 83308100 		ld	ra,8(sp)
 112              		.cfi_restore 1
 113 0038 03340100 		ld	s0,0(sp)
 114              		.cfi_restore 8
 115              		.cfi_def_cfa 2, 16
 116 003c 13010101 		addi	sp,sp,16
 117              		.cfi_def_cfa_offset 0
 118 0040 67800000 		jr	ra
 119              		.cfi_endproc
 120              	.LFE24:
 122              		.section	.text._ZN14PeriodicThreadD2Ev,"axG",@progbits,_ZN14PeriodicThreadD5Ev,comdat
 123              		.align	2
 124              		.weak	_ZN14PeriodicThreadD2Ev
 126              	_ZN14PeriodicThreadD2Ev:
GAS LISTING /tmp/cchJ3sio.s 			page 5


 127              	.LFB41:
  45:src/../h/syscall_cpp.h **** protected:
 128              		.loc 1 45 7 is_stmt 1
 129              		.cfi_startproc
 130              	.LVL6:
 131 0000 130101FF 		addi	sp,sp,-16
 132              		.cfi_def_cfa_offset 16
 133 0004 23348100 		sd	s0,8(sp)
 134              		.cfi_offset 8, -8
 135 0008 13040101 		addi	s0,sp,16
 136              		.cfi_def_cfa 8, 0
 137              	.LBB16:
  45:src/../h/syscall_cpp.h **** protected:
 138              		.loc 1 45 7 is_stmt 0
 139 000c 97070000 		lla	a5,_ZTV14PeriodicThread+16
 139      93870700 
 140 0014 2330F500 		sd	a5,0(a0)
 141              	.LBE16:
 142 0018 03348100 		ld	s0,8(sp)
 143              		.cfi_restore 8
 144              		.cfi_def_cfa 2, 16
 145 001c 13010101 		addi	sp,sp,16
 146              		.cfi_def_cfa_offset 0
 147 0020 67800000 		jr	ra
 148              		.cfi_endproc
 149              	.LFE41:
 151              		.weak	_ZN14PeriodicThreadD1Ev
 152              		.set	_ZN14PeriodicThreadD1Ev,_ZN14PeriodicThreadD2Ev
 153              		.text
 154              		.align	2
 155              		.globl	_ZN14PeriodicThread3runEv
 157              	_ZN14PeriodicThread3runEv:
 158              	.LFB37:
  64:src/syscall_cpp.cpp **** 
  65:src/syscall_cpp.cpp **** Semaphore::Semaphore(unsigned init) {
  66:src/syscall_cpp.cpp ****     int res = sem_open(&myHandle, init);
  67:src/syscall_cpp.cpp ****     if (res < 0) {
  68:src/syscall_cpp.cpp ****         myHandle = nullptr;
  69:src/syscall_cpp.cpp ****     }
  70:src/syscall_cpp.cpp **** }
  71:src/syscall_cpp.cpp **** Semaphore::~Semaphore() {
  72:src/syscall_cpp.cpp ****     if (myHandle) sem_close(myHandle);
  73:src/syscall_cpp.cpp **** }
  74:src/syscall_cpp.cpp **** int Semaphore::wait() {
  75:src/syscall_cpp.cpp ****     if (!myHandle) return -4;
  76:src/syscall_cpp.cpp ****     return sem_wait(myHandle);
  77:src/syscall_cpp.cpp **** }
  78:src/syscall_cpp.cpp **** int Semaphore::signal() {
  79:src/syscall_cpp.cpp ****     if (!myHandle) return -4;
  80:src/syscall_cpp.cpp ****     return sem_signal(myHandle);
  81:src/syscall_cpp.cpp **** }
  82:src/syscall_cpp.cpp **** 
  83:src/syscall_cpp.cpp **** 
  84:src/syscall_cpp.cpp **** 
  85:src/syscall_cpp.cpp **** PeriodicThread::PeriodicThread(time_t period) {
  86:src/syscall_cpp.cpp ****     periodList::add(this, period);
  87:src/syscall_cpp.cpp ****     return;
GAS LISTING /tmp/cchJ3sio.s 			page 6


  88:src/syscall_cpp.cpp **** }
  89:src/syscall_cpp.cpp **** void PeriodicThread::run() {
 159              		.loc 2 89 28 is_stmt 1
 160              		.cfi_startproc
 161              	.LVL7:
 162 0044 130101FE 		addi	sp,sp,-32
 163              		.cfi_def_cfa_offset 32
 164 0048 233C1100 		sd	ra,24(sp)
 165 004c 23388100 		sd	s0,16(sp)
 166 0050 23349100 		sd	s1,8(sp)
 167              		.cfi_offset 1, -8
 168              		.cfi_offset 8, -16
 169              		.cfi_offset 9, -24
 170 0054 13040102 		addi	s0,sp,32
 171              		.cfi_def_cfa 8, 0
 172 0058 93040500 		mv	s1,a0
 173 005c 6F008001 		j	.L15
 174              	.LVL8:
 175              	.L18:
 176              	.LBB17:
 177              	.LBB18:
  21:src/syscall_cpp.cpp ****             cur = cur->next;
 178              		.loc 2 21 38
  21:src/syscall_cpp.cpp ****             cur = cur->next;
 179              		.loc 2 21 50 is_stmt 0
 180 0060 03B58700 		ld	a0,8(a5)
 181 0064 6F008000 		j	.L12
 182              	.L16:
  24:src/syscall_cpp.cpp ****     }
 183              		.loc 2 24 16
 184 0068 13050000 		li	a0,0
 185              	.L12:
 186              	.LVL9:
 187              	.LBE18:
 188              	.LBE17:
  90:src/syscall_cpp.cpp ****     while(1) {
  91:src/syscall_cpp.cpp ****         periodicActivation();
  92:src/syscall_cpp.cpp ****         time_sleep(periodList::findPeriod(this));
 189              		.loc 2 92 19
 190 006c 97000000 		call	_Z10time_sleepm@plt
 190      E7800000 
 191              	.LVL10:
  90:src/syscall_cpp.cpp ****     while(1) {
 192              		.loc 2 90 5 is_stmt 1
 193              	.L15:
  90:src/syscall_cpp.cpp ****     while(1) {
 194              		.loc 2 90 5 discriminator 1
  91:src/syscall_cpp.cpp ****         time_sleep(periodList::findPeriod(this));
 195              		.loc 2 91 9 discriminator 1
  91:src/syscall_cpp.cpp ****         time_sleep(periodList::findPeriod(this));
 196              		.loc 2 91 28 is_stmt 0 discriminator 1
 197 0074 83B70400 		ld	a5,0(s1)
 198 0078 83B78701 		ld	a5,24(a5)
  91:src/syscall_cpp.cpp ****         time_sleep(periodList::findPeriod(this));
 199              		.loc 2 91 27 discriminator 1
 200 007c 13850400 		mv	a0,s1
 201 0080 E7800700 		jalr	a5
GAS LISTING /tmp/cchJ3sio.s 			page 7


 202              	.LVL11:
 203              		.loc 2 92 9 is_stmt 1 discriminator 1
 204              	.LBB20:
 205              	.LBB19:
  19:src/syscall_cpp.cpp ****         while (cur) {
 206              		.loc 2 19 9 discriminator 1
  19:src/syscall_cpp.cpp ****         while (cur) {
 207              		.loc 2 19 21 is_stmt 0 discriminator 1
 208 0084 97070000 		ld	a5,.LANCHOR0
 208      83B70700 
 209              	.LVL12:
 210              	.L14:
  20:src/syscall_cpp.cpp ****             if (cur->owner == owner) return cur->period;
 211              		.loc 2 20 9 is_stmt 1
  20:src/syscall_cpp.cpp ****             if (cur->owner == owner) return cur->period;
 212              		.loc 2 20 16
 213 008c E38E07FC 		beqz	a5,.L16
  21:src/syscall_cpp.cpp ****             cur = cur->next;
 214              		.loc 2 21 13
  21:src/syscall_cpp.cpp ****             cur = cur->next;
 215              		.loc 2 21 22 is_stmt 0
 216 0090 03B70700 		ld	a4,0(a5)
  21:src/syscall_cpp.cpp ****             cur = cur->next;
 217              		.loc 2 21 13
 218 0094 E386E4FC 		beq	s1,a4,.L18
  22:src/syscall_cpp.cpp ****         }
 219              		.loc 2 22 13 is_stmt 1
  22:src/syscall_cpp.cpp ****         }
 220              		.loc 2 22 17 is_stmt 0
 221 0098 83B70701 		ld	a5,16(a5)
 222              	.LVL13:
  20:src/syscall_cpp.cpp ****             if (cur->owner == owner) return cur->period;
 223              		.loc 2 20 9
 224 009c 6FF01FFF 		j	.L14
 225              	.LBE19:
 226              	.LBE20:
 227              		.cfi_endproc
 228              	.LFE37:
 230              		.align	2
 231              		.globl	_ZN9SemaphoreD2Ev
 233              	_ZN9SemaphoreD2Ev:
 234              	.LFB29:
  71:src/syscall_cpp.cpp ****     if (myHandle) sem_close(myHandle);
 235              		.loc 2 71 1 is_stmt 1
 236              		.cfi_startproc
 237              		.cfi_personality 0x9b,DW.ref.__gxx_personality_v0
 238              		.cfi_lsda 0x1b,.LLSDA29
 239              	.LVL14:
 240              	.LBB21:
  71:src/syscall_cpp.cpp ****     if (myHandle) sem_close(myHandle);
 241              		.loc 2 71 23 is_stmt 0
 242 00a0 97070000 		lla	a5,_ZTV9Semaphore+16
 242      93870700 
 243 00a8 2330F500 		sd	a5,0(a0)
  72:src/syscall_cpp.cpp **** }
 244              		.loc 2 72 5 is_stmt 1
  72:src/syscall_cpp.cpp **** }
GAS LISTING /tmp/cchJ3sio.s 			page 8


 245              		.loc 2 72 9 is_stmt 0
 246 00ac 03358500 		ld	a0,8(a0)
 247              	.LVL15:
  72:src/syscall_cpp.cpp **** }
 248              		.loc 2 72 5
 249 00b0 63060502 		beqz	a0,.L22
 250              	.LBE21:
  71:src/syscall_cpp.cpp ****     if (myHandle) sem_close(myHandle);
 251              		.loc 2 71 1 discriminator 1
 252 00b4 130101FF 		addi	sp,sp,-16
 253              		.cfi_def_cfa_offset 16
 254 00b8 23341100 		sd	ra,8(sp)
 255 00bc 23308100 		sd	s0,0(sp)
 256              		.cfi_offset 1, -8
 257              		.cfi_offset 8, -16
 258 00c0 13040101 		addi	s0,sp,16
 259              		.cfi_def_cfa 8, 0
 260              	.LBB22:
  72:src/syscall_cpp.cpp **** }
 261              		.loc 2 72 19 is_stmt 1 discriminator 1
  72:src/syscall_cpp.cpp **** }
 262              		.loc 2 72 28 is_stmt 0 discriminator 1
 263 00c4 97000000 		call	_Z9sem_closeP4_Sem@plt
 263      E7800000 
 264              	.LVL16:
 265              	.LBE22:
  73:src/syscall_cpp.cpp **** int Semaphore::wait() {
 266              		.loc 2 73 1 discriminator 1
 267 00cc 83308100 		ld	ra,8(sp)
 268              		.cfi_restore 1
 269 00d0 03340100 		ld	s0,0(sp)
 270              		.cfi_restore 8
 271              		.cfi_def_cfa 2, 16
 272 00d4 13010101 		addi	sp,sp,16
 273              		.cfi_def_cfa_offset 0
 274 00d8 67800000 		jr	ra
 275              	.L22:
 276 00dc 67800000 		ret
 277              		.cfi_endproc
 278              	.LFE29:
 279              		.globl	__gxx_personality_v0
 280              		.section	.gcc_except_table,"a",@progbits
 281              	.LLSDA29:
 282 0000 FF       		.byte	0xff
 283 0001 FF       		.byte	0xff
 284 0002 03       		.byte	0x3
 285 0003 00       		.byte	0
 286              		.text
 288              		.globl	_ZN9SemaphoreD1Ev
 289              		.set	_ZN9SemaphoreD1Ev,_ZN9SemaphoreD2Ev
 290              		.align	2
 291              		.globl	_Znwm
 293              	_Znwm:
 294              	.LFB7:
  29:src/syscall_cpp.cpp ****     return mem_alloc(size);
 295              		.loc 2 29 33 is_stmt 1
 296              		.cfi_startproc
GAS LISTING /tmp/cchJ3sio.s 			page 9


 297              	.LVL17:
 298 00e0 130101FF 		addi	sp,sp,-16
 299              		.cfi_def_cfa_offset 16
 300 00e4 23341100 		sd	ra,8(sp)
 301 00e8 23308100 		sd	s0,0(sp)
 302              		.cfi_offset 1, -8
 303              		.cfi_offset 8, -16
 304 00ec 13040101 		addi	s0,sp,16
 305              		.cfi_def_cfa 8, 0
  30:src/syscall_cpp.cpp **** }
 306              		.loc 2 30 5
  30:src/syscall_cpp.cpp **** }
 307              		.loc 2 30 21 is_stmt 0
 308 00f0 97000000 		call	_Z9mem_allocm@plt
 308      E7800000 
 309              	.LVL18:
  31:src/syscall_cpp.cpp **** void operator delete(void* ptr) {
 310              		.loc 2 31 1
 311 00f8 83308100 		ld	ra,8(sp)
 312              		.cfi_restore 1
 313 00fc 03340100 		ld	s0,0(sp)
 314              		.cfi_restore 8
 315              		.cfi_def_cfa 2, 16
 316 0100 13010101 		addi	sp,sp,16
 317              		.cfi_def_cfa_offset 0
 318 0104 67800000 		jr	ra
 319              		.cfi_endproc
 320              	.LFE7:
 322              		.align	2
 323              		.globl	_ZdlPv
 325              	_ZdlPv:
 326              	.LFB8:
  32:src/syscall_cpp.cpp ****     mem_free(ptr);
 327              		.loc 2 32 33 is_stmt 1
 328              		.cfi_startproc
 329              	.LVL19:
 330 0108 130101FF 		addi	sp,sp,-16
 331              		.cfi_def_cfa_offset 16
 332 010c 23341100 		sd	ra,8(sp)
 333 0110 23308100 		sd	s0,0(sp)
 334              		.cfi_offset 1, -8
 335              		.cfi_offset 8, -16
 336 0114 13040101 		addi	s0,sp,16
 337              		.cfi_def_cfa 8, 0
  33:src/syscall_cpp.cpp **** }
 338              		.loc 2 33 5
  33:src/syscall_cpp.cpp **** }
 339              		.loc 2 33 13 is_stmt 0
 340 0118 97000000 		call	_Z8mem_freePv@plt
 340      E7800000 
 341              	.LVL20:
  34:src/syscall_cpp.cpp **** void* operator new[](size_t size) {
 342              		.loc 2 34 1
 343 0120 83308100 		ld	ra,8(sp)
 344              		.cfi_restore 1
 345 0124 03340100 		ld	s0,0(sp)
 346              		.cfi_restore 8
GAS LISTING /tmp/cchJ3sio.s 			page 10


 347              		.cfi_def_cfa 2, 16
 348 0128 13010101 		addi	sp,sp,16
 349              		.cfi_def_cfa_offset 0
 350 012c 67800000 		jr	ra
 351              		.cfi_endproc
 352              	.LFE8:
 354              		.align	2
 355              		.globl	_ZN6ThreadD0Ev
 357              	_ZN6ThreadD0Ev:
 358              	.LFB17:
  46:src/syscall_cpp.cpp **** int Thread::start() {
 359              		.loc 2 46 1 is_stmt 1
 360              		.cfi_startproc
 361              	.LVL21:
 362 0130 130101FF 		addi	sp,sp,-16
 363              		.cfi_def_cfa_offset 16
 364 0134 23341100 		sd	ra,8(sp)
 365 0138 23308100 		sd	s0,0(sp)
 366              		.cfi_offset 1, -8
 367              		.cfi_offset 8, -16
 368 013c 13040101 		addi	s0,sp,16
 369              		.cfi_def_cfa 8, 0
  46:src/syscall_cpp.cpp **** int Thread::start() {
 370              		.loc 2 46 20 is_stmt 0
 371 0140 97000000 		call	_ZdlPv
 371      E7800000 
 372              	.LVL22:
 373 0148 83308100 		ld	ra,8(sp)
 374              		.cfi_restore 1
 375 014c 03340100 		ld	s0,0(sp)
 376              		.cfi_restore 8
 377              		.cfi_def_cfa 2, 16
 378 0150 13010101 		addi	sp,sp,16
 379              		.cfi_def_cfa_offset 0
 380 0154 67800000 		jr	ra
 381              		.cfi_endproc
 382              	.LFE17:
 384              		.align	2
 385              		.globl	_ZN9SemaphoreD0Ev
 387              	_ZN9SemaphoreD0Ev:
 388              	.LFB31:
  71:src/syscall_cpp.cpp ****     if (myHandle) sem_close(myHandle);
 389              		.loc 2 71 1 is_stmt 1
 390              		.cfi_startproc
 391              	.LVL23:
 392 0158 130101FE 		addi	sp,sp,-32
 393              		.cfi_def_cfa_offset 32
 394 015c 233C1100 		sd	ra,24(sp)
 395 0160 23388100 		sd	s0,16(sp)
 396 0164 23349100 		sd	s1,8(sp)
 397              		.cfi_offset 1, -8
 398              		.cfi_offset 8, -16
 399              		.cfi_offset 9, -24
 400 0168 13040102 		addi	s0,sp,32
 401              		.cfi_def_cfa 8, 0
 402 016c 93040500 		mv	s1,a0
  73:src/syscall_cpp.cpp **** int Semaphore::wait() {
GAS LISTING /tmp/cchJ3sio.s 			page 11


 403              		.loc 2 73 1 is_stmt 0
 404 0170 97000000 		call	_ZN9SemaphoreD1Ev
 404      E7800000 
 405              	.LVL24:
 406 0178 13850400 		mv	a0,s1
 407 017c 97000000 		call	_ZdlPv
 407      E7800000 
 408              	.LVL25:
 409 0184 83308101 		ld	ra,24(sp)
 410              		.cfi_restore 1
 411 0188 03340101 		ld	s0,16(sp)
 412              		.cfi_restore 8
 413              		.cfi_def_cfa 2, 32
 414 018c 83348100 		ld	s1,8(sp)
 415              		.cfi_restore 9
 416              	.LVL26:
 417 0190 13010102 		addi	sp,sp,32
 418              		.cfi_def_cfa_offset 0
 419 0194 67800000 		jr	ra
 420              		.cfi_endproc
 421              	.LFE31:
 423              		.section	.text._ZN14PeriodicThreadD0Ev,"axG",@progbits,_ZN14PeriodicThreadD5Ev,comdat
 424              		.align	2
 425              		.weak	_ZN14PeriodicThreadD0Ev
 427              	_ZN14PeriodicThreadD0Ev:
 428              	.LFB43:
  45:src/../h/syscall_cpp.h **** protected:
 429              		.loc 1 45 7 is_stmt 1
 430              		.cfi_startproc
 431              	.LVL27:
 432 0000 130101FF 		addi	sp,sp,-16
 433              		.cfi_def_cfa_offset 16
 434 0004 23341100 		sd	ra,8(sp)
 435 0008 23308100 		sd	s0,0(sp)
 436              		.cfi_offset 1, -8
 437              		.cfi_offset 8, -16
 438 000c 13040101 		addi	s0,sp,16
 439              		.cfi_def_cfa 8, 0
 440              	.LVL28:
 441              	.LBB23:
 442              	.LBB24:
  45:src/../h/syscall_cpp.h **** protected:
 443              		.loc 1 45 7 is_stmt 0
 444 0010 97070000 		lla	a5,_ZTV14PeriodicThread+16
 444      93870700 
 445 0018 2330F500 		sd	a5,0(a0)
 446              	.LVL29:
 447              	.LBE24:
 448              	.LBE23:
 449 001c 97000000 		call	_ZdlPv
 449      E7800000 
 450              	.LVL30:
 451 0024 83308100 		ld	ra,8(sp)
 452              		.cfi_restore 1
 453 0028 03340100 		ld	s0,0(sp)
 454              		.cfi_restore 8
 455              		.cfi_def_cfa 2, 16
GAS LISTING /tmp/cchJ3sio.s 			page 12


 456 002c 13010101 		addi	sp,sp,16
 457              		.cfi_def_cfa_offset 0
 458 0030 67800000 		jr	ra
 459              		.cfi_endproc
 460              	.LFE43:
 462              		.text
 463              		.align	2
 464              		.globl	_Znam
 466              	_Znam:
 467              	.LFB9:
  35:src/syscall_cpp.cpp ****     return mem_alloc(size);
 468              		.loc 2 35 35 is_stmt 1
 469              		.cfi_startproc
 470              	.LVL31:
 471 0198 130101FF 		addi	sp,sp,-16
 472              		.cfi_def_cfa_offset 16
 473 019c 23341100 		sd	ra,8(sp)
 474 01a0 23308100 		sd	s0,0(sp)
 475              		.cfi_offset 1, -8
 476              		.cfi_offset 8, -16
 477 01a4 13040101 		addi	s0,sp,16
 478              		.cfi_def_cfa 8, 0
  36:src/syscall_cpp.cpp **** }
 479              		.loc 2 36 5
  36:src/syscall_cpp.cpp **** }
 480              		.loc 2 36 21 is_stmt 0
 481 01a8 97000000 		call	_Z9mem_allocm@plt
 481      E7800000 
 482              	.LVL32:
  37:src/syscall_cpp.cpp **** void operator delete[](void* adr) {
 483              		.loc 2 37 1
 484 01b0 83308100 		ld	ra,8(sp)
 485              		.cfi_restore 1
 486 01b4 03340100 		ld	s0,0(sp)
 487              		.cfi_restore 8
 488              		.cfi_def_cfa 2, 16
 489 01b8 13010101 		addi	sp,sp,16
 490              		.cfi_def_cfa_offset 0
 491 01bc 67800000 		jr	ra
 492              		.cfi_endproc
 493              	.LFE9:
 495              		.align	2
 496              		.globl	_ZdaPv
 498              	_ZdaPv:
 499              	.LFB10:
  38:src/syscall_cpp.cpp ****     mem_free(adr);
 500              		.loc 2 38 35 is_stmt 1
 501              		.cfi_startproc
 502              	.LVL33:
 503 01c0 130101FF 		addi	sp,sp,-16
 504              		.cfi_def_cfa_offset 16
 505 01c4 23341100 		sd	ra,8(sp)
 506 01c8 23308100 		sd	s0,0(sp)
 507              		.cfi_offset 1, -8
 508              		.cfi_offset 8, -16
 509 01cc 13040101 		addi	s0,sp,16
 510              		.cfi_def_cfa 8, 0
GAS LISTING /tmp/cchJ3sio.s 			page 13


  39:src/syscall_cpp.cpp **** }
 511              		.loc 2 39 5
  39:src/syscall_cpp.cpp **** }
 512              		.loc 2 39 13 is_stmt 0
 513 01d0 97000000 		call	_Z8mem_freePv@plt
 513      E7800000 
 514              	.LVL34:
  40:src/syscall_cpp.cpp **** 
 515              		.loc 2 40 1
 516 01d8 83308100 		ld	ra,8(sp)
 517              		.cfi_restore 1
 518 01dc 03340100 		ld	s0,0(sp)
 519              		.cfi_restore 8
 520              		.cfi_def_cfa 2, 16
 521 01e0 13010101 		addi	sp,sp,16
 522              		.cfi_def_cfa_offset 0
 523 01e4 67800000 		jr	ra
 524              		.cfi_endproc
 525              	.LFE10:
 527              		.align	2
 528              		.globl	_ZN6ThreadC2EPFvPvES0_
 530              	_ZN6ThreadC2EPFvPvES0_:
 531              	.LFB12:
  43:src/syscall_cpp.cpp ****     thread_create(&myHandle, body, arg, DEFAULT_STACK_SIZE, NORM_PRIORITY, 0);
 532              		.loc 2 43 1 is_stmt 1
 533              		.cfi_startproc
 534              	.LVL35:
 535 01e8 130101FF 		addi	sp,sp,-16
 536              		.cfi_def_cfa_offset 16
 537 01ec 23341100 		sd	ra,8(sp)
 538 01f0 23308100 		sd	s0,0(sp)
 539              		.cfi_offset 1, -8
 540              		.cfi_offset 8, -16
 541 01f4 13040101 		addi	s0,sp,16
 542              		.cfi_def_cfa 8, 0
 543              	.LBB25:
  43:src/syscall_cpp.cpp ****     thread_create(&myHandle, body, arg, DEFAULT_STACK_SIZE, NORM_PRIORITY, 0);
 544              		.loc 2 43 45 is_stmt 0
 545 01f8 97070000 		lla	a5,_ZTV6Thread+16
 545      93870700 
 546 0200 2330F500 		sd	a5,0(a0)
 547 0204 23340500 		sd	zero,8(a0)
  44:src/syscall_cpp.cpp **** }
 548              		.loc 2 44 5 is_stmt 1
  44:src/syscall_cpp.cpp **** }
 549              		.loc 2 44 18 is_stmt 0
 550 0208 93070000 		li	a5,0
 551 020c 17070000 		la	a4,NORM_PRIORITY
 551      03370700 
 552 0214 03270700 		lw	a4,0(a4)
 553 0218 B7160000 		li	a3,4096
 554 021c 13058500 		addi	a0,a0,8
 555              	.LVL36:
 556 0220 97000000 		call	_Z13thread_createPP7_ThreadPFvPvES2_mii@plt
 556      E7800000 
 557              	.LVL37:
 558              	.LBE25:
GAS LISTING /tmp/cchJ3sio.s 			page 14


  45:src/syscall_cpp.cpp **** Thread::~Thread() {}
 559              		.loc 2 45 1
 560 0228 83308100 		ld	ra,8(sp)
 561              		.cfi_restore 1
 562 022c 03340100 		ld	s0,0(sp)
 563              		.cfi_restore 8
 564              		.cfi_def_cfa 2, 16
 565 0230 13010101 		addi	sp,sp,16
 566              		.cfi_def_cfa_offset 0
 567 0234 67800000 		jr	ra
 568              		.cfi_endproc
 569              	.LFE12:
 571              		.globl	_ZN6ThreadC1EPFvPvES0_
 572              		.set	_ZN6ThreadC1EPFvPvES0_,_ZN6ThreadC2EPFvPvES0_
 573              		.align	2
 574              		.globl	_ZN6Thread5startEv
 576              	_ZN6Thread5startEv:
 577              	.LFB18:
  47:src/syscall_cpp.cpp ****     if (myHandle == 0) return -1;
 578              		.loc 2 47 21 is_stmt 1
 579              		.cfi_startproc
 580              	.LVL38:
  48:src/syscall_cpp.cpp ****     return thread_start(myHandle);
 581              		.loc 2 48 5
  48:src/syscall_cpp.cpp ****     return thread_start(myHandle);
 582              		.loc 2 48 9 is_stmt 0
 583 0238 03358500 		ld	a0,8(a0)
 584              	.LVL39:
  48:src/syscall_cpp.cpp ****     return thread_start(myHandle);
 585              		.loc 2 48 5
 586 023c 63060502 		beqz	a0,.L43
  47:src/syscall_cpp.cpp ****     if (myHandle == 0) return -1;
 587              		.loc 2 47 21
 588 0240 130101FF 		addi	sp,sp,-16
 589              		.cfi_def_cfa_offset 16
 590 0244 23341100 		sd	ra,8(sp)
 591 0248 23308100 		sd	s0,0(sp)
 592              		.cfi_offset 1, -8
 593              		.cfi_offset 8, -16
 594 024c 13040101 		addi	s0,sp,16
 595              		.cfi_def_cfa 8, 0
  49:src/syscall_cpp.cpp **** }
 596              		.loc 2 49 5 is_stmt 1
  49:src/syscall_cpp.cpp **** }
 597              		.loc 2 49 24 is_stmt 0
 598 0250 97000000 		call	_Z12thread_startP7_Thread@plt
 598      E7800000 
 599              	.LVL40:
  50:src/syscall_cpp.cpp **** void Thread::dispatch() {
 600              		.loc 2 50 1
 601 0258 83308100 		ld	ra,8(sp)
 602              		.cfi_restore 1
 603 025c 03340100 		ld	s0,0(sp)
 604              		.cfi_restore 8
 605              		.cfi_def_cfa 2, 16
 606 0260 13010101 		addi	sp,sp,16
 607              		.cfi_def_cfa_offset 0
GAS LISTING /tmp/cchJ3sio.s 			page 15


 608 0264 67800000 		jr	ra
 609              	.L43:
  48:src/syscall_cpp.cpp ****     return thread_start(myHandle);
 610              		.loc 2 48 32
 611 0268 1305F0FF 		li	a0,-1
  50:src/syscall_cpp.cpp **** void Thread::dispatch() {
 612              		.loc 2 50 1
 613 026c 67800000 		ret
 614              		.cfi_endproc
 615              	.LFE18:
 617              		.align	2
 618              		.globl	_ZN6Thread8dispatchEv
 620              	_ZN6Thread8dispatchEv:
 621              	.LFB19:
  51:src/syscall_cpp.cpp ****     thread_dispatch();
 622              		.loc 2 51 25 is_stmt 1
 623              		.cfi_startproc
 624 0270 130101FF 		addi	sp,sp,-16
 625              		.cfi_def_cfa_offset 16
 626 0274 23341100 		sd	ra,8(sp)
 627 0278 23308100 		sd	s0,0(sp)
 628              		.cfi_offset 1, -8
 629              		.cfi_offset 8, -16
 630 027c 13040101 		addi	s0,sp,16
 631              		.cfi_def_cfa 8, 0
  52:src/syscall_cpp.cpp **** }
 632              		.loc 2 52 5
  52:src/syscall_cpp.cpp **** }
 633              		.loc 2 52 20 is_stmt 0
 634 0280 97000000 		call	_Z15thread_dispatchv@plt
 634      E7800000 
 635              	.LVL41:
  53:src/syscall_cpp.cpp **** int Thread::sleep(time_t time) {
 636              		.loc 2 53 1
 637 0288 83308100 		ld	ra,8(sp)
 638              		.cfi_restore 1
 639 028c 03340100 		ld	s0,0(sp)
 640              		.cfi_restore 8
 641              		.cfi_def_cfa 2, 16
 642 0290 13010101 		addi	sp,sp,16
 643              		.cfi_def_cfa_offset 0
 644 0294 67800000 		jr	ra
 645              		.cfi_endproc
 646              	.LFE19:
 648              		.align	2
 649              		.globl	_ZN6Thread5sleepEm
 651              	_ZN6Thread5sleepEm:
 652              	.LFB20:
  54:src/syscall_cpp.cpp ****     return time_sleep(time);
 653              		.loc 2 54 32 is_stmt 1
 654              		.cfi_startproc
 655              	.LVL42:
 656 0298 130101FF 		addi	sp,sp,-16
 657              		.cfi_def_cfa_offset 16
 658 029c 23341100 		sd	ra,8(sp)
 659 02a0 23308100 		sd	s0,0(sp)
 660              		.cfi_offset 1, -8
GAS LISTING /tmp/cchJ3sio.s 			page 16


 661              		.cfi_offset 8, -16
 662 02a4 13040101 		addi	s0,sp,16
 663              		.cfi_def_cfa 8, 0
  55:src/syscall_cpp.cpp **** }
 664              		.loc 2 55 5
  55:src/syscall_cpp.cpp **** }
 665              		.loc 2 55 22 is_stmt 0
 666 02a8 97000000 		call	_Z10time_sleepm@plt
 666      E7800000 
 667              	.LVL43:
  56:src/syscall_cpp.cpp **** Thread::Thread() {
 668              		.loc 2 56 1
 669 02b0 83308100 		ld	ra,8(sp)
 670              		.cfi_restore 1
 671 02b4 03340100 		ld	s0,0(sp)
 672              		.cfi_restore 8
 673              		.cfi_def_cfa 2, 16
 674 02b8 13010101 		addi	sp,sp,16
 675              		.cfi_def_cfa_offset 0
 676 02bc 67800000 		jr	ra
 677              		.cfi_endproc
 678              	.LFE20:
 680              		.align	2
 681              		.globl	_ZN6ThreadC2Ev
 683              	_ZN6ThreadC2Ev:
 684              	.LFB22:
  57:src/syscall_cpp.cpp ****     thread_create(&myHandle, &wrapper, (void*)this, DEFAULT_STACK_SIZE, NORM_PRIORITY, 0);
 685              		.loc 2 57 1 is_stmt 1
 686              		.cfi_startproc
 687              	.LVL44:
 688 02c0 130101FF 		addi	sp,sp,-16
 689              		.cfi_def_cfa_offset 16
 690 02c4 23341100 		sd	ra,8(sp)
 691 02c8 23308100 		sd	s0,0(sp)
 692              		.cfi_offset 1, -8
 693              		.cfi_offset 8, -16
 694 02cc 13040101 		addi	s0,sp,16
 695              		.cfi_def_cfa 8, 0
 696              	.LBB26:
  57:src/syscall_cpp.cpp ****     thread_create(&myHandle, &wrapper, (void*)this, DEFAULT_STACK_SIZE, NORM_PRIORITY, 0);
 697              		.loc 2 57 16 is_stmt 0
 698 02d0 97070000 		lla	a5,_ZTV6Thread+16
 698      93870700 
 699 02d8 2330F500 		sd	a5,0(a0)
 700 02dc 23340500 		sd	zero,8(a0)
  58:src/syscall_cpp.cpp **** }
 701              		.loc 2 58 5 is_stmt 1
  58:src/syscall_cpp.cpp **** }
 702              		.loc 2 58 18 is_stmt 0
 703 02e0 93070000 		li	a5,0
 704 02e4 17070000 		la	a4,NORM_PRIORITY
 704      03370700 
 705 02ec 03270700 		lw	a4,0(a4)
 706 02f0 B7160000 		li	a3,4096
 707 02f4 13060500 		mv	a2,a0
 708 02f8 97050000 		lla	a1,_ZN6Thread7wrapperEPv
 708      93850500 
GAS LISTING /tmp/cchJ3sio.s 			page 17


 709 0300 13058500 		addi	a0,a0,8
 710              	.LVL45:
 711 0304 97000000 		call	_Z13thread_createPP7_ThreadPFvPvES2_mii@plt
 711      E7800000 
 712              	.LVL46:
 713              	.LBE26:
  59:src/syscall_cpp.cpp **** void Thread::wrapper(void* obj) {
 714              		.loc 2 59 1
 715 030c 83308100 		ld	ra,8(sp)
 716              		.cfi_restore 1
 717 0310 03340100 		ld	s0,0(sp)
 718              		.cfi_restore 8
 719              		.cfi_def_cfa 2, 16
 720 0314 13010101 		addi	sp,sp,16
 721              		.cfi_def_cfa_offset 0
 722 0318 67800000 		jr	ra
 723              		.cfi_endproc
 724              	.LFE22:
 726              		.globl	_ZN6ThreadC1Ev
 727              		.set	_ZN6ThreadC1Ev,_ZN6ThreadC2Ev
 728              		.align	2
 729              		.globl	_ZN9SemaphoreC2Ej
 731              	_ZN9SemaphoreC2Ej:
 732              	.LFB26:
  65:src/syscall_cpp.cpp ****     int res = sem_open(&myHandle, init);
 733              		.loc 2 65 1 is_stmt 1
 734              		.cfi_startproc
 735              	.LVL47:
 736 031c 130101FE 		addi	sp,sp,-32
 737              		.cfi_def_cfa_offset 32
 738 0320 233C1100 		sd	ra,24(sp)
 739 0324 23388100 		sd	s0,16(sp)
 740 0328 23349100 		sd	s1,8(sp)
 741              		.cfi_offset 1, -8
 742              		.cfi_offset 8, -16
 743              		.cfi_offset 9, -24
 744 032c 13040102 		addi	s0,sp,32
 745              		.cfi_def_cfa 8, 0
 746 0330 93040500 		mv	s1,a0
 747              	.LBB27:
  65:src/syscall_cpp.cpp ****     int res = sem_open(&myHandle, init);
 748              		.loc 2 65 35 is_stmt 0
 749 0334 97070000 		lla	a5,_ZTV9Semaphore+16
 749      93870700 
 750 033c 2330F500 		sd	a5,0(a0)
 751              	.LBB28:
  66:src/syscall_cpp.cpp ****     if (res < 0) {
 752              		.loc 2 66 5 is_stmt 1
  66:src/syscall_cpp.cpp ****     if (res < 0) {
 753              		.loc 2 66 23 is_stmt 0
 754 0340 13058500 		addi	a0,a0,8
 755              	.LVL48:
 756 0344 97000000 		call	_Z8sem_openPP4_Semj@plt
 756      E7800000 
 757              	.LVL49:
  67:src/syscall_cpp.cpp ****         myHandle = nullptr;
 758              		.loc 2 67 5 is_stmt 1
GAS LISTING /tmp/cchJ3sio.s 			page 18


 759 034c 634C0500 		bltz	a0,.L57
 760              	.L54:
 761              	.LBE28:
 762              	.LBE27:
  70:src/syscall_cpp.cpp **** Semaphore::~Semaphore() {
 763              		.loc 2 70 1 is_stmt 0
 764 0350 83308101 		ld	ra,24(sp)
 765              		.cfi_remember_state
 766              		.cfi_restore 1
 767 0354 03340101 		ld	s0,16(sp)
 768              		.cfi_restore 8
 769              		.cfi_def_cfa 2, 32
 770 0358 83348100 		ld	s1,8(sp)
 771              		.cfi_restore 9
 772              	.LVL50:
 773 035c 13010102 		addi	sp,sp,32
 774              		.cfi_def_cfa_offset 0
 775 0360 67800000 		jr	ra
 776              	.LVL51:
 777              	.L57:
 778              		.cfi_restore_state
 779              	.LBB30:
 780              	.LBB29:
  68:src/syscall_cpp.cpp ****     }
 781              		.loc 2 68 9 is_stmt 1
  68:src/syscall_cpp.cpp ****     }
 782              		.loc 2 68 18 is_stmt 0
 783 0364 23B40400 		sd	zero,8(s1)
 784              	.LBE29:
 785              	.LBE30:
  70:src/syscall_cpp.cpp **** Semaphore::~Semaphore() {
 786              		.loc 2 70 1
 787 0368 6FF09FFE 		j	.L54
 788              		.cfi_endproc
 789              	.LFE26:
 791              		.globl	_ZN9SemaphoreC1Ej
 792              		.set	_ZN9SemaphoreC1Ej,_ZN9SemaphoreC2Ej
 793              		.align	2
 794              		.globl	_ZN9Semaphore4waitEv
 796              	_ZN9Semaphore4waitEv:
 797              	.LFB32:
  74:src/syscall_cpp.cpp ****     if (!myHandle) return -4;
 798              		.loc 2 74 23 is_stmt 1
 799              		.cfi_startproc
 800              	.LVL52:
  75:src/syscall_cpp.cpp ****     return sem_wait(myHandle);
 801              		.loc 2 75 5
  75:src/syscall_cpp.cpp ****     return sem_wait(myHandle);
 802              		.loc 2 75 10 is_stmt 0
 803 036c 03358500 		ld	a0,8(a0)
 804              	.LVL53:
  75:src/syscall_cpp.cpp ****     return sem_wait(myHandle);
 805              		.loc 2 75 5
 806 0370 63060502 		beqz	a0,.L60
  74:src/syscall_cpp.cpp ****     if (!myHandle) return -4;
 807              		.loc 2 74 23
 808 0374 130101FF 		addi	sp,sp,-16
GAS LISTING /tmp/cchJ3sio.s 			page 19


 809              		.cfi_def_cfa_offset 16
 810 0378 23341100 		sd	ra,8(sp)
 811 037c 23308100 		sd	s0,0(sp)
 812              		.cfi_offset 1, -8
 813              		.cfi_offset 8, -16
 814 0380 13040101 		addi	s0,sp,16
 815              		.cfi_def_cfa 8, 0
  76:src/syscall_cpp.cpp **** }
 816              		.loc 2 76 5 is_stmt 1
  76:src/syscall_cpp.cpp **** }
 817              		.loc 2 76 20 is_stmt 0
 818 0384 97000000 		call	_Z8sem_waitP4_Sem@plt
 818      E7800000 
 819              	.LVL54:
  77:src/syscall_cpp.cpp **** int Semaphore::signal() {
 820              		.loc 2 77 1
 821 038c 83308100 		ld	ra,8(sp)
 822              		.cfi_restore 1
 823 0390 03340100 		ld	s0,0(sp)
 824              		.cfi_restore 8
 825              		.cfi_def_cfa 2, 16
 826 0394 13010101 		addi	sp,sp,16
 827              		.cfi_def_cfa_offset 0
 828 0398 67800000 		jr	ra
 829              	.L60:
  75:src/syscall_cpp.cpp ****     return sem_wait(myHandle);
 830              		.loc 2 75 28
 831 039c 1305C0FF 		li	a0,-4
  77:src/syscall_cpp.cpp **** int Semaphore::signal() {
 832              		.loc 2 77 1
 833 03a0 67800000 		ret
 834              		.cfi_endproc
 835              	.LFE32:
 837              		.align	2
 838              		.globl	_ZN9Semaphore6signalEv
 840              	_ZN9Semaphore6signalEv:
 841              	.LFB33:
  78:src/syscall_cpp.cpp ****     if (!myHandle) return -4;
 842              		.loc 2 78 25 is_stmt 1
 843              		.cfi_startproc
 844              	.LVL55:
  79:src/syscall_cpp.cpp ****     return sem_signal(myHandle);
 845              		.loc 2 79 5
  79:src/syscall_cpp.cpp ****     return sem_signal(myHandle);
 846              		.loc 2 79 10 is_stmt 0
 847 03a4 03358500 		ld	a0,8(a0)
 848              	.LVL56:
  79:src/syscall_cpp.cpp ****     return sem_signal(myHandle);
 849              		.loc 2 79 5
 850 03a8 63060502 		beqz	a0,.L67
  78:src/syscall_cpp.cpp ****     if (!myHandle) return -4;
 851              		.loc 2 78 25
 852 03ac 130101FF 		addi	sp,sp,-16
 853              		.cfi_def_cfa_offset 16
 854 03b0 23341100 		sd	ra,8(sp)
 855 03b4 23308100 		sd	s0,0(sp)
 856              		.cfi_offset 1, -8
GAS LISTING /tmp/cchJ3sio.s 			page 20


 857              		.cfi_offset 8, -16
 858 03b8 13040101 		addi	s0,sp,16
 859              		.cfi_def_cfa 8, 0
  80:src/syscall_cpp.cpp **** }
 860              		.loc 2 80 5 is_stmt 1
  80:src/syscall_cpp.cpp **** }
 861              		.loc 2 80 22 is_stmt 0
 862 03bc 97000000 		call	_Z10sem_signalP4_Sem@plt
 862      E7800000 
 863              	.LVL57:
  81:src/syscall_cpp.cpp **** 
 864              		.loc 2 81 1
 865 03c4 83308100 		ld	ra,8(sp)
 866              		.cfi_restore 1
 867 03c8 03340100 		ld	s0,0(sp)
 868              		.cfi_restore 8
 869              		.cfi_def_cfa 2, 16
 870 03cc 13010101 		addi	sp,sp,16
 871              		.cfi_def_cfa_offset 0
 872 03d0 67800000 		jr	ra
 873              	.L67:
  79:src/syscall_cpp.cpp ****     return sem_signal(myHandle);
 874              		.loc 2 79 28
 875 03d4 1305C0FF 		li	a0,-4
  81:src/syscall_cpp.cpp **** 
 876              		.loc 2 81 1
 877 03d8 67800000 		ret
 878              		.cfi_endproc
 879              	.LFE33:
 881              		.align	2
 882              		.globl	_ZN14PeriodicThreadC2Em
 884              	_ZN14PeriodicThreadC2Em:
 885              	.LFB35:
  85:src/syscall_cpp.cpp ****     periodList::add(this, period);
 886              		.loc 2 85 1 is_stmt 1
 887              		.cfi_startproc
 888              	.LVL58:
 889 03dc 130101FE 		addi	sp,sp,-32
 890              		.cfi_def_cfa_offset 32
 891 03e0 233C1100 		sd	ra,24(sp)
 892 03e4 23388100 		sd	s0,16(sp)
 893 03e8 23349100 		sd	s1,8(sp)
 894 03ec 23302101 		sd	s2,0(sp)
 895              		.cfi_offset 1, -8
 896              		.cfi_offset 8, -16
 897              		.cfi_offset 9, -24
 898              		.cfi_offset 18, -32
 899 03f0 13040102 		addi	s0,sp,32
 900              		.cfi_def_cfa 8, 0
 901 03f4 93040500 		mv	s1,a0
 902 03f8 13890500 		mv	s2,a1
 903              	.LBB31:
  85:src/syscall_cpp.cpp ****     periodList::add(this, period);
 904              		.loc 2 85 45 is_stmt 0
 905 03fc 97000000 		call	_ZN6ThreadC2Ev
 905      E7800000 
 906              	.LVL59:
GAS LISTING /tmp/cchJ3sio.s 			page 21


 907 0404 97070000 		lla	a5,_ZTV14PeriodicThread+16
 907      93870700 
 908 040c 23B0F400 		sd	a5,0(s1)
  86:src/syscall_cpp.cpp ****     return;
 909              		.loc 2 86 5 is_stmt 1
 910              	.LVL60:
 911              	.LBB32:
 912              	.LBB33:
  15:src/syscall_cpp.cpp ****         node->next = head; head = node;
 913              		.loc 2 15 9
  15:src/syscall_cpp.cpp ****         node->next = head; head = node;
 914              		.loc 2 15 56 is_stmt 0
 915 0410 13058001 		li	a0,24
 916 0414 97000000 		call	_Znwm
 916      E7800000 
 917              	.LVL61:
 918 041c 63060500 		beqz	a0,.L73
 919              	.LVL62:
 920              	.LBB34:
 921              	.LBB35:
  11:src/syscall_cpp.cpp **** 
 922              		.loc 2 11 98
 923 0420 23309500 		sd	s1,0(a0)
 924 0424 23342501 		sd	s2,8(a0)
 925              	.LVL63:
 926              	.L73:
 927              	.LBE35:
 928              	.LBE34:
  16:src/syscall_cpp.cpp ****     }
 929              		.loc 2 16 9 is_stmt 1
  16:src/syscall_cpp.cpp ****     }
 930              		.loc 2 16 20 is_stmt 0
 931 0428 97070000 		lla	a5,.LANCHOR0
 931      93870700 
 932 0430 03B70700 		ld	a4,0(a5)
 933 0434 2338E500 		sd	a4,16(a0)
  16:src/syscall_cpp.cpp ****     }
 934              		.loc 2 16 28 is_stmt 1
  16:src/syscall_cpp.cpp ****     }
 935              		.loc 2 16 33 is_stmt 0
 936 0438 23B0A700 		sd	a0,0(a5)
 937              	.LVL64:
 938              	.LBE33:
 939              	.LBE32:
  87:src/syscall_cpp.cpp **** }
 940              		.loc 2 87 5 is_stmt 1
 941              	.LBE31:
  88:src/syscall_cpp.cpp **** void PeriodicThread::run() {
 942              		.loc 2 88 1 is_stmt 0
 943 043c 83308101 		ld	ra,24(sp)
 944              		.cfi_restore 1
 945 0440 03340101 		ld	s0,16(sp)
 946              		.cfi_restore 8
 947              		.cfi_def_cfa 2, 32
 948 0444 83348100 		ld	s1,8(sp)
 949              		.cfi_restore 9
 950              	.LVL65:
GAS LISTING /tmp/cchJ3sio.s 			page 22


 951 0448 03390100 		ld	s2,0(sp)
 952              		.cfi_restore 18
 953              	.LVL66:
 954 044c 13010102 		addi	sp,sp,32
 955              		.cfi_def_cfa_offset 0
 956 0450 67800000 		jr	ra
 957              		.cfi_endproc
 958              	.LFE35:
 960              		.globl	_ZN14PeriodicThreadC1Em
 961              		.set	_ZN14PeriodicThreadC1Em,_ZN14PeriodicThreadC2Em
 962              		.align	2
 963              		.globl	_ZN7Console4getcEv
 965              	_ZN7Console4getcEv:
 966              	.LFB38:
  93:src/syscall_cpp.cpp ****     }
  94:src/syscall_cpp.cpp **** }
  95:src/syscall_cpp.cpp **** 
  96:src/syscall_cpp.cpp **** char Console::getc() {
 967              		.loc 2 96 22 is_stmt 1
 968              		.cfi_startproc
 969 0454 130101FF 		addi	sp,sp,-16
 970              		.cfi_def_cfa_offset 16
 971 0458 23341100 		sd	ra,8(sp)
 972 045c 23308100 		sd	s0,0(sp)
 973              		.cfi_offset 1, -8
 974              		.cfi_offset 8, -16
 975 0460 13040101 		addi	s0,sp,16
 976              		.cfi_def_cfa 8, 0
  97:src/syscall_cpp.cpp ****     return ::getc();
 977              		.loc 2 97 5
 978              		.loc 2 97 18 is_stmt 0
 979 0464 97000000 		call	_Z4getcv@plt
 979      E7800000 
 980              	.LVL67:
  98:src/syscall_cpp.cpp **** }
 981              		.loc 2 98 1
 982 046c 83308100 		ld	ra,8(sp)
 983              		.cfi_restore 1
 984 0470 03340100 		ld	s0,0(sp)
 985              		.cfi_restore 8
 986              		.cfi_def_cfa 2, 16
 987 0474 13010101 		addi	sp,sp,16
 988              		.cfi_def_cfa_offset 0
 989 0478 67800000 		jr	ra
 990              		.cfi_endproc
 991              	.LFE38:
 993              		.align	2
 994              		.globl	_ZN7Console4putcEc
 996              	_ZN7Console4putcEc:
 997              	.LFB39:
  99:src/syscall_cpp.cpp **** void Console::putc(char c) {
 998              		.loc 2 99 28 is_stmt 1
 999              		.cfi_startproc
 1000              	.LVL68:
 1001 047c 130101FF 		addi	sp,sp,-16
 1002              		.cfi_def_cfa_offset 16
 1003 0480 23341100 		sd	ra,8(sp)
GAS LISTING /tmp/cchJ3sio.s 			page 23


 1004 0484 23308100 		sd	s0,0(sp)
 1005              		.cfi_offset 1, -8
 1006              		.cfi_offset 8, -16
 1007 0488 13040101 		addi	s0,sp,16
 1008              		.cfi_def_cfa 8, 0
 100:src/syscall_cpp.cpp ****     ::putc(c);
 1009              		.loc 2 100 5
 1010              		.loc 2 100 11 is_stmt 0
 1011 048c 97000000 		call	_Z4putcc@plt
 1011      E7800000 
 1012              	.LVL69:
 101:src/syscall_cpp.cpp **** }...
 1013              		.loc 2 101 1
 1014 0494 83308100 		ld	ra,8(sp)
 1015              		.cfi_restore 1
 1016 0498 03340100 		ld	s0,0(sp)
 1017              		.cfi_restore 8
 1018              		.cfi_def_cfa 2, 16
 1019 049c 13010101 		addi	sp,sp,16
 1020              		.cfi_def_cfa_offset 0
 1021 04a0 67800000 		jr	ra
 1022              		.cfi_endproc
 1023              	.LFE39:
 1025              		.weak	_ZTV6Thread
 1026              		.section	.data.rel.ro.local._ZTV6Thread,"awG",@progbits,_ZTV6Thread,comdat
 1027              		.align	3
 1030              	_ZTV6Thread:
 1031 0000 00000000 		.dword	0
 1031      00000000 
 1032 0008 00000000 		.dword	0
 1032      00000000 
 1033 0010 00000000 		.dword	_ZN6ThreadD1Ev
 1033      00000000 
 1034 0018 00000000 		.dword	_ZN6ThreadD0Ev
 1034      00000000 
 1035 0020 00000000 		.dword	_ZN6Thread3runEv
 1035      00000000 
 1036              		.weak	_ZTV9Semaphore
 1037              		.section	.data.rel.ro.local._ZTV9Semaphore,"awG",@progbits,_ZTV9Semaphore,comdat
 1038              		.align	3
 1041              	_ZTV9Semaphore:
 1042 0000 00000000 		.dword	0
 1042      00000000 
 1043 0008 00000000 		.dword	0
 1043      00000000 
 1044 0010 00000000 		.dword	_ZN9SemaphoreD1Ev
 1044      00000000 
 1045 0018 00000000 		.dword	_ZN9SemaphoreD0Ev
 1045      00000000 
 1046              		.weak	_ZTV14PeriodicThread
 1047              		.section	.data.rel.ro.local._ZTV14PeriodicThread,"awG",@progbits,_ZTV14PeriodicThread,comdat
 1048              		.align	3
 1051              	_ZTV14PeriodicThread:
 1052 0000 00000000 		.dword	0
 1052      00000000 
 1053 0008 00000000 		.dword	0
 1053      00000000 
GAS LISTING /tmp/cchJ3sio.s 			page 24


 1054 0010 00000000 		.dword	_ZN14PeriodicThreadD1Ev
 1054      00000000 
 1055 0018 00000000 		.dword	_ZN14PeriodicThreadD0Ev
 1055      00000000 
 1056 0020 00000000 		.dword	_ZN14PeriodicThread3runEv
 1056      00000000 
 1057 0028 00000000 		.dword	_ZN14PeriodicThread18periodicActivationEv
 1057      00000000 
 1058              		.globl	_ZN10periodList4headE
 1059              		.bss
 1060              		.align	3
 1061              		.set	.LANCHOR0,. + 0
 1064              	_ZN10periodList4headE:
 1065 0000 00000000 		.zero	8
 1065      00000000 
 1066              		.text
 1067              	.Letext0:
 1068              		.file 3 "src/../h/../lib/hw.h"
 1069              		.file 4 "src/../h/types.h"
 1070              		.file 5 "src/../h/syscall_c.h"
 4667              		.align	3
 4670              	DW.ref.__gxx_personality_v0:
 4671 0000 00000000 		.dword	__gxx_personality_v0
 4671      00000000 
 4672              		.ident	"GCC: (Ubuntu 9.4.0-1ubuntu1~20.04) 9.4.0"
 4673              		.section	.note.GNU-stack,"",@progbits
GAS LISTING /tmp/cchJ3sio.s 			page 25


DEFINED SYMBOLS
                            *ABS*:0000000000000000 syscall_cpp.cpp
     /tmp/cchJ3sio.s:10     .text._ZN6Thread3runEv:0000000000000000 _ZN6Thread3runEv
     /tmp/cchJ3sio.s:14     .text._ZN6Thread3runEv:0000000000000000 .L0 
     /tmp/cchJ3sio.s:16     .text._ZN6Thread3runEv:0000000000000000 .L0 
     /tmp/cchJ3sio.s:17     .text._ZN6Thread3runEv:0000000000000004 .L0 
     /tmp/cchJ3sio.s:19     .text._ZN6Thread3runEv:0000000000000008 .L0 
     /tmp/cchJ3sio.s:21     .text._ZN6Thread3runEv:000000000000000c .L0 
     /tmp/cchJ3sio.s:23     .text._ZN6Thread3runEv:000000000000000c .L0 
     /tmp/cchJ3sio.s:24     .text._ZN6Thread3runEv:0000000000000010 .L0 
     /tmp/cchJ3sio.s:25     .text._ZN6Thread3runEv:0000000000000010 .L0 
     /tmp/cchJ3sio.s:27     .text._ZN6Thread3runEv:0000000000000014 .L0 
     /tmp/cchJ3sio.s:29     .text._ZN6Thread3runEv:0000000000000018 .L0 
     /tmp/cchJ3sio.s:36     .text._ZN14PeriodicThread18periodicActivationEv:0000000000000000 _ZN14PeriodicThread18periodicActivationEv
     /tmp/cchJ3sio.s:39     .text._ZN14PeriodicThread18periodicActivationEv:0000000000000000 .L0 
     /tmp/cchJ3sio.s:41     .text._ZN14PeriodicThread18periodicActivationEv:0000000000000000 .L0 
     /tmp/cchJ3sio.s:42     .text._ZN14PeriodicThread18periodicActivationEv:0000000000000004 .L0 
     /tmp/cchJ3sio.s:44     .text._ZN14PeriodicThread18periodicActivationEv:0000000000000008 .L0 
     /tmp/cchJ3sio.s:46     .text._ZN14PeriodicThread18periodicActivationEv:000000000000000c .L0 
     /tmp/cchJ3sio.s:48     .text._ZN14PeriodicThread18periodicActivationEv:000000000000000c .L0 
     /tmp/cchJ3sio.s:49     .text._ZN14PeriodicThread18periodicActivationEv:0000000000000010 .L0 
     /tmp/cchJ3sio.s:50     .text._ZN14PeriodicThread18periodicActivationEv:0000000000000010 .L0 
     /tmp/cchJ3sio.s:52     .text._ZN14PeriodicThread18periodicActivationEv:0000000000000014 .L0 
     /tmp/cchJ3sio.s:54     .text._ZN14PeriodicThread18periodicActivationEv:0000000000000018 .L0 
     /tmp/cchJ3sio.s:61     .text:0000000000000000 _ZN6ThreadD2Ev
     /tmp/cchJ3sio.s:65     .text:0000000000000000 .L0 
     /tmp/cchJ3sio.s:67     .text:0000000000000000 .L0 
     /tmp/cchJ3sio.s:68     .text:0000000000000004 .L0 
     /tmp/cchJ3sio.s:70     .text:0000000000000008 .L0 
     /tmp/cchJ3sio.s:72     .text:000000000000000c .L0 
     /tmp/cchJ3sio.s:74     .text:000000000000000c .L0 
     /tmp/cchJ3sio.s:75     .text:0000000000000010 .L0 
     /tmp/cchJ3sio.s:76     .text:0000000000000010 .L0 
     /tmp/cchJ3sio.s:78     .text:0000000000000014 .L0 
     /tmp/cchJ3sio.s:80     .text:0000000000000018 .L0 
     /tmp/cchJ3sio.s:61     .text:0000000000000000 _ZN6ThreadD1Ev
     /tmp/cchJ3sio.s:88     .text:0000000000000018 _ZN6Thread7wrapperEPv
     /tmp/cchJ3sio.s:91     .text:0000000000000018 .L0 
     /tmp/cchJ3sio.s:93     .text:0000000000000018 .L0 
     /tmp/cchJ3sio.s:94     .text:000000000000001c .L0 
     /tmp/cchJ3sio.s:97     .text:0000000000000024 .L0 
     /tmp/cchJ3sio.s:98     .text:0000000000000024 .L0 
     /tmp/cchJ3sio.s:100    .text:0000000000000028 .L0 
     /tmp/cchJ3sio.s:103    .text:0000000000000028 .L0 
     /tmp/cchJ3sio.s:104    .text:0000000000000028 .L0 
     /tmp/cchJ3sio.s:105    .text:0000000000000028 .L0 
     /tmp/cchJ3sio.s:108    .text:0000000000000030 .L0 
     /tmp/cchJ3sio.s:111    .text:0000000000000034 .L0 
     /tmp/cchJ3sio.s:112    .text:0000000000000038 .L0 
     /tmp/cchJ3sio.s:114    .text:000000000000003c .L0 
     /tmp/cchJ3sio.s:115    .text:000000000000003c .L0 
     /tmp/cchJ3sio.s:117    .text:0000000000000040 .L0 
     /tmp/cchJ3sio.s:119    .text:0000000000000044 .L0 
     /tmp/cchJ3sio.s:126    .text._ZN14PeriodicThreadD2Ev:0000000000000000 _ZN14PeriodicThreadD2Ev
     /tmp/cchJ3sio.s:129    .text._ZN14PeriodicThreadD2Ev:0000000000000000 .L0 
     /tmp/cchJ3sio.s:131    .text._ZN14PeriodicThreadD2Ev:0000000000000000 .L0 
     /tmp/cchJ3sio.s:132    .text._ZN14PeriodicThreadD2Ev:0000000000000004 .L0 
GAS LISTING /tmp/cchJ3sio.s 			page 26


     /tmp/cchJ3sio.s:134    .text._ZN14PeriodicThreadD2Ev:0000000000000008 .L0 
     /tmp/cchJ3sio.s:136    .text._ZN14PeriodicThreadD2Ev:000000000000000c .L0 
     /tmp/cchJ3sio.s:1051   .data.rel.ro.local._ZTV14PeriodicThread:0000000000000000 _ZTV14PeriodicThread
     /tmp/cchJ3sio.s:139    .text._ZN14PeriodicThreadD2Ev:000000000000000c .L0 
     /tmp/cchJ3sio.s:143    .text._ZN14PeriodicThreadD2Ev:000000000000001c .L0 
     /tmp/cchJ3sio.s:144    .text._ZN14PeriodicThreadD2Ev:000000000000001c .L0 
     /tmp/cchJ3sio.s:146    .text._ZN14PeriodicThreadD2Ev:0000000000000020 .L0 
     /tmp/cchJ3sio.s:148    .text._ZN14PeriodicThreadD2Ev:0000000000000024 .L0 
     /tmp/cchJ3sio.s:126    .text._ZN14PeriodicThreadD2Ev:0000000000000000 _ZN14PeriodicThreadD1Ev
     /tmp/cchJ3sio.s:157    .text:0000000000000044 _ZN14PeriodicThread3runEv
     /tmp/cchJ3sio.s:160    .text:0000000000000044 .L0 
     /tmp/cchJ3sio.s:162    .text:0000000000000044 .L0 
     /tmp/cchJ3sio.s:163    .text:0000000000000048 .L0 
     /tmp/cchJ3sio.s:167    .text:0000000000000054 .L0 
     /tmp/cchJ3sio.s:168    .text:0000000000000054 .L0 
     /tmp/cchJ3sio.s:169    .text:0000000000000054 .L0 
     /tmp/cchJ3sio.s:171    .text:0000000000000058 .L0 
     /tmp/cchJ3sio.s:179    .text:0000000000000060 .L0 
     /tmp/cchJ3sio.s:180    .text:0000000000000060 .L0 
     /tmp/cchJ3sio.s:184    .text:0000000000000068 .L0 
     /tmp/cchJ3sio.s:190    .text:000000000000006c .L0 
     /tmp/cchJ3sio.s:194    .text:0000000000000074 .L0 
     /tmp/cchJ3sio.s:195    .text:0000000000000074 .L0 
     /tmp/cchJ3sio.s:196    .text:0000000000000074 .L0 
     /tmp/cchJ3sio.s:197    .text:0000000000000074 .L0 
     /tmp/cchJ3sio.s:200    .text:000000000000007c .L0 
     /tmp/cchJ3sio.s:206    .text:0000000000000084 .L0 
     /tmp/cchJ3sio.s:207    .text:0000000000000084 .L0 
     /tmp/cchJ3sio.s:208    .text:0000000000000084 .L0 
     /tmp/cchJ3sio.s:212    .text:000000000000008c .L0 
     /tmp/cchJ3sio.s:213    .text:000000000000008c .L0 
     /tmp/cchJ3sio.s:215    .text:0000000000000090 .L0 
     /tmp/cchJ3sio.s:216    .text:0000000000000090 .L0 
     /tmp/cchJ3sio.s:218    .text:0000000000000094 .L0 
     /tmp/cchJ3sio.s:220    .text:0000000000000098 .L0 
     /tmp/cchJ3sio.s:221    .text:0000000000000098 .L0 
     /tmp/cchJ3sio.s:224    .text:000000000000009c .L0 
     /tmp/cchJ3sio.s:227    .text:00000000000000a0 .L0 
     /tmp/cchJ3sio.s:233    .text:00000000000000a0 _ZN9SemaphoreD2Ev
     /tmp/cchJ3sio.s:236    .text:00000000000000a0 .L0 
     /tmp/cchJ3sio.s:4670   .data.rel.local.DW.ref.__gxx_personality_v0:0000000000000000 DW.ref.__gxx_personality_v0
     /tmp/cchJ3sio.s:241    .text:00000000000000a0 .L0 
     /tmp/cchJ3sio.s:1041   .data.rel.ro.local._ZTV9Semaphore:0000000000000000 _ZTV9Semaphore
     /tmp/cchJ3sio.s:242    .text:00000000000000a0 .L0 
     /tmp/cchJ3sio.s:245    .text:00000000000000ac .L0 
     /tmp/cchJ3sio.s:246    .text:00000000000000ac .L0 
     /tmp/cchJ3sio.s:249    .text:00000000000000b0 .L0 
     /tmp/cchJ3sio.s:252    .text:00000000000000b4 .L0 
     /tmp/cchJ3sio.s:253    .text:00000000000000b8 .L0 
     /tmp/cchJ3sio.s:256    .text:00000000000000c0 .L0 
     /tmp/cchJ3sio.s:257    .text:00000000000000c0 .L0 
     /tmp/cchJ3sio.s:259    .text:00000000000000c4 .L0 
     /tmp/cchJ3sio.s:262    .text:00000000000000c4 .L0 
     /tmp/cchJ3sio.s:263    .text:00000000000000c4 .L0 
     /tmp/cchJ3sio.s:267    .text:00000000000000cc .L0 
     /tmp/cchJ3sio.s:268    .text:00000000000000d0 .L0 
     /tmp/cchJ3sio.s:270    .text:00000000000000d4 .L0 
GAS LISTING /tmp/cchJ3sio.s 			page 27


     /tmp/cchJ3sio.s:271    .text:00000000000000d4 .L0 
     /tmp/cchJ3sio.s:273    .text:00000000000000d8 .L0 
     /tmp/cchJ3sio.s:277    .text:00000000000000e0 .L0 
     /tmp/cchJ3sio.s:233    .text:00000000000000a0 _ZN9SemaphoreD1Ev
     /tmp/cchJ3sio.s:293    .text:00000000000000e0 _Znwm
     /tmp/cchJ3sio.s:296    .text:00000000000000e0 .L0 
     /tmp/cchJ3sio.s:298    .text:00000000000000e0 .L0 
     /tmp/cchJ3sio.s:299    .text:00000000000000e4 .L0 
     /tmp/cchJ3sio.s:302    .text:00000000000000ec .L0 
     /tmp/cchJ3sio.s:303    .text:00000000000000ec .L0 
     /tmp/cchJ3sio.s:305    .text:00000000000000f0 .L0 
     /tmp/cchJ3sio.s:307    .text:00000000000000f0 .L0 
     /tmp/cchJ3sio.s:308    .text:00000000000000f0 .L0 
     /tmp/cchJ3sio.s:311    .text:00000000000000f8 .L0 
     /tmp/cchJ3sio.s:312    .text:00000000000000fc .L0 
     /tmp/cchJ3sio.s:314    .text:0000000000000100 .L0 
     /tmp/cchJ3sio.s:315    .text:0000000000000100 .L0 
     /tmp/cchJ3sio.s:317    .text:0000000000000104 .L0 
     /tmp/cchJ3sio.s:319    .text:0000000000000108 .L0 
     /tmp/cchJ3sio.s:325    .text:0000000000000108 _ZdlPv
     /tmp/cchJ3sio.s:328    .text:0000000000000108 .L0 
     /tmp/cchJ3sio.s:330    .text:0000000000000108 .L0 
     /tmp/cchJ3sio.s:331    .text:000000000000010c .L0 
     /tmp/cchJ3sio.s:334    .text:0000000000000114 .L0 
     /tmp/cchJ3sio.s:335    .text:0000000000000114 .L0 
     /tmp/cchJ3sio.s:337    .text:0000000000000118 .L0 
     /tmp/cchJ3sio.s:339    .text:0000000000000118 .L0 
     /tmp/cchJ3sio.s:340    .text:0000000000000118 .L0 
     /tmp/cchJ3sio.s:343    .text:0000000000000120 .L0 
     /tmp/cchJ3sio.s:344    .text:0000000000000124 .L0 
     /tmp/cchJ3sio.s:346    .text:0000000000000128 .L0 
     /tmp/cchJ3sio.s:347    .text:0000000000000128 .L0 
     /tmp/cchJ3sio.s:349    .text:000000000000012c .L0 
     /tmp/cchJ3sio.s:351    .text:0000000000000130 .L0 
     /tmp/cchJ3sio.s:357    .text:0000000000000130 _ZN6ThreadD0Ev
     /tmp/cchJ3sio.s:360    .text:0000000000000130 .L0 
     /tmp/cchJ3sio.s:362    .text:0000000000000130 .L0 
     /tmp/cchJ3sio.s:363    .text:0000000000000134 .L0 
     /tmp/cchJ3sio.s:366    .text:000000000000013c .L0 
     /tmp/cchJ3sio.s:367    .text:000000000000013c .L0 
     /tmp/cchJ3sio.s:369    .text:0000000000000140 .L0 
     /tmp/cchJ3sio.s:371    .text:0000000000000140 .L0 
     /tmp/cchJ3sio.s:374    .text:000000000000014c .L0 
     /tmp/cchJ3sio.s:376    .text:0000000000000150 .L0 
     /tmp/cchJ3sio.s:377    .text:0000000000000150 .L0 
     /tmp/cchJ3sio.s:379    .text:0000000000000154 .L0 
     /tmp/cchJ3sio.s:381    .text:0000000000000158 .L0 
     /tmp/cchJ3sio.s:387    .text:0000000000000158 _ZN9SemaphoreD0Ev
     /tmp/cchJ3sio.s:390    .text:0000000000000158 .L0 
     /tmp/cchJ3sio.s:392    .text:0000000000000158 .L0 
     /tmp/cchJ3sio.s:393    .text:000000000000015c .L0 
     /tmp/cchJ3sio.s:397    .text:0000000000000168 .L0 
     /tmp/cchJ3sio.s:398    .text:0000000000000168 .L0 
     /tmp/cchJ3sio.s:399    .text:0000000000000168 .L0 
     /tmp/cchJ3sio.s:401    .text:000000000000016c .L0 
     /tmp/cchJ3sio.s:404    .text:0000000000000170 .L0 
     /tmp/cchJ3sio.s:410    .text:0000000000000188 .L0 
GAS LISTING /tmp/cchJ3sio.s 			page 28


     /tmp/cchJ3sio.s:412    .text:000000000000018c .L0 
     /tmp/cchJ3sio.s:413    .text:000000000000018c .L0 
     /tmp/cchJ3sio.s:415    .text:0000000000000190 .L0 
     /tmp/cchJ3sio.s:418    .text:0000000000000194 .L0 
     /tmp/cchJ3sio.s:420    .text:0000000000000198 .L0 
     /tmp/cchJ3sio.s:427    .text._ZN14PeriodicThreadD0Ev:0000000000000000 _ZN14PeriodicThreadD0Ev
     /tmp/cchJ3sio.s:430    .text._ZN14PeriodicThreadD0Ev:0000000000000000 .L0 
     /tmp/cchJ3sio.s:432    .text._ZN14PeriodicThreadD0Ev:0000000000000000 .L0 
     /tmp/cchJ3sio.s:433    .text._ZN14PeriodicThreadD0Ev:0000000000000004 .L0 
     /tmp/cchJ3sio.s:436    .text._ZN14PeriodicThreadD0Ev:000000000000000c .L0 
     /tmp/cchJ3sio.s:437    .text._ZN14PeriodicThreadD0Ev:000000000000000c .L0 
     /tmp/cchJ3sio.s:439    .text._ZN14PeriodicThreadD0Ev:0000000000000010 .L0 
     /tmp/cchJ3sio.s:444    .text._ZN14PeriodicThreadD0Ev:0000000000000010 .L0 
     /tmp/cchJ3sio.s:452    .text._ZN14PeriodicThreadD0Ev:0000000000000028 .L0 
     /tmp/cchJ3sio.s:454    .text._ZN14PeriodicThreadD0Ev:000000000000002c .L0 
     /tmp/cchJ3sio.s:455    .text._ZN14PeriodicThreadD0Ev:000000000000002c .L0 
     /tmp/cchJ3sio.s:457    .text._ZN14PeriodicThreadD0Ev:0000000000000030 .L0 
     /tmp/cchJ3sio.s:459    .text._ZN14PeriodicThreadD0Ev:0000000000000034 .L0 
     /tmp/cchJ3sio.s:466    .text:0000000000000198 _Znam
     /tmp/cchJ3sio.s:469    .text:0000000000000198 .L0 
     /tmp/cchJ3sio.s:471    .text:0000000000000198 .L0 
     /tmp/cchJ3sio.s:472    .text:000000000000019c .L0 
     /tmp/cchJ3sio.s:475    .text:00000000000001a4 .L0 
     /tmp/cchJ3sio.s:476    .text:00000000000001a4 .L0 
     /tmp/cchJ3sio.s:478    .text:00000000000001a8 .L0 
     /tmp/cchJ3sio.s:480    .text:00000000000001a8 .L0 
     /tmp/cchJ3sio.s:481    .text:00000000000001a8 .L0 
     /tmp/cchJ3sio.s:484    .text:00000000000001b0 .L0 
     /tmp/cchJ3sio.s:485    .text:00000000000001b4 .L0 
     /tmp/cchJ3sio.s:487    .text:00000000000001b8 .L0 
     /tmp/cchJ3sio.s:488    .text:00000000000001b8 .L0 
     /tmp/cchJ3sio.s:490    .text:00000000000001bc .L0 
     /tmp/cchJ3sio.s:492    .text:00000000000001c0 .L0 
     /tmp/cchJ3sio.s:498    .text:00000000000001c0 _ZdaPv
     /tmp/cchJ3sio.s:501    .text:00000000000001c0 .L0 
     /tmp/cchJ3sio.s:503    .text:00000000000001c0 .L0 
     /tmp/cchJ3sio.s:504    .text:00000000000001c4 .L0 
     /tmp/cchJ3sio.s:507    .text:00000000000001cc .L0 
     /tmp/cchJ3sio.s:508    .text:00000000000001cc .L0 
     /tmp/cchJ3sio.s:510    .text:00000000000001d0 .L0 
     /tmp/cchJ3sio.s:512    .text:00000000000001d0 .L0 
     /tmp/cchJ3sio.s:513    .text:00000000000001d0 .L0 
     /tmp/cchJ3sio.s:516    .text:00000000000001d8 .L0 
     /tmp/cchJ3sio.s:517    .text:00000000000001dc .L0 
     /tmp/cchJ3sio.s:519    .text:00000000000001e0 .L0 
     /tmp/cchJ3sio.s:520    .text:00000000000001e0 .L0 
     /tmp/cchJ3sio.s:522    .text:00000000000001e4 .L0 
     /tmp/cchJ3sio.s:524    .text:00000000000001e8 .L0 
     /tmp/cchJ3sio.s:530    .text:00000000000001e8 _ZN6ThreadC2EPFvPvES0_
     /tmp/cchJ3sio.s:533    .text:00000000000001e8 .L0 
     /tmp/cchJ3sio.s:535    .text:00000000000001e8 .L0 
     /tmp/cchJ3sio.s:536    .text:00000000000001ec .L0 
     /tmp/cchJ3sio.s:539    .text:00000000000001f4 .L0 
     /tmp/cchJ3sio.s:540    .text:00000000000001f4 .L0 
     /tmp/cchJ3sio.s:542    .text:00000000000001f8 .L0 
     /tmp/cchJ3sio.s:1030   .data.rel.ro.local._ZTV6Thread:0000000000000000 _ZTV6Thread
     /tmp/cchJ3sio.s:545    .text:00000000000001f8 .L0 
GAS LISTING /tmp/cchJ3sio.s 			page 29


     /tmp/cchJ3sio.s:549    .text:0000000000000208 .L0 
     /tmp/cchJ3sio.s:550    .text:0000000000000208 .L0 
     /tmp/cchJ3sio.s:560    .text:0000000000000228 .L0 
     /tmp/cchJ3sio.s:561    .text:000000000000022c .L0 
     /tmp/cchJ3sio.s:563    .text:0000000000000230 .L0 
     /tmp/cchJ3sio.s:564    .text:0000000000000230 .L0 
     /tmp/cchJ3sio.s:566    .text:0000000000000234 .L0 
     /tmp/cchJ3sio.s:568    .text:0000000000000238 .L0 
     /tmp/cchJ3sio.s:530    .text:00000000000001e8 _ZN6ThreadC1EPFvPvES0_
     /tmp/cchJ3sio.s:576    .text:0000000000000238 _ZN6Thread5startEv
     /tmp/cchJ3sio.s:579    .text:0000000000000238 .L0 
     /tmp/cchJ3sio.s:581    .text:0000000000000238 .L0 
     /tmp/cchJ3sio.s:582    .text:0000000000000238 .L0 
     /tmp/cchJ3sio.s:583    .text:0000000000000238 .L0 
     /tmp/cchJ3sio.s:586    .text:000000000000023c .L0 
     /tmp/cchJ3sio.s:588    .text:0000000000000240 .L0 
     /tmp/cchJ3sio.s:589    .text:0000000000000244 .L0 
     /tmp/cchJ3sio.s:592    .text:000000000000024c .L0 
     /tmp/cchJ3sio.s:593    .text:000000000000024c .L0 
     /tmp/cchJ3sio.s:595    .text:0000000000000250 .L0 
     /tmp/cchJ3sio.s:597    .text:0000000000000250 .L0 
     /tmp/cchJ3sio.s:598    .text:0000000000000250 .L0 
     /tmp/cchJ3sio.s:601    .text:0000000000000258 .L0 
     /tmp/cchJ3sio.s:602    .text:000000000000025c .L0 
     /tmp/cchJ3sio.s:604    .text:0000000000000260 .L0 
     /tmp/cchJ3sio.s:605    .text:0000000000000260 .L0 
     /tmp/cchJ3sio.s:607    .text:0000000000000264 .L0 
     /tmp/cchJ3sio.s:611    .text:0000000000000268 .L0 
     /tmp/cchJ3sio.s:613    .text:000000000000026c .L0 
     /tmp/cchJ3sio.s:614    .text:0000000000000270 .L0 
     /tmp/cchJ3sio.s:620    .text:0000000000000270 _ZN6Thread8dispatchEv
     /tmp/cchJ3sio.s:623    .text:0000000000000270 .L0 
     /tmp/cchJ3sio.s:624    .text:0000000000000270 .L0 
     /tmp/cchJ3sio.s:625    .text:0000000000000274 .L0 
     /tmp/cchJ3sio.s:628    .text:000000000000027c .L0 
     /tmp/cchJ3sio.s:629    .text:000000000000027c .L0 
     /tmp/cchJ3sio.s:631    .text:0000000000000280 .L0 
     /tmp/cchJ3sio.s:633    .text:0000000000000280 .L0 
     /tmp/cchJ3sio.s:634    .text:0000000000000280 .L0 
     /tmp/cchJ3sio.s:637    .text:0000000000000288 .L0 
     /tmp/cchJ3sio.s:638    .text:000000000000028c .L0 
     /tmp/cchJ3sio.s:640    .text:0000000000000290 .L0 
     /tmp/cchJ3sio.s:641    .text:0000000000000290 .L0 
     /tmp/cchJ3sio.s:643    .text:0000000000000294 .L0 
     /tmp/cchJ3sio.s:645    .text:0000000000000298 .L0 
     /tmp/cchJ3sio.s:651    .text:0000000000000298 _ZN6Thread5sleepEm
     /tmp/cchJ3sio.s:654    .text:0000000000000298 .L0 
     /tmp/cchJ3sio.s:656    .text:0000000000000298 .L0 
     /tmp/cchJ3sio.s:657    .text:000000000000029c .L0 
     /tmp/cchJ3sio.s:660    .text:00000000000002a4 .L0 
     /tmp/cchJ3sio.s:661    .text:00000000000002a4 .L0 
     /tmp/cchJ3sio.s:663    .text:00000000000002a8 .L0 
     /tmp/cchJ3sio.s:665    .text:00000000000002a8 .L0 
     /tmp/cchJ3sio.s:666    .text:00000000000002a8 .L0 
     /tmp/cchJ3sio.s:669    .text:00000000000002b0 .L0 
     /tmp/cchJ3sio.s:670    .text:00000000000002b4 .L0 
     /tmp/cchJ3sio.s:672    .text:00000000000002b8 .L0 
GAS LISTING /tmp/cchJ3sio.s 			page 30


     /tmp/cchJ3sio.s:673    .text:00000000000002b8 .L0 
     /tmp/cchJ3sio.s:675    .text:00000000000002bc .L0 
     /tmp/cchJ3sio.s:677    .text:00000000000002c0 .L0 
     /tmp/cchJ3sio.s:683    .text:00000000000002c0 _ZN6ThreadC2Ev
     /tmp/cchJ3sio.s:686    .text:00000000000002c0 .L0 
     /tmp/cchJ3sio.s:688    .text:00000000000002c0 .L0 
     /tmp/cchJ3sio.s:689    .text:00000000000002c4 .L0 
     /tmp/cchJ3sio.s:692    .text:00000000000002cc .L0 
     /tmp/cchJ3sio.s:693    .text:00000000000002cc .L0 
     /tmp/cchJ3sio.s:695    .text:00000000000002d0 .L0 
     /tmp/cchJ3sio.s:698    .text:00000000000002d0 .L0 
     /tmp/cchJ3sio.s:702    .text:00000000000002e0 .L0 
     /tmp/cchJ3sio.s:703    .text:00000000000002e0 .L0 
     /tmp/cchJ3sio.s:715    .text:000000000000030c .L0 
     /tmp/cchJ3sio.s:716    .text:0000000000000310 .L0 
     /tmp/cchJ3sio.s:718    .text:0000000000000314 .L0 
     /tmp/cchJ3sio.s:719    .text:0000000000000314 .L0 
     /tmp/cchJ3sio.s:721    .text:0000000000000318 .L0 
     /tmp/cchJ3sio.s:723    .text:000000000000031c .L0 
     /tmp/cchJ3sio.s:683    .text:00000000000002c0 _ZN6ThreadC1Ev
     /tmp/cchJ3sio.s:731    .text:000000000000031c _ZN9SemaphoreC2Ej
     /tmp/cchJ3sio.s:734    .text:000000000000031c .L0 
     /tmp/cchJ3sio.s:736    .text:000000000000031c .L0 
     /tmp/cchJ3sio.s:737    .text:0000000000000320 .L0 
     /tmp/cchJ3sio.s:741    .text:000000000000032c .L0 
     /tmp/cchJ3sio.s:742    .text:000000000000032c .L0 
     /tmp/cchJ3sio.s:743    .text:000000000000032c .L0 
     /tmp/cchJ3sio.s:745    .text:0000000000000330 .L0 
     /tmp/cchJ3sio.s:749    .text:0000000000000334 .L0 
     /tmp/cchJ3sio.s:753    .text:0000000000000340 .L0 
     /tmp/cchJ3sio.s:754    .text:0000000000000340 .L0 
     /tmp/cchJ3sio.s:759    .text:000000000000034c .L0 
     /tmp/cchJ3sio.s:764    .text:0000000000000350 .L0 
     /tmp/cchJ3sio.s:765    .text:0000000000000354 .L0 
     /tmp/cchJ3sio.s:766    .text:0000000000000354 .L0 
     /tmp/cchJ3sio.s:768    .text:0000000000000358 .L0 
     /tmp/cchJ3sio.s:769    .text:0000000000000358 .L0 
     /tmp/cchJ3sio.s:771    .text:000000000000035c .L0 
     /tmp/cchJ3sio.s:774    .text:0000000000000360 .L0 
     /tmp/cchJ3sio.s:778    .text:0000000000000364 .L0 
     /tmp/cchJ3sio.s:782    .text:0000000000000364 .L0 
     /tmp/cchJ3sio.s:783    .text:0000000000000364 .L0 
     /tmp/cchJ3sio.s:787    .text:0000000000000368 .L0 
     /tmp/cchJ3sio.s:788    .text:000000000000036c .L0 
     /tmp/cchJ3sio.s:731    .text:000000000000031c _ZN9SemaphoreC1Ej
     /tmp/cchJ3sio.s:796    .text:000000000000036c _ZN9Semaphore4waitEv
     /tmp/cchJ3sio.s:799    .text:000000000000036c .L0 
     /tmp/cchJ3sio.s:801    .text:000000000000036c .L0 
     /tmp/cchJ3sio.s:802    .text:000000000000036c .L0 
     /tmp/cchJ3sio.s:803    .text:000000000000036c .L0 
     /tmp/cchJ3sio.s:806    .text:0000000000000370 .L0 
     /tmp/cchJ3sio.s:808    .text:0000000000000374 .L0 
     /tmp/cchJ3sio.s:809    .text:0000000000000378 .L0 
     /tmp/cchJ3sio.s:812    .text:0000000000000380 .L0 
     /tmp/cchJ3sio.s:813    .text:0000000000000380 .L0 
     /tmp/cchJ3sio.s:815    .text:0000000000000384 .L0 
     /tmp/cchJ3sio.s:817    .text:0000000000000384 .L0 
GAS LISTING /tmp/cchJ3sio.s 			page 31


     /tmp/cchJ3sio.s:818    .text:0000000000000384 .L0 
     /tmp/cchJ3sio.s:821    .text:000000000000038c .L0 
     /tmp/cchJ3sio.s:822    .text:0000000000000390 .L0 
     /tmp/cchJ3sio.s:824    .text:0000000000000394 .L0 
     /tmp/cchJ3sio.s:825    .text:0000000000000394 .L0 
     /tmp/cchJ3sio.s:827    .text:0000000000000398 .L0 
     /tmp/cchJ3sio.s:831    .text:000000000000039c .L0 
     /tmp/cchJ3sio.s:833    .text:00000000000003a0 .L0 
     /tmp/cchJ3sio.s:834    .text:00000000000003a4 .L0 
     /tmp/cchJ3sio.s:840    .text:00000000000003a4 _ZN9Semaphore6signalEv
     /tmp/cchJ3sio.s:843    .text:00000000000003a4 .L0 
     /tmp/cchJ3sio.s:845    .text:00000000000003a4 .L0 
     /tmp/cchJ3sio.s:846    .text:00000000000003a4 .L0 
     /tmp/cchJ3sio.s:847    .text:00000000000003a4 .L0 
     /tmp/cchJ3sio.s:850    .text:00000000000003a8 .L0 
     /tmp/cchJ3sio.s:852    .text:00000000000003ac .L0 
     /tmp/cchJ3sio.s:853    .text:00000000000003b0 .L0 
     /tmp/cchJ3sio.s:856    .text:00000000000003b8 .L0 
     /tmp/cchJ3sio.s:857    .text:00000000000003b8 .L0 
     /tmp/cchJ3sio.s:859    .text:00000000000003bc .L0 
     /tmp/cchJ3sio.s:861    .text:00000000000003bc .L0 
     /tmp/cchJ3sio.s:862    .text:00000000000003bc .L0 
     /tmp/cchJ3sio.s:865    .text:00000000000003c4 .L0 
     /tmp/cchJ3sio.s:866    .text:00000000000003c8 .L0 
     /tmp/cchJ3sio.s:868    .text:00000000000003cc .L0 
     /tmp/cchJ3sio.s:869    .text:00000000000003cc .L0 
     /tmp/cchJ3sio.s:871    .text:00000000000003d0 .L0 
     /tmp/cchJ3sio.s:875    .text:00000000000003d4 .L0 
     /tmp/cchJ3sio.s:877    .text:00000000000003d8 .L0 
     /tmp/cchJ3sio.s:878    .text:00000000000003dc .L0 
     /tmp/cchJ3sio.s:884    .text:00000000000003dc _ZN14PeriodicThreadC2Em
     /tmp/cchJ3sio.s:887    .text:00000000000003dc .L0 
     /tmp/cchJ3sio.s:889    .text:00000000000003dc .L0 
     /tmp/cchJ3sio.s:890    .text:00000000000003e0 .L0 
     /tmp/cchJ3sio.s:895    .text:00000000000003f0 .L0 
     /tmp/cchJ3sio.s:896    .text:00000000000003f0 .L0 
     /tmp/cchJ3sio.s:897    .text:00000000000003f0 .L0 
     /tmp/cchJ3sio.s:898    .text:00000000000003f0 .L0 
     /tmp/cchJ3sio.s:900    .text:00000000000003f4 .L0 
     /tmp/cchJ3sio.s:905    .text:00000000000003fc .L0 
     /tmp/cchJ3sio.s:913    .text:0000000000000410 .L0 
     /tmp/cchJ3sio.s:914    .text:0000000000000410 .L0 
     /tmp/cchJ3sio.s:915    .text:0000000000000410 .L0 
     /tmp/cchJ3sio.s:923    .text:0000000000000420 .L0 
     /tmp/cchJ3sio.s:930    .text:0000000000000428 .L0 
     /tmp/cchJ3sio.s:931    .text:0000000000000428 .L0 
     /tmp/cchJ3sio.s:935    .text:0000000000000438 .L0 
     /tmp/cchJ3sio.s:936    .text:0000000000000438 .L0 
     /tmp/cchJ3sio.s:942    .text:000000000000043c .L0 
     /tmp/cchJ3sio.s:943    .text:000000000000043c .L0 
     /tmp/cchJ3sio.s:944    .text:0000000000000440 .L0 
     /tmp/cchJ3sio.s:946    .text:0000000000000444 .L0 
     /tmp/cchJ3sio.s:947    .text:0000000000000444 .L0 
     /tmp/cchJ3sio.s:949    .text:0000000000000448 .L0 
     /tmp/cchJ3sio.s:952    .text:000000000000044c .L0 
     /tmp/cchJ3sio.s:955    .text:0000000000000450 .L0 
     /tmp/cchJ3sio.s:957    .text:0000000000000454 .L0 
GAS LISTING /tmp/cchJ3sio.s 			page 32


     /tmp/cchJ3sio.s:884    .text:00000000000003dc _ZN14PeriodicThreadC1Em
     /tmp/cchJ3sio.s:965    .text:0000000000000454 _ZN7Console4getcEv
     /tmp/cchJ3sio.s:968    .text:0000000000000454 .L0 
     /tmp/cchJ3sio.s:969    .text:0000000000000454 .L0 
     /tmp/cchJ3sio.s:970    .text:0000000000000458 .L0 
     /tmp/cchJ3sio.s:973    .text:0000000000000460 .L0 
     /tmp/cchJ3sio.s:974    .text:0000000000000460 .L0 
     /tmp/cchJ3sio.s:976    .text:0000000000000464 .L0 
     /tmp/cchJ3sio.s:978    .text:0000000000000464 .L0 
     /tmp/cchJ3sio.s:979    .text:0000000000000464 .L0 
     /tmp/cchJ3sio.s:982    .text:000000000000046c .L0 
     /tmp/cchJ3sio.s:983    .text:0000000000000470 .L0 
     /tmp/cchJ3sio.s:985    .text:0000000000000474 .L0 
     /tmp/cchJ3sio.s:986    .text:0000000000000474 .L0 
     /tmp/cchJ3sio.s:988    .text:0000000000000478 .L0 
     /tmp/cchJ3sio.s:990    .text:000000000000047c .L0 
     /tmp/cchJ3sio.s:996    .text:000000000000047c _ZN7Console4putcEc
     /tmp/cchJ3sio.s:999    .text:000000000000047c .L0 
     /tmp/cchJ3sio.s:1001   .text:000000000000047c .L0 
     /tmp/cchJ3sio.s:1002   .text:0000000000000480 .L0 
     /tmp/cchJ3sio.s:1005   .text:0000000000000488 .L0 
     /tmp/cchJ3sio.s:1006   .text:0000000000000488 .L0 
     /tmp/cchJ3sio.s:1008   .text:000000000000048c .L0 
     /tmp/cchJ3sio.s:1010   .text:000000000000048c .L0 
     /tmp/cchJ3sio.s:1011   .text:000000000000048c .L0 
     /tmp/cchJ3sio.s:1014   .text:0000000000000494 .L0 
     /tmp/cchJ3sio.s:1015   .text:0000000000000498 .L0 
     /tmp/cchJ3sio.s:1017   .text:000000000000049c .L0 
     /tmp/cchJ3sio.s:1018   .text:000000000000049c .L0 
     /tmp/cchJ3sio.s:1020   .text:00000000000004a0 .L0 
     /tmp/cchJ3sio.s:1022   .text:00000000000004a4 .L0 
     /tmp/cchJ3sio.s:1064   .bss:0000000000000000 _ZN10periodList4headE
     /tmp/cchJ3sio.s:1061   .bss:0000000000000000 .LANCHOR0
     /tmp/cchJ3sio.s:32     .text._ZN6Thread3runEv:0000000000000018 .L0 
     /tmp/cchJ3sio.s:57     .text._ZN14PeriodicThread18periodicActivationEv:0000000000000018 .L0 
     /tmp/cchJ3sio.s:1071   .text:00000000000004a4 .L0 
     /tmp/cchJ3sio.s:153    .text._ZN14PeriodicThreadD2Ev:0000000000000024 .L0 
     /tmp/cchJ3sio.s:462    .text._ZN14PeriodicThreadD0Ev:0000000000000034 .L0 
     /tmp/cchJ3sio.s:208    .text:0000000000000084 .L0 
     /tmp/cchJ3sio.s:242    .text:00000000000000a0 .L0 
     /tmp/cchJ3sio.s:545    .text:00000000000001f8 .L0 
     /tmp/cchJ3sio.s:551    .text:000000000000020c .L0 
     /tmp/cchJ3sio.s:698    .text:00000000000002d0 .L0 
     /tmp/cchJ3sio.s:704    .text:00000000000002e4 .L0 
     /tmp/cchJ3sio.s:708    .text:00000000000002f8 .L0 
     /tmp/cchJ3sio.s:749    .text:0000000000000334 .L0 
     /tmp/cchJ3sio.s:907    .text:0000000000000404 .L0 
     /tmp/cchJ3sio.s:931    .text:0000000000000428 .L0 
     /tmp/cchJ3sio.s:193    .text:0000000000000074 .L15
     /tmp/cchJ3sio.s:185    .text:000000000000006c .L12
     /tmp/cchJ3sio.s:182    .text:0000000000000068 .L16
     /tmp/cchJ3sio.s:175    .text:0000000000000060 .L18
     /tmp/cchJ3sio.s:210    .text:000000000000008c .L14
     /tmp/cchJ3sio.s:275    .text:00000000000000dc .L22
     /tmp/cchJ3sio.s:609    .text:0000000000000268 .L43
     /tmp/cchJ3sio.s:777    .text:0000000000000364 .L57
     /tmp/cchJ3sio.s:760    .text:0000000000000350 .L54
GAS LISTING /tmp/cchJ3sio.s 			page 33


     /tmp/cchJ3sio.s:829    .text:000000000000039c .L60
     /tmp/cchJ3sio.s:873    .text:00000000000003d4 .L67
     /tmp/cchJ3sio.s:926    .text:0000000000000428 .L73
     /tmp/cchJ3sio.s:139    .text._ZN14PeriodicThreadD2Ev:000000000000000c .L0 
     /tmp/cchJ3sio.s:444    .text._ZN14PeriodicThreadD0Ev:0000000000000010 .L0 
     /tmp/cchJ3sio.s:2699   .debug_abbrev:0000000000000000 .Ldebug_abbrev0
     /tmp/cchJ3sio.s:4446   .debug_str:0000000000000125 .LASF114
     /tmp/cchJ3sio.s:4604   .debug_str:00000000000006d5 .LASF115
     /tmp/cchJ3sio.s:4504   .debug_str:00000000000003af .LASF116
     /tmp/cchJ3sio.s:4374   .debug_ranges:0000000000000000 .Ldebug_ranges0
     /tmp/cchJ3sio.s:4400   .debug_line:0000000000000000 .Ldebug_line0
     /tmp/cchJ3sio.s:4554   .debug_str:0000000000000540 .LASF0
     /tmp/cchJ3sio.s:4566   .debug_str:000000000000058b .LASF1
     /tmp/cchJ3sio.s:4544   .debug_str:0000000000000502 .LASF2
     /tmp/cchJ3sio.s:4514   .debug_str:000000000000041c .LASF4
     /tmp/cchJ3sio.s:4612   .debug_str:0000000000000711 .LASF3
     /tmp/cchJ3sio.s:4428   .debug_str:00000000000000b9 .LASF5
     /tmp/cchJ3sio.s:4460   .debug_str:0000000000000260 .LASF6
     /tmp/cchJ3sio.s:4572   .debug_str:00000000000005d6 .LASF7
     /tmp/cchJ3sio.s:4552   .debug_str:000000000000052d .LASF8
     /tmp/cchJ3sio.s:4638   .debug_str:00000000000007e1 .LASF9
     /tmp/cchJ3sio.s:4496   .debug_str:000000000000036d .LASF10
     /tmp/cchJ3sio.s:4586   .debug_str:0000000000000643 .LASF11
     /tmp/cchJ3sio.s:4630   .debug_str:000000000000079a .LASF12
     /tmp/cchJ3sio.s:4432   .debug_str:00000000000000c9 .LASF13
     /tmp/cchJ3sio.s:4408   .debug_str:000000000000001e .LASF14
     /tmp/cchJ3sio.s:4440   .debug_str:0000000000000103 .LASF15
     /tmp/cchJ3sio.s:4608   .debug_str:00000000000006f4 .LASF16
     /tmp/cchJ3sio.s:4456   .debug_str:0000000000000245 .LASF17
     /tmp/cchJ3sio.s:4402   .debug_str:0000000000000000 .LASF18
     /tmp/cchJ3sio.s:4562   .debug_str:000000000000057d .LASF25
     /tmp/cchJ3sio.s:4442   .debug_str:000000000000010f .LASF19
     /tmp/cchJ3sio.s:4516   .debug_str:0000000000000423 .LASF20
     /tmp/cchJ3sio.s:4636   .debug_str:00000000000007d3 .LASF21
     /tmp/cchJ3sio.s:4626   .debug_str:0000000000000785 .LASF22
     /tmp/cchJ3sio.s:4584   .debug_str:0000000000000638 .LASF23
     /tmp/cchJ3sio.s:4470   .debug_str:0000000000000298 .LASF24
     /tmp/cchJ3sio.s:4422   .debug_str:000000000000008c .LASF26
     /tmp/cchJ3sio.s:4508   .debug_str:00000000000003ea .LASF117
     /tmp/cchJ3sio.s:4410   .debug_str:000000000000002e .LASF93
     /tmp/cchJ3sio.s:4436   .debug_str:00000000000000de .LASF118
     /tmp/cchJ3sio.s:4548   .debug_str:0000000000000516 .LASF31
     /tmp/cchJ3sio.s:4568   .debug_str:000000000000059e .LASF33
     /tmp/cchJ3sio.s:4576   .debug_str:0000000000000617 .LASF27
     /tmp/cchJ3sio.s:4406   .debug_str:0000000000000013 .LASF39
     /tmp/cchJ3sio.s:4546   .debug_str:0000000000000510 .LASF28
     /tmp/cchJ3sio.s:4518   .debug_str:0000000000000430 .LASF29
     /tmp/cchJ3sio.s:4658   .debug_str:0000000000000881 .LASF30
     /tmp/cchJ3sio.s:4570   .debug_str:00000000000005b1 .LASF119
     /tmp/cchJ3sio.s:4458   .debug_str:000000000000025b .LASF120
     /tmp/cchJ3sio.s:4540   .debug_str:00000000000004ce .LASF121
     /tmp/cchJ3sio.s:4628   .debug_str:000000000000078f .LASF32
     /tmp/cchJ3sio.s:4574   .debug_str:00000000000005e9 .LASF34
     /tmp/cchJ3sio.s:4580   .debug_str:0000000000000623 .LASF35
     /tmp/cchJ3sio.s:4416   .debug_str:0000000000000056 .LASF36
     /tmp/cchJ3sio.s:4650   .debug_str:000000000000083d .LASF37
     /tmp/cchJ3sio.s:4424   .debug_str:0000000000000091 .LASF43
GAS LISTING /tmp/cchJ3sio.s 			page 34


     /tmp/cchJ3sio.s:4520   .debug_str:0000000000000437 .LASF38
     /tmp/cchJ3sio.s:4448   .debug_str:00000000000001f5 .LASF122
     /tmp/cchJ3sio.s:4500   .debug_str:000000000000038e .LASF48
     /tmp/cchJ3sio.s:4654   .debug_str:0000000000000868 .LASF40
     /tmp/cchJ3sio.s:4510   .debug_str:00000000000003f2 .LASF123
     /tmp/cchJ3sio.s:4620   .debug_str:0000000000000762 .LASF124
     /tmp/cchJ3sio.s:4502   .debug_str:00000000000003a8 .LASF41
     /tmp/cchJ3sio.s:4550   .debug_str:000000000000051b .LASF42
     /tmp/cchJ3sio.s:4542   .debug_str:00000000000004f5 .LASF53
     /tmp/cchJ3sio.s:4590   .debug_str:0000000000000668 .LASF44
     /tmp/cchJ3sio.s:4526   .debug_str:000000000000046e .LASF56
     /tmp/cchJ3sio.s:4560   .debug_str:000000000000056e .LASF58
     /tmp/cchJ3sio.s:4564   .debug_str:0000000000000585 .LASF60
     /tmp/cchJ3sio.s:4492   .debug_str:000000000000034b .LASF62
     /tmp/cchJ3sio.s:4556   .debug_str:000000000000054d .LASF125
     /tmp/cchJ3sio.s:4486   .debug_str:000000000000030d .LASF126
     /tmp/cchJ3sio.s:4660   .debug_str:0000000000000886 .LASF45
     /tmp/cchJ3sio.s:4498   .debug_str:000000000000037b .LASF46
     /tmp/cchJ3sio.s:4494   .debug_str:000000000000035e .LASF47
     /tmp/cchJ3sio.s:4478   .debug_str:00000000000002b9 .LASF49
     /tmp/cchJ3sio.s:4656   .debug_str:0000000000000878 .LASF50
     /tmp/cchJ3sio.s:4622   .debug_str:0000000000000778 .LASF127
     /tmp/cchJ3sio.s:4588   .debug_str:0000000000000652 .LASF128
     /tmp/cchJ3sio.s:4404   .debug_str:0000000000000009 .LASF51
     /tmp/cchJ3sio.s:4528   .debug_str:0000000000000476 .LASF52
     /tmp/cchJ3sio.s:4426   .debug_str:00000000000000a9 .LASF54
     /tmp/cchJ3sio.s:4634   .debug_str:00000000000007c1 .LASF55
     /tmp/cchJ3sio.s:4602   .debug_str:00000000000006ca .LASF57
     /tmp/cchJ3sio.s:4438   .debug_str:00000000000000f1 .LASF59
     /tmp/cchJ3sio.s:4476   .debug_str:00000000000002b4 .LASF61
     /tmp/cchJ3sio.s:4598   .debug_str:000000000000069e .LASF63
     /tmp/cchJ3sio.s:4578   .debug_str:000000000000061c .LASF64
     /tmp/cchJ3sio.s:4600   .debug_str:00000000000006b3 .LASF65
     /tmp/cchJ3sio.s:4640   .debug_str:00000000000007f1 .LASF129
     /tmp/cchJ3sio.s:4594   .debug_str:0000000000000694 .LASF66
     /tmp/cchJ3sio.s:4418   .debug_str:0000000000000070 .LASF67
     /tmp/cchJ3sio.s:4632   .debug_str:00000000000007a9 .LASF68
     /tmp/cchJ3sio.s:428    .text._ZN14PeriodicThreadD0Ev:0000000000000000 .LFB43
     /tmp/cchJ3sio.s:460    .text._ZN14PeriodicThreadD0Ev:0000000000000034 .LFE43
     /tmp/cchJ3sio.s:3926   .debug_loc:0000000000000000 .LLST10
     /tmp/cchJ3sio.s:441    .text._ZN14PeriodicThreadD0Ev:0000000000000010 .LBB23
     /tmp/cchJ3sio.s:448    .text._ZN14PeriodicThreadD0Ev:000000000000001c .LBE23
     /tmp/cchJ3sio.s:3940   .debug_loc:0000000000000039 .LLST11
     /tmp/cchJ3sio.s:450    .text._ZN14PeriodicThreadD0Ev:0000000000000024 .LVL30
     /tmp/cchJ3sio.s:4558   .debug_str:0000000000000556 .LASF69
     /tmp/cchJ3sio.s:127    .text._ZN14PeriodicThreadD2Ev:0000000000000000 .LFB41
     /tmp/cchJ3sio.s:149    .text._ZN14PeriodicThreadD2Ev:0000000000000024 .LFE41
     /tmp/cchJ3sio.s:997    .text:000000000000047c .LFB39
     /tmp/cchJ3sio.s:1023   .text:00000000000004a4 .LFE39
     /tmp/cchJ3sio.s:3947   .debug_loc:000000000000005c .LLST31
     /tmp/cchJ3sio.s:1012   .text:0000000000000494 .LVL69
     /tmp/cchJ3sio.s:966    .text:0000000000000454 .LFB38
     /tmp/cchJ3sio.s:991    .text:000000000000047c .LFE38
     /tmp/cchJ3sio.s:980    .text:000000000000046c .LVL67
     /tmp/cchJ3sio.s:158    .text:0000000000000044 .LFB37
     /tmp/cchJ3sio.s:228    .text:00000000000000a0 .LFE37
     /tmp/cchJ3sio.s:3961   .debug_loc:0000000000000095 .LLST2
GAS LISTING /tmp/cchJ3sio.s 			page 35


     /tmp/cchJ3sio.s:176    .text:0000000000000060 .LBB17
     /tmp/cchJ3sio.s:3972   .debug_loc:00000000000000cb .LLST3
     /tmp/cchJ3sio.s:3983   .debug_loc:0000000000000101 .LLST4
     /tmp/cchJ3sio.s:191    .text:0000000000000074 .LVL10
     /tmp/cchJ3sio.s:202    .text:0000000000000084 .LVL11
     /tmp/cchJ3sio.s:4488   .debug_str:0000000000000323 .LASF70
     /tmp/cchJ3sio.s:885    .text:00000000000003dc .LFB35
     /tmp/cchJ3sio.s:958    .text:0000000000000454 .LFE35
     /tmp/cchJ3sio.s:3994   .debug_loc:0000000000000137 .LLST24
     /tmp/cchJ3sio.s:4012   .debug_loc:0000000000000183 .LLST25
     /tmp/cchJ3sio.s:911    .text:0000000000000410 .LBB32
     /tmp/cchJ3sio.s:939    .text:000000000000043c .LBE32
     /tmp/cchJ3sio.s:4030   .debug_loc:00000000000001cf .LLST26
     /tmp/cchJ3sio.s:4037   .debug_loc:00000000000001f2 .LLST27
     /tmp/cchJ3sio.s:920    .text:0000000000000420 .LBB34
     /tmp/cchJ3sio.s:928    .text:0000000000000428 .LBE34
     /tmp/cchJ3sio.s:4044   .debug_loc:0000000000000215 .LLST28
     /tmp/cchJ3sio.s:4051   .debug_loc:0000000000000238 .LLST29
     /tmp/cchJ3sio.s:4058   .debug_loc:000000000000025b .LLST30
     /tmp/cchJ3sio.s:917    .text:000000000000041c .LVL61
     /tmp/cchJ3sio.s:906    .text:0000000000000404 .LVL59
     /tmp/cchJ3sio.s:841    .text:00000000000003a4 .LFB33
     /tmp/cchJ3sio.s:879    .text:00000000000003dc .LFE33
     /tmp/cchJ3sio.s:4065   .debug_loc:000000000000027e .LLST23
     /tmp/cchJ3sio.s:863    .text:00000000000003c4 .LVL57
     /tmp/cchJ3sio.s:797    .text:000000000000036c .LFB32
     /tmp/cchJ3sio.s:835    .text:00000000000003a4 .LFE32
     /tmp/cchJ3sio.s:4079   .debug_loc:00000000000002b7 .LLST22
     /tmp/cchJ3sio.s:819    .text:000000000000038c .LVL54
     /tmp/cchJ3sio.s:4484   .debug_str:00000000000002fb .LASF71
     /tmp/cchJ3sio.s:388    .text:0000000000000158 .LFB31
     /tmp/cchJ3sio.s:421    .text:0000000000000198 .LFE31
     /tmp/cchJ3sio.s:4093   .debug_loc:00000000000002f0 .LLST9
     /tmp/cchJ3sio.s:405    .text:0000000000000178 .LVL24
     /tmp/cchJ3sio.s:408    .text:0000000000000184 .LVL25
     /tmp/cchJ3sio.s:4512   .debug_str:000000000000040a .LASF72
     /tmp/cchJ3sio.s:234    .text:00000000000000a0 .LFB29
     /tmp/cchJ3sio.s:278    .text:00000000000000e0 .LFE29
     /tmp/cchJ3sio.s:4111   .debug_loc:000000000000033c .LLST5
     /tmp/cchJ3sio.s:264    .text:00000000000000cc .LVL16
     /tmp/cchJ3sio.s:4596   .debug_str:0000000000000699 .LASF73
     /tmp/cchJ3sio.s:4420   .debug_str:000000000000007a .LASF74
     /tmp/cchJ3sio.s:732    .text:000000000000031c .LFB26
     /tmp/cchJ3sio.s:789    .text:000000000000036c .LFE26
     /tmp/cchJ3sio.s:4125   .debug_loc:0000000000000375 .LLST20
     /tmp/cchJ3sio.s:4147   .debug_loc:00000000000003d4 .LLST21
     /tmp/cchJ3sio.s:757    .text:000000000000034c .LVL49
     /tmp/cchJ3sio.s:89     .text:0000000000000018 .LFB24
     /tmp/cchJ3sio.s:120    .text:0000000000000044 .LFE24
     /tmp/cchJ3sio.s:4161   .debug_loc:000000000000040d .LLST0
     /tmp/cchJ3sio.s:4175   .debug_loc:0000000000000446 .LLST1
     /tmp/cchJ3sio.s:109    .text:0000000000000034 .LVL5
     /tmp/cchJ3sio.s:4642   .debug_str:0000000000000801 .LASF75
     /tmp/cchJ3sio.s:684    .text:00000000000002c0 .LFB22
     /tmp/cchJ3sio.s:724    .text:000000000000031c .LFE22
     /tmp/cchJ3sio.s:4189   .debug_loc:000000000000047f .LLST19
     /tmp/cchJ3sio.s:712    .text:000000000000030c .LVL46
GAS LISTING /tmp/cchJ3sio.s 			page 36


     /tmp/cchJ3sio.s:652    .text:0000000000000298 .LFB20
     /tmp/cchJ3sio.s:678    .text:00000000000002c0 .LFE20
     /tmp/cchJ3sio.s:4452   .debug_str:000000000000022d .LASF76
     /tmp/cchJ3sio.s:4207   .debug_loc:00000000000004cb .LLST18
     /tmp/cchJ3sio.s:667    .text:00000000000002b0 .LVL43
     /tmp/cchJ3sio.s:621    .text:0000000000000270 .LFB19
     /tmp/cchJ3sio.s:646    .text:0000000000000298 .LFE19
     /tmp/cchJ3sio.s:635    .text:0000000000000288 .LVL41
     /tmp/cchJ3sio.s:577    .text:0000000000000238 .LFB18
     /tmp/cchJ3sio.s:615    .text:0000000000000270 .LFE18
     /tmp/cchJ3sio.s:4221   .debug_loc:0000000000000504 .LLST17
     /tmp/cchJ3sio.s:599    .text:0000000000000258 .LVL40
     /tmp/cchJ3sio.s:4414   .debug_str:0000000000000047 .LASF77
     /tmp/cchJ3sio.s:358    .text:0000000000000130 .LFB17
     /tmp/cchJ3sio.s:382    .text:0000000000000158 .LFE17
     /tmp/cchJ3sio.s:4235   .debug_loc:000000000000053d .LLST8
     /tmp/cchJ3sio.s:372    .text:0000000000000148 .LVL22
     /tmp/cchJ3sio.s:4466   .debug_str:0000000000000280 .LASF78
     /tmp/cchJ3sio.s:62     .text:0000000000000000 .LFB15
     /tmp/cchJ3sio.s:81     .text:0000000000000018 .LFE15
     /tmp/cchJ3sio.s:4434   .debug_str:00000000000000d9 .LASF79
     /tmp/cchJ3sio.s:4506   .debug_str:00000000000003d3 .LASF80
     /tmp/cchJ3sio.s:531    .text:00000000000001e8 .LFB12
     /tmp/cchJ3sio.s:569    .text:0000000000000238 .LFE12
     /tmp/cchJ3sio.s:4249   .debug_loc:0000000000000576 .LLST14
     /tmp/cchJ3sio.s:4269   .debug_loc:00000000000005c4 .LLST15
     /tmp/cchJ3sio.s:4283   .debug_loc:00000000000005fd .LLST16
     /tmp/cchJ3sio.s:557    .text:0000000000000228 .LVL37
     /tmp/cchJ3sio.s:4454   .debug_str:0000000000000232 .LASF81
     /tmp/cchJ3sio.s:4610   .debug_str:000000000000070a .LASF82
     /tmp/cchJ3sio.s:499    .text:00000000000001c0 .LFB10
     /tmp/cchJ3sio.s:525    .text:00000000000001e8 .LFE10
     /tmp/cchJ3sio.s:4297   .debug_loc:0000000000000636 .LLST13
     /tmp/cchJ3sio.s:514    .text:00000000000001d8 .LVL34
     /tmp/cchJ3sio.s:4490   .debug_str:000000000000033b .LASF83
     /tmp/cchJ3sio.s:4582   .debug_str:0000000000000632 .LASF84
     /tmp/cchJ3sio.s:467    .text:0000000000000198 .LFB9
     /tmp/cchJ3sio.s:493    .text:00000000000001c0 .LFE9
     /tmp/cchJ3sio.s:4624   .debug_str:0000000000000780 .LASF85
     /tmp/cchJ3sio.s:4311   .debug_loc:000000000000066f .LLST12
     /tmp/cchJ3sio.s:482    .text:00000000000001b0 .LVL32
     /tmp/cchJ3sio.s:4618   .debug_str:0000000000000752 .LASF86
     /tmp/cchJ3sio.s:4662   .debug_str:000000000000088c .LASF87
     /tmp/cchJ3sio.s:326    .text:0000000000000108 .LFB8
     /tmp/cchJ3sio.s:352    .text:0000000000000130 .LFE8
     /tmp/cchJ3sio.s:4325   .debug_loc:00000000000006a8 .LLST7
     /tmp/cchJ3sio.s:341    .text:0000000000000120 .LVL20
     /tmp/cchJ3sio.s:4644   .debug_str:0000000000000810 .LASF88
     /tmp/cchJ3sio.s:4536   .debug_str:00000000000004b5 .LASF89
     /tmp/cchJ3sio.s:294    .text:00000000000000e0 .LFB7
     /tmp/cchJ3sio.s:320    .text:0000000000000108 .LFE7
     /tmp/cchJ3sio.s:4339   .debug_loc:00000000000006e1 .LLST6
     /tmp/cchJ3sio.s:309    .text:00000000000000f8 .LVL18
     /tmp/cchJ3sio.s:4530   .debug_str:000000000000048b .LASF90
     /tmp/cchJ3sio.s:4616   .debug_str:000000000000072d .LASF130
     /tmp/cchJ3sio.s:37     .text._ZN14PeriodicThread18periodicActivationEv:0000000000000000 .LFB1
     /tmp/cchJ3sio.s:55     .text._ZN14PeriodicThread18periodicActivationEv:0000000000000018 .LFE1
GAS LISTING /tmp/cchJ3sio.s 			page 37


     /tmp/cchJ3sio.s:11     .text._ZN6Thread3runEv:0000000000000000 .LFB0
     /tmp/cchJ3sio.s:30     .text._ZN6Thread3runEv:0000000000000018 .LFE0
     /tmp/cchJ3sio.s:4482   .debug_str:00000000000002f2 .LASF91
     /tmp/cchJ3sio.s:4430   .debug_str:00000000000000c0 .LASF92
     /tmp/cchJ3sio.s:4652   .debug_str:0000000000000858 .LASF94
     /tmp/cchJ3sio.s:4606   .debug_str:00000000000006e9 .LASF95
     /tmp/cchJ3sio.s:4532   .debug_str:0000000000000490 .LASF96
     /tmp/cchJ3sio.s:4462   .debug_str:0000000000000267 .LASF97
     /tmp/cchJ3sio.s:4646   .debug_str:000000000000081d .LASF98
     /tmp/cchJ3sio.s:4444   .debug_str:000000000000011c .LASF99
     /tmp/cchJ3sio.s:4538   .debug_str:00000000000004bb .LASF100
     /tmp/cchJ3sio.s:4524   .debug_str:0000000000000464 .LASF101
     /tmp/cchJ3sio.s:4412   .debug_str:0000000000000033 .LASF102
     /tmp/cchJ3sio.s:4474   .debug_str:00000000000002ab .LASF103
     /tmp/cchJ3sio.s:4480   .debug_str:00000000000002ca .LASF104
     /tmp/cchJ3sio.s:4464   .debug_str:0000000000000272 .LASF105
     /tmp/cchJ3sio.s:4592   .debug_str:000000000000067f .LASF106
     /tmp/cchJ3sio.s:4534   .debug_str:00000000000004a5 .LASF107
     /tmp/cchJ3sio.s:4522   .debug_str:000000000000044a .LASF108
     /tmp/cchJ3sio.s:4472   .debug_str:000000000000029e .LASF109
     /tmp/cchJ3sio.s:4648   .debug_str:000000000000082f .LASF110
     /tmp/cchJ3sio.s:4468   .debug_str:000000000000028f .LASF111
     /tmp/cchJ3sio.s:4450   .debug_str:000000000000021f .LASF112
     /tmp/cchJ3sio.s:4614   .debug_str:0000000000000723 .LASF113
     /tmp/cchJ3sio.s:431    .text._ZN14PeriodicThreadD0Ev:0000000000000000 .LVL27
     /tmp/cchJ3sio.s:440    .text._ZN14PeriodicThreadD0Ev:0000000000000010 .LVL28
     /tmp/cchJ3sio.s:446    .text._ZN14PeriodicThreadD0Ev:000000000000001c .LVL29
     /tmp/cchJ3sio.s:1000   .text:000000000000047c .LVL68
     /tmp/cchJ3sio.s:161    .text:0000000000000044 .LVL7
     /tmp/cchJ3sio.s:174    .text:0000000000000060 .LVL8
     /tmp/cchJ3sio.s:186    .text:000000000000006c .LVL9
     /tmp/cchJ3sio.s:209    .text:000000000000008c .LVL12
     /tmp/cchJ3sio.s:888    .text:00000000000003dc .LVL58
     /tmp/cchJ3sio.s:950    .text:0000000000000448 .LVL65
     /tmp/cchJ3sio.s:953    .text:000000000000044c .LVL66
     /tmp/cchJ3sio.s:910    .text:0000000000000410 .LVL60
     /tmp/cchJ3sio.s:937    .text:000000000000043c .LVL64
     /tmp/cchJ3sio.s:919    .text:0000000000000420 .LVL62
     /tmp/cchJ3sio.s:925    .text:0000000000000428 .LVL63
     /tmp/cchJ3sio.s:844    .text:00000000000003a4 .LVL55
     /tmp/cchJ3sio.s:848    .text:00000000000003a8 .LVL56
     /tmp/cchJ3sio.s:800    .text:000000000000036c .LVL52
     /tmp/cchJ3sio.s:804    .text:0000000000000370 .LVL53
     /tmp/cchJ3sio.s:391    .text:0000000000000158 .LVL23
     /tmp/cchJ3sio.s:416    .text:0000000000000190 .LVL26
     /tmp/cchJ3sio.s:239    .text:00000000000000a0 .LVL14
     /tmp/cchJ3sio.s:247    .text:00000000000000b0 .LVL15
     /tmp/cchJ3sio.s:735    .text:000000000000031c .LVL47
     /tmp/cchJ3sio.s:755    .text:0000000000000344 .LVL48
     /tmp/cchJ3sio.s:772    .text:000000000000035c .LVL50
     /tmp/cchJ3sio.s:776    .text:0000000000000364 .LVL51
     /tmp/cchJ3sio.s:92     .text:0000000000000018 .LVL3
     /tmp/cchJ3sio.s:102    .text:0000000000000028 .LVL4
     /tmp/cchJ3sio.s:687    .text:00000000000002c0 .LVL44
     /tmp/cchJ3sio.s:710    .text:0000000000000304 .LVL45
     /tmp/cchJ3sio.s:655    .text:0000000000000298 .LVL42
     /tmp/cchJ3sio.s:580    .text:0000000000000238 .LVL38
GAS LISTING /tmp/cchJ3sio.s 			page 38


     /tmp/cchJ3sio.s:584    .text:000000000000023c .LVL39
     /tmp/cchJ3sio.s:361    .text:0000000000000130 .LVL21
     /tmp/cchJ3sio.s:534    .text:00000000000001e8 .LVL35
     /tmp/cchJ3sio.s:555    .text:0000000000000220 .LVL36
     /tmp/cchJ3sio.s:502    .text:00000000000001c0 .LVL33
     /tmp/cchJ3sio.s:470    .text:0000000000000198 .LVL31
     /tmp/cchJ3sio.s:329    .text:0000000000000108 .LVL19
     /tmp/cchJ3sio.s:297    .text:00000000000000e0 .LVL17
     /tmp/cchJ3sio.s:1072   .debug_info:0000000000000000 .Ldebug_info0
     /tmp/cchJ3sio.s:5      .text:0000000000000000 .Ltext0
     /tmp/cchJ3sio.s:1067   .text:00000000000004a4 .Letext0
     /tmp/cchJ3sio.s:188    .text:000000000000006c .LBE17
     /tmp/cchJ3sio.s:204    .text:0000000000000084 .LBB20
     /tmp/cchJ3sio.s:226    .text:00000000000000a0 .LBE20
     /tmp/cchJ3sio.s:751    .text:0000000000000340 .LBB28
     /tmp/cchJ3sio.s:761    .text:0000000000000350 .LBE28
     /tmp/cchJ3sio.s:780    .text:0000000000000364 .LBB29
     /tmp/cchJ3sio.s:784    .text:0000000000000368 .LBE29
     /tmp/cchJ3sio.s:281    .gcc_except_table:0000000000000000 .LLSDA29
                           .group:0000000000000000 _ZN14PeriodicThreadD5Ev

UNDEFINED SYMBOLS
_Z10time_sleepm
_Z9sem_closeP4_Sem
__gxx_personality_v0
_Z9mem_allocm
_Z8mem_freePv
NORM_PRIORITY
_Z13thread_createPP7_ThreadPFvPvES2_mii
_Z12thread_startP7_Thread
_Z15thread_dispatchv
_Z8sem_openPP4_Semj
_Z8sem_waitP4_Sem
_Z10sem_signalP4_Sem
_Z4getcv
_Z4putcc
