GAS LISTING /tmp/ccNWNlIO.s 			page 1


   1              		.file	"userMain.cpp"
   2              		.option pic
   3              		.option norelax
   4              		.text
   5              	.Ltext0:
   6              		.align	2
   7              		.globl	_Z1fPv
   9              	_Z1fPv:
  10              	.LFB40:
  11              		.file 1 "src/userMain.cpp"
   1:src/userMain.cpp **** #include "../h/_BuddyAllocator.h"
   2:src/userMain.cpp **** #include "../h/syscall_c.h"
   3:src/userMain.cpp **** #include "../h/syscall_cpp.h"
   4:src/userMain.cpp **** #include "../h/_slab.h"
   5:src/userMain.cpp **** 
   6:src/userMain.cpp **** void printstring(const char* s) {
   7:src/userMain.cpp ****     while (*s) putc(*s++);
   8:src/userMain.cpp **** }
   9:src/userMain.cpp **** void printNum(uint64 x) {
  10:src/userMain.cpp ****     char buff[30];
  11:src/userMain.cpp ****     int i = 0;
  12:src/userMain.cpp ****     while (x) {
  13:src/userMain.cpp ****         buff[i++] = '0' + x % 10;
  14:src/userMain.cpp ****         x /= 10;
  15:src/userMain.cpp ****     }
  16:src/userMain.cpp ****     char buff2[31]; int j = 0;
  17:src/userMain.cpp ****     while (i--) {
  18:src/userMain.cpp ****         buff2[j++] = buff[i];
  19:src/userMain.cpp ****     }
  20:src/userMain.cpp ****     buff2[j] = '\0';
  21:src/userMain.cpp ****     printstring(buff2);
  22:src/userMain.cpp **** };
  23:src/userMain.cpp **** void line() {
  24:src/userMain.cpp ****     printstring("----------------------------------------\n");
  25:src/userMain.cpp **** }
  26:src/userMain.cpp **** 
  27:src/userMain.cpp **** void testBuddy() {
  28:src/userMain.cpp ****     char* heap = new char[200];
  29:src/userMain.cpp ****     _BuddyTree* tree = new (heap) _BuddyTree(heap + 200, 10, 0);
  30:src/userMain.cpp **** 
  31:src/userMain.cpp ****     tree->print(); line();
  32:src/userMain.cpp **** 
  33:src/userMain.cpp ****     void* p1 = tree->alloc(10);
  34:src/userMain.cpp ****     tree->print(); line();
  35:src/userMain.cpp ****     tree->alloc(20);
  36:src/userMain.cpp ****     tree->print(); line();
  37:src/userMain.cpp ****     tree->alloc(35);
  38:src/userMain.cpp ****     tree->print(); line();
  39:src/userMain.cpp ****     void* p4 = tree->alloc(10);
  40:src/userMain.cpp ****     tree->print(); line();
  41:src/userMain.cpp ****     tree->dealloc(p1);
  42:src/userMain.cpp ****     tree->print(); line();
  43:src/userMain.cpp ****     tree->dealloc(p4);
  44:src/userMain.cpp ****     tree->print(); line();
  45:src/userMain.cpp **** }
  46:src/userMain.cpp **** 
  47:src/userMain.cpp **** 
GAS LISTING /tmp/ccNWNlIO.s 			page 2


  48:src/userMain.cpp **** class Car {
  49:src/userMain.cpp ****     const char* name;
  50:src/userMain.cpp ****     int wheels;
  51:src/userMain.cpp **** public:
  52:src/userMain.cpp ****     Car(const char* name = "DefaultCar", int wheels = 4) {
  53:src/userMain.cpp ****         this->name = name;
  54:src/userMain.cpp ****         this->wheels = wheels;
  55:src/userMain.cpp ****     }
  56:src/userMain.cpp ****     void print() {
  57:src/userMain.cpp ****         printstring("Auto");
  58:src/userMain.cpp ****         printstring(name);
  59:src/userMain.cpp ****         printstring(" | Tockova: ");
  60:src/userMain.cpp ****         printNum(wheels);
  61:src/userMain.cpp ****         putc('\n');
  62:src/userMain.cpp ****     }
  63:src/userMain.cpp **** };
  64:src/userMain.cpp **** 
  65:src/userMain.cpp **** void CarCtor(void* car) {
  66:src/userMain.cpp ****     new (car) Car();
  67:src/userMain.cpp **** }
  68:src/userMain.cpp **** 
  69:src/userMain.cpp **** void testCache() {
  70:src/userMain.cpp ****     kmem_cache_t* carCache = kmem_cache_create("MojKes1", sizeof(Car), CarCtor, nullptr);
  71:src/userMain.cpp ****     Car* car = (Car*)kmem_cache_alloc(carCache);
  72:src/userMain.cpp ****     car->print();
  73:src/userMain.cpp ****     kmem_cache_free(carCache, car);
  74:src/userMain.cpp ****     int ret = kmem_cache_shrink(carCache);
  75:src/userMain.cpp ****     if (ret) printstring("SHRINK!\n");
  76:src/userMain.cpp ****     else printstring("NO SHRINK!\n");
  77:src/userMain.cpp ****     kmem_cache_shrink(carCache);
  78:src/userMain.cpp ****     kmem_cache_free(carCache, nullptr);
  79:src/userMain.cpp ****     kmem_cache_error(carCache);
  80:src/userMain.cpp ****     kmem_cache_info(carCache);
  81:src/userMain.cpp **** 
  82:src/userMain.cpp ****     int i = 0;
  83:src/userMain.cpp ****     Car* cars[3563];
  84:src/userMain.cpp ****     while (true) {
  85:src/userMain.cpp ****         car = (Car*)kmem_cache_alloc(carCache);
  86:src/userMain.cpp ****         if (car == nullptr || i == 3563) {
  87:src/userMain.cpp ****             kmem_cache_error(carCache);
  88:src/userMain.cpp ****             break;
  89:src/userMain.cpp ****         }
  90:src/userMain.cpp ****         else {
  91:src/userMain.cpp ****             cars[i] = car;
  92:src/userMain.cpp ****             printstring("ALLOC SUCCESS! ");
  93:src/userMain.cpp ****             printNum(++i);
  94:src/userMain.cpp ****             putc('\n');
  95:src/userMain.cpp ****         }
  96:src/userMain.cpp ****     }
  97:src/userMain.cpp ****     line();
  98:src/userMain.cpp ****     for (int j = 0; j < i; j++) {
  99:src/userMain.cpp ****         printNum(j + 1);
 100:src/userMain.cpp ****         printstring(". ");
 101:src/userMain.cpp ****         cars[j]->print();
 102:src/userMain.cpp ****     }
 103:src/userMain.cpp **** 
 104:src/userMain.cpp ****     kmem_cache_destroy(carCache);
GAS LISTING /tmp/ccNWNlIO.s 			page 3


 105:src/userMain.cpp ****     putc('\n');
 106:src/userMain.cpp **** 
 107:src/userMain.cpp ****     int* arr = (int*)kmalloc(10 * sizeof(int));
 108:src/userMain.cpp ****     if (arr) {
 109:src/userMain.cpp ****         for (int i = 0; i < 10; i++) arr[i] = i;
 110:src/userMain.cpp ****         kfree(arr);
 111:src/userMain.cpp ****     }
 112:src/userMain.cpp ****     else {
 113:src/userMain.cpp ****         printstring("ERROR\n");
 114:src/userMain.cpp ****     }
 115:src/userMain.cpp **** }
 116:src/userMain.cpp **** #define MAX 1000
 117:src/userMain.cpp **** void testCache2() {
 118:src/userMain.cpp ****     kmem_cache_t* carCache = kmem_cache_create("MojKes1", sizeof(Car), CarCtor, nullptr);
 119:src/userMain.cpp ****     Car* cars[MAX];
 120:src/userMain.cpp ****     for (int i = 0; i < MAX; i++) cars[i] = (Car*)kmem_cache_alloc(carCache);
 121:src/userMain.cpp ****     kmem_cache_error(carCache);
 122:src/userMain.cpp ****     kmem_cache_info(carCache);
 123:src/userMain.cpp ****     for (int i = MAX; i > MAX/2; i--) kmem_cache_free(carCache, cars[i]);
 124:src/userMain.cpp ****     kmem_cache_info(carCache);
 125:src/userMain.cpp ****     kmem_cache_shrink(carCache);
 126:src/userMain.cpp ****     kmem_cache_info(carCache);
 127:src/userMain.cpp ****     kmem_cache_destroy(carCache);
 128:src/userMain.cpp ****     return;
 129:src/userMain.cpp **** }
 130:src/userMain.cpp **** 
 131:src/userMain.cpp **** void testBuffCache() {
 132:src/userMain.cpp ****     int* arrs[100];
 133:src/userMain.cpp ****     for (int i = 0; i < 100; i++) arrs[i] = (int*)kmalloc(1000*sizeof(int));
 134:src/userMain.cpp ****     kmem_cache_info_buff(11);
 135:src/userMain.cpp ****     kmem_cache_info_buff(12);
 136:src/userMain.cpp ****     for (int i = 50; i < 100; i++) kfree(arrs[i]);
 137:src/userMain.cpp ****     kmem_cache_info_buff(12);
 138:src/userMain.cpp ****     for (int i = 50; i < 100; i++) arrs[i] = (int*)kmalloc(1000*sizeof(int));
 139:src/userMain.cpp ****     kmem_cache_info_buff(12);
 140:src/userMain.cpp **** }
 141:src/userMain.cpp **** 
 142:src/userMain.cpp **** void f(void*) {}
  12              		.loc 1 142 15
  13              		.cfi_startproc
  14 0000 130101FF 		addi	sp,sp,-16
  15              		.cfi_def_cfa_offset 16
  16 0004 23348100 		sd	s0,8(sp)
  17              		.cfi_offset 8, -8
  18 0008 13040101 		addi	s0,sp,16
  19              		.cfi_def_cfa 8, 0
  20              		.loc 1 142 16 is_stmt 0
  21 000c 03348100 		ld	s0,8(sp)
  22              		.cfi_restore 8
  23              		.cfi_def_cfa 2, 16
  24 0010 13010101 		addi	sp,sp,16
  25              		.cfi_def_cfa_offset 0
  26 0014 67800000 		jr	ra
  27              		.cfi_endproc
  28              	.LFE40:
  30              		.section	.rodata.str1.8,"aMS",@progbits,1
  31              		.align	3
GAS LISTING /tmp/ccNWNlIO.s 			page 4


  32              	.LC0:
  33 0000 44656661 		.string	"DefaultCar"
  33      756C7443 
  33      617200
  34              		.text
  35              		.align	2
  36              		.globl	_Z7CarCtorPv
  38              	_Z7CarCtorPv:
  39              	.LFB36:
  65:src/userMain.cpp ****     new (car) Car();
  40              		.loc 1 65 25 is_stmt 1
  41              		.cfi_startproc
  42              	.LVL0:
  43 0018 130101FF 		addi	sp,sp,-16
  44              		.cfi_def_cfa_offset 16
  45 001c 23341100 		sd	ra,8(sp)
  46 0020 23308100 		sd	s0,0(sp)
  47              		.cfi_offset 1, -8
  48              		.cfi_offset 8, -16
  49 0024 13040101 		addi	s0,sp,16
  50              		.cfi_def_cfa 8, 0
  51 0028 93050500 		mv	a1,a0
  66:src/userMain.cpp **** }
  52              		.loc 1 66 5
  66:src/userMain.cpp **** }
  53              		.loc 1 66 19 is_stmt 0
  54 002c 13050001 		li	a0,16
  55              	.LVL1:
  56 0030 97000000 		call	_ZnwmPv@plt
  56      E7800000 
  57              	.LVL2:
  58 0038 630C0500 		beqz	a0,.L3
  59              	.LVL3:
  60              	.LBB59:
  61              	.LBB60:
  53:src/userMain.cpp ****         this->wheels = wheels;
  62              		.loc 1 53 9 is_stmt 1
  53:src/userMain.cpp ****         this->wheels = wheels;
  63              		.loc 1 53 20 is_stmt 0
  64 003c 97070000 		lla	a5,.LC0
  64      93870700 
  65 0044 2330F500 		sd	a5,0(a0)
  54:src/userMain.cpp ****     }
  66              		.loc 1 54 9 is_stmt 1
  54:src/userMain.cpp ****     }
  67              		.loc 1 54 22 is_stmt 0
  68 0048 93074000 		li	a5,4
  69 004c 2324F500 		sw	a5,8(a0)
  70              	.LVL4:
  71              	.L3:
  72              	.LBE60:
  73              	.LBE59:
  67:src/userMain.cpp **** 
  74              		.loc 1 67 1
  75 0050 83308100 		ld	ra,8(sp)
  76              		.cfi_restore 1
  77 0054 03340100 		ld	s0,0(sp)
GAS LISTING /tmp/ccNWNlIO.s 			page 5


  78              		.cfi_restore 8
  79              		.cfi_def_cfa 2, 16
  80 0058 13010101 		addi	sp,sp,16
  81              		.cfi_def_cfa_offset 0
  82 005c 67800000 		jr	ra
  83              		.cfi_endproc
  84              	.LFE36:
  86              		.section	.text._ZN19ConsumerProducerCPP8Consumer3runEv,"axG",@progbits,_ZN19ConsumerProducerCPP8Co
  87              		.align	2
  88              		.weak	_ZN19ConsumerProducerCPP8Consumer3runEv
  90              	_ZN19ConsumerProducerCPP8Consumer3runEv:
  91              	.LFB57:
  92              		.file 2 "src/../h/ConsumerProducer_CPP_API_test.hpp"
   1:src/../h/ConsumerProducer_CPP_API_test.hpp **** //
   2:src/../h/ConsumerProducer_CPP_API_test.hpp **** // Created by os on 4/17/22.
   3:src/../h/ConsumerProducer_CPP_API_test.hpp **** //
   4:src/../h/ConsumerProducer_CPP_API_test.hpp **** 
   5:src/../h/ConsumerProducer_CPP_API_test.hpp **** #ifndef XV6_CONSUMERPRODUCER_CPP_API_TEST_HPP
   6:src/../h/ConsumerProducer_CPP_API_test.hpp **** #define XV6_CONSUMERPRODUCER_CPP_API_TEST_HPP
   7:src/../h/ConsumerProducer_CPP_API_test.hpp **** 
   8:src/../h/ConsumerProducer_CPP_API_test.hpp **** #include "syscall_cpp.h"
   9:src/../h/ConsumerProducer_CPP_API_test.hpp **** 
  10:src/../h/ConsumerProducer_CPP_API_test.hpp **** #include "buffer_CPP_API.hpp"
  11:src/../h/ConsumerProducer_CPP_API_test.hpp **** #include "printing.hpp"
  12:src/../h/ConsumerProducer_CPP_API_test.hpp **** 
  13:src/../h/ConsumerProducer_CPP_API_test.hpp **** namespace ConsumerProducerCPP {
  14:src/../h/ConsumerProducer_CPP_API_test.hpp **** 
  15:src/../h/ConsumerProducer_CPP_API_test.hpp ****     Semaphore *waitForAll;
  16:src/../h/ConsumerProducer_CPP_API_test.hpp **** 
  17:src/../h/ConsumerProducer_CPP_API_test.hpp ****     struct thread_data {
  18:src/../h/ConsumerProducer_CPP_API_test.hpp ****         int id;
  19:src/../h/ConsumerProducer_CPP_API_test.hpp ****         BufferCPP *buffer;
  20:src/../h/ConsumerProducer_CPP_API_test.hpp ****         Semaphore *sem;
  21:src/../h/ConsumerProducer_CPP_API_test.hpp ****     };
  22:src/../h/ConsumerProducer_CPP_API_test.hpp **** 
  23:src/../h/ConsumerProducer_CPP_API_test.hpp ****     volatile int threadEnd = 0;
  24:src/../h/ConsumerProducer_CPP_API_test.hpp **** 
  25:src/../h/ConsumerProducer_CPP_API_test.hpp ****     class ProducerKeyborad : public Thread {
  26:src/../h/ConsumerProducer_CPP_API_test.hpp ****         thread_data *td;
  27:src/../h/ConsumerProducer_CPP_API_test.hpp ****     public:
  28:src/../h/ConsumerProducer_CPP_API_test.hpp ****         ProducerKeyborad(thread_data *_td) : Thread(), td(_td) {}
  29:src/../h/ConsumerProducer_CPP_API_test.hpp **** 
  30:src/../h/ConsumerProducer_CPP_API_test.hpp ****         void run() override {
  31:src/../h/ConsumerProducer_CPP_API_test.hpp ****             int key;
  32:src/../h/ConsumerProducer_CPP_API_test.hpp ****             int i = 0;
  33:src/../h/ConsumerProducer_CPP_API_test.hpp ****             while ((key = getc()) != 0x1b) {
  34:src/../h/ConsumerProducer_CPP_API_test.hpp ****                 td->buffer->put(key);
  35:src/../h/ConsumerProducer_CPP_API_test.hpp ****                 i++;
  36:src/../h/ConsumerProducer_CPP_API_test.hpp ****             }
  37:src/../h/ConsumerProducer_CPP_API_test.hpp **** 
  38:src/../h/ConsumerProducer_CPP_API_test.hpp ****             threadEnd = 1;
  39:src/../h/ConsumerProducer_CPP_API_test.hpp ****             td->buffer->put('!');
  40:src/../h/ConsumerProducer_CPP_API_test.hpp **** 
  41:src/../h/ConsumerProducer_CPP_API_test.hpp ****             td->sem->signal();
  42:src/../h/ConsumerProducer_CPP_API_test.hpp ****         }
  43:src/../h/ConsumerProducer_CPP_API_test.hpp ****     };
  44:src/../h/ConsumerProducer_CPP_API_test.hpp **** 
GAS LISTING /tmp/ccNWNlIO.s 			page 6


  45:src/../h/ConsumerProducer_CPP_API_test.hpp ****     class Producer : public Thread {
  46:src/../h/ConsumerProducer_CPP_API_test.hpp ****         thread_data *td;
  47:src/../h/ConsumerProducer_CPP_API_test.hpp ****     public:
  48:src/../h/ConsumerProducer_CPP_API_test.hpp ****         Producer(thread_data *_td) : Thread(), td(_td) {}
  49:src/../h/ConsumerProducer_CPP_API_test.hpp **** 
  50:src/../h/ConsumerProducer_CPP_API_test.hpp ****         void run() override {
  51:src/../h/ConsumerProducer_CPP_API_test.hpp ****             int i = 0;
  52:src/../h/ConsumerProducer_CPP_API_test.hpp ****             while (!threadEnd) {
  53:src/../h/ConsumerProducer_CPP_API_test.hpp ****                 td->buffer->put(td->id + '0');
  54:src/../h/ConsumerProducer_CPP_API_test.hpp ****                 i++;
  55:src/../h/ConsumerProducer_CPP_API_test.hpp ****                 Thread::sleep((i+td->id)%5);
  56:src/../h/ConsumerProducer_CPP_API_test.hpp ****             }
  57:src/../h/ConsumerProducer_CPP_API_test.hpp **** 
  58:src/../h/ConsumerProducer_CPP_API_test.hpp ****             td->sem->signal();
  59:src/../h/ConsumerProducer_CPP_API_test.hpp ****         }
  60:src/../h/ConsumerProducer_CPP_API_test.hpp ****     };
  61:src/../h/ConsumerProducer_CPP_API_test.hpp **** 
  62:src/../h/ConsumerProducer_CPP_API_test.hpp ****     class Consumer : public Thread {
  63:src/../h/ConsumerProducer_CPP_API_test.hpp ****         thread_data *td;
  64:src/../h/ConsumerProducer_CPP_API_test.hpp ****     public:
  65:src/../h/ConsumerProducer_CPP_API_test.hpp ****         Consumer(thread_data *_td) : Thread(), td(_td) {}
  66:src/../h/ConsumerProducer_CPP_API_test.hpp **** 
  67:src/../h/ConsumerProducer_CPP_API_test.hpp ****         void run() override {
  93              		.loc 2 67 14 is_stmt 1
  94              		.cfi_startproc
  95              	.LVL5:
  96 0000 130101FD 		addi	sp,sp,-48
  97              		.cfi_def_cfa_offset 48
  98 0004 23341102 		sd	ra,40(sp)
  99 0008 23308102 		sd	s0,32(sp)
 100 000c 233C9100 		sd	s1,24(sp)
 101 0010 23382101 		sd	s2,16(sp)
 102 0014 23343101 		sd	s3,8(sp)
 103              		.cfi_offset 1, -8
 104              		.cfi_offset 8, -16
 105              		.cfi_offset 9, -24
 106              		.cfi_offset 18, -32
 107              		.cfi_offset 19, -40
 108 0018 13040103 		addi	s0,sp,48
 109              		.cfi_def_cfa 8, 0
 110 001c 13090500 		mv	s2,a0
  68:src/../h/ConsumerProducer_CPP_API_test.hpp ****             int i = 0;
 111              		.loc 2 68 13
 112              	.LVL6:
 113              		.loc 2 68 17 is_stmt 0
 114 0020 93090000 		li	s3,0
 115 0024 6F000001 		j	.L7
 116              	.LVL7:
 117              	.L12:
 118              	.LBB61:
  69:src/../h/ConsumerProducer_CPP_API_test.hpp ****             while (!threadEnd) {
  70:src/../h/ConsumerProducer_CPP_API_test.hpp ****                 int key = td->buffer->get();
  71:src/../h/ConsumerProducer_CPP_API_test.hpp ****                 i++;
  72:src/../h/ConsumerProducer_CPP_API_test.hpp **** 
  73:src/../h/ConsumerProducer_CPP_API_test.hpp ****                 Console::putc(key);
  74:src/../h/ConsumerProducer_CPP_API_test.hpp **** 
  75:src/../h/ConsumerProducer_CPP_API_test.hpp ****                 if (i % 80 == 0) {
GAS LISTING /tmp/ccNWNlIO.s 			page 7


  76:src/../h/ConsumerProducer_CPP_API_test.hpp ****                     Console::putc('\n');
 119              		.loc 2 76 21 is_stmt 1
 120              		.loc 2 76 34 is_stmt 0
 121 0028 1305A000 		li	a0,10
 122 002c 97000000 		call	_ZN7Console4putcEc@plt
 122      E7800000 
 123              	.LVL8:
 124              	.L7:
 125              	.LBE61:
  69:src/../h/ConsumerProducer_CPP_API_test.hpp ****             while (!threadEnd) {
 126              		.loc 2 69 13 is_stmt 1
  69:src/../h/ConsumerProducer_CPP_API_test.hpp ****             while (!threadEnd) {
 127              		.loc 2 69 20
 128 0034 97070000 		lw	a5,.LANCHOR0
 128      83A70700 
 129 003c 639A0704 		bnez	a5,.L8
 130              	.LBB62:
  70:src/../h/ConsumerProducer_CPP_API_test.hpp ****                 i++;
 131              		.loc 2 70 17
  70:src/../h/ConsumerProducer_CPP_API_test.hpp ****                 i++;
 132              		.loc 2 70 27 is_stmt 0
 133 0040 83370901 		ld	a5,16(s2)
  70:src/../h/ConsumerProducer_CPP_API_test.hpp ****                 i++;
 134              		.loc 2 70 42
 135 0044 03B58700 		ld	a0,8(a5)
 136 0048 97000000 		call	_ZN9BufferCPP3getEv@plt
 136      E7800000 
 137              	.LVL9:
  71:src/../h/ConsumerProducer_CPP_API_test.hpp **** 
 138              		.loc 2 71 17 is_stmt 1
  71:src/../h/ConsumerProducer_CPP_API_test.hpp **** 
 139              		.loc 2 71 18 is_stmt 0
 140 0050 9B841900 		addiw	s1,s3,1
 141 0054 9B890400 		sext.w	s3,s1
 142              	.LVL10:
  73:src/../h/ConsumerProducer_CPP_API_test.hpp **** 
 143              		.loc 2 73 17 is_stmt 1
  73:src/../h/ConsumerProducer_CPP_API_test.hpp **** 
 144              		.loc 2 73 30 is_stmt 0
 145 0058 1375F50F 		andi	a0,a0,0xff
 146              	.LVL11:
 147 005c 97000000 		call	_ZN7Console4putcEc@plt
 147      E7800000 
 148              	.LVL12:
  75:src/../h/ConsumerProducer_CPP_API_test.hpp ****                     Console::putc('\n');
 149              		.loc 2 75 17 is_stmt 1
  75:src/../h/ConsumerProducer_CPP_API_test.hpp ****                     Console::putc('\n');
 150              		.loc 2 75 23 is_stmt 0
 151 0064 93070005 		li	a5,80
 152 0068 BBE4F402 		remw	s1,s1,a5
 153              	.LVL13:
  75:src/../h/ConsumerProducer_CPP_API_test.hpp ****                     Console::putc('\n');
 154              		.loc 2 75 17
 155 006c E39404FC 		bnez	s1,.L7
 156 0070 6FF09FFB 		j	.L12
 157              	.L13:
 158              	.LBE62:
GAS LISTING /tmp/ccNWNlIO.s 			page 8


 159              	.LBB63:
  77:src/../h/ConsumerProducer_CPP_API_test.hpp ****                 }
  78:src/../h/ConsumerProducer_CPP_API_test.hpp ****             }
  79:src/../h/ConsumerProducer_CPP_API_test.hpp **** 
  80:src/../h/ConsumerProducer_CPP_API_test.hpp ****             while (td->buffer->getCnt() > 0) {
  81:src/../h/ConsumerProducer_CPP_API_test.hpp ****                 int key = td->buffer->get();
 160              		.loc 2 81 17 is_stmt 1
 161              		.loc 2 81 27 is_stmt 0
 162 0074 83370901 		ld	a5,16(s2)
 163              		.loc 2 81 42
 164 0078 03B58700 		ld	a0,8(a5)
 165 007c 97000000 		call	_ZN9BufferCPP3getEv@plt
 165      E7800000 
 166              	.LVL14:
  82:src/../h/ConsumerProducer_CPP_API_test.hpp ****                 Console::putc(key);
 167              		.loc 2 82 17 is_stmt 1
 168              		.loc 2 82 30 is_stmt 0
 169 0084 1375F50F 		andi	a0,a0,0xff
 170              	.LVL15:
 171 0088 97000000 		call	_ZN7Console4putcEc@plt
 171      E7800000 
 172              	.LVL16:
 173              	.L8:
 174              	.LBE63:
  80:src/../h/ConsumerProducer_CPP_API_test.hpp ****                 int key = td->buffer->get();
 175              		.loc 2 80 13 is_stmt 1
  80:src/../h/ConsumerProducer_CPP_API_test.hpp ****                 int key = td->buffer->get();
 176              		.loc 2 80 41
  80:src/../h/ConsumerProducer_CPP_API_test.hpp ****                 int key = td->buffer->get();
 177              		.loc 2 80 20 is_stmt 0
 178 0090 83370901 		ld	a5,16(s2)
  80:src/../h/ConsumerProducer_CPP_API_test.hpp ****                 int key = td->buffer->get();
 179              		.loc 2 80 38
 180 0094 03B58700 		ld	a0,8(a5)
 181 0098 97000000 		call	_ZN9BufferCPP6getCntEv@plt
 181      E7800000 
 182              	.LVL17:
  80:src/../h/ConsumerProducer_CPP_API_test.hpp ****                 int key = td->buffer->get();
 183              		.loc 2 80 41
 184 00a0 E34AA0FC 		bgtz	a0,.L13
  83:src/../h/ConsumerProducer_CPP_API_test.hpp ****             }
  84:src/../h/ConsumerProducer_CPP_API_test.hpp **** 
  85:src/../h/ConsumerProducer_CPP_API_test.hpp ****             td->sem->signal();
 185              		.loc 2 85 13 is_stmt 1
 186 00a4 83370901 		ld	a5,16(s2)
 187              		.loc 2 85 28 is_stmt 0
 188 00a8 03B50701 		ld	a0,16(a5)
 189 00ac 97000000 		call	_ZN9Semaphore6signalEv@plt
 189      E7800000 
 190              	.LVL18:
  86:src/../h/ConsumerProducer_CPP_API_test.hpp ****         }
 191              		.loc 2 86 9
 192 00b4 83308102 		ld	ra,40(sp)
 193              		.cfi_restore 1
 194 00b8 03340102 		ld	s0,32(sp)
 195              		.cfi_restore 8
 196              		.cfi_def_cfa 2, 48
GAS LISTING /tmp/ccNWNlIO.s 			page 9


 197 00bc 83348101 		ld	s1,24(sp)
 198              		.cfi_restore 9
 199 00c0 03390101 		ld	s2,16(sp)
 200              		.cfi_restore 18
 201              	.LVL19:
 202 00c4 83398100 		ld	s3,8(sp)
 203              		.cfi_restore 19
 204              	.LVL20:
 205 00c8 13010103 		addi	sp,sp,48
 206              		.cfi_def_cfa_offset 0
 207 00cc 67800000 		jr	ra
 208              		.cfi_endproc
 209              	.LFE57:
 211              		.section	.text._ZN19ConsumerProducerCPP8ConsumerD2Ev,"axG",@progbits,_ZN19ConsumerProducerCPP8Cons
 212              		.align	2
 213              		.weak	_ZN19ConsumerProducerCPP8ConsumerD2Ev
 215              	_ZN19ConsumerProducerCPP8ConsumerD2Ev:
 216              	.LFB66:
  62:src/../h/ConsumerProducer_CPP_API_test.hpp ****         thread_data *td;
 217              		.loc 2 62 11 is_stmt 1
 218              		.cfi_startproc
 219              	.LVL21:
 220 0000 130101FF 		addi	sp,sp,-16
 221              		.cfi_def_cfa_offset 16
 222 0004 23341100 		sd	ra,8(sp)
 223 0008 23308100 		sd	s0,0(sp)
 224              		.cfi_offset 1, -8
 225              		.cfi_offset 8, -16
 226 000c 13040101 		addi	s0,sp,16
 227              		.cfi_def_cfa 8, 0
 228              	.LBB64:
  62:src/../h/ConsumerProducer_CPP_API_test.hpp ****         thread_data *td;
 229              		.loc 2 62 11 is_stmt 0
 230 0010 97070000 		lla	a5,_ZTVN19ConsumerProducerCPP8ConsumerE+16
 230      93870700 
 231 0018 2330F500 		sd	a5,0(a0)
 232 001c 97000000 		call	_ZN6ThreadD2Ev@plt
 232      E7800000 
 233              	.LVL22:
 234              	.LBE64:
 235 0024 83308100 		ld	ra,8(sp)
 236              		.cfi_restore 1
 237 0028 03340100 		ld	s0,0(sp)
 238              		.cfi_restore 8
 239              		.cfi_def_cfa 2, 16
 240 002c 13010101 		addi	sp,sp,16
 241              		.cfi_def_cfa_offset 0
 242 0030 67800000 		jr	ra
 243              		.cfi_endproc
 244              	.LFE66:
 246              		.weak	_ZN19ConsumerProducerCPP8ConsumerD1Ev
 247              		.set	_ZN19ConsumerProducerCPP8ConsumerD1Ev,_ZN19ConsumerProducerCPP8ConsumerD2Ev
 248              		.section	.text._ZN19ConsumerProducerCPP8ConsumerD0Ev,"axG",@progbits,_ZN19ConsumerProducerCPP8Cons
 249              		.align	2
 250              		.weak	_ZN19ConsumerProducerCPP8ConsumerD0Ev
 252              	_ZN19ConsumerProducerCPP8ConsumerD0Ev:
 253              	.LFB68:
GAS LISTING /tmp/ccNWNlIO.s 			page 10


  62:src/../h/ConsumerProducer_CPP_API_test.hpp ****         thread_data *td;
 254              		.loc 2 62 11 is_stmt 1
 255              		.cfi_startproc
 256              	.LVL23:
 257 0000 130101FE 		addi	sp,sp,-32
 258              		.cfi_def_cfa_offset 32
 259 0004 233C1100 		sd	ra,24(sp)
 260 0008 23388100 		sd	s0,16(sp)
 261 000c 23349100 		sd	s1,8(sp)
 262              		.cfi_offset 1, -8
 263              		.cfi_offset 8, -16
 264              		.cfi_offset 9, -24
 265 0010 13040102 		addi	s0,sp,32
 266              		.cfi_def_cfa 8, 0
 267 0014 93040500 		mv	s1,a0
 268              	.LVL24:
 269              	.LBB65:
 270              	.LBB66:
  62:src/../h/ConsumerProducer_CPP_API_test.hpp ****         thread_data *td;
 271              		.loc 2 62 11 is_stmt 0
 272 0018 97070000 		lla	a5,_ZTVN19ConsumerProducerCPP8ConsumerE+16
 272      93870700 
 273 0020 2330F500 		sd	a5,0(a0)
 274 0024 97000000 		call	_ZN6ThreadD2Ev@plt
 274      E7800000 
 275              	.LVL25:
 276              	.LBE66:
 277              	.LBE65:
 278 002c 13850400 		mv	a0,s1
 279 0030 97000000 		call	_ZdlPv@plt
 279      E7800000 
 280              	.LVL26:
 281 0038 83308101 		ld	ra,24(sp)
 282              		.cfi_restore 1
 283 003c 03340101 		ld	s0,16(sp)
 284              		.cfi_restore 8
 285              		.cfi_def_cfa 2, 32
 286 0040 83348100 		ld	s1,8(sp)
 287              		.cfi_restore 9
 288              	.LVL27:
 289 0044 13010102 		addi	sp,sp,32
 290              		.cfi_def_cfa_offset 0
 291 0048 67800000 		jr	ra
 292              		.cfi_endproc
 293              	.LFE68:
 295              		.section	.text._ZN19ConsumerProducerCPP16ProducerKeyboradD2Ev,"axG",@progbits,_ZN19ConsumerProduce
 296              		.align	2
 297              		.weak	_ZN19ConsumerProducerCPP16ProducerKeyboradD2Ev
 299              	_ZN19ConsumerProducerCPP16ProducerKeyboradD2Ev:
 300              	.LFB74:
  25:src/../h/ConsumerProducer_CPP_API_test.hpp ****         thread_data *td;
 301              		.loc 2 25 11 is_stmt 1
 302              		.cfi_startproc
 303              	.LVL28:
 304 0000 130101FF 		addi	sp,sp,-16
 305              		.cfi_def_cfa_offset 16
 306 0004 23341100 		sd	ra,8(sp)
GAS LISTING /tmp/ccNWNlIO.s 			page 11


 307 0008 23308100 		sd	s0,0(sp)
 308              		.cfi_offset 1, -8
 309              		.cfi_offset 8, -16
 310 000c 13040101 		addi	s0,sp,16
 311              		.cfi_def_cfa 8, 0
 312              	.LBB67:
  25:src/../h/ConsumerProducer_CPP_API_test.hpp ****         thread_data *td;
 313              		.loc 2 25 11 is_stmt 0
 314 0010 97070000 		lla	a5,_ZTVN19ConsumerProducerCPP16ProducerKeyboradE+16
 314      93870700 
 315 0018 2330F500 		sd	a5,0(a0)
 316 001c 97000000 		call	_ZN6ThreadD2Ev@plt
 316      E7800000 
 317              	.LVL29:
 318              	.LBE67:
 319 0024 83308100 		ld	ra,8(sp)
 320              		.cfi_restore 1
 321 0028 03340100 		ld	s0,0(sp)
 322              		.cfi_restore 8
 323              		.cfi_def_cfa 2, 16
 324 002c 13010101 		addi	sp,sp,16
 325              		.cfi_def_cfa_offset 0
 326 0030 67800000 		jr	ra
 327              		.cfi_endproc
 328              	.LFE74:
 330              		.weak	_ZN19ConsumerProducerCPP16ProducerKeyboradD1Ev
 331              		.set	_ZN19ConsumerProducerCPP16ProducerKeyboradD1Ev,_ZN19ConsumerProducerCPP16ProducerKeyboradD2Ev
 332              		.section	.text._ZN19ConsumerProducerCPP16ProducerKeyboradD0Ev,"axG",@progbits,_ZN19ConsumerProduce
 333              		.align	2
 334              		.weak	_ZN19ConsumerProducerCPP16ProducerKeyboradD0Ev
 336              	_ZN19ConsumerProducerCPP16ProducerKeyboradD0Ev:
 337              	.LFB76:
  25:src/../h/ConsumerProducer_CPP_API_test.hpp ****         thread_data *td;
 338              		.loc 2 25 11 is_stmt 1
 339              		.cfi_startproc
 340              	.LVL30:
 341 0000 130101FE 		addi	sp,sp,-32
 342              		.cfi_def_cfa_offset 32
 343 0004 233C1100 		sd	ra,24(sp)
 344 0008 23388100 		sd	s0,16(sp)
 345 000c 23349100 		sd	s1,8(sp)
 346              		.cfi_offset 1, -8
 347              		.cfi_offset 8, -16
 348              		.cfi_offset 9, -24
 349 0010 13040102 		addi	s0,sp,32
 350              		.cfi_def_cfa 8, 0
 351 0014 93040500 		mv	s1,a0
 352              	.LVL31:
 353              	.LBB68:
 354              	.LBB69:
  25:src/../h/ConsumerProducer_CPP_API_test.hpp ****         thread_data *td;
 355              		.loc 2 25 11 is_stmt 0
 356 0018 97070000 		lla	a5,_ZTVN19ConsumerProducerCPP16ProducerKeyboradE+16
 356      93870700 
 357 0020 2330F500 		sd	a5,0(a0)
 358 0024 97000000 		call	_ZN6ThreadD2Ev@plt
 358      E7800000 
GAS LISTING /tmp/ccNWNlIO.s 			page 12


 359              	.LVL32:
 360              	.LBE69:
 361              	.LBE68:
 362 002c 13850400 		mv	a0,s1
 363 0030 97000000 		call	_ZdlPv@plt
 363      E7800000 
 364              	.LVL33:
 365 0038 83308101 		ld	ra,24(sp)
 366              		.cfi_restore 1
 367 003c 03340101 		ld	s0,16(sp)
 368              		.cfi_restore 8
 369              		.cfi_def_cfa 2, 32
 370 0040 83348100 		ld	s1,8(sp)
 371              		.cfi_restore 9
 372              	.LVL34:
 373 0044 13010102 		addi	sp,sp,32
 374              		.cfi_def_cfa_offset 0
 375 0048 67800000 		jr	ra
 376              		.cfi_endproc
 377              	.LFE76:
 379              		.section	.text._ZN19ConsumerProducerCPP8ProducerD2Ev,"axG",@progbits,_ZN19ConsumerProducerCPP8Prod
 380              		.align	2
 381              		.weak	_ZN19ConsumerProducerCPP8ProducerD2Ev
 383              	_ZN19ConsumerProducerCPP8ProducerD2Ev:
 384              	.LFB70:
  45:src/../h/ConsumerProducer_CPP_API_test.hpp ****         thread_data *td;
 385              		.loc 2 45 11 is_stmt 1
 386              		.cfi_startproc
 387              	.LVL35:
 388 0000 130101FF 		addi	sp,sp,-16
 389              		.cfi_def_cfa_offset 16
 390 0004 23341100 		sd	ra,8(sp)
 391 0008 23308100 		sd	s0,0(sp)
 392              		.cfi_offset 1, -8
 393              		.cfi_offset 8, -16
 394 000c 13040101 		addi	s0,sp,16
 395              		.cfi_def_cfa 8, 0
 396              	.LBB70:
  45:src/../h/ConsumerProducer_CPP_API_test.hpp ****         thread_data *td;
 397              		.loc 2 45 11 is_stmt 0
 398 0010 97070000 		lla	a5,_ZTVN19ConsumerProducerCPP8ProducerE+16
 398      93870700 
 399 0018 2330F500 		sd	a5,0(a0)
 400 001c 97000000 		call	_ZN6ThreadD2Ev@plt
 400      E7800000 
 401              	.LVL36:
 402              	.LBE70:
 403 0024 83308100 		ld	ra,8(sp)
 404              		.cfi_restore 1
 405 0028 03340100 		ld	s0,0(sp)
 406              		.cfi_restore 8
 407              		.cfi_def_cfa 2, 16
 408 002c 13010101 		addi	sp,sp,16
 409              		.cfi_def_cfa_offset 0
 410 0030 67800000 		jr	ra
 411              		.cfi_endproc
 412              	.LFE70:
GAS LISTING /tmp/ccNWNlIO.s 			page 13


 414              		.weak	_ZN19ConsumerProducerCPP8ProducerD1Ev
 415              		.set	_ZN19ConsumerProducerCPP8ProducerD1Ev,_ZN19ConsumerProducerCPP8ProducerD2Ev
 416              		.section	.text._ZN19ConsumerProducerCPP8ProducerD0Ev,"axG",@progbits,_ZN19ConsumerProducerCPP8Prod
 417              		.align	2
 418              		.weak	_ZN19ConsumerProducerCPP8ProducerD0Ev
 420              	_ZN19ConsumerProducerCPP8ProducerD0Ev:
 421              	.LFB72:
  45:src/../h/ConsumerProducer_CPP_API_test.hpp ****         thread_data *td;
 422              		.loc 2 45 11 is_stmt 1
 423              		.cfi_startproc
 424              	.LVL37:
 425 0000 130101FE 		addi	sp,sp,-32
 426              		.cfi_def_cfa_offset 32
 427 0004 233C1100 		sd	ra,24(sp)
 428 0008 23388100 		sd	s0,16(sp)
 429 000c 23349100 		sd	s1,8(sp)
 430              		.cfi_offset 1, -8
 431              		.cfi_offset 8, -16
 432              		.cfi_offset 9, -24
 433 0010 13040102 		addi	s0,sp,32
 434              		.cfi_def_cfa 8, 0
 435 0014 93040500 		mv	s1,a0
 436              	.LVL38:
 437              	.LBB71:
 438              	.LBB72:
  45:src/../h/ConsumerProducer_CPP_API_test.hpp ****         thread_data *td;
 439              		.loc 2 45 11 is_stmt 0
 440 0018 97070000 		lla	a5,_ZTVN19ConsumerProducerCPP8ProducerE+16
 440      93870700 
 441 0020 2330F500 		sd	a5,0(a0)
 442 0024 97000000 		call	_ZN6ThreadD2Ev@plt
 442      E7800000 
 443              	.LVL39:
 444              	.LBE72:
 445              	.LBE71:
 446 002c 13850400 		mv	a0,s1
 447 0030 97000000 		call	_ZdlPv@plt
 447      E7800000 
 448              	.LVL40:
 449 0038 83308101 		ld	ra,24(sp)
 450              		.cfi_restore 1
 451 003c 03340101 		ld	s0,16(sp)
 452              		.cfi_restore 8
 453              		.cfi_def_cfa 2, 32
 454 0040 83348100 		ld	s1,8(sp)
 455              		.cfi_restore 9
 456              	.LVL41:
 457 0044 13010102 		addi	sp,sp,32
 458              		.cfi_def_cfa_offset 0
 459 0048 67800000 		jr	ra
 460              		.cfi_endproc
 461              	.LFE72:
 463              		.section	.text._ZN10ForkThreadD2Ev,"axG",@progbits,_ZN10ForkThreadD5Ev,comdat
 464              		.align	2
 465              		.weak	_ZN10ForkThreadD2Ev
 467              	_ZN10ForkThreadD2Ev:
 468              	.LFB78:
GAS LISTING /tmp/ccNWNlIO.s 			page 14


 143:src/userMain.cpp **** void testLoadPageFault() {
 144:src/userMain.cpp ****     thread_t handle;
 145:src/userMain.cpp ****     thread_create(&handle, &f, nullptr);
 146:src/userMain.cpp ****     printstring("Kreirana nit, sada probam pristup.\n");
 147:src/userMain.cpp ****     uint64 sp = *(uint64*)handle;
 148:src/userMain.cpp ****     printstring("Uspeh! - ");
 149:src/userMain.cpp ****     printNum(sp);
 150:src/userMain.cpp **** }
 151:src/userMain.cpp **** #include "../h/_Thread.h"
 152:src/userMain.cpp **** void testInstructionPageFault() {
 153:src/userMain.cpp ****     _Thread::dispatch();
 154:src/userMain.cpp **** }
 155:src/userMain.cpp **** void testStorePageFault() {
 156:src/userMain.cpp ****     _Thread::running = nullptr;
 157:src/userMain.cpp **** }
 158:src/userMain.cpp **** #include "../h/ConsumerProducer_CPP_API_test.hpp" // zadatak 4. CPP API i asinhrona promena konteks
 159:src/userMain.cpp **** /*
 160:src/userMain.cpp **** void userMain() {
 161:src/userMain.cpp ****     //testBuddy();
 162:src/userMain.cpp ****     //testCache();
 163:src/userMain.cpp ****     //testCache2();
 164:src/userMain.cpp ****     //testBuffCache();
 165:src/userMain.cpp ****     //ConsumerProducerCPP::testConsumerProducer();
 166:src/userMain.cpp ****     //testLoadPageFault();
 167:src/userMain.cpp ****     //testInstructionPageFault();
 168:src/userMain.cpp ****     //testStorePageFault();
 169:src/userMain.cpp **** }*/
 170:src/userMain.cpp **** 
 171:src/userMain.cpp **** /*
 172:src/userMain.cpp **** #define RUN_NUM (5)
 173:src/userMain.cpp **** #define ITERATIONS (1000)
 174:src/userMain.cpp **** 
 175:src/userMain.cpp **** #define shared_size (8)
 176:src/userMain.cpp **** #define MASK (0xA5)
 177:src/userMain.cpp **** 
 178:src/userMain.cpp **** struct data_s {
 179:src/userMain.cpp ****     int id;
 180:src/userMain.cpp ****     kmem_cache_t  *shared;
 181:src/userMain.cpp ****     int iterations;
 182:src/userMain.cpp **** };
 183:src/userMain.cpp **** 
 184:src/userMain.cpp **** const char * const CACHE_NAMES[] = {"tc_0",
 185:src/userMain.cpp ****                                     "tc_1",
 186:src/userMain.cpp ****                                     "tc_2",
 187:src/userMain.cpp ****                                     "tc_3",
 188:src/userMain.cpp ****                                     "tc_4"};
 189:src/userMain.cpp **** 
 190:src/userMain.cpp **** void memset(const void *data, int size, int value) {
 191:src/userMain.cpp ****     for (int j = 0; j < size; j++) {
 192:src/userMain.cpp ****         ((char *)data)[j] = value;
 193:src/userMain.cpp ****     }
 194:src/userMain.cpp **** }
 195:src/userMain.cpp **** 
 196:src/userMain.cpp **** void construct(void *data) {
 197:src/userMain.cpp ****     static int i = 1;
 198:src/userMain.cpp ****     printNum(i++); printstring(" Shared object constructed.\n");
 199:src/userMain.cpp ****     memset(data, shared_size, MASK);
GAS LISTING /tmp/ccNWNlIO.s 			page 15


 200:src/userMain.cpp **** }
 201:src/userMain.cpp **** 
 202:src/userMain.cpp **** int check(void *data, size_t size) {
 203:src/userMain.cpp ****     int ret = 1;
 204:src/userMain.cpp ****     for (size_t i = 0; i < size; i++) {
 205:src/userMain.cpp ****         if (((unsigned char *)data)[i] != MASK) {
 206:src/userMain.cpp ****             ret = 0;
 207:src/userMain.cpp ****         }
 208:src/userMain.cpp ****     }
 209:src/userMain.cpp **** 
 210:src/userMain.cpp ****     return ret;
 211:src/userMain.cpp **** }
 212:src/userMain.cpp **** 
 213:src/userMain.cpp **** struct objects_s {
 214:src/userMain.cpp ****     kmem_cache_t *cache;
 215:src/userMain.cpp ****     void *data;
 216:src/userMain.cpp **** };
 217:src/userMain.cpp **** 
 218:src/userMain.cpp **** void work(void* pdata) {
 219:src/userMain.cpp ****     struct data_s data = *(struct data_s*) pdata;
 220:src/userMain.cpp ****     int size = 0;
 221:src/userMain.cpp ****     int object_size = data.id + 8;
 222:src/userMain.cpp ****     kmem_cache_t *cache = kmem_cache_create(CACHE_NAMES[data.id], object_size, 0, 0);
 223:src/userMain.cpp **** 
 224:src/userMain.cpp ****     struct objects_s *objs = (struct objects_s*)(kmalloc(sizeof(struct objects_s) * data.iterations
 225:src/userMain.cpp **** 
 226:src/userMain.cpp ****     for (int i = 0; i < data.iterations; i++) {
 227:src/userMain.cpp ****         if (i % 100 == 0) {
 228:src/userMain.cpp ****             objs[size].data = kmem_cache_alloc(data.shared);
 229:src/userMain.cpp ****             objs[size].cache = data.shared;
 230:src/userMain.cpp ****             if (!check(objs[size].data, shared_size)) {
 231:src/userMain.cpp ****                 printstring("Value not correct!");
 232:src/userMain.cpp ****             }
 233:src/userMain.cpp ****         }
 234:src/userMain.cpp ****         else {
 235:src/userMain.cpp ****             objs[size].data = kmem_cache_alloc(cache);
 236:src/userMain.cpp ****             objs[size].cache = cache;
 237:src/userMain.cpp ****             memset(objs[size].data, object_size, MASK);
 238:src/userMain.cpp ****         }
 239:src/userMain.cpp ****         size++;
 240:src/userMain.cpp ****     }
 241:src/userMain.cpp **** 
 242:src/userMain.cpp ****     kmem_cache_info(cache);
 243:src/userMain.cpp ****     kmem_cache_info(data.shared);
 244:src/userMain.cpp **** 
 245:src/userMain.cpp ****     for (int i = 0; i < size; i++) {
 246:src/userMain.cpp ****         if (!check(objs[i].data, (cache == objs[i].cache) ? object_size : shared_size)) {
 247:src/userMain.cpp ****             printstring("Value not correct!");
 248:src/userMain.cpp ****         }
 249:src/userMain.cpp ****         kmem_cache_free(objs[i].cache, objs[i].data);
 250:src/userMain.cpp ****     }
 251:src/userMain.cpp **** 
 252:src/userMain.cpp ****     kfree(objs);
 253:src/userMain.cpp ****     kmem_cache_destroy(cache);
 254:src/userMain.cpp **** }
 255:src/userMain.cpp **** 
 256:src/userMain.cpp **** 
GAS LISTING /tmp/ccNWNlIO.s 			page 16


 257:src/userMain.cpp **** 
 258:src/userMain.cpp **** void runs(void(*work)(void*), struct data_s* data, int num) {
 259:src/userMain.cpp ****     for (int i = 0; i < num; i++) {
 260:src/userMain.cpp ****         struct data_s private_data;
 261:src/userMain.cpp ****         private_data = *(struct data_s*) data;
 262:src/userMain.cpp ****         private_data.id = i;
 263:src/userMain.cpp ****         work(&private_data);
 264:src/userMain.cpp ****     }
 265:src/userMain.cpp **** }
 266:src/userMain.cpp **** 
 267:src/userMain.cpp **** void userMain() {
 268:src/userMain.cpp ****     kmem_cache_t *shared = kmem_cache_create("shared object", shared_size, construct, nullptr);
 269:src/userMain.cpp **** 
 270:src/userMain.cpp ****     struct data_s data;
 271:src/userMain.cpp ****     data.shared = shared;
 272:src/userMain.cpp ****     data.iterations = ITERATIONS;
 273:src/userMain.cpp ****     runs(work, &data, RUN_NUM);
 274:src/userMain.cpp **** 
 275:src/userMain.cpp ****     kmem_cache_destroy(shared);
 276:src/userMain.cpp **** }
 277:src/userMain.cpp **** */
 278:src/userMain.cpp **** 
 279:src/userMain.cpp **** struct thread_data {
 280:src/userMain.cpp ****     int id;
 281:src/userMain.cpp **** };
 282:src/userMain.cpp **** 
 283:src/userMain.cpp **** class ForkThread : public Thread {
 469              		.loc 1 283 7 is_stmt 1
 470              		.cfi_startproc
 471              	.LVL42:
 472 0000 130101FF 		addi	sp,sp,-16
 473              		.cfi_def_cfa_offset 16
 474 0004 23341100 		sd	ra,8(sp)
 475 0008 23308100 		sd	s0,0(sp)
 476              		.cfi_offset 1, -8
 477              		.cfi_offset 8, -16
 478 000c 13040101 		addi	s0,sp,16
 479              		.cfi_def_cfa 8, 0
 480              	.LBB73:
 481              		.loc 1 283 7 is_stmt 0
 482 0010 97070000 		lla	a5,_ZTV10ForkThread+16
 482      93870700 
 483 0018 2330F500 		sd	a5,0(a0)
 484 001c 97000000 		call	_ZN6ThreadD2Ev@plt
 484      E7800000 
 485              	.LVL43:
 486              	.LBE73:
 487 0024 83308100 		ld	ra,8(sp)
 488              		.cfi_restore 1
 489 0028 03340100 		ld	s0,0(sp)
 490              		.cfi_restore 8
 491              		.cfi_def_cfa 2, 16
 492 002c 13010101 		addi	sp,sp,16
 493              		.cfi_def_cfa_offset 0
 494 0030 67800000 		jr	ra
 495              		.cfi_endproc
 496              	.LFE78:
GAS LISTING /tmp/ccNWNlIO.s 			page 17


 498              		.weak	_ZN10ForkThreadD1Ev
 499              		.set	_ZN10ForkThreadD1Ev,_ZN10ForkThreadD2Ev
 500              		.section	.text._ZN10ForkThreadD0Ev,"axG",@progbits,_ZN10ForkThreadD5Ev,comdat
 501              		.align	2
 502              		.weak	_ZN10ForkThreadD0Ev
 504              	_ZN10ForkThreadD0Ev:
 505              	.LFB80:
 506              		.loc 1 283 7 is_stmt 1
 507              		.cfi_startproc
 508              	.LVL44:
 509 0000 130101FE 		addi	sp,sp,-32
 510              		.cfi_def_cfa_offset 32
 511 0004 233C1100 		sd	ra,24(sp)
 512 0008 23388100 		sd	s0,16(sp)
 513 000c 23349100 		sd	s1,8(sp)
 514              		.cfi_offset 1, -8
 515              		.cfi_offset 8, -16
 516              		.cfi_offset 9, -24
 517 0010 13040102 		addi	s0,sp,32
 518              		.cfi_def_cfa 8, 0
 519 0014 93040500 		mv	s1,a0
 520              	.LVL45:
 521              	.LBB74:
 522              	.LBB75:
 523              		.loc 1 283 7 is_stmt 0
 524 0018 97070000 		lla	a5,_ZTV10ForkThread+16
 524      93870700 
 525 0020 2330F500 		sd	a5,0(a0)
 526 0024 97000000 		call	_ZN6ThreadD2Ev@plt
 526      E7800000 
 527              	.LVL46:
 528              	.LBE75:
 529              	.LBE74:
 530 002c 13850400 		mv	a0,s1
 531 0030 97000000 		call	_ZdlPv@plt
 531      E7800000 
 532              	.LVL47:
 533 0038 83308101 		ld	ra,24(sp)
 534              		.cfi_restore 1
 535 003c 03340101 		ld	s0,16(sp)
 536              		.cfi_restore 8
 537              		.cfi_def_cfa 2, 32
 538 0040 83348100 		ld	s1,8(sp)
 539              		.cfi_restore 9
 540              	.LVL48:
 541 0044 13010102 		addi	sp,sp,32
 542              		.cfi_def_cfa_offset 0
 543 0048 67800000 		jr	ra
 544              		.cfi_endproc
 545              	.LFE80:
 547              		.section	.text._ZN19ConsumerProducerCPP16ProducerKeyborad3runEv,"axG",@progbits,_ZN19ConsumerProdu
 548              		.align	2
 549              		.weak	_ZN19ConsumerProducerCPP16ProducerKeyborad3runEv
 551              	_ZN19ConsumerProducerCPP16ProducerKeyborad3runEv:
 552              	.LFB49:
  30:src/../h/ConsumerProducer_CPP_API_test.hpp ****             int key;
 553              		.loc 2 30 14 is_stmt 1
GAS LISTING /tmp/ccNWNlIO.s 			page 18


 554              		.cfi_startproc
 555              	.LVL49:
 556 0000 130101FE 		addi	sp,sp,-32
 557              		.cfi_def_cfa_offset 32
 558 0004 233C1100 		sd	ra,24(sp)
 559 0008 23388100 		sd	s0,16(sp)
 560 000c 23349100 		sd	s1,8(sp)
 561              		.cfi_offset 1, -8
 562              		.cfi_offset 8, -16
 563              		.cfi_offset 9, -24
 564 0010 13040102 		addi	s0,sp,32
 565              		.cfi_def_cfa 8, 0
 566 0014 93040500 		mv	s1,a0
  31:src/../h/ConsumerProducer_CPP_API_test.hpp ****             int i = 0;
 567              		.loc 2 31 13
  32:src/../h/ConsumerProducer_CPP_API_test.hpp ****             while ((key = getc()) != 0x1b) {
 568              		.loc 2 32 13
 569              	.LVL50:
 570              	.L32:
  33:src/../h/ConsumerProducer_CPP_API_test.hpp ****                 td->buffer->put(key);
 571              		.loc 2 33 13
  33:src/../h/ConsumerProducer_CPP_API_test.hpp ****                 td->buffer->put(key);
 572              		.loc 2 33 35
  33:src/../h/ConsumerProducer_CPP_API_test.hpp ****                 td->buffer->put(key);
 573              		.loc 2 33 31 is_stmt 0
 574 0018 97000000 		call	_Z4getcv@plt
 574      E7800000 
 575              	.LVL51:
  33:src/../h/ConsumerProducer_CPP_API_test.hpp ****                 td->buffer->put(key);
 576              		.loc 2 33 25
 577 0020 9B050500 		sext.w	a1,a0
 578              	.LVL52:
  33:src/../h/ConsumerProducer_CPP_API_test.hpp ****                 td->buffer->put(key);
 579              		.loc 2 33 35
 580 0024 9307B001 		li	a5,27
 581 0028 638CF500 		beq	a1,a5,.L31
  34:src/../h/ConsumerProducer_CPP_API_test.hpp ****                 i++;
 582              		.loc 2 34 17 is_stmt 1
 583 002c 83B70401 		ld	a5,16(s1)
  34:src/../h/ConsumerProducer_CPP_API_test.hpp ****                 i++;
 584              		.loc 2 34 32 is_stmt 0
 585 0030 03B58700 		ld	a0,8(a5)
 586 0034 97000000 		call	_ZN9BufferCPP3putEi@plt
 586      E7800000 
 587              	.LVL53:
  35:src/../h/ConsumerProducer_CPP_API_test.hpp ****             }
 588              		.loc 2 35 17 is_stmt 1
  33:src/../h/ConsumerProducer_CPP_API_test.hpp ****                 td->buffer->put(key);
 589              		.loc 2 33 13 is_stmt 0
 590 003c 6FF0DFFD 		j	.L32
 591              	.LVL54:
 592              	.L31:
  38:src/../h/ConsumerProducer_CPP_API_test.hpp ****             td->buffer->put('!');
 593              		.loc 2 38 13 is_stmt 1
  38:src/../h/ConsumerProducer_CPP_API_test.hpp ****             td->buffer->put('!');
 594              		.loc 2 38 23 is_stmt 0
 595 0040 93071000 		li	a5,1
GAS LISTING /tmp/ccNWNlIO.s 			page 19


 596 0044 17070000 		sw	a5,.LANCHOR0,a4
 596      2320F700 
  39:src/../h/ConsumerProducer_CPP_API_test.hpp **** 
 597              		.loc 2 39 13 is_stmt 1
 598 004c 83B70401 		ld	a5,16(s1)
  39:src/../h/ConsumerProducer_CPP_API_test.hpp **** 
 599              		.loc 2 39 28 is_stmt 0
 600 0050 93051002 		li	a1,33
 601              	.LVL55:
 602 0054 03B58700 		ld	a0,8(a5)
 603              	.LVL56:
 604 0058 97000000 		call	_ZN9BufferCPP3putEi@plt
 604      E7800000 
 605              	.LVL57:
  41:src/../h/ConsumerProducer_CPP_API_test.hpp ****         }
 606              		.loc 2 41 13 is_stmt 1
 607 0060 83B70401 		ld	a5,16(s1)
  41:src/../h/ConsumerProducer_CPP_API_test.hpp ****         }
 608              		.loc 2 41 28 is_stmt 0
 609 0064 03B50701 		ld	a0,16(a5)
 610 0068 97000000 		call	_ZN9Semaphore6signalEv@plt
 610      E7800000 
 611              	.LVL58:
  42:src/../h/ConsumerProducer_CPP_API_test.hpp ****     };
 612              		.loc 2 42 9
 613 0070 83308101 		ld	ra,24(sp)
 614              		.cfi_restore 1
 615 0074 03340101 		ld	s0,16(sp)
 616              		.cfi_restore 8
 617              		.cfi_def_cfa 2, 32
 618 0078 83348100 		ld	s1,8(sp)
 619              		.cfi_restore 9
 620              	.LVL59:
 621 007c 13010102 		addi	sp,sp,32
 622              		.cfi_def_cfa_offset 0
 623 0080 67800000 		jr	ra
 624              		.cfi_endproc
 625              	.LFE49:
 627              		.section	.text._ZN19ConsumerProducerCPP8Producer3runEv,"axG",@progbits,_ZN19ConsumerProducerCPP8Pr
 628              		.align	2
 629              		.weak	_ZN19ConsumerProducerCPP8Producer3runEv
 631              	_ZN19ConsumerProducerCPP8Producer3runEv:
 632              	.LFB53:
  50:src/../h/ConsumerProducer_CPP_API_test.hpp ****             int i = 0;
 633              		.loc 2 50 14 is_stmt 1
 634              		.cfi_startproc
 635              	.LVL60:
 636 0000 130101FE 		addi	sp,sp,-32
 637              		.cfi_def_cfa_offset 32
 638 0004 233C1100 		sd	ra,24(sp)
 639 0008 23388100 		sd	s0,16(sp)
 640 000c 23349100 		sd	s1,8(sp)
 641 0010 23302101 		sd	s2,0(sp)
 642              		.cfi_offset 1, -8
 643              		.cfi_offset 8, -16
 644              		.cfi_offset 9, -24
 645              		.cfi_offset 18, -32
GAS LISTING /tmp/ccNWNlIO.s 			page 20


 646 0014 13040102 		addi	s0,sp,32
 647              		.cfi_def_cfa 8, 0
 648 0018 93040500 		mv	s1,a0
  51:src/../h/ConsumerProducer_CPP_API_test.hpp ****             while (!threadEnd) {
 649              		.loc 2 51 13
 650              	.LVL61:
  51:src/../h/ConsumerProducer_CPP_API_test.hpp ****             while (!threadEnd) {
 651              		.loc 2 51 17 is_stmt 0
 652 001c 13090000 		li	s2,0
 653              	.LVL62:
 654              	.L36:
  52:src/../h/ConsumerProducer_CPP_API_test.hpp ****                 td->buffer->put(td->id + '0');
 655              		.loc 2 52 13 is_stmt 1
  52:src/../h/ConsumerProducer_CPP_API_test.hpp ****                 td->buffer->put(td->id + '0');
 656              		.loc 2 52 20
 657 0020 97070000 		lw	a5,.LANCHOR0
 657      83A70700 
 658 0028 63920704 		bnez	a5,.L35
  53:src/../h/ConsumerProducer_CPP_API_test.hpp ****                 i++;
 659              		.loc 2 53 17
 660 002c 83B70401 		ld	a5,16(s1)
  53:src/../h/ConsumerProducer_CPP_API_test.hpp ****                 i++;
 661              		.loc 2 53 37 is_stmt 0
 662 0030 83A50700 		lw	a1,0(a5)
  53:src/../h/ConsumerProducer_CPP_API_test.hpp ****                 i++;
 663              		.loc 2 53 32
 664 0034 9B850503 		addiw	a1,a1,48
 665 0038 03B58700 		ld	a0,8(a5)
 666 003c 97000000 		call	_ZN9BufferCPP3putEi@plt
 666      E7800000 
 667              	.LVL63:
  54:src/../h/ConsumerProducer_CPP_API_test.hpp ****                 Thread::sleep((i+td->id)%5);
 668              		.loc 2 54 17 is_stmt 1
  54:src/../h/ConsumerProducer_CPP_API_test.hpp ****                 Thread::sleep((i+td->id)%5);
 669              		.loc 2 54 18 is_stmt 0
 670 0044 1B071900 		addiw	a4,s2,1
 671 0048 1B090700 		sext.w	s2,a4
 672              	.LVL64:
  55:src/../h/ConsumerProducer_CPP_API_test.hpp ****             }
 673              		.loc 2 55 17 is_stmt 1
  55:src/../h/ConsumerProducer_CPP_API_test.hpp ****             }
 674              		.loc 2 55 34 is_stmt 0
 675 004c 83B70401 		ld	a5,16(s1)
  55:src/../h/ConsumerProducer_CPP_API_test.hpp ****             }
 676              		.loc 2 55 38
 677 0050 83A70700 		lw	a5,0(a5)
  55:src/../h/ConsumerProducer_CPP_API_test.hpp ****             }
 678              		.loc 2 55 33
 679 0054 BB87E700 		addw	a5,a5,a4
  55:src/../h/ConsumerProducer_CPP_API_test.hpp ****             }
 680              		.loc 2 55 30
 681 0058 13055000 		li	a0,5
 682 005c 3BE5A702 		remw	a0,a5,a0
 683 0060 97000000 		call	_ZN6Thread5sleepEm@plt
 683      E7800000 
 684              	.LVL65:
  52:src/../h/ConsumerProducer_CPP_API_test.hpp ****                 td->buffer->put(td->id + '0');
GAS LISTING /tmp/ccNWNlIO.s 			page 21


 685              		.loc 2 52 13
 686 0068 6FF09FFB 		j	.L36
 687              	.L35:
  58:src/../h/ConsumerProducer_CPP_API_test.hpp ****         }
 688              		.loc 2 58 13 is_stmt 1
 689 006c 83B70401 		ld	a5,16(s1)
  58:src/../h/ConsumerProducer_CPP_API_test.hpp ****         }
 690              		.loc 2 58 28 is_stmt 0
 691 0070 03B50701 		ld	a0,16(a5)
 692 0074 97000000 		call	_ZN9Semaphore6signalEv@plt
 692      E7800000 
 693              	.LVL66:
  59:src/../h/ConsumerProducer_CPP_API_test.hpp ****     };
 694              		.loc 2 59 9
 695 007c 83308101 		ld	ra,24(sp)
 696              		.cfi_restore 1
 697 0080 03340101 		ld	s0,16(sp)
 698              		.cfi_restore 8
 699              		.cfi_def_cfa 2, 32
 700 0084 83348100 		ld	s1,8(sp)
 701              		.cfi_restore 9
 702              	.LVL67:
 703 0088 03390100 		ld	s2,0(sp)
 704              		.cfi_restore 18
 705              	.LVL68:
 706 008c 13010102 		addi	sp,sp,32
 707              		.cfi_def_cfa_offset 0
 708 0090 67800000 		jr	ra
 709              		.cfi_endproc
 710              	.LFE53:
 712              		.text
 713              		.align	2
 714              		.globl	_Z11printstringPKc
 716              	_Z11printstringPKc:
 717              	.LFB28:
   6:src/userMain.cpp ****     while (*s) putc(*s++);
 718              		.loc 1 6 33 is_stmt 1
 719              		.cfi_startproc
 720              	.LVL69:
 721 0060 130101FE 		addi	sp,sp,-32
 722              		.cfi_def_cfa_offset 32
 723 0064 233C1100 		sd	ra,24(sp)
 724 0068 23388100 		sd	s0,16(sp)
 725 006c 23349100 		sd	s1,8(sp)
 726              		.cfi_offset 1, -8
 727              		.cfi_offset 8, -16
 728              		.cfi_offset 9, -24
 729 0070 13040102 		addi	s0,sp,32
 730              		.cfi_def_cfa 8, 0
 731 0074 93040500 		mv	s1,a0
 732              	.LVL70:
 733              	.L40:
   7:src/userMain.cpp **** }
 734              		.loc 1 7 5 discriminator 2
   7:src/userMain.cpp **** }
 735              		.loc 1 7 13 discriminator 2
   7:src/userMain.cpp **** }
GAS LISTING /tmp/ccNWNlIO.s 			page 22


 736              		.loc 1 7 12 is_stmt 0 discriminator 2
 737 0078 03C50400 		lbu	a0,0(s1)
   7:src/userMain.cpp **** }
 738              		.loc 1 7 13 discriminator 2
 739 007c 630A0500 		beqz	a0,.L38
   7:src/userMain.cpp **** }
 740              		.loc 1 7 16 is_stmt 1 discriminator 1
   7:src/userMain.cpp **** }
 741              		.loc 1 7 23 is_stmt 0 discriminator 1
 742 0080 93841400 		addi	s1,s1,1
 743              	.LVL71:
   7:src/userMain.cpp **** }
 744              		.loc 1 7 20 discriminator 1
 745 0084 97000000 		call	_Z4putcc@plt
 745      E7800000 
 746              	.LVL72:
   7:src/userMain.cpp **** }
 747              		.loc 1 7 5 discriminator 1
 748 008c 6FF0DFFE 		j	.L40
 749              	.L38:
   8:src/userMain.cpp **** void printNum(uint64 x) {
 750              		.loc 1 8 1
 751 0090 83308101 		ld	ra,24(sp)
 752              		.cfi_restore 1
 753 0094 03340101 		ld	s0,16(sp)
 754              		.cfi_restore 8
 755              		.cfi_def_cfa 2, 32
 756 0098 83348100 		ld	s1,8(sp)
 757              		.cfi_restore 9
 758              	.LVL73:
 759 009c 13010102 		addi	sp,sp,32
 760              		.cfi_def_cfa_offset 0
 761 00a0 67800000 		jr	ra
 762              		.cfi_endproc
 763              	.LFE28:
 765              		.align	2
 766              		.globl	_Z8printNumm
 768              	_Z8printNumm:
 769              	.LFB29:
   9:src/userMain.cpp ****     char buff[30];
 770              		.loc 1 9 25 is_stmt 1
 771              		.cfi_startproc
 772              	.LVL74:
 773 00a4 130101FB 		addi	sp,sp,-80
 774              		.cfi_def_cfa_offset 80
 775 00a8 23341104 		sd	ra,72(sp)
 776 00ac 23308104 		sd	s0,64(sp)
 777              		.cfi_offset 1, -8
 778              		.cfi_offset 8, -16
 779 00b0 13040105 		addi	s0,sp,80
 780              		.cfi_def_cfa 8, 0
  10:src/userMain.cpp ****     int i = 0;
 781              		.loc 1 10 5
  11:src/userMain.cpp ****     while (x) {
 782              		.loc 1 11 5
 783              	.LVL75:
  11:src/userMain.cpp ****     while (x) {
GAS LISTING /tmp/ccNWNlIO.s 			page 23


 784              		.loc 1 11 9 is_stmt 0
 785 00b4 93070000 		li	a5,0
 786              	.LVL76:
 787              	.L44:
  12:src/userMain.cpp ****         buff[i++] = '0' + x % 10;
 788              		.loc 1 12 5 is_stmt 1
  12:src/userMain.cpp ****         buff[i++] = '0' + x % 10;
 789              		.loc 1 12 12
 790 00b8 63040502 		beqz	a0,.L46
  13:src/userMain.cpp ****         x /= 10;
 791              		.loc 1 13 9
  13:src/userMain.cpp ****         x /= 10;
 792              		.loc 1 13 29 is_stmt 0
 793 00bc 9306A000 		li	a3,10
 794 00c0 3377D502 		remu	a4,a0,a3
 795              	.LVL77:
  13:src/userMain.cpp ****         x /= 10;
 796              		.loc 1 13 25
 797 00c4 13070703 		addi	a4,a4,48
  13:src/userMain.cpp ****         x /= 10;
 798              		.loc 1 13 19
 799 00c8 130604FF 		addi	a2,s0,-16
 800 00cc 3306F600 		add	a2,a2,a5
 801 00d0 2300E6FE 		sb	a4,-32(a2)
  14:src/userMain.cpp ****     }
 802              		.loc 1 14 9 is_stmt 1
  14:src/userMain.cpp ****     }
 803              		.loc 1 14 11 is_stmt 0
 804 00d4 3355D502 		divu	a0,a0,a3
 805              	.LVL78:
  13:src/userMain.cpp ****         x /= 10;
 806              		.loc 1 13 15
 807 00d8 9B871700 		addiw	a5,a5,1
 808              	.LVL79:
  12:src/userMain.cpp ****         buff[i++] = '0' + x % 10;
 809              		.loc 1 12 5
 810 00dc 6FF0DFFD 		j	.L44
 811              	.LVL80:
 812              	.L46:
  16:src/userMain.cpp ****     while (i--) {
 813              		.loc 1 16 25
 814 00e0 13070000 		li	a4,0
 815              	.LVL81:
 816              	.L43:
  17:src/userMain.cpp ****         buff2[j++] = buff[i];
 817              		.loc 1 17 5 is_stmt 1
  17:src/userMain.cpp ****         buff2[j++] = buff[i];
 818              		.loc 1 17 13
 819 00e4 9B86F7FF 		addiw	a3,a5,-1
 820              	.LVL82:
 821 00e8 63840702 		beqz	a5,.L45
  18:src/userMain.cpp ****     }
 822              		.loc 1 18 9
 823              	.LVL83:
  18:src/userMain.cpp ****     }
 824              		.loc 1 18 28 is_stmt 0
 825 00ec 930704FF 		addi	a5,s0,-16
GAS LISTING /tmp/ccNWNlIO.s 			page 24


 826              	.LVL84:
 827 00f0 B387D700 		add	a5,a5,a3
 828 00f4 03C607FE 		lbu	a2,-32(a5)
  18:src/userMain.cpp ****     }
 829              		.loc 1 18 20
 830 00f8 930704FF 		addi	a5,s0,-16
 831 00fc B387E700 		add	a5,a5,a4
 832 0100 2380C7FC 		sb	a2,-64(a5)
  18:src/userMain.cpp ****     }
 833              		.loc 1 18 16
 834 0104 1B071700 		addiw	a4,a4,1
 835              	.LVL85:
  17:src/userMain.cpp ****         buff2[j++] = buff[i];
 836              		.loc 1 17 13
 837 0108 93870600 		mv	a5,a3
  17:src/userMain.cpp ****         buff2[j++] = buff[i];
 838              		.loc 1 17 5
 839 010c 6FF09FFD 		j	.L43
 840              	.LVL86:
 841              	.L45:
  20:src/userMain.cpp ****     printstring(buff2);
 842              		.loc 1 20 5 is_stmt 1
  20:src/userMain.cpp ****     printstring(buff2);
 843              		.loc 1 20 14 is_stmt 0
 844 0110 930704FF 		addi	a5,s0,-16
 845              	.LVL87:
 846 0114 3387E700 		add	a4,a5,a4
 847              	.LVL88:
 848 0118 230007FC 		sb	zero,-64(a4)
  21:src/userMain.cpp **** };
 849              		.loc 1 21 5 is_stmt 1
  21:src/userMain.cpp **** };
 850              		.loc 1 21 16 is_stmt 0
 851 011c 130504FB 		addi	a0,s0,-80
 852              	.LVL89:
 853 0120 97000000 		call	_Z11printstringPKc
 853      E7800000 
 854              	.LVL90:
  22:src/userMain.cpp **** void line() {
 855              		.loc 1 22 1
 856 0128 83308104 		ld	ra,72(sp)
 857              		.cfi_restore 1
 858 012c 03340104 		ld	s0,64(sp)
 859              		.cfi_restore 8
 860              		.cfi_def_cfa 2, 80
 861 0130 13010105 		addi	sp,sp,80
 862              		.cfi_def_cfa_offset 0
 863 0134 67800000 		jr	ra
 864              		.cfi_endproc
 865              	.LFE29:
 867              		.section	.rodata._ZN10ForkThread3runEv.str1.8,"aMS",@progbits,1
 868              		.align	3
 869              	.LC1:
 870 0000 53746172 		.string	"Started thread id: "
 870      74656420 
 870      74687265 
 870      61642069 
GAS LISTING /tmp/ccNWNlIO.s 			page 25


 870      643A2000 
 871 0014 00000000 		.align	3
 872              	.LC2:
 873 0018 0A00     		.string	"\n"
 874 001a 00000000 		.align	3
 874      0000
 875              	.LC3:
 876 0020 46696E69 		.string	"Finished thread id: "
 876      73686564 
 876      20746872 
 876      65616420 
 876      69643A20 
 877              		.section	.text._ZN10ForkThread3runEv,"axG",@progbits,_ZN10ForkThread3runEv,comdat
 878              		.align	2
 879              		.weak	_ZN10ForkThread3runEv
 881              	_ZN10ForkThread3runEv:
 882              	.LFB62:
 284:src/userMain.cpp **** public:
 285:src/userMain.cpp ****     ForkThread(long _id) noexcept : Thread(), id(_id), finished(false) {}
 286:src/userMain.cpp ****     virtual void run() {
 883              		.loc 1 286 18 is_stmt 1
 884              		.cfi_startproc
 885              		.cfi_personality 0x9b,DW.ref.__gxx_personality_v0
 886              		.cfi_lsda 0x1b,.LLSDA62
 887              	.LVL91:
 888 0000 130101FC 		addi	sp,sp,-64
 889              		.cfi_def_cfa_offset 64
 890 0004 233C1102 		sd	ra,56(sp)
 891 0008 23388102 		sd	s0,48(sp)
 892 000c 23349102 		sd	s1,40(sp)
 893 0010 23302103 		sd	s2,32(sp)
 894 0014 233C3101 		sd	s3,24(sp)
 895 0018 23384101 		sd	s4,16(sp)
 896 001c 23345101 		sd	s5,8(sp)
 897 0020 23306101 		sd	s6,0(sp)
 898              		.cfi_offset 1, -8
 899              		.cfi_offset 8, -16
 900              		.cfi_offset 9, -24
 901              		.cfi_offset 18, -32
 902              		.cfi_offset 19, -40
 903              		.cfi_offset 20, -48
 904              		.cfi_offset 21, -56
 905              		.cfi_offset 22, -64
 906 0024 13040104 		addi	s0,sp,64
 907              		.cfi_def_cfa 8, 0
 908 0028 130A0500 		mv	s4,a0
 287:src/userMain.cpp ****         printstring("Started thread id: "); printNum(id); printstring("\n");
 909              		.loc 1 287 9
 910              		.loc 1 287 20 is_stmt 0
 911 002c 17050000 		lla	a0,.LC1
 911      13050500 
 912              	.LVL92:
 913              	.LEHB0:
 914 0034 97000000 		call	_Z11printstringPKc
 914      E7800000 
 915              	.LVL93:
 916              		.loc 1 287 45 is_stmt 1
GAS LISTING /tmp/ccNWNlIO.s 			page 26


 917              		.loc 1 287 53 is_stmt 0
 918 003c 03350A01 		ld	a0,16(s4)
 919 0040 97000000 		call	_Z8printNumm
 919      E7800000 
 920              	.LVL94:
 921              		.loc 1 287 59 is_stmt 1
 922              		.loc 1 287 70 is_stmt 0
 923 0048 17050000 		lla	a0,.LC2
 923      13050500 
 924 0050 97000000 		call	_Z11printstringPKc
 924      E7800000 
 925              	.LVL95:
 288:src/userMain.cpp **** 
 289:src/userMain.cpp ****         ForkThread* thread = new ForkThread(id + 1);
 926              		.loc 1 289 9 is_stmt 1
 927              		.loc 1 289 51 is_stmt 0
 928 0058 13050002 		li	a0,32
 929 005c 97000000 		call	_Znwm@plt
 929      E7800000 
 930              	.LVL96:
 931              	.LEHE0:
 932 0064 93090500 		mv	s3,a0
 933 0068 63040502 		beqz	a0,.L49
 934              		.loc 1 289 45 discriminator 1
 935 006c 83340A01 		ld	s1,16(s4)
 936              		.loc 1 289 51 discriminator 1
 937 0070 93841400 		addi	s1,s1,1
 938              	.LVL97:
 939              	.LBB76:
 940              	.LBB77:
 285:src/userMain.cpp ****     virtual void run() {
 941              		.loc 1 285 70 discriminator 1
 942 0074 97000000 		call	_ZN6ThreadC2Ev@plt
 942      E7800000 
 943              	.LVL98:
 944 007c 97070000 		lla	a5,_ZTV10ForkThread+16
 944      93870700 
 945 0084 23B0F900 		sd	a5,0(s3)
 946 0088 23B89900 		sd	s1,16(s3)
 947 008c 238C0900 		sb	zero,24(s3)
 948              	.LVL99:
 949              	.L49:
 950              	.LBE77:
 951              	.LBE76:
 290:src/userMain.cpp ****         ForkThread** threads = (ForkThread** ) mem_alloc(sizeof(ForkThread*) * id);
 952              		.loc 1 290 9 is_stmt 1 discriminator 4
 953              		.loc 1 290 80 is_stmt 0 discriminator 4
 954 0090 03350A01 		ld	a0,16(s4)
 955              		.loc 1 290 57 discriminator 4
 956 0094 13153500 		slli	a0,a0,3
 957              	.LEHB1:
 958 0098 97000000 		call	_Z9mem_allocm@plt
 958      E7800000 
 959              	.LVL100:
 960 00a0 930A0500 		mv	s5,a0
 961              	.LVL101:
 291:src/userMain.cpp **** 
GAS LISTING /tmp/ccNWNlIO.s 			page 27


 292:src/userMain.cpp ****         if (threads != nullptr) {
 962              		.loc 1 292 9 is_stmt 1 discriminator 4
 963              	.LBB78:
 964 00a4 63080510 		beqz	a0,.L50
 965              	.LBB79:
 966              	.LBB80:
 293:src/userMain.cpp ****             for (long i = 0; i < id; i++) {
 967              		.loc 1 293 23 is_stmt 0
 968 00a8 13090000 		li	s2,0
 969 00ac 6F004001 		j	.L53
 970              	.LVL102:
 971              	.L52:
 294:src/userMain.cpp ****                 threads[i] = new ForkThread(id);
 972              		.loc 1 294 26 discriminator 4
 973 00b0 93173900 		slli	a5,s2,3
 974 00b4 B387FA00 		add	a5,s5,a5
 975              		.loc 1 294 28 discriminator 4
 976 00b8 23B09700 		sd	s1,0(a5)
 293:src/userMain.cpp ****             for (long i = 0; i < id; i++) {
 977              		.loc 1 293 13 is_stmt 1 discriminator 4
 978 00bc 13091900 		addi	s2,s2,1
 979              	.LVL103:
 980              	.L53:
 293:src/userMain.cpp ****             for (long i = 0; i < id; i++) {
 981              		.loc 1 293 32 discriminator 2
 293:src/userMain.cpp ****             for (long i = 0; i < id; i++) {
 982              		.loc 1 293 34 is_stmt 0 discriminator 2
 983 00c0 83370A01 		ld	a5,16(s4)
 293:src/userMain.cpp ****             for (long i = 0; i < id; i++) {
 984              		.loc 1 293 32 discriminator 2
 985 00c4 635EF902 		ble	a5,s2,.L51
 986              		.loc 1 294 17 is_stmt 1
 987              		.loc 1 294 47 is_stmt 0
 988 00c8 13050002 		li	a0,32
 989 00cc 97000000 		call	_Znwm@plt
 989      E7800000 
 990              	.LVL104:
 991              	.LEHE1:
 992 00d4 93040500 		mv	s1,a0
 993 00d8 E30C05FC 		beqz	a0,.L52
 994              		.loc 1 294 47 discriminator 1
 995 00dc 033B0A01 		ld	s6,16(s4)
 996              	.LVL105:
 997              	.LBB81:
 998              	.LBB82:
 285:src/userMain.cpp ****     virtual void run() {
 999              		.loc 1 285 70 discriminator 1
 1000 00e0 97000000 		call	_ZN6ThreadC2Ev@plt
 1000      E7800000 
 1001              	.LVL106:
 1002 00e8 97070000 		lla	a5,_ZTV10ForkThread+16
 1002      93870700 
 1003 00f0 23B0F400 		sd	a5,0(s1)
 1004 00f4 23B86401 		sd	s6,16(s1)
 1005 00f8 238C0400 		sb	zero,24(s1)
 1006              	.LVL107:
 1007              	.LBE82:
GAS LISTING /tmp/ccNWNlIO.s 			page 28


 1008              	.LBE81:
 1009 00fc 6FF05FFB 		j	.L52
 1010              	.L51:
 1011              	.LBE80:
 295:src/userMain.cpp ****             }
 296:src/userMain.cpp **** 
 297:src/userMain.cpp ****             if (thread != nullptr) {
 1012              		.loc 1 297 13 is_stmt 1
 1013              	.LBB83:
 1014 0100 638A0906 		beqz	s3,.L54
 1015              	.LBB84:
 298:src/userMain.cpp ****                 if (thread->start() == 0) {
 1016              		.loc 1 298 17
 1017              	.LBB85:
 1018              		.loc 1 298 34 is_stmt 0
 1019 0104 13850900 		mv	a0,s3
 1020              	.LEHB2:
 1021 0108 97000000 		call	_ZN6Thread5startEv@plt
 1021      E7800000 
 1022              	.LVL108:
 1023 0110 13090500 		mv	s2,a0
 1024              	.LVL109:
 1025              		.loc 1 298 17
 1026 0114 63180504 		bnez	a0,.L55
 1027              	.LBB86:
 1028              	.LBB87:
 299:src/userMain.cpp **** 
 300:src/userMain.cpp ****                     for (int i = 0; i < 5000; i++) {
 1029              		.loc 1 300 30
 1030 0118 93040500 		mv	s1,a0
 1031 011c 6F000001 		j	.L59
 1032              	.LVL110:
 1033              	.L57:
 1034              	.LBB88:
 301:src/userMain.cpp ****                         for (int j = 0; j < 5000; j++) {
 302:src/userMain.cpp **** 
 303:src/userMain.cpp ****                         }
 304:src/userMain.cpp ****                         thread_dispatch();
 1035              		.loc 1 304 25 is_stmt 1 discriminator 2
 1036              		.loc 1 304 40 is_stmt 0 discriminator 2
 1037 0120 97000000 		call	_Z15thread_dispatchv@plt
 1037      E7800000 
 1038              	.LVL111:
 1039              	.LBE88:
 300:src/userMain.cpp ****                         for (int j = 0; j < 5000; j++) {
 1040              		.loc 1 300 21 is_stmt 1 discriminator 2
 1041 0128 9B841400 		addiw	s1,s1,1
 1042              	.LVL112:
 1043              	.L59:
 300:src/userMain.cpp ****                         for (int j = 0; j < 5000; j++) {
 1044              		.loc 1 300 39 discriminator 1
 1045 012c B7170000 		li	a5,4096
 1046 0130 93877738 		addi	a5,a5,903
 1047 0134 63CE9700 		bgt	s1,a5,.L56
 1048              	.LBB91:
 1049              	.LBB89:
 301:src/userMain.cpp ****                         for (int j = 0; j < 5000; j++) {
GAS LISTING /tmp/ccNWNlIO.s 			page 29


 1050              		.loc 1 301 34 is_stmt 0
 1051 0138 13070900 		mv	a4,s2
 1052              	.L58:
 1053              	.LVL113:
 301:src/userMain.cpp ****                         for (int j = 0; j < 5000; j++) {
 1054              		.loc 1 301 43 is_stmt 1 discriminator 3
 1055 013c B7170000 		li	a5,4096
 1056 0140 93877738 		addi	a5,a5,903
 1057 0144 E3CEE7FC 		bgt	a4,a5,.L57
 301:src/userMain.cpp ****                         for (int j = 0; j < 5000; j++) {
 1058              		.loc 1 301 25 discriminator 2
 1059 0148 1B071700 		addiw	a4,a4,1
 1060              	.LVL114:
 1061 014c 6FF01FFF 		j	.L58
 1062              	.L56:
 1063              	.LBE89:
 1064              	.LBE91:
 1065              	.LBE87:
 305:src/userMain.cpp ****                     }
 306:src/userMain.cpp **** 
 307:src/userMain.cpp ****                     while (!thread->isFinished()) {
 1066              		.loc 1 307 21
 1067              		.loc 1 307 28
 1068              	.LVL115:
 1069              	.LBB93:
 1070              	.LBB94:
 308:src/userMain.cpp ****                         thread_dispatch();
 309:src/userMain.cpp ****                     }
 310:src/userMain.cpp ****                 }
 311:src/userMain.cpp ****                 delete thread;
 312:src/userMain.cpp ****             }
 313:src/userMain.cpp **** 
 314:src/userMain.cpp ****             for (long i = 0; i < id; i++) {
 315:src/userMain.cpp ****                 if (threads[i]) delete threads[i];
 316:src/userMain.cpp ****             }
 317:src/userMain.cpp **** 
 318:src/userMain.cpp ****             mem_free(threads);
 319:src/userMain.cpp ****         }
 320:src/userMain.cpp **** 
 321:src/userMain.cpp ****         printstring("Finished thread id: "); printNum(id); printstring("\n");
 322:src/userMain.cpp **** 
 323:src/userMain.cpp ****         finished = true;
 324:src/userMain.cpp ****     }
 325:src/userMain.cpp **** 
 326:src/userMain.cpp ****     bool isFinished() const {
 327:src/userMain.cpp ****         return finished;
 1071              		.loc 1 327 9
 1072              		.loc 1 327 16 is_stmt 0
 1073 0150 83C78901 		lbu	a5,24(s3)
 1074              	.LVL116:
 1075              	.LBE94:
 1076              	.LBE93:
 307:src/userMain.cpp ****                         thread_dispatch();
 1077              		.loc 1 307 28
 1078 0154 63980700 		bnez	a5,.L55
 308:src/userMain.cpp ****                         thread_dispatch();
 1079              		.loc 1 308 25 is_stmt 1
GAS LISTING /tmp/ccNWNlIO.s 			page 30


 308:src/userMain.cpp ****                         thread_dispatch();
 1080              		.loc 1 308 40 is_stmt 0
 1081 0158 97000000 		call	_Z15thread_dispatchv@plt
 1081      E7800000 
 1082              	.LVL117:
 307:src/userMain.cpp ****                         thread_dispatch();
 1083              		.loc 1 307 21
 1084 0160 6FF01FFF 		j	.L56
 1085              	.LVL118:
 1086              	.L55:
 1087              	.LBE86:
 1088              	.LBE85:
 311:src/userMain.cpp ****             }
 1089              		.loc 1 311 17 is_stmt 1
 311:src/userMain.cpp ****             }
 1090              		.loc 1 311 24 is_stmt 0
 1091 0164 83B70900 		ld	a5,0(s3)
 1092 0168 83B78700 		ld	a5,8(a5)
 1093 016c 13850900 		mv	a0,s3
 1094 0170 E7800700 		jalr	a5
 1095              	.LVL119:
 1096              	.L54:
 1097              	.LBB97:
 1098              	.LBB96:
 1099              	.LBB95:
 1100              	.LBB92:
 1101              	.LBB90:
 301:src/userMain.cpp **** 
 1102              		.loc 1 301 34 discriminator 1
 1103 0174 93040000 		li	s1,0
 1104 0178 6F008000 		j	.L62
 1105              	.LVL120:
 1106              	.L61:
 1107              	.LBE90:
 1108              	.LBE92:
 1109              	.LBE95:
 1110              	.LBE96:
 1111              	.LBE97:
 1112              	.LBE84:
 1113              	.LBE83:
 1114              	.LBB98:
 314:src/userMain.cpp ****                 if (threads[i]) delete threads[i];
 1115              		.loc 1 314 13 is_stmt 1 discriminator 2
 1116 017c 93841400 		addi	s1,s1,1
 1117              	.LVL121:
 1118              	.L62:
 314:src/userMain.cpp ****                 if (threads[i]) delete threads[i];
 1119              		.loc 1 314 32 discriminator 1
 314:src/userMain.cpp ****                 if (threads[i]) delete threads[i];
 1120              		.loc 1 314 34 is_stmt 0 discriminator 1
 1121 0180 83370A01 		ld	a5,16(s4)
 314:src/userMain.cpp ****                 if (threads[i]) delete threads[i];
 1122              		.loc 1 314 32 discriminator 1
 1123 0184 63D2F402 		ble	a5,s1,.L60
 315:src/userMain.cpp ****             }
 1124              		.loc 1 315 17 is_stmt 1
 315:src/userMain.cpp ****             }
GAS LISTING /tmp/ccNWNlIO.s 			page 31


 1125              		.loc 1 315 30 is_stmt 0
 1126 0188 93973400 		slli	a5,s1,3
 1127 018c B387FA00 		add	a5,s5,a5
 1128 0190 03B50700 		ld	a0,0(a5)
 315:src/userMain.cpp ****             }
 1129              		.loc 1 315 17
 1130 0194 E30405FE 		beqz	a0,.L61
 315:src/userMain.cpp ****             }
 1131              		.loc 1 315 33 is_stmt 1 discriminator 2
 315:src/userMain.cpp ****             }
 1132              		.loc 1 315 49 is_stmt 0 discriminator 2
 1133 0198 83370500 		ld	a5,0(a0)
 1134 019c 83B78700 		ld	a5,8(a5)
 1135 01a0 E7800700 		jalr	a5
 1136              	.LVL122:
 1137 01a4 6FF09FFD 		j	.L61
 1138              	.L60:
 1139              	.LBE98:
 318:src/userMain.cpp ****         }
 1140              		.loc 1 318 13 is_stmt 1
 318:src/userMain.cpp ****         }
 1141              		.loc 1 318 21 is_stmt 0
 1142 01a8 13850A00 		mv	a0,s5
 1143 01ac 97000000 		call	_Z8mem_freePv@plt
 1143      E7800000 
 1144              	.LVL123:
 1145              	.L50:
 1146              	.LBE79:
 1147              	.LBE78:
 321:src/userMain.cpp **** 
 1148              		.loc 1 321 9 is_stmt 1
 321:src/userMain.cpp **** 
 1149              		.loc 1 321 20 is_stmt 0
 1150 01b4 17050000 		lla	a0,.LC3
 1150      13050500 
 1151 01bc 97000000 		call	_Z11printstringPKc
 1151      E7800000 
 1152              	.LVL124:
 321:src/userMain.cpp **** 
 1153              		.loc 1 321 46 is_stmt 1
 321:src/userMain.cpp **** 
 1154              		.loc 1 321 54 is_stmt 0
 1155 01c4 03350A01 		ld	a0,16(s4)
 1156 01c8 97000000 		call	_Z8printNumm
 1156      E7800000 
 1157              	.LVL125:
 321:src/userMain.cpp **** 
 1158              		.loc 1 321 60 is_stmt 1
 321:src/userMain.cpp **** 
 1159              		.loc 1 321 71 is_stmt 0
 1160 01d0 17050000 		lla	a0,.LC2
 1160      13050500 
 1161 01d8 97000000 		call	_Z11printstringPKc
 1161      E7800000 
 1162              	.LVL126:
 1163              	.LEHE2:
 323:src/userMain.cpp ****     }
GAS LISTING /tmp/ccNWNlIO.s 			page 32


 1164              		.loc 1 323 9 is_stmt 1
 323:src/userMain.cpp ****     }
 1165              		.loc 1 323 18 is_stmt 0
 1166 01e0 93071000 		li	a5,1
 1167 01e4 230CFA00 		sb	a5,24(s4)
 324:src/userMain.cpp **** 
 1168              		.loc 1 324 5
 1169 01e8 83308103 		ld	ra,56(sp)
 1170              		.cfi_restore 1
 1171 01ec 03340103 		ld	s0,48(sp)
 1172              		.cfi_restore 8
 1173              		.cfi_def_cfa 2, 64
 1174 01f0 83348102 		ld	s1,40(sp)
 1175              		.cfi_restore 9
 1176 01f4 03390102 		ld	s2,32(sp)
 1177              		.cfi_restore 18
 1178 01f8 83398101 		ld	s3,24(sp)
 1179              		.cfi_restore 19
 1180              	.LVL127:
 1181 01fc 033A0101 		ld	s4,16(sp)
 1182              		.cfi_restore 20
 1183              	.LVL128:
 1184 0200 833A8100 		ld	s5,8(sp)
 1185              		.cfi_restore 21
 1186              	.LVL129:
 1187 0204 033B0100 		ld	s6,0(sp)
 1188              		.cfi_restore 22
 1189 0208 13010104 		addi	sp,sp,64
 1190              		.cfi_def_cfa_offset 0
 1191 020c 67800000 		jr	ra
 1192              		.cfi_endproc
 1193              	.LFE62:
 1194              		.globl	__gxx_personality_v0
 1195              		.section	.gcc_except_table._ZN10ForkThread3runEv,"aG",@progbits,_ZN10ForkThread3runEv,comdat
 1196              	.LLSDA62:
 1197 0000 FF       		.byte	0xff
 1198 0001 FF       		.byte	0xff
 1199 0002 03       		.byte	0x3
 1200 0003 27       		.byte	0x27
 1201 0004 00000000 		.4byte	.LEHB0-.LFB62
 1202 0008 00000000 		.4byte	.LEHE0-.LEHB0
 1203 000c 00000000 		.4byte	0
 1204 0010 00       		.byte	0
 1205 0011 00000000 		.4byte	.LEHB1-.LFB62
 1206 0015 00000000 		.4byte	.LEHE1-.LEHB1
 1207 0019 00000000 		.4byte	0
 1208 001d 00       		.byte	0
 1209 001e 00000000 		.4byte	.LEHB2-.LFB62
 1210 0022 00000000 		.4byte	.LEHE2-.LEHB2
 1211 0026 00000000 		.4byte	0
 1212 002a 00       		.byte	0
 1213              		.section	.text._ZN10ForkThread3runEv,"axG",@progbits,_ZN10ForkThread3runEv,comdat
 1215              		.section	.rodata.str1.8
 1216 000b 00000000 		.align	3
 1216      00
 1217              	.LC4:
 1218 0010 2D2D2D2D 		.string	"----------------------------------------\n"
GAS LISTING /tmp/ccNWNlIO.s 			page 33


 1218      2D2D2D2D 
 1218      2D2D2D2D 
 1218      2D2D2D2D 
 1218      2D2D2D2D 
 1219              		.text
 1220              		.align	2
 1221              		.globl	_Z4linev
 1223              	_Z4linev:
 1224              	.LFB30:
  23:src/userMain.cpp ****     printstring("----------------------------------------\n");
 1225              		.loc 1 23 13 is_stmt 1
 1226              		.cfi_startproc
 1227 0138 130101FF 		addi	sp,sp,-16
 1228              		.cfi_def_cfa_offset 16
 1229 013c 23341100 		sd	ra,8(sp)
 1230 0140 23308100 		sd	s0,0(sp)
 1231              		.cfi_offset 1, -8
 1232              		.cfi_offset 8, -16
 1233 0144 13040101 		addi	s0,sp,16
 1234              		.cfi_def_cfa 8, 0
  24:src/userMain.cpp **** }
 1235              		.loc 1 24 5
  24:src/userMain.cpp **** }
 1236              		.loc 1 24 16 is_stmt 0
 1237 0148 17050000 		lla	a0,.LC4
 1237      13050500 
 1238 0150 97000000 		call	_Z11printstringPKc
 1238      E7800000 
 1239              	.LVL130:
  25:src/userMain.cpp **** 
 1240              		.loc 1 25 1
 1241 0158 83308100 		ld	ra,8(sp)
 1242              		.cfi_restore 1
 1243 015c 03340100 		ld	s0,0(sp)
 1244              		.cfi_restore 8
 1245              		.cfi_def_cfa 2, 16
 1246 0160 13010101 		addi	sp,sp,16
 1247              		.cfi_def_cfa_offset 0
 1248 0164 67800000 		jr	ra
 1249              		.cfi_endproc
 1250              	.LFE30:
 1252              		.align	2
 1253              		.globl	_Z9testBuddyv
 1255              	_Z9testBuddyv:
 1256              	.LFB31:
  27:src/userMain.cpp ****     char* heap = new char[200];
 1257              		.loc 1 27 18 is_stmt 1
 1258              		.cfi_startproc
 1259 0168 130101FD 		addi	sp,sp,-48
 1260              		.cfi_def_cfa_offset 48
 1261 016c 23341102 		sd	ra,40(sp)
 1262 0170 23308102 		sd	s0,32(sp)
 1263 0174 233C9100 		sd	s1,24(sp)
 1264 0178 23382101 		sd	s2,16(sp)
 1265 017c 23343101 		sd	s3,8(sp)
 1266              		.cfi_offset 1, -8
 1267              		.cfi_offset 8, -16
GAS LISTING /tmp/ccNWNlIO.s 			page 34


 1268              		.cfi_offset 9, -24
 1269              		.cfi_offset 18, -32
 1270              		.cfi_offset 19, -40
 1271 0180 13040103 		addi	s0,sp,48
 1272              		.cfi_def_cfa 8, 0
  28:src/userMain.cpp ****     _BuddyTree* tree = new (heap) _BuddyTree(heap + 200, 10, 0);
 1273              		.loc 1 28 5
  28:src/userMain.cpp ****     _BuddyTree* tree = new (heap) _BuddyTree(heap + 200, 10, 0);
 1274              		.loc 1 28 30 is_stmt 0
 1275 0184 1305800C 		li	a0,200
 1276 0188 97000000 		call	_Znam@plt
 1276      E7800000 
 1277              	.LVL131:
 1278 0190 13090500 		mv	s2,a0
 1279              	.LVL132:
  29:src/userMain.cpp **** 
 1280              		.loc 1 29 5 is_stmt 1
  29:src/userMain.cpp **** 
 1281              		.loc 1 29 63 is_stmt 0
 1282 0194 93050500 		mv	a1,a0
 1283 0198 13050003 		li	a0,48
 1284              	.LVL133:
 1285 019c 97000000 		call	_ZnwmPv@plt
 1285      E7800000 
 1286              	.LVL134:
 1287 01a4 93040500 		mv	s1,a0
 1288 01a8 630C0500 		beqz	a0,.L67
  29:src/userMain.cpp **** 
 1289              		.loc 1 29 63 discriminator 1
 1290 01ac 93060000 		li	a3,0
 1291 01b0 1306A000 		li	a2,10
 1292 01b4 9305890C 		addi	a1,s2,200
 1293 01b8 97000000 		call	_ZN10_BuddyTreeC1EPvmm@plt
 1293      E7800000 
 1294              	.LVL135:
 1295              	.L67:
  31:src/userMain.cpp **** 
 1296              		.loc 1 31 5 is_stmt 1 discriminator 4
  31:src/userMain.cpp **** 
 1297              		.loc 1 31 16 is_stmt 0 discriminator 4
 1298 01c0 13850400 		mv	a0,s1
 1299 01c4 97000000 		call	_ZN10_BuddyTree5printEv@plt
 1299      E7800000 
 1300              	.LVL136:
  31:src/userMain.cpp **** 
 1301              		.loc 1 31 20 is_stmt 1 discriminator 4
  31:src/userMain.cpp **** 
 1302              		.loc 1 31 24 is_stmt 0 discriminator 4
 1303 01cc 97000000 		call	_Z4linev
 1303      E7800000 
 1304              	.LVL137:
  33:src/userMain.cpp ****     tree->print(); line();
 1305              		.loc 1 33 5 is_stmt 1 discriminator 4
  33:src/userMain.cpp ****     tree->print(); line();
 1306              		.loc 1 33 27 is_stmt 0 discriminator 4
 1307 01d4 9305A000 		li	a1,10
 1308 01d8 13850400 		mv	a0,s1
GAS LISTING /tmp/ccNWNlIO.s 			page 35


 1309 01dc 97000000 		call	_ZN10_BuddyTree5allocEm@plt
 1309      E7800000 
 1310              	.LVL138:
 1311 01e4 93090500 		mv	s3,a0
 1312              	.LVL139:
  34:src/userMain.cpp ****     tree->alloc(20);
 1313              		.loc 1 34 5 is_stmt 1 discriminator 4
  34:src/userMain.cpp ****     tree->alloc(20);
 1314              		.loc 1 34 16 is_stmt 0 discriminator 4
 1315 01e8 13850400 		mv	a0,s1
 1316              	.LVL140:
 1317 01ec 97000000 		call	_ZN10_BuddyTree5printEv@plt
 1317      E7800000 
 1318              	.LVL141:
  34:src/userMain.cpp ****     tree->alloc(20);
 1319              		.loc 1 34 20 is_stmt 1 discriminator 4
  34:src/userMain.cpp ****     tree->alloc(20);
 1320              		.loc 1 34 24 is_stmt 0 discriminator 4
 1321 01f4 97000000 		call	_Z4linev
 1321      E7800000 
 1322              	.LVL142:
  35:src/userMain.cpp ****     tree->print(); line();
 1323              		.loc 1 35 5 is_stmt 1 discriminator 4
  35:src/userMain.cpp ****     tree->print(); line();
 1324              		.loc 1 35 16 is_stmt 0 discriminator 4
 1325 01fc 93054001 		li	a1,20
 1326 0200 13850400 		mv	a0,s1
 1327 0204 97000000 		call	_ZN10_BuddyTree5allocEm@plt
 1327      E7800000 
 1328              	.LVL143:
  36:src/userMain.cpp ****     tree->alloc(35);
 1329              		.loc 1 36 5 is_stmt 1 discriminator 4
  36:src/userMain.cpp ****     tree->alloc(35);
 1330              		.loc 1 36 16 is_stmt 0 discriminator 4
 1331 020c 13850400 		mv	a0,s1
 1332 0210 97000000 		call	_ZN10_BuddyTree5printEv@plt
 1332      E7800000 
 1333              	.LVL144:
  36:src/userMain.cpp ****     tree->alloc(35);
 1334              		.loc 1 36 20 is_stmt 1 discriminator 4
  36:src/userMain.cpp ****     tree->alloc(35);
 1335              		.loc 1 36 24 is_stmt 0 discriminator 4
 1336 0218 97000000 		call	_Z4linev
 1336      E7800000 
 1337              	.LVL145:
  37:src/userMain.cpp ****     tree->print(); line();
 1338              		.loc 1 37 5 is_stmt 1 discriminator 4
  37:src/userMain.cpp ****     tree->print(); line();
 1339              		.loc 1 37 16 is_stmt 0 discriminator 4
 1340 0220 93053002 		li	a1,35
 1341 0224 13850400 		mv	a0,s1
 1342 0228 97000000 		call	_ZN10_BuddyTree5allocEm@plt
 1342      E7800000 
 1343              	.LVL146:
  38:src/userMain.cpp ****     void* p4 = tree->alloc(10);
 1344              		.loc 1 38 5 is_stmt 1 discriminator 4
  38:src/userMain.cpp ****     void* p4 = tree->alloc(10);
GAS LISTING /tmp/ccNWNlIO.s 			page 36


 1345              		.loc 1 38 16 is_stmt 0 discriminator 4
 1346 0230 13850400 		mv	a0,s1
 1347 0234 97000000 		call	_ZN10_BuddyTree5printEv@plt
 1347      E7800000 
 1348              	.LVL147:
  38:src/userMain.cpp ****     void* p4 = tree->alloc(10);
 1349              		.loc 1 38 20 is_stmt 1 discriminator 4
  38:src/userMain.cpp ****     void* p4 = tree->alloc(10);
 1350              		.loc 1 38 24 is_stmt 0 discriminator 4
 1351 023c 97000000 		call	_Z4linev
 1351      E7800000 
 1352              	.LVL148:
  39:src/userMain.cpp ****     tree->print(); line();
 1353              		.loc 1 39 5 is_stmt 1 discriminator 4
  39:src/userMain.cpp ****     tree->print(); line();
 1354              		.loc 1 39 27 is_stmt 0 discriminator 4
 1355 0244 9305A000 		li	a1,10
 1356 0248 13850400 		mv	a0,s1
 1357 024c 97000000 		call	_ZN10_BuddyTree5allocEm@plt
 1357      E7800000 
 1358              	.LVL149:
 1359 0254 13090500 		mv	s2,a0
 1360              	.LVL150:
  40:src/userMain.cpp ****     tree->dealloc(p1);
 1361              		.loc 1 40 5 is_stmt 1 discriminator 4
  40:src/userMain.cpp ****     tree->dealloc(p1);
 1362              		.loc 1 40 16 is_stmt 0 discriminator 4
 1363 0258 13850400 		mv	a0,s1
 1364              	.LVL151:
 1365 025c 97000000 		call	_ZN10_BuddyTree5printEv@plt
 1365      E7800000 
 1366              	.LVL152:
  40:src/userMain.cpp ****     tree->dealloc(p1);
 1367              		.loc 1 40 20 is_stmt 1 discriminator 4
  40:src/userMain.cpp ****     tree->dealloc(p1);
 1368              		.loc 1 40 24 is_stmt 0 discriminator 4
 1369 0264 97000000 		call	_Z4linev
 1369      E7800000 
 1370              	.LVL153:
  41:src/userMain.cpp ****     tree->print(); line();
 1371              		.loc 1 41 5 is_stmt 1 discriminator 4
  41:src/userMain.cpp ****     tree->print(); line();
 1372              		.loc 1 41 18 is_stmt 0 discriminator 4
 1373 026c 93850900 		mv	a1,s3
 1374 0270 13850400 		mv	a0,s1
 1375 0274 97000000 		call	_ZN10_BuddyTree7deallocEPv@plt
 1375      E7800000 
 1376              	.LVL154:
  42:src/userMain.cpp ****     tree->dealloc(p4);
 1377              		.loc 1 42 5 is_stmt 1 discriminator 4
  42:src/userMain.cpp ****     tree->dealloc(p4);
 1378              		.loc 1 42 16 is_stmt 0 discriminator 4
 1379 027c 13850400 		mv	a0,s1
 1380 0280 97000000 		call	_ZN10_BuddyTree5printEv@plt
 1380      E7800000 
 1381              	.LVL155:
  42:src/userMain.cpp ****     tree->dealloc(p4);
GAS LISTING /tmp/ccNWNlIO.s 			page 37


 1382              		.loc 1 42 20 is_stmt 1 discriminator 4
  42:src/userMain.cpp ****     tree->dealloc(p4);
 1383              		.loc 1 42 24 is_stmt 0 discriminator 4
 1384 0288 97000000 		call	_Z4linev
 1384      E7800000 
 1385              	.LVL156:
  43:src/userMain.cpp ****     tree->print(); line();
 1386              		.loc 1 43 5 is_stmt 1 discriminator 4
  43:src/userMain.cpp ****     tree->print(); line();
 1387              		.loc 1 43 18 is_stmt 0 discriminator 4
 1388 0290 93050900 		mv	a1,s2
 1389 0294 13850400 		mv	a0,s1
 1390 0298 97000000 		call	_ZN10_BuddyTree7deallocEPv@plt
 1390      E7800000 
 1391              	.LVL157:
  44:src/userMain.cpp **** }
 1392              		.loc 1 44 5 is_stmt 1 discriminator 4
  44:src/userMain.cpp **** }
 1393              		.loc 1 44 16 is_stmt 0 discriminator 4
 1394 02a0 13850400 		mv	a0,s1
 1395 02a4 97000000 		call	_ZN10_BuddyTree5printEv@plt
 1395      E7800000 
 1396              	.LVL158:
  44:src/userMain.cpp **** }
 1397              		.loc 1 44 20 is_stmt 1 discriminator 4
  44:src/userMain.cpp **** }
 1398              		.loc 1 44 24 is_stmt 0 discriminator 4
 1399 02ac 97000000 		call	_Z4linev
 1399      E7800000 
 1400              	.LVL159:
  45:src/userMain.cpp **** 
 1401              		.loc 1 45 1 discriminator 4
 1402 02b4 83308102 		ld	ra,40(sp)
 1403              		.cfi_restore 1
 1404 02b8 03340102 		ld	s0,32(sp)
 1405              		.cfi_restore 8
 1406              		.cfi_def_cfa 2, 48
 1407 02bc 83348101 		ld	s1,24(sp)
 1408              		.cfi_restore 9
 1409              	.LVL160:
 1410 02c0 03390101 		ld	s2,16(sp)
 1411              		.cfi_restore 18
 1412              	.LVL161:
 1413 02c4 83398100 		ld	s3,8(sp)
 1414              		.cfi_restore 19
 1415              	.LVL162:
 1416 02c8 13010103 		addi	sp,sp,48
 1417              		.cfi_def_cfa_offset 0
 1418 02cc 67800000 		jr	ra
 1419              		.cfi_endproc
 1420              	.LFE31:
 1422              		.section	.rodata.str1.8
 1423 003a 00000000 		.align	3
 1423      0000
 1424              	.LC5:
 1425 0040 4D6F6A4B 		.string	"MojKes1"
 1425      65733100 
GAS LISTING /tmp/ccNWNlIO.s 			page 38


 1426              		.align	3
 1427              	.LC6:
 1428 0048 4175746F 		.string	"Auto"
 1428      00
 1429 004d 000000   		.align	3
 1430              	.LC7:
 1431 0050 207C2054 		.string	" | Tockova: "
 1431      6F636B6F 
 1431      76613A20 
 1431      00
 1432 005d 000000   		.align	3
 1433              	.LC8:
 1434 0060 53485249 		.string	"SHRINK!\n"
 1434      4E4B210A 
 1434      00
 1435 0069 00000000 		.align	3
 1435      000000
 1436              	.LC9:
 1437 0070 4E4F2053 		.string	"NO SHRINK!\n"
 1437      4852494E 
 1437      4B210A00 
 1438 007c 00000000 		.align	3
 1439              	.LC10:
 1440 0080 414C4C4F 		.string	"ALLOC SUCCESS! "
 1440      43205355 
 1440      43434553 
 1440      53212000 
 1441              		.align	3
 1442              	.LC11:
 1443 0090 2E2000   		.string	". "
 1444 0093 00000000 		.align	3
 1444      00
 1445              	.LC12:
 1446 0098 4552524F 		.string	"ERROR\n"
 1446      520A00
 1447              		.text
 1448              		.align	2
 1449              		.globl	_Z9testCachev
 1451              	_Z9testCachev:
 1452              	.LFB37:
  69:src/userMain.cpp ****     kmem_cache_t* carCache = kmem_cache_create("MojKes1", sizeof(Car), CarCtor, nullptr);
 1453              		.loc 1 69 18 is_stmt 1
 1454              		.cfi_startproc
 1455 02d0 13010181 		addi	sp,sp,-2032
 1456              		.cfi_def_cfa_offset 2032
 1457 02d4 2334117E 		sd	ra,2024(sp)
 1458 02d8 2330817E 		sd	s0,2016(sp)
 1459 02dc 233C917C 		sd	s1,2008(sp)
 1460 02e0 2338217D 		sd	s2,2000(sp)
 1461 02e4 2334317D 		sd	s3,1992(sp)
 1462 02e8 2330417D 		sd	s4,1984(sp)
 1463              		.cfi_offset 1, -8
 1464              		.cfi_offset 8, -16
 1465              		.cfi_offset 9, -24
 1466              		.cfi_offset 18, -32
 1467              		.cfi_offset 19, -40
 1468              		.cfi_offset 20, -48
GAS LISTING /tmp/ccNWNlIO.s 			page 39


 1469 02ec 1304017F 		addi	s0,sp,2032
 1470              		.cfi_def_cfa 8, 0
 1471 02f0 B7A2FFFF 		li	t0,-24576
 1472 02f4 93820286 		addi	t0,t0,-1952
 1473 02f8 33015100 		add	sp,sp,t0
  70:src/userMain.cpp ****     Car* car = (Car*)kmem_cache_alloc(carCache);
 1474              		.loc 1 70 5
  70:src/userMain.cpp ****     Car* car = (Car*)kmem_cache_alloc(carCache);
 1475              		.loc 1 70 47 is_stmt 0
 1476 02fc 93060000 		li	a3,0
 1477 0300 17060000 		lla	a2,_Z7CarCtorPv
 1477      13060600 
 1478 0308 93050001 		li	a1,16
 1479 030c 17050000 		lla	a0,.LC5
 1479      13050500 
 1480 0314 97000000 		call	_Z17kmem_cache_createPKcmPFvPvES3_@plt
 1480      E7800000 
 1481              	.LVL163:
 1482 031c 93090500 		mv	s3,a0
 1483              	.LVL164:
  71:src/userMain.cpp ****     car->print();
 1484              		.loc 1 71 5 is_stmt 1
  71:src/userMain.cpp ****     car->print();
 1485              		.loc 1 71 38 is_stmt 0
 1486 0320 97000000 		call	_Z16kmem_cache_allocP12kmem_cache_t@plt
 1486      E7800000 
 1487              	.LVL165:
 1488 0328 93040500 		mv	s1,a0
 1489              	.LVL166:
  72:src/userMain.cpp ****     kmem_cache_free(carCache, car);
 1490              		.loc 1 72 5 is_stmt 1
 1491              	.LBB107:
 1492              	.LBB108:
  57:src/userMain.cpp ****         printstring(name);
 1493              		.loc 1 57 9
  57:src/userMain.cpp ****         printstring(name);
 1494              		.loc 1 57 20 is_stmt 0
 1495 032c 17050000 		lla	a0,.LC6
 1495      13050500 
 1496 0334 97000000 		call	_Z11printstringPKc
 1496      E7800000 
 1497              	.LVL167:
  58:src/userMain.cpp ****         printstring(" | Tockova: ");
 1498              		.loc 1 58 9 is_stmt 1
  58:src/userMain.cpp ****         printstring(" | Tockova: ");
 1499              		.loc 1 58 20 is_stmt 0
 1500 033c 03B50400 		ld	a0,0(s1)
 1501 0340 97000000 		call	_Z11printstringPKc
 1501      E7800000 
 1502              	.LVL168:
  59:src/userMain.cpp ****         printNum(wheels);
 1503              		.loc 1 59 9 is_stmt 1
  59:src/userMain.cpp ****         printNum(wheels);
 1504              		.loc 1 59 20 is_stmt 0
 1505 0348 17050000 		lla	a0,.LC7
 1505      13050500 
 1506 0350 97000000 		call	_Z11printstringPKc
GAS LISTING /tmp/ccNWNlIO.s 			page 40


 1506      E7800000 
 1507              	.LVL169:
  60:src/userMain.cpp ****         putc('\n');
 1508              		.loc 1 60 9 is_stmt 1
  60:src/userMain.cpp ****         putc('\n');
 1509              		.loc 1 60 17 is_stmt 0
 1510 0358 03A58400 		lw	a0,8(s1)
 1511 035c 97000000 		call	_Z8printNumm
 1511      E7800000 
 1512              	.LVL170:
  61:src/userMain.cpp ****     }
 1513              		.loc 1 61 9 is_stmt 1
  61:src/userMain.cpp ****     }
 1514              		.loc 1 61 13 is_stmt 0
 1515 0364 1305A000 		li	a0,10
 1516 0368 97000000 		call	_Z4putcc@plt
 1516      E7800000 
 1517              	.LVL171:
 1518              	.LBE108:
 1519              	.LBE107:
  73:src/userMain.cpp ****     int ret = kmem_cache_shrink(carCache);
 1520              		.loc 1 73 5 is_stmt 1
  73:src/userMain.cpp ****     int ret = kmem_cache_shrink(carCache);
 1521              		.loc 1 73 20 is_stmt 0
 1522 0370 93850400 		mv	a1,s1
 1523 0374 13850900 		mv	a0,s3
 1524 0378 97000000 		call	_Z15kmem_cache_freeP12kmem_cache_tPv@plt
 1524      E7800000 
 1525              	.LVL172:
  74:src/userMain.cpp ****     if (ret) printstring("SHRINK!\n");
 1526              		.loc 1 74 5 is_stmt 1
  74:src/userMain.cpp ****     if (ret) printstring("SHRINK!\n");
 1527              		.loc 1 74 32 is_stmt 0
 1528 0380 13850900 		mv	a0,s3
 1529 0384 97000000 		call	_Z17kmem_cache_shrinkP12kmem_cache_t@plt
 1529      E7800000 
 1530              	.LVL173:
  75:src/userMain.cpp ****     else printstring("NO SHRINK!\n");
 1531              		.loc 1 75 5 is_stmt 1
 1532 038c 6308050A 		beqz	a0,.L70
  75:src/userMain.cpp ****     else printstring("NO SHRINK!\n");
 1533              		.loc 1 75 14 discriminator 1
  75:src/userMain.cpp ****     else printstring("NO SHRINK!\n");
 1534              		.loc 1 75 25 is_stmt 0 discriminator 1
 1535 0390 17050000 		lla	a0,.LC8
 1535      13050500 
 1536              	.LVL174:
 1537 0398 97000000 		call	_Z11printstringPKc
 1537      E7800000 
 1538              	.LVL175:
 1539              	.L71:
  77:src/userMain.cpp ****     kmem_cache_free(carCache, nullptr);
 1540              		.loc 1 77 5 is_stmt 1
  77:src/userMain.cpp ****     kmem_cache_free(carCache, nullptr);
 1541              		.loc 1 77 22 is_stmt 0
 1542 03a0 13850900 		mv	a0,s3
 1543 03a4 97000000 		call	_Z17kmem_cache_shrinkP12kmem_cache_t@plt
GAS LISTING /tmp/ccNWNlIO.s 			page 41


 1543      E7800000 
 1544              	.LVL176:
  78:src/userMain.cpp ****     kmem_cache_error(carCache);
 1545              		.loc 1 78 5 is_stmt 1
  78:src/userMain.cpp ****     kmem_cache_error(carCache);
 1546              		.loc 1 78 20 is_stmt 0
 1547 03ac 93050000 		li	a1,0
 1548 03b0 13850900 		mv	a0,s3
 1549 03b4 97000000 		call	_Z15kmem_cache_freeP12kmem_cache_tPv@plt
 1549      E7800000 
 1550              	.LVL177:
  79:src/userMain.cpp ****     kmem_cache_info(carCache);
 1551              		.loc 1 79 5 is_stmt 1
  79:src/userMain.cpp ****     kmem_cache_info(carCache);
 1552              		.loc 1 79 21 is_stmt 0
 1553 03bc 13850900 		mv	a0,s3
 1554 03c0 97000000 		call	_Z16kmem_cache_errorP12kmem_cache_t@plt
 1554      E7800000 
 1555              	.LVL178:
  80:src/userMain.cpp **** 
 1556              		.loc 1 80 5 is_stmt 1
  80:src/userMain.cpp **** 
 1557              		.loc 1 80 20 is_stmt 0
 1558 03c8 13850900 		mv	a0,s3
 1559 03cc 97000000 		call	_Z15kmem_cache_infoP12kmem_cache_t@plt
 1559      E7800000 
 1560              	.LVL179:
  82:src/userMain.cpp ****     Car* cars[3563];
 1561              		.loc 1 82 9
 1562 03d4 93040000 		li	s1,0
 1563              	.LVL180:
 1564              	.L75:
  83:src/userMain.cpp ****     while (true) {
 1565              		.loc 1 83 5 is_stmt 1
  84:src/userMain.cpp ****         car = (Car*)kmem_cache_alloc(carCache);
 1566              		.loc 1 84 5
  85:src/userMain.cpp ****         if (car == nullptr || i == 3563) {
 1567              		.loc 1 85 9
  85:src/userMain.cpp ****         if (car == nullptr || i == 3563) {
 1568              		.loc 1 85 37 is_stmt 0
 1569 03d8 13850900 		mv	a0,s3
 1570 03dc 97000000 		call	_Z16kmem_cache_allocP12kmem_cache_t@plt
 1570      E7800000 
 1571              	.LVL181:
  86:src/userMain.cpp ****             kmem_cache_error(carCache);
 1572              		.loc 1 86 9 is_stmt 1
 1573 03e4 63060506 		beqz	a0,.L72
  86:src/userMain.cpp ****             kmem_cache_error(carCache);
 1574              		.loc 1 86 28 is_stmt 0 discriminator 1
 1575 03e8 B7170000 		li	a5,4096
 1576 03ec 9387B7DE 		addi	a5,a5,-533
 1577 03f0 6380F406 		beq	s1,a5,.L72
  91:src/userMain.cpp ****             printstring("ALLOC SUCCESS! ");
 1578              		.loc 1 91 13 is_stmt 1
  91:src/userMain.cpp ****             printstring("ALLOC SUCCESS! ");
 1579              		.loc 1 91 21 is_stmt 0
 1580 03f4 B797FFFF 		li	a5,-28672
GAS LISTING /tmp/ccNWNlIO.s 			page 42


 1581 03f8 13973400 		slli	a4,s1,3
 1582 03fc 930604FD 		addi	a3,s0,-48
 1583 0400 B387F600 		add	a5,a3,a5
 1584 0404 B387E700 		add	a5,a5,a4
 1585 0408 23B4A70A 		sd	a0,168(a5)
  92:src/userMain.cpp ****             printNum(++i);
 1586              		.loc 1 92 13 is_stmt 1
  92:src/userMain.cpp ****             printNum(++i);
 1587              		.loc 1 92 24 is_stmt 0
 1588 040c 17050000 		lla	a0,.LC10
 1588      13050500 
 1589              	.LVL182:
 1590 0414 97000000 		call	_Z11printstringPKc
 1590      E7800000 
 1591              	.LVL183:
  93:src/userMain.cpp ****             putc('\n');
 1592              		.loc 1 93 13 is_stmt 1
  93:src/userMain.cpp ****             putc('\n');
 1593              		.loc 1 93 21 is_stmt 0
 1594 041c 9B841400 		addiw	s1,s1,1
 1595              	.LVL184:
 1596 0420 13850400 		mv	a0,s1
 1597 0424 97000000 		call	_Z8printNumm
 1597      E7800000 
 1598              	.LVL185:
  94:src/userMain.cpp ****         }
 1599              		.loc 1 94 13 is_stmt 1
  94:src/userMain.cpp ****         }
 1600              		.loc 1 94 17 is_stmt 0
 1601 042c 1305A000 		li	a0,10
 1602 0430 97000000 		call	_Z4putcc@plt
 1602      E7800000 
 1603              	.LVL186:
 1604 0438 6FF01FFA 		j	.L75
 1605              	.LVL187:
 1606              	.L70:
  76:src/userMain.cpp ****     kmem_cache_shrink(carCache);
 1607              		.loc 1 76 10 is_stmt 1
  76:src/userMain.cpp ****     kmem_cache_shrink(carCache);
 1608              		.loc 1 76 21 is_stmt 0
 1609 043c 17050000 		lla	a0,.LC9
 1609      13050500 
 1610              	.LVL188:
 1611 0444 97000000 		call	_Z11printstringPKc
 1611      E7800000 
 1612              	.LVL189:
 1613 044c 6FF05FF5 		j	.L71
 1614              	.LVL190:
 1615              	.L72:
  87:src/userMain.cpp ****             break;
 1616              		.loc 1 87 13 is_stmt 1
  87:src/userMain.cpp ****             break;
 1617              		.loc 1 87 29 is_stmt 0
 1618 0450 13850900 		mv	a0,s3
 1619              	.LVL191:
 1620 0454 97000000 		call	_Z16kmem_cache_errorP12kmem_cache_t@plt
 1620      E7800000 
GAS LISTING /tmp/ccNWNlIO.s 			page 43


 1621              	.LVL192:
  88:src/userMain.cpp ****         }
 1622              		.loc 1 88 13 is_stmt 1
  97:src/userMain.cpp ****     for (int j = 0; j < i; j++) {
 1623              		.loc 1 97 5
  97:src/userMain.cpp ****     for (int j = 0; j < i; j++) {
 1624              		.loc 1 97 9 is_stmt 0
 1625 045c 97000000 		call	_Z4linev
 1625      E7800000 
 1626              	.LVL193:
 1627              	.LBB109:
  98:src/userMain.cpp ****         printNum(j + 1);
 1628              		.loc 1 98 14
 1629 0464 13090000 		li	s2,0
 1630              	.L74:
 1631              	.LVL194:
  98:src/userMain.cpp ****         printNum(j + 1);
 1632              		.loc 1 98 23 is_stmt 1 discriminator 1
 1633 0468 63549908 		ble	s1,s2,.L76
  99:src/userMain.cpp ****         printstring(". ");
 1634              		.loc 1 99 9
  99:src/userMain.cpp ****         printstring(". ");
 1635              		.loc 1 99 20 is_stmt 0
 1636 046c 1B0A1900 		addiw	s4,s2,1
  99:src/userMain.cpp ****         printstring(". ");
 1637              		.loc 1 99 17
 1638 0470 13050A00 		mv	a0,s4
 1639 0474 97000000 		call	_Z8printNumm
 1639      E7800000 
 1640              	.LVL195:
 100:src/userMain.cpp ****         cars[j]->print();
 1641              		.loc 1 100 9 is_stmt 1
 100:src/userMain.cpp ****         cars[j]->print();
 1642              		.loc 1 100 20 is_stmt 0
 1643 047c 17050000 		lla	a0,.LC11
 1643      13050500 
 1644 0484 97000000 		call	_Z11printstringPKc
 1644      E7800000 
 1645              	.LVL196:
 101:src/userMain.cpp ****     }
 1646              		.loc 1 101 9 is_stmt 1
 101:src/userMain.cpp ****     }
 1647              		.loc 1 101 15 is_stmt 0
 1648 048c B797FFFF 		li	a5,-28672
 1649 0490 13193900 		slli	s2,s2,3
 1650              	.LVL197:
 1651 0494 130704FD 		addi	a4,s0,-48
 1652 0498 B307F700 		add	a5,a4,a5
 1653 049c 33892701 		add	s2,a5,s2
 1654 04a0 0339890A 		ld	s2,168(s2)
 1655              	.LVL198:
 1656              	.LBB110:
 1657              	.LBB111:
  57:src/userMain.cpp ****         printstring(name);
 1658              		.loc 1 57 9 is_stmt 1
  57:src/userMain.cpp ****         printstring(name);
 1659              		.loc 1 57 20 is_stmt 0
GAS LISTING /tmp/ccNWNlIO.s 			page 44


 1660 04a4 17050000 		lla	a0,.LC6
 1660      13050500 
 1661 04ac 97000000 		call	_Z11printstringPKc
 1661      E7800000 
 1662              	.LVL199:
  58:src/userMain.cpp ****         printstring(" | Tockova: ");
 1663              		.loc 1 58 9 is_stmt 1
  58:src/userMain.cpp ****         printstring(" | Tockova: ");
 1664              		.loc 1 58 20 is_stmt 0
 1665 04b4 03350900 		ld	a0,0(s2)
 1666 04b8 97000000 		call	_Z11printstringPKc
 1666      E7800000 
 1667              	.LVL200:
  59:src/userMain.cpp ****         printNum(wheels);
 1668              		.loc 1 59 9 is_stmt 1
  59:src/userMain.cpp ****         printNum(wheels);
 1669              		.loc 1 59 20 is_stmt 0
 1670 04c0 17050000 		lla	a0,.LC7
 1670      13050500 
 1671 04c8 97000000 		call	_Z11printstringPKc
 1671      E7800000 
 1672              	.LVL201:
  60:src/userMain.cpp ****         putc('\n');
 1673              		.loc 1 60 9 is_stmt 1
  60:src/userMain.cpp ****         putc('\n');
 1674              		.loc 1 60 17 is_stmt 0
 1675 04d0 03258900 		lw	a0,8(s2)
 1676 04d4 97000000 		call	_Z8printNumm
 1676      E7800000 
 1677              	.LVL202:
  61:src/userMain.cpp ****     }
 1678              		.loc 1 61 9 is_stmt 1
  61:src/userMain.cpp ****     }
 1679              		.loc 1 61 13 is_stmt 0
 1680 04dc 1305A000 		li	a0,10
 1681 04e0 97000000 		call	_Z4putcc@plt
 1681      E7800000 
 1682              	.LVL203:
 1683              	.LBE111:
 1684              	.LBE110:
  98:src/userMain.cpp ****         printNum(j + 1);
 1685              		.loc 1 98 5
 1686 04e8 13090A00 		mv	s2,s4
 1687              	.LVL204:
 1688              	.LBB113:
 1689              	.LBB112:
  62:src/userMain.cpp **** };
 1690              		.loc 1 62 5
 1691 04ec 6FF0DFF7 		j	.L74
 1692              	.LVL205:
 1693              	.L76:
 1694              	.LBE112:
 1695              	.LBE113:
 1696              	.LBE109:
 104:src/userMain.cpp ****     putc('\n');
 1697              		.loc 1 104 5 is_stmt 1
 104:src/userMain.cpp ****     putc('\n');
GAS LISTING /tmp/ccNWNlIO.s 			page 45


 1698              		.loc 1 104 23 is_stmt 0
 1699 04f0 13850900 		mv	a0,s3
 1700 04f4 97000000 		call	_Z18kmem_cache_destroyP12kmem_cache_t@plt
 1700      E7800000 
 1701              	.LVL206:
 105:src/userMain.cpp **** 
 1702              		.loc 1 105 5 is_stmt 1
 105:src/userMain.cpp **** 
 1703              		.loc 1 105 9 is_stmt 0
 1704 04fc 1305A000 		li	a0,10
 1705 0500 97000000 		call	_Z4putcc@plt
 1705      E7800000 
 1706              	.LVL207:
 107:src/userMain.cpp ****     if (arr) {
 1707              		.loc 1 107 5 is_stmt 1
 107:src/userMain.cpp ****     if (arr) {
 1708              		.loc 1 107 29 is_stmt 0
 1709 0508 13058002 		li	a0,40
 1710 050c 97000000 		call	_Z7kmallocm@plt
 1710      E7800000 
 1711              	.LVL208:
 108:src/userMain.cpp ****         for (int i = 0; i < 10; i++) arr[i] = i;
 1712              		.loc 1 108 5 is_stmt 1
 1713              	.LBB114:
 1714 0514 630C0504 		beqz	a0,.L77
 1715              	.LBB115:
 1716              	.LBB116:
 109:src/userMain.cpp ****         kfree(arr);
 1717              		.loc 1 109 18 is_stmt 0
 1718 0518 93070000 		li	a5,0
 1719              	.L79:
 1720              	.LVL209:
 109:src/userMain.cpp ****         kfree(arr);
 1721              		.loc 1 109 27 is_stmt 1 discriminator 3
 1722 051c 13079000 		li	a4,9
 1723 0520 634CF700 		bgt	a5,a4,.L78
 109:src/userMain.cpp ****         kfree(arr);
 1724              		.loc 1 109 38 discriminator 2
 109:src/userMain.cpp ****         kfree(arr);
 1725              		.loc 1 109 43 is_stmt 0 discriminator 2
 1726 0524 13972700 		slli	a4,a5,2
 1727 0528 3307E500 		add	a4,a0,a4
 109:src/userMain.cpp ****         kfree(arr);
 1728              		.loc 1 109 45 discriminator 2
 1729 052c 2320F700 		sw	a5,0(a4)
 109:src/userMain.cpp ****         kfree(arr);
 1730              		.loc 1 109 9 is_stmt 1 discriminator 2
 1731 0530 9B871700 		addiw	a5,a5,1
 1732              	.LVL210:
 1733 0534 6FF09FFE 		j	.L79
 1734              	.LVL211:
 1735              	.L78:
 1736              	.LBE116:
 110:src/userMain.cpp ****     }
 1737              		.loc 1 110 9
 110:src/userMain.cpp ****     }
 1738              		.loc 1 110 14 is_stmt 0
GAS LISTING /tmp/ccNWNlIO.s 			page 46


 1739 0538 97000000 		call	_Z5kfreePKv@plt
 1739      E7800000 
 1740              	.LVL212:
 1741              	.L69:
 1742              	.LBE115:
 1743              	.LBE114:
 115:src/userMain.cpp **** #define MAX 1000
 1744              		.loc 1 115 1
 1745 0540 B7620000 		li	t0,24576
 1746 0544 9382027A 		addi	t0,t0,1952
 1747 0548 33015100 		add	sp,sp,t0
 1748              		.cfi_remember_state
 1749              		.cfi_def_cfa 2, 2032
 1750 054c 8330817E 		ld	ra,2024(sp)
 1751              		.cfi_restore 1
 1752 0550 0334017E 		ld	s0,2016(sp)
 1753              		.cfi_restore 8
 1754 0554 8334817D 		ld	s1,2008(sp)
 1755              		.cfi_restore 9
 1756              	.LVL213:
 1757 0558 0339017D 		ld	s2,2000(sp)
 1758              		.cfi_restore 18
 1759              	.LVL214:
 1760 055c 8339817C 		ld	s3,1992(sp)
 1761              		.cfi_restore 19
 1762              	.LVL215:
 1763 0560 033A017C 		ld	s4,1984(sp)
 1764              		.cfi_restore 20
 1765 0564 1301017F 		addi	sp,sp,2032
 1766              		.cfi_def_cfa_offset 0
 1767 0568 67800000 		jr	ra
 1768              	.LVL216:
 1769              	.L77:
 1770              		.cfi_restore_state
 1771              	.LBB117:
 113:src/userMain.cpp ****     }
 1772              		.loc 1 113 9 is_stmt 1
 113:src/userMain.cpp ****     }
 1773              		.loc 1 113 20 is_stmt 0
 1774 056c 17050000 		lla	a0,.LC12
 1774      13050500 
 1775              	.LVL217:
 1776 0574 97000000 		call	_Z11printstringPKc
 1776      E7800000 
 1777              	.LVL218:
 1778              	.LBE117:
 115:src/userMain.cpp **** #define MAX 1000
 1779              		.loc 1 115 1
 1780 057c 6FF05FFC 		j	.L69
 1781              		.cfi_endproc
 1782              	.LFE37:
 1784              		.align	2
 1785              		.globl	_Z10testCache2v
 1787              	_Z10testCache2v:
 1788              	.LFB38:
 117:src/userMain.cpp ****     kmem_cache_t* carCache = kmem_cache_create("MojKes1", sizeof(Car), CarCtor, nullptr);
 1789              		.loc 1 117 19 is_stmt 1
GAS LISTING /tmp/ccNWNlIO.s 			page 47


 1790              		.cfi_startproc
 1791 0580 13010181 		addi	sp,sp,-2032
 1792              		.cfi_def_cfa_offset 2032
 1793 0584 2334117E 		sd	ra,2024(sp)
 1794 0588 2330817E 		sd	s0,2016(sp)
 1795 058c 233C917C 		sd	s1,2008(sp)
 1796 0590 2338217D 		sd	s2,2000(sp)
 1797              		.cfi_offset 1, -8
 1798              		.cfi_offset 8, -16
 1799              		.cfi_offset 9, -24
 1800              		.cfi_offset 18, -32
 1801 0594 1304017F 		addi	s0,sp,2032
 1802              		.cfi_def_cfa 8, 0
 1803 0598 B7F2FFFF 		li	t0,-4096
 1804 059c 93820289 		addi	t0,t0,-1904
 1805 05a0 33015100 		add	sp,sp,t0
 118:src/userMain.cpp ****     Car* cars[MAX];
 1806              		.loc 1 118 5
 118:src/userMain.cpp ****     Car* cars[MAX];
 1807              		.loc 1 118 47 is_stmt 0
 1808 05a4 93060000 		li	a3,0
 1809 05a8 17060000 		lla	a2,_Z7CarCtorPv
 1809      13060600 
 1810 05b0 93050001 		li	a1,16
 1811 05b4 17050000 		lla	a0,.LC5
 1811      13050500 
 1812 05bc 97000000 		call	_Z17kmem_cache_createPKcmPFvPvES3_@plt
 1812      E7800000 
 1813              	.LVL219:
 1814 05c4 13090500 		mv	s2,a0
 1815              	.LBB118:
 120:src/userMain.cpp ****     kmem_cache_error(carCache);
 1816              		.loc 1 120 14
 1817 05c8 93040000 		li	s1,0
 1818              	.L84:
 1819              	.LVL220:
 120:src/userMain.cpp ****     kmem_cache_error(carCache);
 1820              		.loc 1 120 23 is_stmt 1 discriminator 4
 1821 05cc 9307703E 		li	a5,999
 1822 05d0 63C89702 		bgt	s1,a5,.L83
 120:src/userMain.cpp ****     kmem_cache_error(carCache);
 1823              		.loc 1 120 35 discriminator 2
 120:src/userMain.cpp ****     kmem_cache_error(carCache);
 1824              		.loc 1 120 67 is_stmt 0 discriminator 2
 1825 05d4 13050900 		mv	a0,s2
 1826 05d8 97000000 		call	_Z16kmem_cache_allocP12kmem_cache_t@plt
 1826      E7800000 
 1827              	.LVL221:
 120:src/userMain.cpp ****     kmem_cache_error(carCache);
 1828              		.loc 1 120 43 discriminator 2
 1829 05e0 B7E7FFFF 		li	a5,-8192
 1830 05e4 13973400 		slli	a4,s1,3
 1831 05e8 930604FE 		addi	a3,s0,-32
 1832 05ec B387F600 		add	a5,a3,a5
 1833 05f0 B387E700 		add	a5,a5,a4
 1834 05f4 23B0A70C 		sd	a0,192(a5)
 120:src/userMain.cpp ****     kmem_cache_error(carCache);
GAS LISTING /tmp/ccNWNlIO.s 			page 48


 1835              		.loc 1 120 5 is_stmt 1 discriminator 2
 1836 05f8 9B841400 		addiw	s1,s1,1
 1837              	.LVL222:
 1838 05fc 6FF01FFD 		j	.L84
 1839              	.LVL223:
 1840              	.L83:
 1841              	.LBE118:
 121:src/userMain.cpp ****     kmem_cache_info(carCache);
 1842              		.loc 1 121 5
 121:src/userMain.cpp ****     kmem_cache_info(carCache);
 1843              		.loc 1 121 21 is_stmt 0
 1844 0600 13050900 		mv	a0,s2
 1845 0604 97000000 		call	_Z16kmem_cache_errorP12kmem_cache_t@plt
 1845      E7800000 
 1846              	.LVL224:
 122:src/userMain.cpp ****     for (int i = MAX; i > MAX/2; i--) kmem_cache_free(carCache, cars[i]);
 1847              		.loc 1 122 5 is_stmt 1
 122:src/userMain.cpp ****     for (int i = MAX; i > MAX/2; i--) kmem_cache_free(carCache, cars[i]);
 1848              		.loc 1 122 20 is_stmt 0
 1849 060c 13050900 		mv	a0,s2
 1850 0610 97000000 		call	_Z15kmem_cache_infoP12kmem_cache_t@plt
 1850      E7800000 
 1851              	.LVL225:
 1852              	.LBB119:
 123:src/userMain.cpp ****     kmem_cache_info(carCache);
 1853              		.loc 1 123 14
 1854 0618 9304803E 		li	s1,1000
 1855              	.LVL226:
 1856              	.L86:
 123:src/userMain.cpp ****     kmem_cache_info(carCache);
 1857              		.loc 1 123 25 is_stmt 1 discriminator 4
 1858 061c 9307401F 		li	a5,500
 1859 0620 63D89702 		ble	s1,a5,.L85
 123:src/userMain.cpp ****     kmem_cache_info(carCache);
 1860              		.loc 1 123 39 discriminator 2
 123:src/userMain.cpp ****     kmem_cache_info(carCache);
 1861              		.loc 1 123 71 is_stmt 0 discriminator 2
 1862 0624 B7E7FFFF 		li	a5,-8192
 1863 0628 13973400 		slli	a4,s1,3
 1864 062c 930604FE 		addi	a3,s0,-32
 1865 0630 B387F600 		add	a5,a3,a5
 1866 0634 B387E700 		add	a5,a5,a4
 123:src/userMain.cpp ****     kmem_cache_info(carCache);
 1867              		.loc 1 123 54 discriminator 2
 1868 0638 83B5070C 		ld	a1,192(a5)
 1869 063c 13050900 		mv	a0,s2
 1870 0640 97000000 		call	_Z15kmem_cache_freeP12kmem_cache_tPv@plt
 1870      E7800000 
 1871              	.LVL227:
 123:src/userMain.cpp ****     kmem_cache_info(carCache);
 1872              		.loc 1 123 5 is_stmt 1 discriminator 2
 1873 0648 9B84F4FF 		addiw	s1,s1,-1
 1874              	.LVL228:
 1875 064c 6FF01FFD 		j	.L86
 1876              	.LVL229:
 1877              	.L85:
 1878              	.LBE119:
GAS LISTING /tmp/ccNWNlIO.s 			page 49


 124:src/userMain.cpp ****     kmem_cache_shrink(carCache);
 1879              		.loc 1 124 5
 124:src/userMain.cpp ****     kmem_cache_shrink(carCache);
 1880              		.loc 1 124 20 is_stmt 0
 1881 0650 13050900 		mv	a0,s2
 1882 0654 97000000 		call	_Z15kmem_cache_infoP12kmem_cache_t@plt
 1882      E7800000 
 1883              	.LVL230:
 125:src/userMain.cpp ****     kmem_cache_info(carCache);
 1884              		.loc 1 125 5 is_stmt 1
 125:src/userMain.cpp ****     kmem_cache_info(carCache);
 1885              		.loc 1 125 22 is_stmt 0
 1886 065c 13050900 		mv	a0,s2
 1887 0660 97000000 		call	_Z17kmem_cache_shrinkP12kmem_cache_t@plt
 1887      E7800000 
 1888              	.LVL231:
 126:src/userMain.cpp ****     kmem_cache_destroy(carCache);
 1889              		.loc 1 126 5 is_stmt 1
 126:src/userMain.cpp ****     kmem_cache_destroy(carCache);
 1890              		.loc 1 126 20 is_stmt 0
 1891 0668 13050900 		mv	a0,s2
 1892 066c 97000000 		call	_Z15kmem_cache_infoP12kmem_cache_t@plt
 1892      E7800000 
 1893              	.LVL232:
 127:src/userMain.cpp ****     return;
 1894              		.loc 1 127 5 is_stmt 1
 127:src/userMain.cpp ****     return;
 1895              		.loc 1 127 23 is_stmt 0
 1896 0674 13050900 		mv	a0,s2
 1897 0678 97000000 		call	_Z18kmem_cache_destroyP12kmem_cache_t@plt
 1897      E7800000 
 1898              	.LVL233:
 128:src/userMain.cpp **** }
 1899              		.loc 1 128 5 is_stmt 1
 129:src/userMain.cpp **** 
 1900              		.loc 1 129 1 is_stmt 0
 1901 0680 B7120000 		li	t0,4096
 1902 0684 93820277 		addi	t0,t0,1904
 1903 0688 33015100 		add	sp,sp,t0
 1904              		.cfi_def_cfa 2, 2032
 1905 068c 8330817E 		ld	ra,2024(sp)
 1906              		.cfi_restore 1
 1907 0690 0334017E 		ld	s0,2016(sp)
 1908              		.cfi_restore 8
 1909 0694 8334817D 		ld	s1,2008(sp)
 1910              		.cfi_restore 9
 1911              	.LVL234:
 1912 0698 0339017D 		ld	s2,2000(sp)
 1913              		.cfi_restore 18
 1914 069c 1301017F 		addi	sp,sp,2032
 1915              		.cfi_def_cfa_offset 0
 1916 06a0 67800000 		jr	ra
 1917              		.cfi_endproc
 1918              	.LFE38:
 1920              		.align	2
 1921              		.globl	_Z13testBuffCachev
 1923              	_Z13testBuffCachev:
GAS LISTING /tmp/ccNWNlIO.s 			page 50


 1924              	.LFB39:
 131:src/userMain.cpp ****     int* arrs[100];
 1925              		.loc 1 131 22 is_stmt 1
 1926              		.cfi_startproc
 1927 06a4 130101CC 		addi	sp,sp,-832
 1928              		.cfi_def_cfa_offset 832
 1929 06a8 233C1132 		sd	ra,824(sp)
 1930 06ac 23388132 		sd	s0,816(sp)
 1931 06b0 23349132 		sd	s1,808(sp)
 1932              		.cfi_offset 1, -8
 1933              		.cfi_offset 8, -16
 1934              		.cfi_offset 9, -24
 1935 06b4 13040134 		addi	s0,sp,832
 1936              		.cfi_def_cfa 8, 0
 132:src/userMain.cpp ****     for (int i = 0; i < 100; i++) arrs[i] = (int*)kmalloc(1000*sizeof(int));
 1937              		.loc 1 132 5
 133:src/userMain.cpp ****     kmem_cache_info_buff(11);
 1938              		.loc 1 133 5
 1939              	.LVL235:
 1940              	.LBB120:
 133:src/userMain.cpp ****     kmem_cache_info_buff(11);
 1941              		.loc 1 133 14 is_stmt 0
 1942 06b8 93040000 		li	s1,0
 1943              	.LVL236:
 1944              	.L90:
 133:src/userMain.cpp ****     kmem_cache_info_buff(11);
 1945              		.loc 1 133 23 is_stmt 1 discriminator 4
 1946 06bc 93073006 		li	a5,99
 1947 06c0 63C69702 		bgt	s1,a5,.L89
 133:src/userMain.cpp ****     kmem_cache_info_buff(11);
 1948              		.loc 1 133 35 discriminator 2
 133:src/userMain.cpp ****     kmem_cache_info_buff(11);
 1949              		.loc 1 133 58 is_stmt 0 discriminator 2
 1950 06c4 37150000 		li	a0,4096
 1951 06c8 130505FA 		addi	a0,a0,-96
 1952 06cc 97000000 		call	_Z7kmallocm@plt
 1952      E7800000 
 1953              	.LVL237:
 133:src/userMain.cpp ****     kmem_cache_info_buff(11);
 1954              		.loc 1 133 43 discriminator 2
 1955 06d4 93973400 		slli	a5,s1,3
 1956 06d8 130704FE 		addi	a4,s0,-32
 1957 06dc B307F700 		add	a5,a4,a5
 1958 06e0 23B0A7CE 		sd	a0,-800(a5)
 133:src/userMain.cpp ****     kmem_cache_info_buff(11);
 1959              		.loc 1 133 5 is_stmt 1 discriminator 2
 1960 06e4 9B841400 		addiw	s1,s1,1
 1961              	.LVL238:
 1962 06e8 6FF05FFD 		j	.L90
 1963              	.LVL239:
 1964              	.L89:
 1965              	.LBE120:
 134:src/userMain.cpp ****     kmem_cache_info_buff(12);
 1966              		.loc 1 134 5
 134:src/userMain.cpp ****     kmem_cache_info_buff(12);
 1967              		.loc 1 134 25 is_stmt 0
 1968 06ec 1305B000 		li	a0,11
GAS LISTING /tmp/ccNWNlIO.s 			page 51


 1969 06f0 97000000 		call	_Z20kmem_cache_info_buffi@plt
 1969      E7800000 
 1970              	.LVL240:
 135:src/userMain.cpp ****     for (int i = 50; i < 100; i++) kfree(arrs[i]);
 1971              		.loc 1 135 5 is_stmt 1
 135:src/userMain.cpp ****     for (int i = 50; i < 100; i++) kfree(arrs[i]);
 1972              		.loc 1 135 25 is_stmt 0
 1973 06f8 1305C000 		li	a0,12
 1974 06fc 97000000 		call	_Z20kmem_cache_info_buffi@plt
 1974      E7800000 
 1975              	.LVL241:
 1976              	.LBB121:
 136:src/userMain.cpp ****     kmem_cache_info_buff(12);
 1977              		.loc 1 136 14
 1978 0704 93042003 		li	s1,50
 1979              	.LVL242:
 1980              	.L92:
 136:src/userMain.cpp ****     kmem_cache_info_buff(12);
 1981              		.loc 1 136 24 is_stmt 1 discriminator 4
 1982 0708 93073006 		li	a5,99
 1983 070c 63C29702 		bgt	s1,a5,.L91
 136:src/userMain.cpp ****     kmem_cache_info_buff(12);
 1984              		.loc 1 136 36 discriminator 2
 136:src/userMain.cpp ****     kmem_cache_info_buff(12);
 1985              		.loc 1 136 48 is_stmt 0 discriminator 2
 1986 0710 93973400 		slli	a5,s1,3
 1987 0714 130704FE 		addi	a4,s0,-32
 1988 0718 B307F700 		add	a5,a4,a5
 136:src/userMain.cpp ****     kmem_cache_info_buff(12);
 1989              		.loc 1 136 41 discriminator 2
 1990 071c 03B507CE 		ld	a0,-800(a5)
 1991 0720 97000000 		call	_Z5kfreePKv@plt
 1991      E7800000 
 1992              	.LVL243:
 136:src/userMain.cpp ****     kmem_cache_info_buff(12);
 1993              		.loc 1 136 5 is_stmt 1 discriminator 2
 1994 0728 9B841400 		addiw	s1,s1,1
 1995              	.LVL244:
 1996 072c 6FF0DFFD 		j	.L92
 1997              	.LVL245:
 1998              	.L91:
 1999              	.LBE121:
 137:src/userMain.cpp ****     for (int i = 50; i < 100; i++) arrs[i] = (int*)kmalloc(1000*sizeof(int));
 2000              		.loc 1 137 5
 137:src/userMain.cpp ****     for (int i = 50; i < 100; i++) arrs[i] = (int*)kmalloc(1000*sizeof(int));
 2001              		.loc 1 137 25 is_stmt 0
 2002 0730 1305C000 		li	a0,12
 2003 0734 97000000 		call	_Z20kmem_cache_info_buffi@plt
 2003      E7800000 
 2004              	.LVL246:
 2005              	.LBB122:
 138:src/userMain.cpp ****     kmem_cache_info_buff(12);
 2006              		.loc 1 138 14
 2007 073c 93042003 		li	s1,50
 2008              	.LVL247:
 2009              	.L94:
 138:src/userMain.cpp ****     kmem_cache_info_buff(12);
GAS LISTING /tmp/ccNWNlIO.s 			page 52


 2010              		.loc 1 138 24 is_stmt 1 discriminator 4
 2011 0740 93073006 		li	a5,99
 2012 0744 63CE9700 		bgt	s1,a5,.L93
 138:src/userMain.cpp ****     kmem_cache_info_buff(12);
 2013              		.loc 1 138 36 discriminator 2
 138:src/userMain.cpp ****     kmem_cache_info_buff(12);
 2014              		.loc 1 138 59 is_stmt 0 discriminator 2
 2015 0748 37150000 		li	a0,4096
 2016 074c 130505FA 		addi	a0,a0,-96
 2017 0750 97000000 		call	_Z7kmallocm@plt
 2017      E7800000 
 2018              	.LVL248:
 138:src/userMain.cpp ****     kmem_cache_info_buff(12);
 2019              		.loc 1 138 5 is_stmt 1 discriminator 2
 2020 0758 9B841400 		addiw	s1,s1,1
 2021              	.LVL249:
 2022 075c 6FF05FFE 		j	.L94
 2023              	.LVL250:
 2024              	.L93:
 2025              	.LBE122:
 139:src/userMain.cpp **** }
 2026              		.loc 1 139 5
 139:src/userMain.cpp **** }
 2027              		.loc 1 139 25 is_stmt 0
 2028 0760 1305C000 		li	a0,12
 2029 0764 97000000 		call	_Z20kmem_cache_info_buffi@plt
 2029      E7800000 
 2030              	.LVL251:
 140:src/userMain.cpp **** 
 2031              		.loc 1 140 1
 2032 076c 83308133 		ld	ra,824(sp)
 2033              		.cfi_restore 1
 2034 0770 03340133 		ld	s0,816(sp)
 2035              		.cfi_restore 8
 2036              		.cfi_def_cfa 2, 832
 2037 0774 83348132 		ld	s1,808(sp)
 2038              		.cfi_restore 9
 2039              	.LVL252:
 2040 0778 13010134 		addi	sp,sp,832
 2041              		.cfi_def_cfa_offset 0
 2042 077c 67800000 		jr	ra
 2043              		.cfi_endproc
 2044              	.LFE39:
 2046              		.section	.rodata.str1.8
 2047 009f 00       		.align	3
 2048              	.LC13:
 2049 00a0 4B726569 		.string	"Kreirana nit, sada probam pristup.\n"
 2049      72616E61 
 2049      206E6974 
 2049      2C207361 
 2049      64612070 
 2050 00c4 00000000 		.align	3
 2051              	.LC14:
 2052 00c8 55737065 		.string	"Uspeh! - "
 2052      6821202D 
 2052      2000
 2053              		.text
GAS LISTING /tmp/ccNWNlIO.s 			page 53


 2054              		.align	2
 2055              		.globl	_Z17testLoadPageFaultv
 2057              	_Z17testLoadPageFaultv:
 2058              	.LFB41:
 143:src/userMain.cpp ****     thread_t handle;
 2059              		.loc 1 143 26 is_stmt 1
 2060              		.cfi_startproc
 2061 0780 130101FD 		addi	sp,sp,-48
 2062              		.cfi_def_cfa_offset 48
 2063 0784 23341102 		sd	ra,40(sp)
 2064 0788 23308102 		sd	s0,32(sp)
 2065 078c 233C9100 		sd	s1,24(sp)
 2066              		.cfi_offset 1, -8
 2067              		.cfi_offset 8, -16
 2068              		.cfi_offset 9, -24
 2069 0790 13040103 		addi	s0,sp,48
 2070              		.cfi_def_cfa 8, 0
 144:src/userMain.cpp ****     thread_create(&handle, &f, nullptr);
 2071              		.loc 1 144 5
 145:src/userMain.cpp ****     printstring("Kreirana nit, sada probam pristup.\n");
 2072              		.loc 1 145 5
 145:src/userMain.cpp ****     printstring("Kreirana nit, sada probam pristup.\n");
 2073              		.loc 1 145 18 is_stmt 0
 2074 0794 97070000 		la	a5,SET_START
 2074      83B70700 
 2075 079c 83A70700 		lw	a5,0(a5)
 2076 07a0 17070000 		la	a4,NORM_PRIORITY
 2076      03370700 
 2077 07a8 03270700 		lw	a4,0(a4)
 2078 07ac B7160000 		li	a3,4096
 2079 07b0 13060000 		li	a2,0
 2080 07b4 97050000 		lla	a1,_Z1fPv
 2080      93850500 
 2081 07bc 130584FD 		addi	a0,s0,-40
 2082 07c0 97000000 		call	_Z13thread_createPP7_ThreadPFvPvES2_mii@plt
 2082      E7800000 
 2083              	.LVL253:
 146:src/userMain.cpp ****     uint64 sp = *(uint64*)handle;
 2084              		.loc 1 146 5 is_stmt 1
 146:src/userMain.cpp ****     uint64 sp = *(uint64*)handle;
 2085              		.loc 1 146 16 is_stmt 0
 2086 07c8 17050000 		lla	a0,.LC13
 2086      13050500 
 2087 07d0 97000000 		call	_Z11printstringPKc
 2087      E7800000 
 2088              	.LVL254:
 147:src/userMain.cpp ****     printstring("Uspeh! - ");
 2089              		.loc 1 147 5 is_stmt 1
 147:src/userMain.cpp ****     printstring("Uspeh! - ");
 2090              		.loc 1 147 18 is_stmt 0
 2091 07d8 833784FD 		ld	a5,-40(s0)
 147:src/userMain.cpp ****     printstring("Uspeh! - ");
 2092              		.loc 1 147 12
 2093 07dc 83B40700 		ld	s1,0(a5)
 2094              	.LVL255:
 148:src/userMain.cpp ****     printNum(sp);
 2095              		.loc 1 148 5 is_stmt 1
GAS LISTING /tmp/ccNWNlIO.s 			page 54


 148:src/userMain.cpp ****     printNum(sp);
 2096              		.loc 1 148 16 is_stmt 0
 2097 07e0 17050000 		lla	a0,.LC14
 2097      13050500 
 2098 07e8 97000000 		call	_Z11printstringPKc
 2098      E7800000 
 2099              	.LVL256:
 149:src/userMain.cpp **** }
 2100              		.loc 1 149 5 is_stmt 1
 149:src/userMain.cpp **** }
 2101              		.loc 1 149 13 is_stmt 0
 2102 07f0 13850400 		mv	a0,s1
 2103 07f4 97000000 		call	_Z8printNumm
 2103      E7800000 
 2104              	.LVL257:
 150:src/userMain.cpp **** #include "../h/_Thread.h"
 2105              		.loc 1 150 1
 2106 07fc 83308102 		ld	ra,40(sp)
 2107              		.cfi_restore 1
 2108 0800 03340102 		ld	s0,32(sp)
 2109              		.cfi_restore 8
 2110              		.cfi_def_cfa 2, 48
 2111 0804 83348101 		ld	s1,24(sp)
 2112              		.cfi_restore 9
 2113              	.LVL258:
 2114 0808 13010103 		addi	sp,sp,48
 2115              		.cfi_def_cfa_offset 0
 2116 080c 67800000 		jr	ra
 2117              		.cfi_endproc
 2118              	.LFE41:
 2120              		.align	2
 2121              		.globl	_Z24testInstructionPageFaultv
 2123              	_Z24testInstructionPageFaultv:
 2124              	.LFB44:
 152:src/userMain.cpp ****     _Thread::dispatch();
 2125              		.loc 1 152 33 is_stmt 1
 2126              		.cfi_startproc
 2127 0810 130101FF 		addi	sp,sp,-16
 2128              		.cfi_def_cfa_offset 16
 2129 0814 23341100 		sd	ra,8(sp)
 2130 0818 23308100 		sd	s0,0(sp)
 2131              		.cfi_offset 1, -8
 2132              		.cfi_offset 8, -16
 2133 081c 13040101 		addi	s0,sp,16
 2134              		.cfi_def_cfa 8, 0
 153:src/userMain.cpp **** }
 2135              		.loc 1 153 5
 153:src/userMain.cpp **** }
 2136              		.loc 1 153 22 is_stmt 0
 2137 0820 97000000 		call	_ZN7_Thread8dispatchEv@plt
 2137      E7800000 
 2138              	.LVL259:
 154:src/userMain.cpp **** void testStorePageFault() {
 2139              		.loc 1 154 1
 2140 0828 83308100 		ld	ra,8(sp)
 2141              		.cfi_restore 1
 2142 082c 03340100 		ld	s0,0(sp)
GAS LISTING /tmp/ccNWNlIO.s 			page 55


 2143              		.cfi_restore 8
 2144              		.cfi_def_cfa 2, 16
 2145 0830 13010101 		addi	sp,sp,16
 2146              		.cfi_def_cfa_offset 0
 2147 0834 67800000 		jr	ra
 2148              		.cfi_endproc
 2149              	.LFE44:
 2151              		.align	2
 2152              		.globl	_Z18testStorePageFaultv
 2154              	_Z18testStorePageFaultv:
 2155              	.LFB45:
 155:src/userMain.cpp ****     _Thread::running = nullptr;
 2156              		.loc 1 155 27 is_stmt 1
 2157              		.cfi_startproc
 2158 0838 130101FF 		addi	sp,sp,-16
 2159              		.cfi_def_cfa_offset 16
 2160 083c 23348100 		sd	s0,8(sp)
 2161              		.cfi_offset 8, -8
 2162 0840 13040101 		addi	s0,sp,16
 2163              		.cfi_def_cfa 8, 0
 156:src/userMain.cpp **** }
 2164              		.loc 1 156 5
 156:src/userMain.cpp **** }
 2165              		.loc 1 156 22 is_stmt 0
 2166 0844 97070000 		la	a5,_ZN7_Thread7runningE
 2166      83B70700 
 2167 084c 23B00700 		sd	zero,0(a5)
 157:src/userMain.cpp **** #include "../h/ConsumerProducer_CPP_API_test.hpp" // zadatak 4. CPP API i asinhrona promena konteks
 2168              		.loc 1 157 1
 2169 0850 03348100 		ld	s0,8(sp)
 2170              		.cfi_restore 8
 2171              		.cfi_def_cfa 2, 16
 2172 0854 13010101 		addi	sp,sp,16
 2173              		.cfi_def_cfa_offset 0
 2174 0858 67800000 		jr	ra
 2175              		.cfi_endproc
 2176              	.LFE45:
 2178              		.section	.rodata.str1.8
 2179 00d2 00000000 		.align	3
 2179      0000
 2180              	.LC15:
 2181 00d8 556E6573 		.string	"Unesite broj proizvodjaca?\n"
 2181      69746520 
 2181      62726F6A 
 2181      2070726F 
 2181      697A766F 
 2182 00f4 00000000 		.align	3
 2183              	.LC16:
 2184 00f8 556E6573 		.string	"Unesite velicinu bafera?\n"
 2184      69746520 
 2184      76656C69 
 2184      63696E75 
 2184      20626166 
 2185 0112 00000000 		.align	3
 2185      0000
 2186              	.LC17:
 2187 0118 42726F6A 		.string	"Broj proizvodjaca "
GAS LISTING /tmp/ccNWNlIO.s 			page 56


 2187      2070726F 
 2187      697A766F 
 2187      646A6163 
 2187      612000
 2188 012b 00000000 		.align	3
 2188      00
 2189              	.LC18:
 2190 0130 20692076 		.string	" i velicina bafera "
 2190      656C6963 
 2190      696E6120 
 2190      62616665 
 2190      72612000 
 2191 0144 00000000 		.align	3
 2192              	.LC19:
 2193 0148 2E0A00   		.string	".\n"
 2194 014b 00000000 		.align	3
 2194      00
 2195              	.LC20:
 2196 0150 42726F6A 		.string	"Broj proizvodjaca ne sme biti manji od velicine bafera!\n"
 2196      2070726F 
 2196      697A766F 
 2196      646A6163 
 2196      61206E65 
 2197 0189 00000000 		.align	3
 2197      000000
 2198              	.LC21:
 2199 0190 42726F6A 		.string	"Broj proizvodjaca mora biti veci od nula!\n"
 2199      2070726F 
 2199      697A766F 
 2199      646A6163 
 2199      61206D6F 
 2200              		.text
 2201              		.align	2
 2202              		.globl	_ZN19ConsumerProducerCPP20testConsumerProducerEv
 2204              	_ZN19ConsumerProducerCPP20testConsumerProducerEv:
 2205              	.LFB58:
  87:src/../h/ConsumerProducer_CPP_API_test.hpp ****     };
  88:src/../h/ConsumerProducer_CPP_API_test.hpp **** 
  89:src/../h/ConsumerProducer_CPP_API_test.hpp ****     void testConsumerProducer() {
 2206              		.loc 2 89 33 is_stmt 1
 2207              		.cfi_startproc
 2208              		.cfi_personality 0x9b,DW.ref.__gxx_personality_v0
 2209              		.cfi_lsda 0x1b,.LLSDA58
 2210 085c 130101F8 		addi	sp,sp,-128
 2211              		.cfi_def_cfa_offset 128
 2212 0860 233C1106 		sd	ra,120(sp)
 2213 0864 23388106 		sd	s0,112(sp)
 2214 0868 23349106 		sd	s1,104(sp)
 2215 086c 23302107 		sd	s2,96(sp)
 2216 0870 233C3105 		sd	s3,88(sp)
 2217 0874 23384105 		sd	s4,80(sp)
 2218 0878 23345105 		sd	s5,72(sp)
 2219 087c 23306105 		sd	s6,64(sp)
 2220 0880 233C7103 		sd	s7,56(sp)
 2221 0884 23388103 		sd	s8,48(sp)
 2222 0888 23349103 		sd	s9,40(sp)
 2223              		.cfi_offset 1, -8
GAS LISTING /tmp/ccNWNlIO.s 			page 57


 2224              		.cfi_offset 8, -16
 2225              		.cfi_offset 9, -24
 2226              		.cfi_offset 18, -32
 2227              		.cfi_offset 19, -40
 2228              		.cfi_offset 20, -48
 2229              		.cfi_offset 21, -56
 2230              		.cfi_offset 22, -64
 2231              		.cfi_offset 23, -72
 2232              		.cfi_offset 24, -80
 2233              		.cfi_offset 25, -88
 2234 088c 13040108 		addi	s0,sp,128
 2235              		.cfi_def_cfa 8, 0
  90:src/../h/ConsumerProducer_CPP_API_test.hpp ****         char input[30];
  91:src/../h/ConsumerProducer_CPP_API_test.hpp ****         int n, threadNum;
  92:src/../h/ConsumerProducer_CPP_API_test.hpp **** 
  93:src/../h/ConsumerProducer_CPP_API_test.hpp ****         printString("Unesite broj proizvodjaca?\n");
  94:src/../h/ConsumerProducer_CPP_API_test.hpp ****         getString(input, 30);
  95:src/../h/ConsumerProducer_CPP_API_test.hpp ****         threadNum = stringToInt(input);
  96:src/../h/ConsumerProducer_CPP_API_test.hpp **** 
  97:src/../h/ConsumerProducer_CPP_API_test.hpp ****         printString("Unesite velicinu bafera?\n");
  98:src/../h/ConsumerProducer_CPP_API_test.hpp ****         getString(input, 30);
  99:src/../h/ConsumerProducer_CPP_API_test.hpp ****         n = stringToInt(input);
 100:src/../h/ConsumerProducer_CPP_API_test.hpp **** 
 101:src/../h/ConsumerProducer_CPP_API_test.hpp ****         printString("Broj proizvodjaca "); printInt(threadNum);
 102:src/../h/ConsumerProducer_CPP_API_test.hpp ****         printString(" i velicina bafera "); printInt(n);
 103:src/../h/ConsumerProducer_CPP_API_test.hpp ****         printString(".\n");
 104:src/../h/ConsumerProducer_CPP_API_test.hpp **** 
 105:src/../h/ConsumerProducer_CPP_API_test.hpp ****         if(threadNum > n) {
 106:src/../h/ConsumerProducer_CPP_API_test.hpp ****             printString("Broj proizvodjaca ne sme biti manji od velicine bafera!\n");
 107:src/../h/ConsumerProducer_CPP_API_test.hpp ****             return;
 108:src/../h/ConsumerProducer_CPP_API_test.hpp ****         } else if (threadNum < 1) {
 109:src/../h/ConsumerProducer_CPP_API_test.hpp ****             printString("Broj proizvodjaca mora biti veci od nula!\n");
 110:src/../h/ConsumerProducer_CPP_API_test.hpp ****             return;
 111:src/../h/ConsumerProducer_CPP_API_test.hpp ****         }
 112:src/../h/ConsumerProducer_CPP_API_test.hpp **** 
 113:src/../h/ConsumerProducer_CPP_API_test.hpp ****         BufferCPP *buffer = new BufferCPP(n);
 114:src/../h/ConsumerProducer_CPP_API_test.hpp **** 
 115:src/../h/ConsumerProducer_CPP_API_test.hpp ****         waitForAll = new Semaphore(0);
 116:src/../h/ConsumerProducer_CPP_API_test.hpp ****         Thread *producers[threadNum];
 117:src/../h/ConsumerProducer_CPP_API_test.hpp ****         thread_data threadData[threadNum + 1];
 118:src/../h/ConsumerProducer_CPP_API_test.hpp **** 
 119:src/../h/ConsumerProducer_CPP_API_test.hpp ****         threadData[threadNum].id = threadNum;
 120:src/../h/ConsumerProducer_CPP_API_test.hpp ****         threadData[threadNum].buffer = buffer;
 121:src/../h/ConsumerProducer_CPP_API_test.hpp ****         threadData[threadNum].sem = waitForAll;
 122:src/../h/ConsumerProducer_CPP_API_test.hpp ****         Thread *consumer = new Consumer(&threadData[threadNum]);
 123:src/../h/ConsumerProducer_CPP_API_test.hpp ****         consumer->start();
 124:src/../h/ConsumerProducer_CPP_API_test.hpp **** 
 125:src/../h/ConsumerProducer_CPP_API_test.hpp ****         threadData[0].id = 0;
 126:src/../h/ConsumerProducer_CPP_API_test.hpp ****         threadData[0].buffer = buffer;
 127:src/../h/ConsumerProducer_CPP_API_test.hpp ****         threadData[0].sem = waitForAll;
 128:src/../h/ConsumerProducer_CPP_API_test.hpp ****         producers[0] = new ProducerKeyborad(&threadData[0]);
 129:src/../h/ConsumerProducer_CPP_API_test.hpp ****         producers[0]->start();
 130:src/../h/ConsumerProducer_CPP_API_test.hpp **** 
 131:src/../h/ConsumerProducer_CPP_API_test.hpp ****         for (int i = 1; i < threadNum; i++) {
 132:src/../h/ConsumerProducer_CPP_API_test.hpp ****             threadData[i].id = i;
 133:src/../h/ConsumerProducer_CPP_API_test.hpp ****             threadData[i].buffer = buffer;
 134:src/../h/ConsumerProducer_CPP_API_test.hpp ****             threadData[i].sem = waitForAll;
GAS LISTING /tmp/ccNWNlIO.s 			page 58


 135:src/../h/ConsumerProducer_CPP_API_test.hpp **** 
 136:src/../h/ConsumerProducer_CPP_API_test.hpp ****             producers[i] = new Producer(&threadData[i]);
 137:src/../h/ConsumerProducer_CPP_API_test.hpp ****             producers[i]->start();
 138:src/../h/ConsumerProducer_CPP_API_test.hpp **** 
 139:src/../h/ConsumerProducer_CPP_API_test.hpp ****         }
 140:src/../h/ConsumerProducer_CPP_API_test.hpp **** 
 141:src/../h/ConsumerProducer_CPP_API_test.hpp ****         Thread::dispatch();
 142:src/../h/ConsumerProducer_CPP_API_test.hpp **** 
 143:src/../h/ConsumerProducer_CPP_API_test.hpp ****         for (int i = 0; i <= threadNum; i++) {
 144:src/../h/ConsumerProducer_CPP_API_test.hpp ****             waitForAll->wait();
 145:src/../h/ConsumerProducer_CPP_API_test.hpp ****         }
 146:src/../h/ConsumerProducer_CPP_API_test.hpp **** 
 147:src/../h/ConsumerProducer_CPP_API_test.hpp ****         delete waitForAll;
 148:src/../h/ConsumerProducer_CPP_API_test.hpp ****         for (int i = 0; i < threadNum; i++) {
 149:src/../h/ConsumerProducer_CPP_API_test.hpp ****             delete producers[i];
 150:src/../h/ConsumerProducer_CPP_API_test.hpp ****         }
 151:src/../h/ConsumerProducer_CPP_API_test.hpp ****         delete consumer;
 152:src/../h/ConsumerProducer_CPP_API_test.hpp ****         delete buffer;
 2236              		.loc 2 152 22 is_stmt 0
 2237 0890 930B0100 		mv	s7,sp
  90:src/../h/ConsumerProducer_CPP_API_test.hpp ****         char input[30];
 2238              		.loc 2 90 9 is_stmt 1
  91:src/../h/ConsumerProducer_CPP_API_test.hpp **** 
 2239              		.loc 2 91 9
  93:src/../h/ConsumerProducer_CPP_API_test.hpp ****         getString(input, 30);
 2240              		.loc 2 93 9
  93:src/../h/ConsumerProducer_CPP_API_test.hpp ****         getString(input, 30);
 2241              		.loc 2 93 20 is_stmt 0
 2242 0894 17050000 		lla	a0,.LC15
 2242      13050500 
 2243              	.LEHB3:
 2244 089c 97000000 		call	_Z11printStringPKc@plt
 2244      E7800000 
 2245              	.LVL260:
  94:src/../h/ConsumerProducer_CPP_API_test.hpp ****         threadNum = stringToInt(input);
 2246              		.loc 2 94 9 is_stmt 1
  94:src/../h/ConsumerProducer_CPP_API_test.hpp ****         threadNum = stringToInt(input);
 2247              		.loc 2 94 18 is_stmt 0
 2248 08a4 9305E001 		li	a1,30
 2249 08a8 930404F8 		addi	s1,s0,-128
 2250 08ac 13850400 		mv	a0,s1
 2251 08b0 97000000 		call	_Z9getStringPci@plt
 2251      E7800000 
 2252              	.LVL261:
  95:src/../h/ConsumerProducer_CPP_API_test.hpp **** 
 2253              		.loc 2 95 9 is_stmt 1
  95:src/../h/ConsumerProducer_CPP_API_test.hpp **** 
 2254              		.loc 2 95 32 is_stmt 0
 2255 08b8 13850400 		mv	a0,s1
 2256 08bc 97000000 		call	_Z11stringToIntPKc@plt
 2256      E7800000 
 2257              	.LVL262:
 2258 08c4 13090500 		mv	s2,a0
 2259              	.LVL263:
  97:src/../h/ConsumerProducer_CPP_API_test.hpp ****         getString(input, 30);
 2260              		.loc 2 97 9 is_stmt 1
  97:src/../h/ConsumerProducer_CPP_API_test.hpp ****         getString(input, 30);
GAS LISTING /tmp/ccNWNlIO.s 			page 59


 2261              		.loc 2 97 20 is_stmt 0
 2262 08c8 17050000 		lla	a0,.LC16
 2262      13050500 
 2263 08d0 97000000 		call	_Z11printStringPKc@plt
 2263      E7800000 
 2264              	.LVL264:
  98:src/../h/ConsumerProducer_CPP_API_test.hpp ****         n = stringToInt(input);
 2265              		.loc 2 98 9 is_stmt 1
  98:src/../h/ConsumerProducer_CPP_API_test.hpp ****         n = stringToInt(input);
 2266              		.loc 2 98 18 is_stmt 0
 2267 08d8 9305E001 		li	a1,30
 2268 08dc 13850400 		mv	a0,s1
 2269 08e0 97000000 		call	_Z9getStringPci@plt
 2269      E7800000 
 2270              	.LVL265:
  99:src/../h/ConsumerProducer_CPP_API_test.hpp **** 
 2271              		.loc 2 99 9 is_stmt 1
  99:src/../h/ConsumerProducer_CPP_API_test.hpp **** 
 2272              		.loc 2 99 24 is_stmt 0
 2273 08e8 13850400 		mv	a0,s1
 2274 08ec 97000000 		call	_Z11stringToIntPKc@plt
 2274      E7800000 
 2275              	.LVL266:
 2276 08f4 93040500 		mv	s1,a0
 2277              	.LVL267:
 101:src/../h/ConsumerProducer_CPP_API_test.hpp ****         printString(" i velicina bafera "); printInt(n);
 2278              		.loc 2 101 9 is_stmt 1
 101:src/../h/ConsumerProducer_CPP_API_test.hpp ****         printString(" i velicina bafera "); printInt(n);
 2279              		.loc 2 101 20 is_stmt 0
 2280 08f8 17050000 		lla	a0,.LC17
 2280      13050500 
 2281 0900 97000000 		call	_Z11printStringPKc@plt
 2281      E7800000 
 2282              	.LVL268:
 101:src/../h/ConsumerProducer_CPP_API_test.hpp ****         printString(" i velicina bafera "); printInt(n);
 2283              		.loc 2 101 44 is_stmt 1
 101:src/../h/ConsumerProducer_CPP_API_test.hpp ****         printString(" i velicina bafera "); printInt(n);
 2284              		.loc 2 101 52 is_stmt 0
 2285 0908 13060000 		li	a2,0
 2286 090c 9305A000 		li	a1,10
 2287 0910 13050900 		mv	a0,s2
 2288 0914 97000000 		call	_Z8printIntiii@plt
 2288      E7800000 
 2289              	.LVL269:
 102:src/../h/ConsumerProducer_CPP_API_test.hpp ****         printString(".\n");
 2290              		.loc 2 102 9 is_stmt 1
 102:src/../h/ConsumerProducer_CPP_API_test.hpp ****         printString(".\n");
 2291              		.loc 2 102 20 is_stmt 0
 2292 091c 17050000 		lla	a0,.LC18
 2292      13050500 
 2293 0924 97000000 		call	_Z11printStringPKc@plt
 2293      E7800000 
 2294              	.LVL270:
 102:src/../h/ConsumerProducer_CPP_API_test.hpp ****         printString(".\n");
 2295              		.loc 2 102 45 is_stmt 1
 102:src/../h/ConsumerProducer_CPP_API_test.hpp ****         printString(".\n");
 2296              		.loc 2 102 53 is_stmt 0
GAS LISTING /tmp/ccNWNlIO.s 			page 60


 2297 092c 13060000 		li	a2,0
 2298 0930 9305A000 		li	a1,10
 2299 0934 13850400 		mv	a0,s1
 2300 0938 97000000 		call	_Z8printIntiii@plt
 2300      E7800000 
 2301              	.LVL271:
 103:src/../h/ConsumerProducer_CPP_API_test.hpp **** 
 2302              		.loc 2 103 9 is_stmt 1
 103:src/../h/ConsumerProducer_CPP_API_test.hpp **** 
 2303              		.loc 2 103 20 is_stmt 0
 2304 0940 17050000 		lla	a0,.LC19
 2304      13050500 
 2305 0948 97000000 		call	_Z11printStringPKc@plt
 2305      E7800000 
 2306              	.LVL272:
 105:src/../h/ConsumerProducer_CPP_API_test.hpp ****             printString("Broj proizvodjaca ne sme biti manji od velicine bafera!\n");
 2307              		.loc 2 105 9 is_stmt 1
 2308 0950 63C62403 		bgt	s2,s1,.L133
 108:src/../h/ConsumerProducer_CPP_API_test.hpp ****             printString("Broj proizvodjaca mora biti veci od nula!\n");
 2309              		.loc 2 108 16
 2310 0954 635E2003 		blez	s2,.L134
 113:src/../h/ConsumerProducer_CPP_API_test.hpp **** 
 2311              		.loc 2 113 9
 113:src/../h/ConsumerProducer_CPP_API_test.hpp **** 
 2312              		.loc 2 113 44 is_stmt 0
 2313 0958 13058003 		li	a0,56
 2314 095c 97000000 		call	_Znwm@plt
 2314      E7800000 
 2315              	.LVL273:
 2316              	.LEHE3:
 2317 0964 930A0500 		mv	s5,a0
 2318 0968 63000504 		beqz	a0,.L106
 113:src/../h/ConsumerProducer_CPP_API_test.hpp **** 
 2319              		.loc 2 113 44 discriminator 2
 2320 096c 93850400 		mv	a1,s1
 2321              	.LEHB4:
 2322 0970 97000000 		call	_ZN9BufferCPPC1Ei@plt
 2322      E7800000 
 2323              	.LVL274:
 2324              	.LEHE4:
 2325 0978 6F000003 		j	.L106
 2326              	.L133:
 106:src/../h/ConsumerProducer_CPP_API_test.hpp ****             return;
 2327              		.loc 2 106 13 is_stmt 1
 106:src/../h/ConsumerProducer_CPP_API_test.hpp ****             return;
 2328              		.loc 2 106 24 is_stmt 0
 2329 097c 17050000 		lla	a0,.LC20
 2329      13050500 
 2330              	.LEHB5:
 2331 0984 97000000 		call	_Z11printStringPKc@plt
 2331      E7800000 
 2332              	.LVL275:
 107:src/../h/ConsumerProducer_CPP_API_test.hpp ****         } else if (threadNum < 1) {
 2333              		.loc 2 107 13 is_stmt 1
 2334 098c 6F004001 		j	.L104
 2335              	.L134:
 109:src/../h/ConsumerProducer_CPP_API_test.hpp ****             return;
GAS LISTING /tmp/ccNWNlIO.s 			page 61


 2336              		.loc 2 109 13
 109:src/../h/ConsumerProducer_CPP_API_test.hpp ****             return;
 2337              		.loc 2 109 24 is_stmt 0
 2338 0990 17050000 		lla	a0,.LC21
 2338      13050500 
 2339 0998 97000000 		call	_Z11printStringPKc@plt
 2339      E7800000 
 2340              	.LVL276:
 110:src/../h/ConsumerProducer_CPP_API_test.hpp ****         }
 2341              		.loc 2 110 13 is_stmt 1
 2342              	.L104:
 2343 09a0 13810B00 		mv	sp,s7
 2344 09a4 6F00C024 		j	.L102
 2345              	.L106:
 2346              	.LVL277:
 115:src/../h/ConsumerProducer_CPP_API_test.hpp ****         Thread *producers[threadNum];
 2347              		.loc 2 115 9 discriminator 7
 115:src/../h/ConsumerProducer_CPP_API_test.hpp ****         Thread *producers[threadNum];
 2348              		.loc 2 115 37 is_stmt 0 discriminator 7
 2349 09a8 13050001 		li	a0,16
 2350 09ac 97000000 		call	_Znwm@plt
 2350      E7800000 
 2351              	.LVL278:
 2352              	.LEHE5:
 2353 09b4 93040500 		mv	s1,a0
 2354              	.LVL279:
 2355 09b8 63080500 		beqz	a0,.L107
 115:src/../h/ConsumerProducer_CPP_API_test.hpp ****         Thread *producers[threadNum];
 2356              		.loc 2 115 37 discriminator 2
 2357 09bc 93050000 		li	a1,0
 2358              	.LEHB6:
 2359 09c0 97000000 		call	_ZN9SemaphoreC1Ej@plt
 2359      E7800000 
 2360              	.LVL280:
 2361              	.LEHE6:
 2362              	.L107:
 115:src/../h/ConsumerProducer_CPP_API_test.hpp ****         Thread *producers[threadNum];
 2363              		.loc 2 115 20 discriminator 7
 2364 09c8 17070000 		lla	a4,.LANCHOR0
 2364      13070700 
 2365 09d0 23349700 		sd	s1,8(a4)
 116:src/../h/ConsumerProducer_CPP_API_test.hpp ****         thread_data threadData[threadNum + 1];
 2366              		.loc 2 116 9 is_stmt 1 discriminator 7
 2367              	.LVL281:
 116:src/../h/ConsumerProducer_CPP_API_test.hpp ****         thread_data threadData[threadNum + 1];
 2368              		.loc 2 116 17 is_stmt 0 discriminator 7
 2369 09d4 93173900 		slli	a5,s2,3
 2370 09d8 9387F700 		addi	a5,a5,15
 2371 09dc 93F707FF 		andi	a5,a5,-16
 2372 09e0 3301F140 		sub	sp,sp,a5
 2373 09e4 130A0100 		mv	s4,sp
 2374              	.LVL282:
 117:src/../h/ConsumerProducer_CPP_API_test.hpp **** 
 2375              		.loc 2 117 9 is_stmt 1 discriminator 7
 117:src/../h/ConsumerProducer_CPP_API_test.hpp **** 
 2376              		.loc 2 117 42 is_stmt 0 discriminator 7
 2377 09e8 9B061900 		addiw	a3,s2,1
GAS LISTING /tmp/ccNWNlIO.s 			page 62


 2378              	.LVL283:
 117:src/../h/ConsumerProducer_CPP_API_test.hpp **** 
 2379              		.loc 2 117 21 discriminator 7
 2380 09ec 93971600 		slli	a5,a3,1
 2381 09f0 B387D700 		add	a5,a5,a3
 2382 09f4 93973700 		slli	a5,a5,3
 2383 09f8 9387F700 		addi	a5,a5,15
 2384 09fc 93F707FF 		andi	a5,a5,-16
 2385 0a00 3301F140 		sub	sp,sp,a5
 2386              	.LVL284:
 2387 0a04 93090100 		mv	s3,sp
 2388              	.LVL285:
 119:src/../h/ConsumerProducer_CPP_API_test.hpp ****         threadData[threadNum].buffer = buffer;
 2389              		.loc 2 119 9 is_stmt 1 discriminator 7
 119:src/../h/ConsumerProducer_CPP_API_test.hpp ****         threadData[threadNum].buffer = buffer;
 2390              		.loc 2 119 34 is_stmt 0 discriminator 7
 2391 0a08 93171900 		slli	a5,s2,1
 2392 0a0c B3872701 		add	a5,a5,s2
 2393 0a10 93973700 		slli	a5,a5,3
 2394 0a14 B387F900 		add	a5,s3,a5
 2395 0a18 23A02701 		sw	s2,0(a5)
 120:src/../h/ConsumerProducer_CPP_API_test.hpp ****         threadData[threadNum].sem = waitForAll;
 2396              		.loc 2 120 9 is_stmt 1 discriminator 7
 120:src/../h/ConsumerProducer_CPP_API_test.hpp ****         threadData[threadNum].sem = waitForAll;
 2397              		.loc 2 120 38 is_stmt 0 discriminator 7
 2398 0a1c 23B45701 		sd	s5,8(a5)
 121:src/../h/ConsumerProducer_CPP_API_test.hpp ****         Thread *consumer = new Consumer(&threadData[threadNum]);
 2399              		.loc 2 121 9 is_stmt 1 discriminator 7
 121:src/../h/ConsumerProducer_CPP_API_test.hpp ****         Thread *consumer = new Consumer(&threadData[threadNum]);
 2400              		.loc 2 121 35 is_stmt 0 discriminator 7
 2401 0a20 03378700 		ld	a4,8(a4)
 2402 0a24 23B8E700 		sd	a4,16(a5)
 122:src/../h/ConsumerProducer_CPP_API_test.hpp ****         consumer->start();
 2403              		.loc 2 122 9 is_stmt 1 discriminator 7
 122:src/../h/ConsumerProducer_CPP_API_test.hpp ****         consumer->start();
 2404              		.loc 2 122 63 is_stmt 0 discriminator 7
 2405 0a28 13058001 		li	a0,24
 2406              	.LEHB7:
 2407 0a2c 97000000 		call	_Znwm@plt
 2407      E7800000 
 2408              	.LVL286:
 2409              	.LEHE7:
 2410 0a34 130B0500 		mv	s6,a0
 2411 0a38 63060502 		beqz	a0,.L108
 122:src/../h/ConsumerProducer_CPP_API_test.hpp ****         consumer->start();
 2412              		.loc 2 122 63 discriminator 2
 2413 0a3c 93141900 		slli	s1,s2,1
 2414 0a40 B3842401 		add	s1,s1,s2
 2415 0a44 93943400 		slli	s1,s1,3
 2416 0a48 B3849900 		add	s1,s3,s1
 2417              	.LVL287:
 2418              	.LEHB8:
 2419              	.LBB123:
 2420              	.LBB124:
  65:src/../h/ConsumerProducer_CPP_API_test.hpp **** 
 2421              		.loc 2 65 54 discriminator 2
 2422 0a4c 97000000 		call	_ZN6ThreadC2Ev@plt
GAS LISTING /tmp/ccNWNlIO.s 			page 63


 2422      E7800000 
 2423              	.LVL288:
 2424              	.LEHE8:
  65:src/../h/ConsumerProducer_CPP_API_test.hpp **** 
 2425              		.loc 2 65 54
 2426 0a54 97070000 		lla	a5,_ZTVN19ConsumerProducerCPP8ConsumerE+16
 2426      93870700 
 2427 0a5c 2330FB00 		sd	a5,0(s6)
 2428 0a60 23389B00 		sd	s1,16(s6)
 2429              	.LVL289:
 2430              	.L108:
 2431              	.LBE124:
 2432              	.LBE123:
 123:src/../h/ConsumerProducer_CPP_API_test.hpp **** 
 2433              		.loc 2 123 9 is_stmt 1 discriminator 7
 123:src/../h/ConsumerProducer_CPP_API_test.hpp **** 
 2434              		.loc 2 123 24 is_stmt 0 discriminator 7
 2435 0a64 13050B00 		mv	a0,s6
 2436              	.LEHB9:
 2437 0a68 97000000 		call	_ZN6Thread5startEv@plt
 2437      E7800000 
 2438              	.LVL290:
 125:src/../h/ConsumerProducer_CPP_API_test.hpp ****         threadData[0].buffer = buffer;
 2439              		.loc 2 125 9 is_stmt 1 discriminator 7
 125:src/../h/ConsumerProducer_CPP_API_test.hpp ****         threadData[0].buffer = buffer;
 2440              		.loc 2 125 26 is_stmt 0 discriminator 7
 2441 0a70 23A00900 		sw	zero,0(s3)
 126:src/../h/ConsumerProducer_CPP_API_test.hpp ****         threadData[0].sem = waitForAll;
 2442              		.loc 2 126 9 is_stmt 1 discriminator 7
 126:src/../h/ConsumerProducer_CPP_API_test.hpp ****         threadData[0].sem = waitForAll;
 2443              		.loc 2 126 30 is_stmt 0 discriminator 7
 2444 0a74 23B45901 		sd	s5,8(s3)
 127:src/../h/ConsumerProducer_CPP_API_test.hpp ****         producers[0] = new ProducerKeyborad(&threadData[0]);
 2445              		.loc 2 127 9 is_stmt 1 discriminator 7
 127:src/../h/ConsumerProducer_CPP_API_test.hpp ****         producers[0] = new ProducerKeyborad(&threadData[0]);
 2446              		.loc 2 127 27 is_stmt 0 discriminator 7
 2447 0a78 97070000 		ld	a5,.LANCHOR0+8
 2447      83B70700 
 2448 0a80 23B8F900 		sd	a5,16(s3)
 128:src/../h/ConsumerProducer_CPP_API_test.hpp ****         producers[0]->start();
 2449              		.loc 2 128 9 is_stmt 1 discriminator 7
 128:src/../h/ConsumerProducer_CPP_API_test.hpp ****         producers[0]->start();
 2450              		.loc 2 128 59 is_stmt 0 discriminator 7
 2451 0a84 13058001 		li	a0,24
 2452 0a88 97000000 		call	_Znwm@plt
 2452      E7800000 
 2453              	.LVL291:
 2454              	.LEHE9:
 2455 0a90 93040500 		mv	s1,a0
 128:src/../h/ConsumerProducer_CPP_API_test.hpp ****         producers[0]->start();
 2456              		.loc 2 128 24 discriminator 7
 2457 0a94 630E0500 		beqz	a0,.L109
 2458              	.LVL292:
 2459              	.LEHB10:
 2460              	.LBB125:
 2461              	.LBB126:
  28:src/../h/ConsumerProducer_CPP_API_test.hpp **** 
GAS LISTING /tmp/ccNWNlIO.s 			page 64


 2462              		.loc 2 28 62 discriminator 2
 2463 0a98 97000000 		call	_ZN6ThreadC2Ev@plt
 2463      E7800000 
 2464              	.LVL293:
 2465              	.LEHE10:
  28:src/../h/ConsumerProducer_CPP_API_test.hpp **** 
 2466              		.loc 2 28 62
 2467 0aa0 97070000 		lla	a5,_ZTVN19ConsumerProducerCPP16ProducerKeyboradE+16
 2467      93870700 
 2468 0aa8 23B0F400 		sd	a5,0(s1)
 2469 0aac 23B83401 		sd	s3,16(s1)
 2470              	.LVL294:
 2471              	.L109:
 2472              	.LBE126:
 2473              	.LBE125:
 128:src/../h/ConsumerProducer_CPP_API_test.hpp ****         producers[0]->start();
 2474              		.loc 2 128 22 discriminator 7
 2475 0ab0 23309A00 		sd	s1,0(s4)
 129:src/../h/ConsumerProducer_CPP_API_test.hpp **** 
 2476              		.loc 2 129 9 is_stmt 1 discriminator 7
 129:src/../h/ConsumerProducer_CPP_API_test.hpp **** 
 2477              		.loc 2 129 28 is_stmt 0 discriminator 7
 2478 0ab4 13850400 		mv	a0,s1
 2479              	.LEHB11:
 2480 0ab8 97000000 		call	_ZN6Thread5startEv@plt
 2480      E7800000 
 2481              	.LVL295:
 2482              	.LBB127:
 131:src/../h/ConsumerProducer_CPP_API_test.hpp ****             threadData[i].id = i;
 2483              		.loc 2 131 18 discriminator 7
 2484 0ac0 93041000 		li	s1,1
 2485 0ac4 6F000003 		j	.L112
 2486              	.LVL296:
 2487              	.L135:
 2488              	.LBB128:
 2489              	.LBB129:
  48:src/../h/ConsumerProducer_CPP_API_test.hpp **** 
 2490              		.loc 2 48 54
 2491 0ac8 97070000 		lla	a5,_ZTVN19ConsumerProducerCPP8ProducerE+16
 2491      93870700 
 2492 0ad0 2330FC00 		sd	a5,0(s8)
 2493 0ad4 23389C01 		sd	s9,16(s8)
 2494              	.LVL297:
 2495              	.L111:
 2496              	.LBE129:
 2497              	.LBE128:
 136:src/../h/ConsumerProducer_CPP_API_test.hpp ****             producers[i]->start();
 2498              		.loc 2 136 26 discriminator 7
 2499 0ad8 93973400 		slli	a5,s1,3
 2500 0adc B307FA00 		add	a5,s4,a5
 2501 0ae0 23B08701 		sd	s8,0(a5)
 137:src/../h/ConsumerProducer_CPP_API_test.hpp **** 
 2502              		.loc 2 137 13 is_stmt 1 discriminator 7
 137:src/../h/ConsumerProducer_CPP_API_test.hpp **** 
 2503              		.loc 2 137 32 is_stmt 0 discriminator 7
 2504 0ae4 13050C00 		mv	a0,s8
 2505 0ae8 97000000 		call	_ZN6Thread5startEv@plt
GAS LISTING /tmp/ccNWNlIO.s 			page 65


 2505      E7800000 
 2506              	.LVL298:
 131:src/../h/ConsumerProducer_CPP_API_test.hpp ****             threadData[i].id = i;
 2507              		.loc 2 131 9 is_stmt 1 discriminator 7
 2508 0af0 9B841400 		addiw	s1,s1,1
 2509              	.LVL299:
 2510              	.L112:
 131:src/../h/ConsumerProducer_CPP_API_test.hpp ****             threadData[i].id = i;
 2511              		.loc 2 131 27 discriminator 1
 2512 0af4 63DC2405 		bge	s1,s2,.L110
 132:src/../h/ConsumerProducer_CPP_API_test.hpp ****             threadData[i].buffer = buffer;
 2513              		.loc 2 132 13
 132:src/../h/ConsumerProducer_CPP_API_test.hpp ****             threadData[i].buffer = buffer;
 2514              		.loc 2 132 30 is_stmt 0
 2515 0af8 93971400 		slli	a5,s1,1
 2516 0afc B3879700 		add	a5,a5,s1
 2517 0b00 93973700 		slli	a5,a5,3
 2518 0b04 B387F900 		add	a5,s3,a5
 2519 0b08 23A09700 		sw	s1,0(a5)
 133:src/../h/ConsumerProducer_CPP_API_test.hpp ****             threadData[i].sem = waitForAll;
 2520              		.loc 2 133 13 is_stmt 1
 133:src/../h/ConsumerProducer_CPP_API_test.hpp ****             threadData[i].sem = waitForAll;
 2521              		.loc 2 133 34 is_stmt 0
 2522 0b0c 23B45701 		sd	s5,8(a5)
 134:src/../h/ConsumerProducer_CPP_API_test.hpp **** 
 2523              		.loc 2 134 13 is_stmt 1
 134:src/../h/ConsumerProducer_CPP_API_test.hpp **** 
 2524              		.loc 2 134 31 is_stmt 0
 2525 0b10 17070000 		ld	a4,.LANCHOR0+8
 2525      03370700 
 2526 0b18 23B8E700 		sd	a4,16(a5)
 136:src/../h/ConsumerProducer_CPP_API_test.hpp ****             producers[i]->start();
 2527              		.loc 2 136 13 is_stmt 1
 136:src/../h/ConsumerProducer_CPP_API_test.hpp ****             producers[i]->start();
 2528              		.loc 2 136 55 is_stmt 0
 2529 0b1c 13058001 		li	a0,24
 2530 0b20 97000000 		call	_Znwm@plt
 2530      E7800000 
 2531              	.LVL300:
 2532              	.LEHE11:
 2533 0b28 130C0500 		mv	s8,a0
 136:src/../h/ConsumerProducer_CPP_API_test.hpp ****             producers[i]->start();
 2534              		.loc 2 136 28
 2535 0b2c E30605FA 		beqz	a0,.L111
 136:src/../h/ConsumerProducer_CPP_API_test.hpp ****             producers[i]->start();
 2536              		.loc 2 136 55 discriminator 2
 2537 0b30 939C1400 		slli	s9,s1,1
 2538 0b34 B38C9C00 		add	s9,s9,s1
 2539 0b38 939C3C00 		slli	s9,s9,3
 2540 0b3c B38C9901 		add	s9,s3,s9
 2541              	.LVL301:
 2542              	.LEHB12:
 2543              	.LBB131:
 2544              	.LBB130:
  48:src/../h/ConsumerProducer_CPP_API_test.hpp **** 
 2545              		.loc 2 48 54 discriminator 2
 2546 0b40 97000000 		call	_ZN6ThreadC2Ev@plt
GAS LISTING /tmp/ccNWNlIO.s 			page 66


 2546      E7800000 
 2547              	.LVL302:
 2548              	.LEHE12:
 2549 0b48 6FF01FF8 		j	.L135
 2550              	.LVL303:
 2551              	.L110:
 2552              	.LBE130:
 2553              	.LBE131:
 2554              	.LBE127:
 141:src/../h/ConsumerProducer_CPP_API_test.hpp **** 
 2555              		.loc 2 141 9 is_stmt 1
 2556              	.LEHB13:
 141:src/../h/ConsumerProducer_CPP_API_test.hpp **** 
 2557              		.loc 2 141 25 is_stmt 0
 2558 0b4c 97000000 		call	_ZN6Thread8dispatchEv@plt
 2558      E7800000 
 2559              	.LVL304:
 2560              	.LBB132:
 143:src/../h/ConsumerProducer_CPP_API_test.hpp ****             waitForAll->wait();
 2561              		.loc 2 143 18
 2562 0b54 93040000 		li	s1,0
 2563              	.LVL305:
 2564              	.L114:
 143:src/../h/ConsumerProducer_CPP_API_test.hpp ****             waitForAll->wait();
 2565              		.loc 2 143 27 is_stmt 1 discriminator 1
 2566 0b58 634E9900 		bgt	s1,s2,.L113
 144:src/../h/ConsumerProducer_CPP_API_test.hpp ****         }
 2567              		.loc 2 144 13
 144:src/../h/ConsumerProducer_CPP_API_test.hpp ****         }
 2568              		.loc 2 144 29 is_stmt 0
 2569 0b5c 17050000 		ld	a0,.LANCHOR0+8
 2569      03350500 
 2570 0b64 97000000 		call	_ZN9Semaphore4waitEv@plt
 2570      E7800000 
 2571              	.LVL306:
 143:src/../h/ConsumerProducer_CPP_API_test.hpp ****             waitForAll->wait();
 2572              		.loc 2 143 9 is_stmt 1
 2573 0b6c 9B841400 		addiw	s1,s1,1
 2574              	.LVL307:
 2575 0b70 6FF09FFE 		j	.L114
 2576              	.LVL308:
 2577              	.L113:
 2578              	.LBE132:
 147:src/../h/ConsumerProducer_CPP_API_test.hpp ****         for (int i = 0; i < threadNum; i++) {
 2579              		.loc 2 147 9
 147:src/../h/ConsumerProducer_CPP_API_test.hpp ****         for (int i = 0; i < threadNum; i++) {
 2580              		.loc 2 147 16 is_stmt 0
 2581 0b74 17050000 		ld	a0,.LANCHOR0+8
 2581      03350500 
 147:src/../h/ConsumerProducer_CPP_API_test.hpp ****         for (int i = 0; i < threadNum; i++) {
 2582              		.loc 2 147 26
 2583 0b7c 63080500 		beqz	a0,.L115
 147:src/../h/ConsumerProducer_CPP_API_test.hpp ****         for (int i = 0; i < threadNum; i++) {
 2584              		.loc 2 147 16 discriminator 1
 2585 0b80 83370500 		ld	a5,0(a0)
 2586 0b84 83B78700 		ld	a5,8(a5)
 2587 0b88 E7800700 		jalr	a5
GAS LISTING /tmp/ccNWNlIO.s 			page 67


 2588              	.LVL309:
 2589              	.L115:
 2590              	.LBB133:
 143:src/../h/ConsumerProducer_CPP_API_test.hpp ****             waitForAll->wait();
 2591              		.loc 2 143 18 discriminator 1
 2592 0b8c 93040000 		li	s1,0
 2593              	.LVL310:
 2594 0b90 6F008000 		j	.L118
 2595              	.LVL311:
 2596              	.L117:
 2597              	.LBE133:
 2598              	.LBB134:
 148:src/../h/ConsumerProducer_CPP_API_test.hpp ****             delete producers[i];
 2599              		.loc 2 148 9 is_stmt 1 discriminator 2
 2600 0b94 9B841400 		addiw	s1,s1,1
 2601              	.LVL312:
 2602              	.L118:
 148:src/../h/ConsumerProducer_CPP_API_test.hpp ****             delete producers[i];
 2603              		.loc 2 148 27 discriminator 1
 2604 0b98 63D22403 		bge	s1,s2,.L116
 149:src/../h/ConsumerProducer_CPP_API_test.hpp ****         }
 2605              		.loc 2 149 13
 149:src/../h/ConsumerProducer_CPP_API_test.hpp ****         }
 2606              		.loc 2 149 31 is_stmt 0
 2607 0b9c 93973400 		slli	a5,s1,3
 2608 0ba0 B307FA00 		add	a5,s4,a5
 2609 0ba4 03B50700 		ld	a0,0(a5)
 149:src/../h/ConsumerProducer_CPP_API_test.hpp ****         }
 2610              		.loc 2 149 32
 2611 0ba8 E30605FE 		beqz	a0,.L117
 149:src/../h/ConsumerProducer_CPP_API_test.hpp ****         }
 2612              		.loc 2 149 31 discriminator 1
 2613 0bac 83370500 		ld	a5,0(a0)
 2614 0bb0 83B78700 		ld	a5,8(a5)
 2615 0bb4 E7800700 		jalr	a5
 2616              	.LVL313:
 2617 0bb8 6FF0DFFD 		j	.L117
 2618              	.L116:
 2619              	.LBE134:
 151:src/../h/ConsumerProducer_CPP_API_test.hpp ****         delete buffer;
 2620              		.loc 2 151 9 is_stmt 1
 151:src/../h/ConsumerProducer_CPP_API_test.hpp ****         delete buffer;
 2621              		.loc 2 151 24 is_stmt 0
 2622 0bbc 630A0B00 		beqz	s6,.L119
 151:src/../h/ConsumerProducer_CPP_API_test.hpp ****         delete buffer;
 2623              		.loc 2 151 16 discriminator 1
 2624 0bc0 83370B00 		ld	a5,0(s6)
 2625 0bc4 83B78700 		ld	a5,8(a5)
 2626 0bc8 13050B00 		mv	a0,s6
 2627 0bcc E7800700 		jalr	a5
 2628              	.LVL314:
 2629              	.L119:
 2630              		.loc 2 152 9 is_stmt 1
 2631              		.loc 2 152 22 is_stmt 0
 2632 0bd0 638E0A00 		beqz	s5,.L120
 2633              		.loc 2 152 16 discriminator 1
 2634 0bd4 13850A00 		mv	a0,s5
GAS LISTING /tmp/ccNWNlIO.s 			page 68


 2635 0bd8 97000000 		call	_ZN9BufferCPPD1Ev@plt
 2635      E7800000 
 2636              	.LVL315:
 2637 0be0 13850A00 		mv	a0,s5
 2638 0be4 97000000 		call	_ZdlPv@plt
 2638      E7800000 
 2639              	.LVL316:
 2640              	.LEHE13:
 2641              	.L120:
 2642 0bec 13810B00 		mv	sp,s7
 2643              	.LVL317:
 2644              	.L102:
 153:src/../h/ConsumerProducer_CPP_API_test.hpp ****     }
 2645              		.loc 2 153 5
 2646 0bf0 130104F8 		addi	sp,s0,-128
 2647              		.cfi_remember_state
 2648              		.cfi_def_cfa 2, 128
 2649 0bf4 83308107 		ld	ra,120(sp)
 2650              		.cfi_restore 1
 2651 0bf8 03340107 		ld	s0,112(sp)
 2652              		.cfi_restore 8
 2653 0bfc 83348106 		ld	s1,104(sp)
 2654              		.cfi_restore 9
 2655 0c00 03390106 		ld	s2,96(sp)
 2656              		.cfi_restore 18
 2657              	.LVL318:
 2658 0c04 83398105 		ld	s3,88(sp)
 2659              		.cfi_restore 19
 2660 0c08 033A0105 		ld	s4,80(sp)
 2661              		.cfi_restore 20
 2662 0c0c 833A8104 		ld	s5,72(sp)
 2663              		.cfi_restore 21
 2664 0c10 033B0104 		ld	s6,64(sp)
 2665              		.cfi_restore 22
 2666 0c14 833B8103 		ld	s7,56(sp)
 2667              		.cfi_restore 23
 2668 0c18 033C0103 		ld	s8,48(sp)
 2669              		.cfi_restore 24
 2670 0c1c 833C8102 		ld	s9,40(sp)
 2671              		.cfi_restore 25
 2672 0c20 13010108 		addi	sp,sp,128
 2673              		.cfi_def_cfa_offset 0
 2674 0c24 67800000 		jr	ra
 2675              	.LVL319:
 2676              	.L127:
 2677              		.cfi_restore_state
 2678 0c28 93040500 		mv	s1,a0
 2679              	.LVL320:
 113:src/../h/ConsumerProducer_CPP_API_test.hpp **** 
 2680              		.loc 2 113 44
 2681 0c2c 13850A00 		mv	a0,s5
 2682 0c30 97000000 		call	_ZdlPv@plt
 2682      E7800000 
 2683              	.LVL321:
 2684 0c38 13850400 		mv	a0,s1
 2685              	.LEHB14:
 2686 0c3c 97000000 		call	_Unwind_Resume@plt
GAS LISTING /tmp/ccNWNlIO.s 			page 69


 2686      E7800000 
 2687              	.LVL322:
 2688              	.LEHE14:
 2689              	.L128:
 2690 0c44 13090500 		mv	s2,a0
 2691              	.LVL323:
 115:src/../h/ConsumerProducer_CPP_API_test.hpp ****         Thread *producers[threadNum];
 2692              		.loc 2 115 37
 2693 0c48 13850400 		mv	a0,s1
 2694 0c4c 97000000 		call	_ZdlPv@plt
 2694      E7800000 
 2695              	.LVL324:
 2696 0c54 13050900 		mv	a0,s2
 2697              	.LEHB15:
 2698 0c58 97000000 		call	_Unwind_Resume@plt
 2698      E7800000 
 2699              	.LVL325:
 2700              	.LEHE15:
 2701              	.L129:
 2702 0c60 93040500 		mv	s1,a0
 2703              	.LVL326:
 122:src/../h/ConsumerProducer_CPP_API_test.hpp ****         consumer->start();
 2704              		.loc 2 122 63
 2705 0c64 13050B00 		mv	a0,s6
 2706 0c68 97000000 		call	_ZdlPv@plt
 2706      E7800000 
 2707              	.LVL327:
 2708 0c70 13850400 		mv	a0,s1
 2709              	.LEHB16:
 2710 0c74 97000000 		call	_Unwind_Resume@plt
 2710      E7800000 
 2711              	.LVL328:
 2712              	.LEHE16:
 2713              	.L130:
 2714 0c7c 13090500 		mv	s2,a0
 2715              	.LVL329:
 128:src/../h/ConsumerProducer_CPP_API_test.hpp ****         producers[0]->start();
 2716              		.loc 2 128 59
 2717 0c80 13850400 		mv	a0,s1
 2718 0c84 97000000 		call	_ZdlPv@plt
 2718      E7800000 
 2719              	.LVL330:
 2720 0c8c 13050900 		mv	a0,s2
 2721              	.LEHB17:
 2722 0c90 97000000 		call	_Unwind_Resume@plt
 2722      E7800000 
 2723              	.LVL331:
 2724              	.LEHE17:
 2725              	.L131:
 2726 0c98 93040500 		mv	s1,a0
 2727              	.LVL332:
 2728              	.LBB135:
 136:src/../h/ConsumerProducer_CPP_API_test.hpp ****             producers[i]->start();
 2729              		.loc 2 136 55
 2730 0c9c 13050C00 		mv	a0,s8
 2731 0ca0 97000000 		call	_ZdlPv@plt
 2731      E7800000 
GAS LISTING /tmp/ccNWNlIO.s 			page 70


 2732              	.LVL333:
 2733 0ca8 13850400 		mv	a0,s1
 2734              	.LEHB18:
 2735 0cac 97000000 		call	_Unwind_Resume@plt
 2735      E7800000 
 2736              	.LVL334:
 2737              	.LEHE18:
 2738              	.LBE135:
 2739              		.cfi_endproc
 2740              	.LFE58:
 2741              		.section	.gcc_except_table,"a",@progbits
 2742              	.LLSDA58:
 2743 0000 FF       		.byte	0xff
 2744 0001 FF       		.byte	0xff
 2745 0002 03       		.byte	0x3
 2746 0003 D001     		.byte	0xd0,0x1
 2747 0005 00000000 		.4byte	.LEHB3-.LFB58
 2748 0009 00000000 		.4byte	.LEHE3-.LEHB3
 2749 000d 00000000 		.4byte	0
 2750 0011 00       		.byte	0
 2751 0012 00000000 		.4byte	.LEHB4-.LFB58
 2752 0016 00000000 		.4byte	.LEHE4-.LEHB4
 2753 001a 00000000 		.4byte	.L127-.LFB58
 2754 001e 00       		.byte	0
 2755 001f 00000000 		.4byte	.LEHB5-.LFB58
 2756 0023 00000000 		.4byte	.LEHE5-.LEHB5
 2757 0027 00000000 		.4byte	0
 2758 002b 00       		.byte	0
 2759 002c 00000000 		.4byte	.LEHB6-.LFB58
 2760 0030 00000000 		.4byte	.LEHE6-.LEHB6
 2761 0034 00000000 		.4byte	.L128-.LFB58
 2762 0038 00       		.byte	0
 2763 0039 00000000 		.4byte	.LEHB7-.LFB58
 2764 003d 00000000 		.4byte	.LEHE7-.LEHB7
 2765 0041 00000000 		.4byte	0
 2766 0045 00       		.byte	0
 2767 0046 00000000 		.4byte	.LEHB8-.LFB58
 2768 004a 00000000 		.4byte	.LEHE8-.LEHB8
 2769 004e 00000000 		.4byte	.L129-.LFB58
 2770 0052 00       		.byte	0
 2771 0053 00000000 		.4byte	.LEHB9-.LFB58
 2772 0057 00000000 		.4byte	.LEHE9-.LEHB9
 2773 005b 00000000 		.4byte	0
 2774 005f 00       		.byte	0
 2775 0060 00000000 		.4byte	.LEHB10-.LFB58
 2776 0064 00000000 		.4byte	.LEHE10-.LEHB10
 2777 0068 00000000 		.4byte	.L130-.LFB58
 2778 006c 00       		.byte	0
 2779 006d 00000000 		.4byte	.LEHB11-.LFB58
 2780 0071 00000000 		.4byte	.LEHE11-.LEHB11
 2781 0075 00000000 		.4byte	0
 2782 0079 00       		.byte	0
 2783 007a 00000000 		.4byte	.LEHB12-.LFB58
 2784 007e 00000000 		.4byte	.LEHE12-.LEHB12
 2785 0082 00000000 		.4byte	.L131-.LFB58
 2786 0086 00       		.byte	0
 2787 0087 00000000 		.4byte	.LEHB13-.LFB58
GAS LISTING /tmp/ccNWNlIO.s 			page 71


 2788 008b 00000000 		.4byte	.LEHE13-.LEHB13
 2789 008f 00000000 		.4byte	0
 2790 0093 00       		.byte	0
 2791 0094 00000000 		.4byte	.LEHB14-.LFB58
 2792 0098 00000000 		.4byte	.LEHE14-.LEHB14
 2793 009c 00000000 		.4byte	0
 2794 00a0 00       		.byte	0
 2795 00a1 00000000 		.4byte	.LEHB15-.LFB58
 2796 00a5 00000000 		.4byte	.LEHE15-.LEHB15
 2797 00a9 00000000 		.4byte	0
 2798 00ad 00       		.byte	0
 2799 00ae 00000000 		.4byte	.LEHB16-.LFB58
 2800 00b2 00000000 		.4byte	.LEHE16-.LEHB16
 2801 00b6 00000000 		.4byte	0
 2802 00ba 00       		.byte	0
 2803 00bb 00000000 		.4byte	.LEHB17-.LFB58
 2804 00bf 00000000 		.4byte	.LEHE17-.LEHB17
 2805 00c3 00000000 		.4byte	0
 2806 00c7 00       		.byte	0
 2807 00c8 00000000 		.4byte	.LEHB18-.LFB58
 2808 00cc 00000000 		.4byte	.LEHE18-.LEHB18
 2809 00d0 00000000 		.4byte	0
 2810 00d4 00       		.byte	0
 2811              		.text
 2813              		.section	.rodata.str1.8
 2814 01bb 00000000 		.align	3
 2814      00
 2815              	.LC22:
 2816 01c0 55736572 		.string	"User main finished\n"
 2816      206D6169 
 2816      6E206669 
 2816      6E697368 
 2816      65640A00 
 2817              		.text
 2818              		.align	2
 2819              		.globl	_Z8userMainv
 2821              	_Z8userMainv:
 2822              	.LFB64:
 328:src/userMain.cpp ****     }
 329:src/userMain.cpp **** 
 330:src/userMain.cpp **** private:
 331:src/userMain.cpp ****     long id;
 332:src/userMain.cpp ****     bool finished;
 333:src/userMain.cpp **** };
 334:src/userMain.cpp **** 
 335:src/userMain.cpp **** 
 336:src/userMain.cpp **** void userMain() {
 2823              		.loc 1 336 17 is_stmt 1
 2824              		.cfi_startproc
 2825              		.cfi_personality 0x9b,DW.ref.__gxx_personality_v0
 2826              		.cfi_lsda 0x1b,.LLSDA64
 2827 0cb4 130101FC 		addi	sp,sp,-64
 2828              		.cfi_def_cfa_offset 64
 2829 0cb8 233C1102 		sd	ra,56(sp)
 2830 0cbc 23388102 		sd	s0,48(sp)
 2831 0cc0 23349102 		sd	s1,40(sp)
 2832              		.cfi_offset 1, -8
GAS LISTING /tmp/ccNWNlIO.s 			page 72


 2833              		.cfi_offset 8, -16
 2834              		.cfi_offset 9, -24
 2835 0cc4 13040104 		addi	s0,sp,64
 2836              		.cfi_def_cfa 8, 0
 337:src/userMain.cpp ****     ForkThread thread(1);
 2837              		.loc 1 337 5
 2838              	.LVL335:
 2839              	.LBB136:
 2840              	.LBB137:
 2841              	.LBB138:
 285:src/userMain.cpp ****     virtual void run() {
 2842              		.loc 1 285 70 is_stmt 0
 2843 0cc8 930404FC 		addi	s1,s0,-64
 2844              	.LVL336:
 2845 0ccc 13850400 		mv	a0,s1
 2846 0cd0 97000000 		call	_ZN6ThreadC2Ev@plt
 2846      E7800000 
 2847              	.LVL337:
 2848 0cd8 97070000 		lla	a5,_ZTV10ForkThread+16
 2848      93870700 
 2849 0ce0 2330F4FC 		sd	a5,-64(s0)
 2850 0ce4 93071000 		li	a5,1
 2851 0ce8 2338F4FC 		sd	a5,-48(s0)
 2852 0cec 230C04FC 		sb	zero,-40(s0)
 2853              	.LVL338:
 2854              	.LBE138:
 2855              	.LBE137:
 2856              	.LBE136:
 338:src/userMain.cpp **** 
 339:src/userMain.cpp ****     thread.start();
 2857              		.loc 1 339 5 is_stmt 1
 2858              		.loc 1 339 17 is_stmt 0
 2859 0cf0 13850400 		mv	a0,s1
 2860              	.LEHB19:
 2861 0cf4 97000000 		call	_ZN6Thread5startEv@plt
 2861      E7800000 
 2862              	.LVL339:
 2863              	.L138:
 340:src/userMain.cpp **** 
 341:src/userMain.cpp ****     while (!thread.isFinished()) {
 2864              		.loc 1 341 5 is_stmt 1
 2865              		.loc 1 341 12
 2866              	.LBB139:
 2867              	.LBB140:
 327:src/userMain.cpp ****     }
 2868              		.loc 1 327 9
 327:src/userMain.cpp ****     }
 2869              		.loc 1 327 16 is_stmt 0
 2870 0cfc 834784FD 		lbu	a5,-40(s0)
 2871              	.LVL340:
 2872              	.LBE140:
 2873              	.LBE139:
 2874              		.loc 1 341 12
 2875 0d00 63980700 		bnez	a5,.L137
 342:src/userMain.cpp ****         thread_dispatch();
 2876              		.loc 1 342 9 is_stmt 1
 2877              		.loc 1 342 24 is_stmt 0
GAS LISTING /tmp/ccNWNlIO.s 			page 73


 2878 0d04 97000000 		call	_Z15thread_dispatchv@plt
 2878      E7800000 
 2879              	.LVL341:
 2880 0d0c 6FF01FFF 		j	.L138
 2881              	.L137:
 343:src/userMain.cpp ****     }
 344:src/userMain.cpp **** 
 345:src/userMain.cpp ****     printstring("User main finished\n");
 2882              		.loc 1 345 5 is_stmt 1
 2883              		.loc 1 345 16 is_stmt 0
 2884 0d10 17050000 		lla	a0,.LC22
 2884      13050500 
 2885 0d18 97000000 		call	_Z11printstringPKc
 2885      E7800000 
 2886              	.LVL342:
 2887              	.LEHE19:
 2888              	.LBB141:
 2889              	.LBB142:
 283:src/userMain.cpp **** public:
 2890              		.loc 1 283 7
 2891 0d20 97070000 		lla	a5,_ZTV10ForkThread+16
 2891      93870700 
 2892 0d28 2330F4FC 		sd	a5,-64(s0)
 2893 0d2c 130504FC 		addi	a0,s0,-64
 2894 0d30 97000000 		call	_ZN6ThreadD2Ev@plt
 2894      E7800000 
 2895              	.LVL343:
 2896              	.LBE142:
 2897              	.LBE141:
 346:src/userMain.cpp **** }...
 2898              		.loc 1 346 1
 2899 0d38 83308103 		ld	ra,56(sp)
 2900              		.cfi_remember_state
 2901              		.cfi_restore 1
 2902 0d3c 03340103 		ld	s0,48(sp)
 2903              		.cfi_restore 8
 2904              		.cfi_def_cfa 2, 64
 2905 0d40 83348102 		ld	s1,40(sp)
 2906              		.cfi_restore 9
 2907 0d44 13010104 		addi	sp,sp,64
 2908              		.cfi_def_cfa_offset 0
 2909 0d48 67800000 		jr	ra
 2910              	.L140:
 2911              		.cfi_restore_state
 2912 0d4c 93040500 		mv	s1,a0
 2913              	.LVL344:
 2914              	.LBB143:
 2915              	.LBB144:
 283:src/userMain.cpp **** public:
 2916              		.loc 1 283 7
 2917 0d50 97070000 		lla	a5,_ZTV10ForkThread+16
 2917      93870700 
 2918 0d58 2330F4FC 		sd	a5,-64(s0)
 2919 0d5c 130504FC 		addi	a0,s0,-64
 2920              	.LVL345:
 2921 0d60 97000000 		call	_ZN6ThreadD2Ev@plt
 2921      E7800000 
GAS LISTING /tmp/ccNWNlIO.s 			page 74


 2922              	.LVL346:
 2923 0d68 13850400 		mv	a0,s1
 2924              	.LEHB20:
 2925 0d6c 97000000 		call	_Unwind_Resume@plt
 2925      E7800000 
 2926              	.LVL347:
 2927              	.LEHE20:
 2928              	.LBE144:
 2929              	.LBE143:
 2930              		.cfi_endproc
 2931              	.LFE64:
 2932              		.section	.gcc_except_table
 2933              	.LLSDA64:
 2934 00d5 FF       		.byte	0xff
 2935 00d6 FF       		.byte	0xff
 2936 00d7 03       		.byte	0x3
 2937 00d8 1A       		.byte	0x1a
 2938 00d9 00000000 		.4byte	.LEHB19-.LFB64
 2939 00dd 00000000 		.4byte	.LEHE19-.LEHB19
 2940 00e1 00000000 		.4byte	.L140-.LFB64
 2941 00e5 00       		.byte	0
 2942 00e6 00000000 		.4byte	.LEHB20-.LFB64
 2943 00ea 00000000 		.4byte	.LEHE20-.LEHB20
 2944 00ee 00000000 		.4byte	0
 2945 00f2 00       		.byte	0
 2946              		.text
 2948              		.weak	_ZTVN19ConsumerProducerCPP16ProducerKeyboradE
 2949              		.section	.data.rel.ro.local._ZTVN19ConsumerProducerCPP16ProducerKeyboradE,"awG",@progbits,_ZTVN19C
 2950              		.align	3
 2953              	_ZTVN19ConsumerProducerCPP16ProducerKeyboradE:
 2954 0000 00000000 		.dword	0
 2954      00000000 
 2955 0008 00000000 		.dword	0
 2955      00000000 
 2956 0010 00000000 		.dword	_ZN19ConsumerProducerCPP16ProducerKeyboradD1Ev
 2956      00000000 
 2957 0018 00000000 		.dword	_ZN19ConsumerProducerCPP16ProducerKeyboradD0Ev
 2957      00000000 
 2958 0020 00000000 		.dword	_ZN19ConsumerProducerCPP16ProducerKeyborad3runEv
 2958      00000000 
 2959              		.weak	_ZTVN19ConsumerProducerCPP8ProducerE
 2960              		.section	.data.rel.ro.local._ZTVN19ConsumerProducerCPP8ProducerE,"awG",@progbits,_ZTVN19ConsumerPr
 2961              		.align	3
 2964              	_ZTVN19ConsumerProducerCPP8ProducerE:
 2965 0000 00000000 		.dword	0
 2965      00000000 
 2966 0008 00000000 		.dword	0
 2966      00000000 
 2967 0010 00000000 		.dword	_ZN19ConsumerProducerCPP8ProducerD1Ev
 2967      00000000 
 2968 0018 00000000 		.dword	_ZN19ConsumerProducerCPP8ProducerD0Ev
 2968      00000000 
 2969 0020 00000000 		.dword	_ZN19ConsumerProducerCPP8Producer3runEv
 2969      00000000 
 2970              		.weak	_ZTVN19ConsumerProducerCPP8ConsumerE
 2971              		.section	.data.rel.ro.local._ZTVN19ConsumerProducerCPP8ConsumerE,"awG",@progbits,_ZTVN19ConsumerPr
 2972              		.align	3
GAS LISTING /tmp/ccNWNlIO.s 			page 75


 2975              	_ZTVN19ConsumerProducerCPP8ConsumerE:
 2976 0000 00000000 		.dword	0
 2976      00000000 
 2977 0008 00000000 		.dword	0
 2977      00000000 
 2978 0010 00000000 		.dword	_ZN19ConsumerProducerCPP8ConsumerD1Ev
 2978      00000000 
 2979 0018 00000000 		.dword	_ZN19ConsumerProducerCPP8ConsumerD0Ev
 2979      00000000 
 2980 0020 00000000 		.dword	_ZN19ConsumerProducerCPP8Consumer3runEv
 2980      00000000 
 2981              		.weak	_ZTV10ForkThread
 2982              		.section	.data.rel.ro.local._ZTV10ForkThread,"awG",@progbits,_ZTV10ForkThread,comdat
 2983              		.align	3
 2986              	_ZTV10ForkThread:
 2987 0000 00000000 		.dword	0
 2987      00000000 
 2988 0008 00000000 		.dword	0
 2988      00000000 
 2989 0010 00000000 		.dword	_ZN10ForkThreadD1Ev
 2989      00000000 
 2990 0018 00000000 		.dword	_ZN10ForkThreadD0Ev
 2990      00000000 
 2991 0020 00000000 		.dword	_ZN10ForkThread3runEv
 2991      00000000 
 2992              		.globl	_ZN19ConsumerProducerCPP9threadEndE
 2993              		.globl	_ZN19ConsumerProducerCPP10waitForAllE
 2994              		.bss
 2995              		.align	3
 2996              		.set	.LANCHOR0,. + 0
 2999              	_ZN19ConsumerProducerCPP9threadEndE:
 3000 0000 00000000 		.zero	4
 3001 0004 00000000 		.zero	4
 3004              	_ZN19ConsumerProducerCPP10waitForAllE:
 3005 0008 00000000 		.zero	8
 3005      00000000 
 3006              		.text
 3007              	.Letext0:
 3008              		.file 3 "src/../h/../lib/hw.h"
 3009              		.file 4 "src/../h/_placementNew.h"
 3010              		.file 5 "src/../h/_BuddyAllocator.h"
 3011              		.file 6 "src/../h/types.h"
 3012              		.file 7 "src/../h/_Thread.h"
 3013              		.file 8 "src/../h/syscall_cpp.h"
 3014              		.file 9 "src/../h/_slab.h"
 3015              		.file 10 "src/../h/buffer_CPP_API.hpp"
 3016              		.file 11 "src/../h/syscall_c.h"
 3017              		.file 12 "src/../h/printing.hpp"
 12474              		.align	3
 12477              	DW.ref.__gxx_personality_v0:
 12478 0000 00000000 		.dword	__gxx_personality_v0
 12478      00000000 
 12479              		.ident	"GCC: (Ubuntu 9.4.0-1ubuntu1~20.04) 9.4.0"
 12480              		.section	.note.GNU-stack,"",@progbits
GAS LISTING /tmp/ccNWNlIO.s 			page 76

